
practica3.elf:     file format elf32-littlearm

Sections:
Idx Name          Size      VMA       LMA       File off  Algn
  0 .text         0000bde4  0c000000  0c000000  00008000  2**2
                  CONTENTS, ALLOC, LOAD, READONLY, CODE
  1 .data         00001500  0c00be00  0c00be00  00013e00  2**5
                  CONTENTS, ALLOC, LOAD, DATA
  2 .rodata       00001be4  0c00d300  0c00d300  00015300  2**5
                  CONTENTS, ALLOC, LOAD, READONLY, DATA
  3 .ARM.exidx    00000008  0c00eee4  0c00eee4  00016ee4  2**2
                  CONTENTS, ALLOC, LOAD, READONLY, DATA
  4 .bss          00000120  0c00eeec  0c00eeec  00016eec  2**2
                  ALLOC
  5 .ARM.attributes 0000002e  00000000  00000000  00016eec  2**0
                  CONTENTS, READONLY
  6 .comment      0000002a  00000000  00000000  00016f1a  2**0
                  CONTENTS, READONLY
  7 .debug_info   00003673  00000000  00000000  00016f44  2**0
                  CONTENTS, READONLY, DEBUGGING
  8 .debug_line   0000255d  00000000  00000000  0001a5b7  2**0
                  CONTENTS, READONLY, DEBUGGING
  9 .debug_abbrev 00000e7c  00000000  00000000  0001cb14  2**0
                  CONTENTS, READONLY, DEBUGGING
 10 .debug_frame  00001140  00000000  00000000  0001d990  2**2
                  CONTENTS, READONLY, DEBUGGING
 11 .debug_aranges 00000200  00000000  00000000  0001ead0  2**3
                  CONTENTS, READONLY, DEBUGGING
 12 .debug_macinfo 000515fc  00000000  00000000  0001ecd0  2**0
                  CONTENTS, READONLY, DEBUGGING
 13 .debug_loc    00001448  00000000  00000000  000702cc  2**0
                  CONTENTS, READONLY, DEBUGGING
 14 .debug_pubnames 00000958  00000000  00000000  00071714  2**0
                  CONTENTS, READONLY, DEBUGGING
 15 .debug_pubtypes 0000022f  00000000  00000000  0007206c  2**0
                  CONTENTS, READONLY, DEBUGGING
 16 .debug_str    00001249  00000000  00000000  0007229b  2**0
                  CONTENTS, READONLY, DEBUGGING

Disassembly of section .text:

0c000000 <ENTRY>:
    .extern Main			/* The main entry of mon program */
    
    .text

    ENTRY:
    b ResetHandler			/* for debug            */
 c000000:	ea00010a 	b	c000430 <ResetHandler>
    b HandlerUndef      	/* handlerUndef         */
 c000004:	ea000042 	b	c000114 <HandlerUndef>
    b HandlerSWI        	/* SWI interrupt handler*/
 c000008:	ea000047 	b	c00012c <HandlerSWI>
    b HandlerPabort     	/* handlerPAbort        */
 c00000c:	ea000052 	b	c00015c <HandlerPabort>
    b HandlerDabort     	/* handlerDAbort        */
 c000010:	ea00004b 	b	c000144 <HandlerDabort>
    b .                 	/* handlerReserved      */
 c000014:	eafffffe 	b	c000014 <ENTRY+0x14>
    b HandlerIRQ
 c000018:	ea000037 	b	c0000fc <HandlerIRQ>
    b HandlerFIQ
 c00001c:	ea000030 	b	c0000e4 <HandlerFIQ>

0c000020 <VECTOR_BRANCH>:
	#be changed like below, to work-around with H/W bug of S3C44B0X interrupt controller. 
	# b HandlerIRQ  ->  subs pc,lr,#4
	# b HandlerIRQ  ->  subs pc,lr,#4

VECTOR_BRANCH:
    ldr pc,=HandlerEINT0    /*mGA    H/W interrupt vector table  */
 c000020:	e59ff56c 	ldr	pc, [pc, #1388]	; c000594 <U0+0x14>
    ldr pc,=HandlerEINT1    /*	                                 */	
 c000024:	e59ff56c 	ldr	pc, [pc, #1388]	; c000598 <U0+0x18>
    ldr pc,=HandlerEINT2    /*                                   */  
 c000028:	e59ff56c 	ldr	pc, [pc, #1388]	; c00059c <U0+0x1c>
    ldr pc,=HandlerEINT3    /*                                   */  
 c00002c:	e59ff56c 	ldr	pc, [pc, #1388]	; c0005a0 <U0+0x20>
    ldr pc,=HandlerEINT4567 /*                                   */  
 c000030:	e59ff56c 	ldr	pc, [pc, #1388]	; c0005a4 <U0+0x24>
    ldr pc,=HandlerTICK	    /*mGA                                */   
 c000034:	e59ff56c 	ldr	pc, [pc, #1388]	; c0005a8 <U0+0x28>
    b .                                                          
 c000038:	eafffffe 	b	c000038 <VECTOR_BRANCH+0x18>
    b .                                                         
 c00003c:	eafffffe 	b	c00003c <VECTOR_BRANCH+0x1c>
    ldr pc,=HandlerZDMA0    /*mGB                                */  
 c000040:	e59ff564 	ldr	pc, [pc, #1380]	; c0005ac <U0+0x2c>
    ldr pc,=HandlerZDMA1    /*                                   */  
 c000044:	e59ff564 	ldr	pc, [pc, #1380]	; c0005b0 <U0+0x30>
    ldr pc,=HandlerBDMA0    /*                                   */  
 c000048:	e59ff564 	ldr	pc, [pc, #1380]	; c0005b4 <U0+0x34>
    ldr pc,=HandlerBDMA1    /*                                   */  
 c00004c:	e59ff564 	ldr	pc, [pc, #1380]	; c0005b8 <U0+0x38>
    ldr pc,=HandlerWDT	    /*                                   */   
 c000050:	e59ff564 	ldr	pc, [pc, #1380]	; c0005bc <U0+0x3c>
    ldr pc,=HandlerUERR01   /*mGB                                */  
 c000054:	e59ff564 	ldr	pc, [pc, #1380]	; c0005c0 <U0+0x40>
    b .                                                          
 c000058:	eafffffe 	b	c000058 <VECTOR_BRANCH+0x38>
    b .                                                          
 c00005c:	eafffffe 	b	c00005c <VECTOR_BRANCH+0x3c>
    ldr pc,=HandlerTIMER0   /*mGC                                */  
 c000060:	e59ff55c 	ldr	pc, [pc, #1372]	; c0005c4 <U0+0x44>
    ldr pc,=HandlerTIMER1   /*                                   */  
 c000064:	e59ff55c 	ldr	pc, [pc, #1372]	; c0005c8 <U0+0x48>
    ldr pc,=HandlerTIMER2   /*                                   */  
 c000068:	e59ff55c 	ldr	pc, [pc, #1372]	; c0005cc <U0+0x4c>
    ldr pc,=HandlerTIMER3   /*                                   */  
 c00006c:	e59ff55c 	ldr	pc, [pc, #1372]	; c0005d0 <U0+0x50>
    ldr pc,=HandlerTIMER4   /*                                   */  
 c000070:	e59ff55c 	ldr	pc, [pc, #1372]	; c0005d4 <U0+0x54>
    ldr pc,=HandlerTIMER5   /*mGC                                */  
 c000074:	e59ff55c 	ldr	pc, [pc, #1372]	; c0005d8 <U0+0x58>
    b .                                                          
 c000078:	eafffffe 	b	c000078 <VECTOR_BRANCH+0x58>
    b .                                                          
 c00007c:	eafffffe 	b	c00007c <VECTOR_BRANCH+0x5c>
    ldr pc,=HandlerURXD0    /*mGD                                */  
 c000080:	e59ff554 	ldr	pc, [pc, #1364]	; c0005dc <U0+0x5c>
    ldr pc,=HandlerURXD1    /*                                   */  
 c000084:	e59ff554 	ldr	pc, [pc, #1364]	; c0005e0 <U0+0x60>
    ldr pc,=HandlerIIC	    /*                                   */   
 c000088:	e59ff554 	ldr	pc, [pc, #1364]	; c0005e4 <U0+0x64>
    ldr pc,=HandlerSIO	    /*                                   */   
 c00008c:	e59ff554 	ldr	pc, [pc, #1364]	; c0005e8 <U0+0x68>
    ldr pc,=HandlerUTXD0    /*                                   */  
 c000090:	e59ff554 	ldr	pc, [pc, #1364]	; c0005ec <U0+0x6c>
    ldr pc,=HandlerUTXD1    /*mGD                                */  
 c000094:	e59ff554 	ldr	pc, [pc, #1364]	; c0005f0 <U0+0x70>
    b .                                                          
 c000098:	eafffffe 	b	c000098 <VECTOR_BRANCH+0x78>
    b .                                                          
 c00009c:	eafffffe 	b	c00009c <VECTOR_BRANCH+0x7c>
    ldr pc,=HandlerRTC	    /*mGKA                               */   
 c0000a0:	e59ff54c 	ldr	pc, [pc, #1356]	; c0005f4 <U0+0x74>
    b .					    /*                     		         */
 c0000a4:	eafffffe 	b	c0000a4 <VECTOR_BRANCH+0x84>
    b .					    /*                     		         */
 c0000a8:	eafffffe 	b	c0000a8 <VECTOR_BRANCH+0x88>
    b .					    /*                     		         */
 c0000ac:	eafffffe 	b	c0000ac <VECTOR_BRANCH+0x8c>
    b .					    /*                     		         */
 c0000b0:	eafffffe 	b	c0000b0 <VECTOR_BRANCH+0x90>
    b .					    /*mGKA                 			     */
 c0000b4:	eafffffe 	b	c0000b4 <VECTOR_BRANCH+0x94>
    b .                                                          
 c0000b8:	eafffffe 	b	c0000b8 <VECTOR_BRANCH+0x98>
    b .                                                          
 c0000bc:	eafffffe 	b	c0000bc <VECTOR_BRANCH+0x9c>
    ldr pc,=HandlerADC	    /*mGKB                               */  
 c0000c0:	e59ff530 	ldr	pc, [pc, #1328]	; c0005f8 <U0+0x78>
    b .					    /*                     		         */
 c0000c4:	eafffffe 	b	c0000c4 <VECTOR_BRANCH+0xa4>
    b .					    /*                     		         */
 c0000c8:	eafffffe 	b	c0000c8 <VECTOR_BRANCH+0xa8>
    b .					    /*                     		         */
 c0000cc:	eafffffe 	b	c0000cc <VECTOR_BRANCH+0xac>
    b .					    /*                     		         */
 c0000d0:	eafffffe 	b	c0000d0 <VECTOR_BRANCH+0xb0>
    b .					    /*mGKB                 		         */
 c0000d4:	eafffffe 	b	c0000d4 <VECTOR_BRANCH+0xb4>
    b .                                                          
 c0000d8:	eafffffe 	b	c0000d8 <VECTOR_BRANCH+0xb8>
    b .                                                          
 c0000dc:	eafffffe 	b	c0000dc <VECTOR_BRANCH+0xbc>
@0xe0=EnterPWDN                                                 
    ldr pc,=EnterPWDN
 c0000e0:	e59ff514 	ldr	pc, [pc, #1300]	; c0005fc <U0+0x7c>

0c0000e4 <HandlerFIQ>:
               to be dumped into the current section\ 
               (which is assumed to be the .text section)\ 
               at the current location (aligned to a word boundary).*/
   .align

HandlerFIQ:		HANDLER HandleFIQ
 c0000e4:	e24dd004 	sub	sp, sp, #4
 c0000e8:	e52d0004 	push	{r0}		; (str r0, [sp, #-4]!)
 c0000ec:	e59f050c 	ldr	r0, [pc, #1292]	; c000600 <U0+0x80>
 c0000f0:	e5900000 	ldr	r0, [r0]
 c0000f4:	e58d0004 	str	r0, [sp, #4]
 c0000f8:	e8bd8001 	pop	{r0, pc}

0c0000fc <HandlerIRQ>:
HandlerIRQ:		HANDLER HandleIRQ
 c0000fc:	e24dd004 	sub	sp, sp, #4
 c000100:	e52d0004 	push	{r0}		; (str r0, [sp, #-4]!)
 c000104:	e59f04f8 	ldr	r0, [pc, #1272]	; c000604 <U0+0x84>
 c000108:	e5900000 	ldr	r0, [r0]
 c00010c:	e58d0004 	str	r0, [sp, #4]
 c000110:	e8bd8001 	pop	{r0, pc}

0c000114 <HandlerUndef>:
HandlerUndef:	HANDLER HandleUndef
 c000114:	e24dd004 	sub	sp, sp, #4
 c000118:	e52d0004 	push	{r0}		; (str r0, [sp, #-4]!)
 c00011c:	e59f04e4 	ldr	r0, [pc, #1252]	; c000608 <U0+0x88>
 c000120:	e5900000 	ldr	r0, [r0]
 c000124:	e58d0004 	str	r0, [sp, #4]
 c000128:	e8bd8001 	pop	{r0, pc}

0c00012c <HandlerSWI>:
HandlerSWI:		HANDLER HandleSWI
 c00012c:	e24dd004 	sub	sp, sp, #4
 c000130:	e52d0004 	push	{r0}		; (str r0, [sp, #-4]!)
 c000134:	e59f04d0 	ldr	r0, [pc, #1232]	; c00060c <U0+0x8c>
 c000138:	e5900000 	ldr	r0, [r0]
 c00013c:	e58d0004 	str	r0, [sp, #4]
 c000140:	e8bd8001 	pop	{r0, pc}

0c000144 <HandlerDabort>:
HandlerDabort:	HANDLER HandleDabort
 c000144:	e24dd004 	sub	sp, sp, #4
 c000148:	e52d0004 	push	{r0}		; (str r0, [sp, #-4]!)
 c00014c:	e59f04bc 	ldr	r0, [pc, #1212]	; c000610 <U0+0x90>
 c000150:	e5900000 	ldr	r0, [r0]
 c000154:	e58d0004 	str	r0, [sp, #4]
 c000158:	e8bd8001 	pop	{r0, pc}

0c00015c <HandlerPabort>:
HandlerPabort:	HANDLER HandlePabort
 c00015c:	e24dd004 	sub	sp, sp, #4
 c000160:	e52d0004 	push	{r0}		; (str r0, [sp, #-4]!)
 c000164:	e59f04a8 	ldr	r0, [pc, #1192]	; c000614 <U0+0x94>
 c000168:	e5900000 	ldr	r0, [r0]
 c00016c:	e58d0004 	str	r0, [sp, #4]
 c000170:	e8bd8001 	pop	{r0, pc}

0c000174 <HandlerADC>:
HandlerADC:		HANDLER HandleADC
 c000174:	e24dd004 	sub	sp, sp, #4
 c000178:	e52d0004 	push	{r0}		; (str r0, [sp, #-4]!)
 c00017c:	e59f0494 	ldr	r0, [pc, #1172]	; c000618 <U0+0x98>
 c000180:	e5900000 	ldr	r0, [r0]
 c000184:	e58d0004 	str	r0, [sp, #4]
 c000188:	e8bd8001 	pop	{r0, pc}

0c00018c <HandlerRTC>:
HandlerRTC:		HANDLER HandleRTC
 c00018c:	e24dd004 	sub	sp, sp, #4
 c000190:	e52d0004 	push	{r0}		; (str r0, [sp, #-4]!)
 c000194:	e59f0480 	ldr	r0, [pc, #1152]	; c00061c <U0+0x9c>
 c000198:	e5900000 	ldr	r0, [r0]
 c00019c:	e58d0004 	str	r0, [sp, #4]
 c0001a0:	e8bd8001 	pop	{r0, pc}

0c0001a4 <HandlerUTXD1>:
HandlerUTXD1:	HANDLER HandleUTXD1
 c0001a4:	e24dd004 	sub	sp, sp, #4
 c0001a8:	e52d0004 	push	{r0}		; (str r0, [sp, #-4]!)
 c0001ac:	e59f046c 	ldr	r0, [pc, #1132]	; c000620 <U0+0xa0>
 c0001b0:	e5900000 	ldr	r0, [r0]
 c0001b4:	e58d0004 	str	r0, [sp, #4]
 c0001b8:	e8bd8001 	pop	{r0, pc}

0c0001bc <HandlerUTXD0>:
HandlerUTXD0:	HANDLER HandleUTXD0
 c0001bc:	e24dd004 	sub	sp, sp, #4
 c0001c0:	e52d0004 	push	{r0}		; (str r0, [sp, #-4]!)
 c0001c4:	e59f0458 	ldr	r0, [pc, #1112]	; c000624 <U0+0xa4>
 c0001c8:	e5900000 	ldr	r0, [r0]
 c0001cc:	e58d0004 	str	r0, [sp, #4]
 c0001d0:	e8bd8001 	pop	{r0, pc}

0c0001d4 <HandlerSIO>:
HandlerSIO:		HANDLER HandleSIO
 c0001d4:	e24dd004 	sub	sp, sp, #4
 c0001d8:	e52d0004 	push	{r0}		; (str r0, [sp, #-4]!)
 c0001dc:	e59f0444 	ldr	r0, [pc, #1092]	; c000628 <U0+0xa8>
 c0001e0:	e5900000 	ldr	r0, [r0]
 c0001e4:	e58d0004 	str	r0, [sp, #4]
 c0001e8:	e8bd8001 	pop	{r0, pc}

0c0001ec <HandlerIIC>:
HandlerIIC:		HANDLER HandleIIC
 c0001ec:	e24dd004 	sub	sp, sp, #4
 c0001f0:	e52d0004 	push	{r0}		; (str r0, [sp, #-4]!)
 c0001f4:	e59f0430 	ldr	r0, [pc, #1072]	; c00062c <U0+0xac>
 c0001f8:	e5900000 	ldr	r0, [r0]
 c0001fc:	e58d0004 	str	r0, [sp, #4]
 c000200:	e8bd8001 	pop	{r0, pc}

0c000204 <HandlerURXD1>:
HandlerURXD1:	HANDLER HandleURXD1
 c000204:	e24dd004 	sub	sp, sp, #4
 c000208:	e52d0004 	push	{r0}		; (str r0, [sp, #-4]!)
 c00020c:	e59f041c 	ldr	r0, [pc, #1052]	; c000630 <U0+0xb0>
 c000210:	e5900000 	ldr	r0, [r0]
 c000214:	e58d0004 	str	r0, [sp, #4]
 c000218:	e8bd8001 	pop	{r0, pc}

0c00021c <HandlerURXD0>:
HandlerURXD0:	HANDLER HandleURXD0
 c00021c:	e24dd004 	sub	sp, sp, #4
 c000220:	e52d0004 	push	{r0}		; (str r0, [sp, #-4]!)
 c000224:	e59f0408 	ldr	r0, [pc, #1032]	; c000634 <U0+0xb4>
 c000228:	e5900000 	ldr	r0, [r0]
 c00022c:	e58d0004 	str	r0, [sp, #4]
 c000230:	e8bd8001 	pop	{r0, pc}

0c000234 <HandlerTIMER5>:
HandlerTIMER5:	HANDLER HandleTIMER5
 c000234:	e24dd004 	sub	sp, sp, #4
 c000238:	e52d0004 	push	{r0}		; (str r0, [sp, #-4]!)
 c00023c:	e59f03f4 	ldr	r0, [pc, #1012]	; c000638 <U0+0xb8>
 c000240:	e5900000 	ldr	r0, [r0]
 c000244:	e58d0004 	str	r0, [sp, #4]
 c000248:	e8bd8001 	pop	{r0, pc}

0c00024c <HandlerTIMER4>:
HandlerTIMER4:	HANDLER HandleTIMER4
 c00024c:	e24dd004 	sub	sp, sp, #4
 c000250:	e52d0004 	push	{r0}		; (str r0, [sp, #-4]!)
 c000254:	e59f03e0 	ldr	r0, [pc, #992]	; c00063c <U0+0xbc>
 c000258:	e5900000 	ldr	r0, [r0]
 c00025c:	e58d0004 	str	r0, [sp, #4]
 c000260:	e8bd8001 	pop	{r0, pc}

0c000264 <HandlerTIMER3>:
HandlerTIMER3:	HANDLER HandleTIMER3
 c000264:	e24dd004 	sub	sp, sp, #4
 c000268:	e52d0004 	push	{r0}		; (str r0, [sp, #-4]!)
 c00026c:	e59f03cc 	ldr	r0, [pc, #972]	; c000640 <U0+0xc0>
 c000270:	e5900000 	ldr	r0, [r0]
 c000274:	e58d0004 	str	r0, [sp, #4]
 c000278:	e8bd8001 	pop	{r0, pc}

0c00027c <HandlerTIMER2>:
HandlerTIMER2:	HANDLER HandleTIMER2
 c00027c:	e24dd004 	sub	sp, sp, #4
 c000280:	e52d0004 	push	{r0}		; (str r0, [sp, #-4]!)
 c000284:	e59f03b8 	ldr	r0, [pc, #952]	; c000644 <U0+0xc4>
 c000288:	e5900000 	ldr	r0, [r0]
 c00028c:	e58d0004 	str	r0, [sp, #4]
 c000290:	e8bd8001 	pop	{r0, pc}

0c000294 <HandlerTIMER1>:
HandlerTIMER1:	HANDLER HandleTIMER1
 c000294:	e24dd004 	sub	sp, sp, #4
 c000298:	e52d0004 	push	{r0}		; (str r0, [sp, #-4]!)
 c00029c:	e59f03a4 	ldr	r0, [pc, #932]	; c000648 <U0+0xc8>
 c0002a0:	e5900000 	ldr	r0, [r0]
 c0002a4:	e58d0004 	str	r0, [sp, #4]
 c0002a8:	e8bd8001 	pop	{r0, pc}

0c0002ac <HandlerTIMER0>:
HandlerTIMER0:	HANDLER HandleTIMER0
 c0002ac:	e24dd004 	sub	sp, sp, #4
 c0002b0:	e52d0004 	push	{r0}		; (str r0, [sp, #-4]!)
 c0002b4:	e59f0390 	ldr	r0, [pc, #912]	; c00064c <U0+0xcc>
 c0002b8:	e5900000 	ldr	r0, [r0]
 c0002bc:	e58d0004 	str	r0, [sp, #4]
 c0002c0:	e8bd8001 	pop	{r0, pc}

0c0002c4 <HandlerUERR01>:
HandlerUERR01:	HANDLER HandleUERR01
 c0002c4:	e24dd004 	sub	sp, sp, #4
 c0002c8:	e52d0004 	push	{r0}		; (str r0, [sp, #-4]!)
 c0002cc:	e59f037c 	ldr	r0, [pc, #892]	; c000650 <U0+0xd0>
 c0002d0:	e5900000 	ldr	r0, [r0]
 c0002d4:	e58d0004 	str	r0, [sp, #4]
 c0002d8:	e8bd8001 	pop	{r0, pc}

0c0002dc <HandlerWDT>:
HandlerWDT:		HANDLER HandleWDT
 c0002dc:	e24dd004 	sub	sp, sp, #4
 c0002e0:	e52d0004 	push	{r0}		; (str r0, [sp, #-4]!)
 c0002e4:	e59f0368 	ldr	r0, [pc, #872]	; c000654 <U0+0xd4>
 c0002e8:	e5900000 	ldr	r0, [r0]
 c0002ec:	e58d0004 	str	r0, [sp, #4]
 c0002f0:	e8bd8001 	pop	{r0, pc}

0c0002f4 <HandlerBDMA1>:
HandlerBDMA1:	HANDLER HandleBDMA1
 c0002f4:	e24dd004 	sub	sp, sp, #4
 c0002f8:	e52d0004 	push	{r0}		; (str r0, [sp, #-4]!)
 c0002fc:	e59f0354 	ldr	r0, [pc, #852]	; c000658 <U0+0xd8>
 c000300:	e5900000 	ldr	r0, [r0]
 c000304:	e58d0004 	str	r0, [sp, #4]
 c000308:	e8bd8001 	pop	{r0, pc}

0c00030c <HandlerBDMA0>:
HandlerBDMA0:	HANDLER HandleBDMA0
 c00030c:	e24dd004 	sub	sp, sp, #4
 c000310:	e52d0004 	push	{r0}		; (str r0, [sp, #-4]!)
 c000314:	e59f0340 	ldr	r0, [pc, #832]	; c00065c <U0+0xdc>
 c000318:	e5900000 	ldr	r0, [r0]
 c00031c:	e58d0004 	str	r0, [sp, #4]
 c000320:	e8bd8001 	pop	{r0, pc}

0c000324 <HandlerZDMA1>:
HandlerZDMA1:	HANDLER HandleZDMA1
 c000324:	e24dd004 	sub	sp, sp, #4
 c000328:	e52d0004 	push	{r0}		; (str r0, [sp, #-4]!)
 c00032c:	e59f032c 	ldr	r0, [pc, #812]	; c000660 <U0+0xe0>
 c000330:	e5900000 	ldr	r0, [r0]
 c000334:	e58d0004 	str	r0, [sp, #4]
 c000338:	e8bd8001 	pop	{r0, pc}

0c00033c <HandlerZDMA0>:
HandlerZDMA0:	HANDLER HandleZDMA0
 c00033c:	e24dd004 	sub	sp, sp, #4
 c000340:	e52d0004 	push	{r0}		; (str r0, [sp, #-4]!)
 c000344:	e59f0318 	ldr	r0, [pc, #792]	; c000664 <U0+0xe4>
 c000348:	e5900000 	ldr	r0, [r0]
 c00034c:	e58d0004 	str	r0, [sp, #4]
 c000350:	e8bd8001 	pop	{r0, pc}

0c000354 <HandlerTICK>:
HandlerTICK:	HANDLER HandleTICK
 c000354:	e24dd004 	sub	sp, sp, #4
 c000358:	e52d0004 	push	{r0}		; (str r0, [sp, #-4]!)
 c00035c:	e59f0304 	ldr	r0, [pc, #772]	; c000668 <U0+0xe8>
 c000360:	e5900000 	ldr	r0, [r0]
 c000364:	e58d0004 	str	r0, [sp, #4]
 c000368:	e8bd8001 	pop	{r0, pc}

0c00036c <HandlerEINT4567>:
HandlerEINT4567:HANDLER HandleEINT4567
 c00036c:	e24dd004 	sub	sp, sp, #4
 c000370:	e52d0004 	push	{r0}		; (str r0, [sp, #-4]!)
 c000374:	e59f02f0 	ldr	r0, [pc, #752]	; c00066c <U0+0xec>
 c000378:	e5900000 	ldr	r0, [r0]
 c00037c:	e58d0004 	str	r0, [sp, #4]
 c000380:	e8bd8001 	pop	{r0, pc}

0c000384 <HandlerEINT3>:
HandlerEINT3:	HANDLER HandleEINT3
 c000384:	e24dd004 	sub	sp, sp, #4
 c000388:	e52d0004 	push	{r0}		; (str r0, [sp, #-4]!)
 c00038c:	e59f02dc 	ldr	r0, [pc, #732]	; c000670 <U0+0xf0>
 c000390:	e5900000 	ldr	r0, [r0]
 c000394:	e58d0004 	str	r0, [sp, #4]
 c000398:	e8bd8001 	pop	{r0, pc}

0c00039c <HandlerEINT2>:
HandlerEINT2:	HANDLER HandleEINT2
 c00039c:	e24dd004 	sub	sp, sp, #4
 c0003a0:	e52d0004 	push	{r0}		; (str r0, [sp, #-4]!)
 c0003a4:	e59f02c8 	ldr	r0, [pc, #712]	; c000674 <U0+0xf4>
 c0003a8:	e5900000 	ldr	r0, [r0]
 c0003ac:	e58d0004 	str	r0, [sp, #4]
 c0003b0:	e8bd8001 	pop	{r0, pc}

0c0003b4 <HandlerEINT1>:
HandlerEINT1:	HANDLER HandleEINT1
 c0003b4:	e24dd004 	sub	sp, sp, #4
 c0003b8:	e52d0004 	push	{r0}		; (str r0, [sp, #-4]!)
 c0003bc:	e59f02b4 	ldr	r0, [pc, #692]	; c000678 <U0+0xf8>
 c0003c0:	e5900000 	ldr	r0, [r0]
 c0003c4:	e58d0004 	str	r0, [sp, #4]
 c0003c8:	e8bd8001 	pop	{r0, pc}

0c0003cc <HandlerEINT0>:
HandlerEINT0:	HANDLER HandleEINT0
 c0003cc:	e24dd004 	sub	sp, sp, #4
 c0003d0:	e52d0004 	push	{r0}		; (str r0, [sp, #-4]!)
 c0003d4:	e59f02a0 	ldr	r0, [pc, #672]	; c00067c <U0+0xfc>
 c0003d8:	e5900000 	ldr	r0, [r0]
 c0003dc:	e58d0004 	str	r0, [sp, #4]
 c0003e0:	e8bd8001 	pop	{r0, pc}

0c0003e4 <IsrIRQ>:

#One of the following two routines can be used for non-vectored interrupt.

IsrIRQ:						/* using I_ISPR register. */
    sub	    sp,sp,#4       	/* reserved for PC	  */
 c0003e4:	e24dd004 	sub	sp, sp, #4
    stmfd   sp!,{r8-r9}   
 c0003e8:	e92d0300 	push	{r8, r9}

#IMPORTANT CAUTION
# when I_ISPC isn't used properly, I_ISPR can be 0 in this routine.

    ldr	    r9,=I_ISPR
 c0003ec:	e59f928c 	ldr	r9, [pc, #652]	; c000680 <U0+0x100>
    ldr	    r9,[r9]
 c0003f0:	e5999000 	ldr	r9, [r9]

	cmp		r9, #0x0		/* If the IDLE mode work-around is used, 	*/
 c0003f4:	e3590000 	cmp	r9, #0
							/* r9 may be 0 sometimes.			*/
	beq		l2
 c0003f8:	0a000009 	beq	c000424 <l2>

    mov	    r8,#0x0
 c0003fc:	e3a08000 	mov	r8, #0

0c000400 <l0>:
l0:
    movs    r9,r9,lsr #1
 c000400:	e1b090a9 	lsrs	r9, r9, #1
    bcs	    l1
 c000404:	2a000001 	bcs	c000410 <l1>
    add	    r8,r8,#4
 c000408:	e2888004 	add	r8, r8, #4
    b	    l0
 c00040c:	eafffffb 	b	c000400 <l0>

0c000410 <l1>:

l1:
    ldr	    r9,=HandleADC
 c000410:	e59f9200 	ldr	r9, [pc, #512]	; c000618 <U0+0x98>
    add	    r9,r9,r8
 c000414:	e0899008 	add	r9, r9, r8
    ldr	    r9,[r9]
 c000418:	e5999000 	ldr	r9, [r9]
    str	    r9,[sp,#8]
 c00041c:	e58d9008 	str	r9, [sp, #8]
    ldmfd   sp!,{r8-r9,pc}
 c000420:	e8bd8300 	pop	{r8, r9, pc}

0c000424 <l2>:

l2:
	ldmfd	sp!,{r8-r9}
 c000424:	e8bd0300 	pop	{r8, r9}
	add		sp,sp,#4
 c000428:	e28dd004 	add	sp, sp, #4
	subs	pc,lr,#4
 c00042c:	e25ef004 	subs	pc, lr, #4

0c000430 <ResetHandler>:

#****************************************************
#*	START											*
#****************************************************
ResetHandler:
    ldr	    r0,=WTCON	    	/* watch dog disable*/
 c000430:	e59f024c 	ldr	r0, [pc, #588]	; c000684 <U0+0x104>
    ldr	    r1,=0x0 		
 c000434:	e3a01000 	mov	r1, #0
    str	    r1,[r0]
 c000438:	e5801000 	str	r1, [r0]

    ldr	    r0,=INTMSK
 c00043c:	e59f0244 	ldr	r0, [pc, #580]	; c000688 <U0+0x108>
    ldr	    r1,=0x07ffffff  	/* all interrupt disable */
 c000440:	e3e0133e 	mvn	r1, #-134217728	; 0xf8000000
    str	    r1,[r0]
 c000444:	e5801000 	str	r1, [r0]

    #****************************************************
    #*	Set clock control registers						*
    #****************************************************
    ldr		r0,=LOCKTIME
 c000448:	e59f023c 	ldr	r0, [pc, #572]	; c00068c <U0+0x10c>
    ldr		r1,=0xfff
 c00044c:	e59f123c 	ldr	r1, [pc, #572]	; c000690 <U0+0x110>
    str		r1,[r0]
 c000450:	e5801000 	str	r1, [r0]

.if PLLONSTART
	ldr		r0,=PLLCON			/* temporary setting of PLL */
 c000454:	e3a00776 	mov	r0, #30932992	; 0x1d80000
	ldr		r1,=((M_DIV<<12)+(P_DIV<<4)+S_DIV)	/* Fin=8MHz,Fout=64MHz     */
 c000458:	e59f1234 	ldr	r1, [pc, #564]	; c000694 <U0+0x114>
	str		r1,[r0]
 c00045c:	e5801000 	str	r1, [r0]
.endif

    ldr	    r0,=CLKCON		
 c000460:	e59f0230 	ldr	r0, [pc, #560]	; c000698 <U0+0x118>
    ldr	    r1,=0x7ff8	    	/* All unit block CLK enable */
 c000464:	e59f1230 	ldr	r1, [pc, #560]	; c00069c <U0+0x11c>
    str	    r1,[r0]
 c000468:	e5801000 	str	r1, [r0]

    #****************************************
    #*  change BDMACON reset value for BDMA *   
    #****************************************
    ldr     r0,=BDIDES0      
 c00046c:	e59f022c 	ldr	r0, [pc, #556]	; c0006a0 <U0+0x120>
    ldr     r1,=0x40000000   	/* BDIDESn reset value should be 0x40000000 */
 c000470:	e3a01101 	mov	r1, #1073741824	; 0x40000000
    str     r1,[r0]
 c000474:	e5801000 	str	r1, [r0]

    ldr     r0,=BDIDES1      
 c000478:	e59f0224 	ldr	r0, [pc, #548]	; c0006a4 <U0+0x124>
    ldr     r1,=0x40000000   	/* BDIDESn reset value should be 0x40000000 */	 
 c00047c:	e3a01101 	mov	r1, #1073741824	; 0x40000000
    str     r1,[r0]
 c000480:	e5801000 	str	r1, [r0]

    #****************************************************
    #*	Set memory control registers					* 	
    #****************************************************
    ldr	    r0,=SMRDATA
 c000484:	e59f021c 	ldr	r0, [pc, #540]	; c0006a8 <U0+0x128>
    ldmia   r0,{r1-r13}
 c000488:	e8903ffe 	ldm	r0, {r1, r2, r3, r4, r5, r6, r7, r8, r9, sl, fp, ip, sp}
    ldr	    r0,=0x01c80000  	/* BWSCON Address */
 c00048c:	e3a00772 	mov	r0, #29884416	; 0x1c80000
    stmia   r0,{r1-r13}
 c000490:	e8803ffe 	stm	r0, {r1, r2, r3, r4, r5, r6, r7, r8, r9, sl, fp, ip, sp}

    #;****************************************************
    #;*	Initialize stacks								* 
    #;****************************************************
    ldr	    sp, =SVCStack		/* Why	*/		
 c000494:	e59fd210 	ldr	sp, [pc, #528]	; c0006ac <U0+0x12c>
    bl	    InitStacks
 c000498:	eb000015 	bl	c0004f4 <InitStacks>

    #;****************************************************
    #;*	Setup IRQ handler								*
    #;****************************************************
    ldr	    r0,=HandleIRQ		/* This routine is needed */
 c00049c:	e59f0160 	ldr	r0, [pc, #352]	; c000604 <U0+0x84>
    ldr	    r1,=IsrIRQ			/* if there isn't 'subs pc,lr,#4' at 0x18, 0x1c */
 c0004a0:	e59f1208 	ldr	r1, [pc, #520]	; c0006b0 <U0+0x130>
    str	    r1,[r0]
 c0004a4:	e5801000 	str	r1, [r0]

    #********************************************************
    #*	Copy and paste RW data/zero initialized data	    *
    #********************************************************
    LDR	    r0, =Image_RO_Limit	/* Get pointer to ROM data */
 c0004a8:	e59f0204 	ldr	r0, [pc, #516]	; c0006b4 <U0+0x134>
    LDR	    r1, =Image_RW_Base	/* and RAM copy	*/
 c0004ac:	e59f1204 	ldr	r1, [pc, #516]	; c0006b8 <U0+0x138>
    LDR	    r3, =Image_ZI_Base	
 c0004b0:	e59f3204 	ldr	r3, [pc, #516]	; c0006bc <U0+0x13c>
	/* Zero init base => top of initialised data */
			
    CMP	    r0, r1	    		/* Check that they are different */
 c0004b4:	e1500001 	cmp	r0, r1
    BEQ	    F1
 c0004b8:	0a000003 	beq	c0004cc <F1>

0c0004bc <F0>:
F0:
    CMP	    r1, r3				/* Copy init data                        */
 c0004bc:	e1510003 	cmp	r1, r3
    LDRCC   r2, [r0], #4        /* --> LDRCC r2, [r0] + ADD r0, r0, #4	 */
 c0004c0:	34902004 	ldrcc	r2, [r0], #4
    STRCC   r2, [r1], #4        /* --> STRCC r2, [r1] + ADD r1, r1, #4   */ 
 c0004c4:	34812004 	strcc	r2, [r1], #4
    BCC	    F0
 c0004c8:	3afffffb 	bcc	c0004bc <F0>

0c0004cc <F1>:
F1:
    LDR	    r1, =Image_ZI_Limit	/* Top of zero init segment */
 c0004cc:	e59f11ec 	ldr	r1, [pc, #492]	; c0006c0 <U0+0x140>
    MOV	    r2, #0
 c0004d0:	e3a02000 	mov	r2, #0

0c0004d4 <F2>:
F2:
    CMP	    r3, r1	    		/* Zero init */
 c0004d4:	e1530001 	cmp	r3, r1
    STRCC   r2, [r3], #4
 c0004d8:	34832004 	strcc	r2, [r3], #4
    BCC	    F2
 c0004dc:	3afffffc 	bcc	c0004d4 <F2>

	MRS	r0, CPSR
 c0004e0:	e10f0000 	mrs	r0, CPSR
	BIC	r0, r0, #NOINT /* enable interrupt */
 c0004e4:	e3c000c0 	bic	r0, r0, #192	; 0xc0
	MSR	CPSR_cxsf, r0
 c0004e8:	e12ff000 	msr	CPSR_fsxc, r0
	/* jump to main() */
   	BL	Main
 c0004ec:	eb001a72 	bl	c006ebc <Main>
   	B   .	    
 c0004f0:	eafffffe 	b	c0004f0 <F2+0x1c>

0c0004f4 <InitStacks>:
InitStacks:
	#Don't use DRAM,such as stmfd,ldmfd......
	#SVCstack is initialized before
	#Under toolkit ver 2.50, 'msr cpsr,r1' can be used instead of 'msr cpsr_cxsf,r1'

    mrs	    r0,cpsr
 c0004f4:	e10f0000 	mrs	r0, CPSR
    bic	    r0,r0,#MODEMASK
 c0004f8:	e3c0001f 	bic	r0, r0, #31
    orr	    r1,r0,#UNDEFMODE
 c0004fc:	e380101b 	orr	r1, r0, #27
    msr	    cpsr_cxsf,r1		/* UndefMode */
 c000500:	e12ff001 	msr	CPSR_fsxc, r1
    ldr	    sp,=UndefStack
 c000504:	e59fd1b8 	ldr	sp, [pc, #440]	; c0006c4 <U0+0x144>
	
    orr	    r1,r0,#ABORTMODE|NOINT
 c000508:	e38010d7 	orr	r1, r0, #215	; 0xd7
    msr	    cpsr_cxsf,r1 	    /* AbortMode */	
 c00050c:	e12ff001 	msr	CPSR_fsxc, r1
    ldr	    sp,=AbortStack
 c000510:	e59fd1b0 	ldr	sp, [pc, #432]	; c0006c8 <U0+0x148>

    orr	    r1,r0,#IRQMODE|FIQ_MODE
 c000514:	e3801092 	orr	r1, r0, #146	; 0x92
    msr	    cpsr_cxsf,r1 	    /* IRQMode */
 c000518:	e12ff001 	msr	CPSR_fsxc, r1
    ldr	    sp,=IRQStack
 c00051c:	e59fd1a8 	ldr	sp, [pc, #424]	; c0006cc <U0+0x14c>
	
    orr	    r1,r0,#FIQMODE|IRQ_MODE
 c000520:	e3801051 	orr	r1, r0, #81	; 0x51
    msr	    cpsr_cxsf,r1 	    /* FIQMode */
 c000524:	e12ff001 	msr	CPSR_fsxc, r1
    ldr	    sp,=FIQStack
 c000528:	e59fd1a0 	ldr	sp, [pc, #416]	; c0006d0 <U0+0x150>

    bic	    r0,r0,#MODEMASK
 c00052c:	e3c0001f 	bic	r0, r0, #31
    orr	    r1,r0,#SVCMODE
 c000530:	e3801013 	orr	r1, r0, #19
    msr	    cpsr_cxsf,r1 	    /* SVCMode */
 c000534:	e12ff001 	msr	CPSR_fsxc, r1
    ldr	    sp,=SVCStack
 c000538:	e59fd16c 	ldr	sp, [pc, #364]	; c0006ac <U0+0x12c>

	#USER mode is not initialized.
    mov	    pc,lr 				/* The LR register may be not valid for the mode changes. */
 c00053c:	e1a0f00e 	mov	pc, lr

0c000540 <EnterPWDN>:
#****************************************************
#*	The function for entering power down mode		*
#****************************************************
#void EnterPWDN(int CLKCON);
EnterPWDN:
    mov	    r2,r0               /* r0=CLKCON */
 c000540:	e1a02000 	mov	r2, r0
    ldr	    r0,=REFRESH		
 c000544:	e59f0188 	ldr	r0, [pc, #392]	; c0006d4 <U0+0x154>
    ldr	    r3,[r0]
 c000548:	e5903000 	ldr	r3, [r0]
    mov	    r1, r3
 c00054c:	e1a01003 	mov	r1, r3
    orr	    r1, r1, #0x400000   /* self-refresh enable */
 c000550:	e3811501 	orr	r1, r1, #4194304	; 0x400000
    str	    r1, [r0]
 c000554:	e5801000 	str	r1, [r0]

    nop     /* Wait until self-refresh is issued. May not be needed. */
 c000558:	e1a00000 	nop			; (mov r0, r0)
    nop     /* If the other bus master holds the bus, ... */
 c00055c:	e1a00000 	nop			; (mov r0, r0)
    nop	    /* mov r0, r0 */
 c000560:	e1a00000 	nop			; (mov r0, r0)
    nop
 c000564:	e1a00000 	nop			; (mov r0, r0)
    nop
 c000568:	e1a00000 	nop			; (mov r0, r0)
    nop
 c00056c:	e1a00000 	nop			; (mov r0, r0)
    nop
 c000570:	e1a00000 	nop			; (mov r0, r0)

#enter POWERDN mode
    ldr	    r0,=CLKCON
 c000574:	e59f011c 	ldr	r0, [pc, #284]	; c000698 <U0+0x118>
    str	    r2,[r0]
 c000578:	e5802000 	str	r2, [r0]

#wait until enter SL_IDLE,STOP mode and until wake-up
    ldr	    r0,=0x10
 c00057c:	e3a00010 	mov	r0, #16

0c000580 <U0>:
U0: subs    r0,r0,#1
 c000580:	e2500001 	subs	r0, r0, #1
    bne	    U0
 c000584:	1afffffd 	bne	c000580 <U0>

#exit from DRAM/SDRAM self refresh mode.
    ldr	    r0,=REFRESH
 c000588:	e59f0144 	ldr	r0, [pc, #324]	; c0006d4 <U0+0x154>
    str	    r3,[r0]
 c00058c:	e5803000 	str	r3, [r0]
    mov	    pc,lr
 c000590:	e1a0f00e 	mov	pc, lr
 c000594:	0c0003cc 	.word	0x0c0003cc
 c000598:	0c0003b4 	.word	0x0c0003b4
 c00059c:	0c00039c 	.word	0x0c00039c
 c0005a0:	0c000384 	.word	0x0c000384
 c0005a4:	0c00036c 	.word	0x0c00036c
 c0005a8:	0c000354 	.word	0x0c000354
 c0005ac:	0c00033c 	.word	0x0c00033c
 c0005b0:	0c000324 	.word	0x0c000324
 c0005b4:	0c00030c 	.word	0x0c00030c
 c0005b8:	0c0002f4 	.word	0x0c0002f4
 c0005bc:	0c0002dc 	.word	0x0c0002dc
 c0005c0:	0c0002c4 	.word	0x0c0002c4
 c0005c4:	0c0002ac 	.word	0x0c0002ac
 c0005c8:	0c000294 	.word	0x0c000294
 c0005cc:	0c00027c 	.word	0x0c00027c
 c0005d0:	0c000264 	.word	0x0c000264
 c0005d4:	0c00024c 	.word	0x0c00024c
 c0005d8:	0c000234 	.word	0x0c000234
 c0005dc:	0c00021c 	.word	0x0c00021c
 c0005e0:	0c000204 	.word	0x0c000204
 c0005e4:	0c0001ec 	.word	0x0c0001ec
 c0005e8:	0c0001d4 	.word	0x0c0001d4
 c0005ec:	0c0001bc 	.word	0x0c0001bc
 c0005f0:	0c0001a4 	.word	0x0c0001a4
 c0005f4:	0c00018c 	.word	0x0c00018c
 c0005f8:	0c000174 	.word	0x0c000174
 c0005fc:	0c000540 	.word	0x0c000540
 c000600:	0c7fff1c 	.word	0x0c7fff1c
 c000604:	0c7fff18 	.word	0x0c7fff18
 c000608:	0c7fff04 	.word	0x0c7fff04
 c00060c:	0c7fff08 	.word	0x0c7fff08
 c000610:	0c7fff10 	.word	0x0c7fff10
 c000614:	0c7fff0c 	.word	0x0c7fff0c
 c000618:	0c7fff20 	.word	0x0c7fff20
 c00061c:	0c7fff24 	.word	0x0c7fff24
 c000620:	0c7fff28 	.word	0x0c7fff28
 c000624:	0c7fff2c 	.word	0x0c7fff2c
 c000628:	0c7fff30 	.word	0x0c7fff30
 c00062c:	0c7fff34 	.word	0x0c7fff34
 c000630:	0c7fff38 	.word	0x0c7fff38
 c000634:	0c7fff3c 	.word	0x0c7fff3c
 c000638:	0c7fff40 	.word	0x0c7fff40
 c00063c:	0c7fff44 	.word	0x0c7fff44
 c000640:	0c7fff48 	.word	0x0c7fff48
 c000644:	0c7fff4c 	.word	0x0c7fff4c
 c000648:	0c7fff50 	.word	0x0c7fff50
 c00064c:	0c7fff54 	.word	0x0c7fff54
 c000650:	0c7fff58 	.word	0x0c7fff58
 c000654:	0c7fff5c 	.word	0x0c7fff5c
 c000658:	0c7fff60 	.word	0x0c7fff60
 c00065c:	0c7fff64 	.word	0x0c7fff64
 c000660:	0c7fff68 	.word	0x0c7fff68
 c000664:	0c7fff6c 	.word	0x0c7fff6c
 c000668:	0c7fff70 	.word	0x0c7fff70
 c00066c:	0c7fff74 	.word	0x0c7fff74
 c000670:	0c7fff78 	.word	0x0c7fff78
 c000674:	0c7fff7c 	.word	0x0c7fff7c
 c000678:	0c7fff80 	.word	0x0c7fff80
 c00067c:	0c7fff84 	.word	0x0c7fff84
 c000680:	01e00020 	.word	0x01e00020
 c000684:	01d30000 	.word	0x01d30000
 c000688:	01e0000c 	.word	0x01e0000c
 c00068c:	01d8000c 	.word	0x01d8000c
 c000690:	00000fff 	.word	0x00000fff
 c000694:	00038021 	.word	0x00038021
 c000698:	01d80004 	.word	0x01d80004
 c00069c:	00007ff8 	.word	0x00007ff8
 c0006a0:	01f80008 	.word	0x01f80008
 c0006a4:	01f80028 	.word	0x01f80028
 c0006a8:	0c0006d8 	.word	0x0c0006d8
 c0006ac:	0c7ff100 	.word	0x0c7ff100
 c0006b0:	0c0003e4 	.word	0x0c0003e4
 c0006b4:	0c00bde4 	.word	0x0c00bde4
 c0006b8:	0c00bde4 	.word	0x0c00bde4
 c0006bc:	0c00eee4 	.word	0x0c00eee4
 c0006c0:	0c00f00c 	.word	0x0c00f00c
 c0006c4:	0c7ff200 	.word	0x0c7ff200
 c0006c8:	0c7ff300 	.word	0x0c7ff300
 c0006cc:	0c7ff400 	.word	0x0c7ff400
 c0006d0:	0c7ff500 	.word	0x0c7ff500
 c0006d4:	01c80024 	.word	0x01c80024

0c0006d8 <SMRDATA>:
 c0006d8:	11110102 	.word	0x11110102
 c0006dc:	00000600 	.word	0x00000600
 c0006e0:	00007ffc 	.word	0x00007ffc
 c0006e4:	00007ffc 	.word	0x00007ffc
 c0006e8:	00007ffc 	.word	0x00007ffc
 c0006ec:	00007ffc 	.word	0x00007ffc
 c0006f0:	00007ffc 	.word	0x00007ffc
 c0006f4:	00018000 	.word	0x00018000
 c0006f8:	00018000 	.word	0x00018000
 c0006fc:	00860459 	.word	0x00860459
 c000700:	00000010 	.word	0x00000010
 c000704:	00000020 	.word	0x00000020
 c000708:	00000020 	.word	0x00000020

0c00070c <Delay>:
void Delay(int time)
// time=0: adjust the Delay function by WatchDog timer
// time>0: the number of loop time
// 100us resolution
// Delay(10) -> 10*100us resolution
{
 c00070c:	e1a0c00d 	mov	ip, sp
 c000710:	e92dd800 	push	{fp, ip, lr, pc}
 c000714:	e24cb004 	sub	fp, ip, #4
 c000718:	e24dd010 	sub	sp, sp, #16
 c00071c:	e50b0018 	str	r0, [fp, #-24]	; 0xffffffe8
	int i,adjust=0;
 c000720:	e3a03000 	mov	r3, #0
 c000724:	e50b3014 	str	r3, [fp, #-20]	; 0xffffffec
	if(time==0)
 c000728:	e51b3018 	ldr	r3, [fp, #-24]	; 0xffffffe8
 c00072c:	e3530000 	cmp	r3, #0
 c000730:	1a000021 	bne	c0007bc <Delay+0xb0>
	{
		time=200;
 c000734:	e3a030c8 	mov	r3, #200	; 0xc8
 c000738:	e50b3018 	str	r3, [fp, #-24]	; 0xffffffe8
		adjust=1;
 c00073c:	e3a03001 	mov	r3, #1
 c000740:	e50b3014 	str	r3, [fp, #-20]	; 0xffffffec
		delayLoopCount=400;
 c000744:	e59f30d8 	ldr	r3, [pc, #216]	; c000824 <Delay+0x118>
 c000748:	e3a02e19 	mov	r2, #400	; 0x190
 c00074c:	e5832000 	str	r2, [r3]
		rWTCON=((MCLK/1000000-1)<<8)|(2<<3);	// 1M/64,Watch-dog,nRESET,interrupt disable//
 c000750:	e59f30d0 	ldr	r3, [pc, #208]	; c000828 <Delay+0x11c>
 c000754:	e59f20d0 	ldr	r2, [pc, #208]	; c00082c <Delay+0x120>
 c000758:	e5832000 	str	r2, [r3]
		rWTDAT=0xffff;
 c00075c:	e59f30cc 	ldr	r3, [pc, #204]	; c000830 <Delay+0x124>
 c000760:	e59f20cc 	ldr	r2, [pc, #204]	; c000834 <Delay+0x128>
 c000764:	e5832000 	str	r2, [r3]
		rWTCNT=0xffff;	 
 c000768:	e59f30c8 	ldr	r3, [pc, #200]	; c000838 <Delay+0x12c>
 c00076c:	e59f20c0 	ldr	r2, [pc, #192]	; c000834 <Delay+0x128>
 c000770:	e5832000 	str	r2, [r3]
		rWTCON=((MCLK/1000000-1)<<8)|(2<<3)|(1<<5); // 1M/64,Watch-dog enable,nRESET,interrupt disable //
 c000774:	e59f30ac 	ldr	r3, [pc, #172]	; c000828 <Delay+0x11c>
 c000778:	e59f20bc 	ldr	r2, [pc, #188]	; c00083c <Delay+0x130>
 c00077c:	e5832000 	str	r2, [r3]
	}
	for(;time>0;time--)
 c000780:	ea00000d 	b	c0007bc <Delay+0xb0>
		for(i=0;i<delayLoopCount;i++);
 c000784:	e3a03000 	mov	r3, #0
 c000788:	e50b3010 	str	r3, [fp, #-16]
 c00078c:	ea000002 	b	c00079c <Delay+0x90>
 c000790:	e51b3010 	ldr	r3, [fp, #-16]
 c000794:	e2833001 	add	r3, r3, #1
 c000798:	e50b3010 	str	r3, [fp, #-16]
 c00079c:	e59f3080 	ldr	r3, [pc, #128]	; c000824 <Delay+0x118>
 c0007a0:	e5933000 	ldr	r3, [r3]
 c0007a4:	e51b2010 	ldr	r2, [fp, #-16]
 c0007a8:	e1520003 	cmp	r2, r3
 c0007ac:	bafffff7 	blt	c000790 <Delay+0x84>
		rWTCON=((MCLK/1000000-1)<<8)|(2<<3);	// 1M/64,Watch-dog,nRESET,interrupt disable//
		rWTDAT=0xffff;
		rWTCNT=0xffff;	 
		rWTCON=((MCLK/1000000-1)<<8)|(2<<3)|(1<<5); // 1M/64,Watch-dog enable,nRESET,interrupt disable //
	}
	for(;time>0;time--)
 c0007b0:	e51b3018 	ldr	r3, [fp, #-24]	; 0xffffffe8
 c0007b4:	e2433001 	sub	r3, r3, #1
 c0007b8:	e50b3018 	str	r3, [fp, #-24]	; 0xffffffe8
 c0007bc:	e51b3018 	ldr	r3, [fp, #-24]	; 0xffffffe8
 c0007c0:	e3530000 	cmp	r3, #0
 c0007c4:	caffffee 	bgt	c000784 <Delay+0x78>
		for(i=0;i<delayLoopCount;i++);
	if(adjust==1)
 c0007c8:	e51b3014 	ldr	r3, [fp, #-20]	; 0xffffffec
 c0007cc:	e3530001 	cmp	r3, #1
 c0007d0:	1a000010 	bne	c000818 <Delay+0x10c>
	{
		rWTCON=((MCLK/1000000-1)<<8)|(2<<3);
 c0007d4:	e59f304c 	ldr	r3, [pc, #76]	; c000828 <Delay+0x11c>
 c0007d8:	e59f204c 	ldr	r2, [pc, #76]	; c00082c <Delay+0x120>
 c0007dc:	e5832000 	str	r2, [r3]
		i=0xffff-rWTCNT;   //  1count/16us?????????//
 c0007e0:	e59f3050 	ldr	r3, [pc, #80]	; c000838 <Delay+0x12c>
 c0007e4:	e5933000 	ldr	r3, [r3]
 c0007e8:	e2633cff 	rsb	r3, r3, #65280	; 0xff00
 c0007ec:	e28330ff 	add	r3, r3, #255	; 0xff
 c0007f0:	e50b3010 	str	r3, [fp, #-16]
		delayLoopCount=8000000/(i*64);	//400*100/(i*64/200)   //
 c0007f4:	e51b3010 	ldr	r3, [fp, #-16]
 c0007f8:	e1a03303 	lsl	r3, r3, #6
 c0007fc:	e59f003c 	ldr	r0, [pc, #60]	; c000840 <Delay+0x134>
 c000800:	e1a01003 	mov	r1, r3
 c000804:	eb00284c 	bl	c00a93c <__aeabi_idiv>
 c000808:	e1a03000 	mov	r3, r0
 c00080c:	e1a02003 	mov	r2, r3
 c000810:	e59f300c 	ldr	r3, [pc, #12]	; c000824 <Delay+0x118>
 c000814:	e5832000 	str	r2, [r3]
	}
}
 c000818:	e24bd00c 	sub	sp, fp, #12
 c00081c:	e89d6800 	ldm	sp, {fp, sp, lr}
 c000820:	e12fff1e 	bx	lr
 c000824:	0c00be10 	.word	0x0c00be10
 c000828:	01d30000 	.word	0x01d30000
 c00082c:	00003f10 	.word	0x00003f10
 c000830:	01d30004 	.word	0x01d30004
 c000834:	0000ffff 	.word	0x0000ffff
 c000838:	01d30008 	.word	0x01d30008
 c00083c:	00003f30 	.word	0x00003f30
 c000840:	007a1200 	.word	0x007a1200

0c000844 <DelayMs>:

void DelayMs(int ms_time)
{
 c000844:	e1a0c00d 	mov	ip, sp
 c000848:	e92dd800 	push	{fp, ip, lr, pc}
 c00084c:	e24cb004 	sub	fp, ip, #4
 c000850:	e24dd010 	sub	sp, sp, #16
 c000854:	e50b0018 	str	r0, [fp, #-24]	; 0xffffffe8
	int i;
	
	for( i = 0 ; i < 1000*ms_time ; i++ )
 c000858:	e3a03000 	mov	r3, #0
 c00085c:	e50b3010 	str	r3, [fp, #-16]
 c000860:	ea000002 	b	c000870 <DelayMs+0x2c>
 c000864:	e51b3010 	ldr	r3, [fp, #-16]
 c000868:	e2833001 	add	r3, r3, #1
 c00086c:	e50b3010 	str	r3, [fp, #-16]
 c000870:	e51b2018 	ldr	r2, [fp, #-24]	; 0xffffffe8
 c000874:	e1a03002 	mov	r3, r2
 c000878:	e1a03283 	lsl	r3, r3, #5
 c00087c:	e0623003 	rsb	r3, r2, r3
 c000880:	e1a03103 	lsl	r3, r3, #2
 c000884:	e0833002 	add	r3, r3, r2
 c000888:	e1a03183 	lsl	r3, r3, #3
 c00088c:	e1a02003 	mov	r2, r3
 c000890:	e51b3010 	ldr	r3, [fp, #-16]
 c000894:	e1520003 	cmp	r2, r3
 c000898:	cafffff1 	bgt	c000864 <DelayMs+0x20>
		;
}
 c00089c:	e24bd00c 	sub	sp, fp, #12
 c0008a0:	e89d6800 	ldm	sp, {fp, sp, lr}
 c0008a4:	e12fff1e 	bx	lr

0c0008a8 <DelayTime>:

void DelayTime(int num)
{
 c0008a8:	e1a0c00d 	mov	ip, sp
 c0008ac:	e92dd800 	push	{fp, ip, lr, pc}
 c0008b0:	e24cb004 	sub	fp, ip, #4
 c0008b4:	e24dd010 	sub	sp, sp, #16
 c0008b8:	e50b0018 	str	r0, [fp, #-24]	; 0xffffffe8
	int i;
	
	for( i = 0 ; i < num ; i++ )
 c0008bc:	e3a03000 	mov	r3, #0
 c0008c0:	e50b3010 	str	r3, [fp, #-16]
 c0008c4:	ea000002 	b	c0008d4 <DelayTime+0x2c>
 c0008c8:	e51b3010 	ldr	r3, [fp, #-16]
 c0008cc:	e2833001 	add	r3, r3, #1
 c0008d0:	e50b3010 	str	r3, [fp, #-16]
 c0008d4:	e51b2010 	ldr	r2, [fp, #-16]
 c0008d8:	e51b3018 	ldr	r3, [fp, #-24]	; 0xffffffe8
 c0008dc:	e1520003 	cmp	r2, r3
 c0008e0:	bafffff8 	blt	c0008c8 <DelayTime+0x20>
		;
}
 c0008e4:	e24bd00c 	sub	sp, fp, #12
 c0008e8:	e89d6800 	ldm	sp, {fp, sp, lr}
 c0008ec:	e12fff1e 	bx	lr

0c0008f0 <Port_Init>:

//------------------------PORTS------------------------------//
void Port_Init(void)
{
 c0008f0:	e1a0c00d 	mov	ip, sp
 c0008f4:	e92dd800 	push	{fp, ip, lr, pc}
 c0008f8:	e24cb004 	sub	fp, ip, #4

	// PORT A GROUP
	// BIT 	9	8	7	6	5	4	3	2	1	0
	// 		A24	A23	A22	A21	A20	A19	A18	A17	A16	A0
	//		0	1	1	1	1	1	1	1	1	1
	rPCONA = 0x1ff;	
 c0008fc:	e59f3100 	ldr	r3, [pc, #256]	; c000a04 <Port_Init+0x114>
 c000900:	e59f2100 	ldr	r2, [pc, #256]	; c000a08 <Port_Init+0x118>
 c000904:	e5832000 	str	r2, [r3]
	// PORT B GROUP
	// BIT 	10		9		8		7		6		5		4		3		2		1		0
	//		/CS5	/CS4	/CS3	/CS2	/CS1	GPB5	GPB4	/SRAS	/SCAS	SCLK	SCKE
	//		EXT		NIC		USB		IDE		SMC		NC		NC		Sdram	Sdram	Sdram	Sdram
	//      1, 		1,   	1,   	1,    	1,    	0,       0,     1,    	1,    	1,   	1	
	rPDATB = 0x7ff;				// P9-LED1 P10-LED2
 c000908:	e59f30fc 	ldr	r3, [pc, #252]	; c000a0c <Port_Init+0x11c>
 c00090c:	e59f20fc 	ldr	r2, [pc, #252]	; c000a10 <Port_Init+0x120>
 c000910:	e5832000 	str	r2, [r3]
	rPCONB = 0x1cf;
 c000914:	e59f30f8 	ldr	r3, [pc, #248]	; c000a14 <Port_Init+0x124>
 c000918:	e59f20f8 	ldr	r2, [pc, #248]	; c000a18 <Port_Init+0x128>
 c00091c:	e5832000 	str	r2, [r3]

	//  PC7		6		5		4		3		2		1		0
	//   I		I		I		I		I		I		I		I
	//   NC		NC		NC		NC		IISCLK	IISDI	IISDO	IISLRCK
	//   00		00		00		00		11		11		11		11
	rPDATC = 0xff00;
 c000920:	e59f30f4 	ldr	r3, [pc, #244]	; c000a1c <Port_Init+0x12c>
 c000924:	e3a02cff 	mov	r2, #65280	; 0xff00
 c000928:	e5832000 	str	r2, [r3]
	rPCONC = 0x0ff0ffff;	
 c00092c:	e59f30ec 	ldr	r3, [pc, #236]	; c000a20 <Port_Init+0x130>
 c000930:	e59f20ec 	ldr	r2, [pc, #236]	; c000a24 <Port_Init+0x134>
 c000934:	e5832000 	str	r2, [r3]
	rPUPC  = 0x30ff;	//PULL UP RESISTOR should be enabled to I/O
 c000938:	e59f30e8 	ldr	r3, [pc, #232]	; c000a28 <Port_Init+0x138>
 c00093c:	e59f20e8 	ldr	r2, [pc, #232]	; c000a2c <Port_Init+0x13c>
 c000940:	e5832000 	str	r2, [r3]
	// PORT D GROUP
	// PORT D GROUP(I/O OR LCD)
	// BIT7		6		5		4		3		2		1		0
	//	VF		VM		VLINE	VCLK	VD3		VD2		VD1		VD0
	//	00		00		00		00		00		00		00		00
	rPDATD= 0xff;
 c000944:	e59f30e4 	ldr	r3, [pc, #228]	; c000a30 <Port_Init+0x140>
 c000948:	e3a020ff 	mov	r2, #255	; 0xff
 c00094c:	e5832000 	str	r2, [r3]
	rPCOND= 0xaaaa;	
 c000950:	e59f30dc 	ldr	r3, [pc, #220]	; c000a34 <Port_Init+0x144>
 c000954:	e59f20dc 	ldr	r2, [pc, #220]	; c000a38 <Port_Init+0x148>
 c000958:	e5832000 	str	r2, [r3]
	rPUPD = 0x0;
 c00095c:	e59f30d8 	ldr	r3, [pc, #216]	; c000a3c <Port_Init+0x14c>
 c000960:	e3a02000 	mov	r2, #0
 c000964:	e5832000 	str	r2, [r3]
	
	// PORT E GROUP 
	// Bit	8		7		6		5		4		3		2		1		0
	//  	CODECLK	LED4	LED5	LED6	LED7	BEEP	RXD0	TXD0	LcdDisp
	//  	10		01		01		01		01		01		10		10		01
	rPDATE	= 0x1ff;
 c000968:	e59f30d0 	ldr	r3, [pc, #208]	; c000a40 <Port_Init+0x150>
 c00096c:	e59f2094 	ldr	r2, [pc, #148]	; c000a08 <Port_Init+0x118>
 c000970:	e5832000 	str	r2, [r3]
	rPCONE	= 0x25529;	
 c000974:	e59f30c8 	ldr	r3, [pc, #200]	; c000a44 <Port_Init+0x154>
 c000978:	e59f20c8 	ldr	r2, [pc, #200]	; c000a48 <Port_Init+0x158>
 c00097c:	e5832000 	str	r2, [r3]
	rPUPE	= 0x6;
 c000980:	e59f30c4 	ldr	r3, [pc, #196]	; c000a4c <Port_Init+0x15c>
 c000984:	e3a02006 	mov	r2, #6
 c000988:	e5832000 	str	r2, [r3]
	
	// PORT F GROUP
	// Bit8		7		6		5		 4		3		2		1		0
	// IISCLK	IISDI	IISDO	IISLRCK	Input	Input	Input	IICSDA	IICSCL
	// 100		100		100		100		00		00		00		10		10
	rPDATF = 0x0;
 c00098c:	e59f30bc 	ldr	r3, [pc, #188]	; c000a50 <Port_Init+0x160>
 c000990:	e3a02000 	mov	r2, #0
 c000994:	e5832000 	str	r2, [r3]
	rPCONF = 0x252a;
 c000998:	e59f30b4 	ldr	r3, [pc, #180]	; c000a54 <Port_Init+0x164>
 c00099c:	e59f20b4 	ldr	r2, [pc, #180]	; c000a58 <Port_Init+0x168>
 c0009a0:	e5832000 	str	r2, [r3]
	rPUPF  = 0x0;
 c0009a4:	e59f30b0 	ldr	r3, [pc, #176]	; c000a5c <Port_Init+0x16c>
 c0009a8:	e3a02000 	mov	r2, #0
 c0009ac:	e5832000 	str	r2, [r3]
	// PORT G GROUP
	// BIT7		6		5		4		3		2		1		0
	// 	INT7	INT6	INT5	INT4	INT3	INT2	INT1	INT0
	//	S3		S4		S5		S6		NIC		EXT		IDE		USB
	//	11      11      11      11      11      11      11      11
	rPDATG = 0xff;
 c0009b0:	e59f30a8 	ldr	r3, [pc, #168]	; c000a60 <Port_Init+0x170>
 c0009b4:	e3a020ff 	mov	r2, #255	; 0xff
 c0009b8:	e5832000 	str	r2, [r3]
	rPCONG = 0xffff;
 c0009bc:	e59f30a0 	ldr	r3, [pc, #160]	; c000a64 <Port_Init+0x174>
 c0009c0:	e59f20a0 	ldr	r2, [pc, #160]	; c000a68 <Port_Init+0x178>
 c0009c4:	e5832000 	str	r2, [r3]
	rPUPG  = 0x0;		//should be enabled  
 c0009c8:	e59f309c 	ldr	r3, [pc, #156]	; c000a6c <Port_Init+0x17c>
 c0009cc:	e3a02000 	mov	r2, #0
 c0009d0:	e5832000 	str	r2, [r3]
	rSPUCR = 0x7;  		//D15-D0 pull-up disable
 c0009d4:	e59f3094 	ldr	r3, [pc, #148]	; c000a70 <Port_Init+0x180>
 c0009d8:	e3a02007 	mov	r2, #7
 c0009dc:	e5832000 	str	r2, [r3]

	/* Non Cache area */
	rNCACHBE0=((Non_Cache_End>>12)<<16)|(Non_Cache_Start>>12); 
 c0009e0:	e59f308c 	ldr	r3, [pc, #140]	; c000a74 <Port_Init+0x184>
 c0009e4:	e59f208c 	ldr	r2, [pc, #140]	; c000a78 <Port_Init+0x188>
 c0009e8:	e5832000 	str	r2, [r3]
	/* Low level default */
	rEXTINT=0x0;
 c0009ec:	e59f3088 	ldr	r3, [pc, #136]	; c000a7c <Port_Init+0x18c>
 c0009f0:	e3a02000 	mov	r2, #0
 c0009f4:	e5832000 	str	r2, [r3]
}
 c0009f8:	e24bd00c 	sub	sp, fp, #12
 c0009fc:	e89d6800 	ldm	sp, {fp, sp, lr}
 c000a00:	e12fff1e 	bx	lr
 c000a04:	01d20000 	.word	0x01d20000
 c000a08:	000001ff 	.word	0x000001ff
 c000a0c:	01d2000c 	.word	0x01d2000c
 c000a10:	000007ff 	.word	0x000007ff
 c000a14:	01d20008 	.word	0x01d20008
 c000a18:	000001cf 	.word	0x000001cf
 c000a1c:	01d20014 	.word	0x01d20014
 c000a20:	01d20010 	.word	0x01d20010
 c000a24:	0ff0ffff 	.word	0x0ff0ffff
 c000a28:	01d20018 	.word	0x01d20018
 c000a2c:	000030ff 	.word	0x000030ff
 c000a30:	01d20020 	.word	0x01d20020
 c000a34:	01d2001c 	.word	0x01d2001c
 c000a38:	0000aaaa 	.word	0x0000aaaa
 c000a3c:	01d20024 	.word	0x01d20024
 c000a40:	01d2002c 	.word	0x01d2002c
 c000a44:	01d20028 	.word	0x01d20028
 c000a48:	00025529 	.word	0x00025529
 c000a4c:	01d20030 	.word	0x01d20030
 c000a50:	01d20038 	.word	0x01d20038
 c000a54:	01d20034 	.word	0x01d20034
 c000a58:	0000252a 	.word	0x0000252a
 c000a5c:	01d2003c 	.word	0x01d2003c
 c000a60:	01d20044 	.word	0x01d20044
 c000a64:	01d20040 	.word	0x01d20040
 c000a68:	0000ffff 	.word	0x0000ffff
 c000a6c:	01d20048 	.word	0x01d20048
 c000a70:	01d2004c 	.word	0x01d2004c
 c000a74:	01c00004 	.word	0x01c00004
 c000a78:	c0002000 	.word	0xc0002000
 c000a7c:	01d20050 	.word	0x01d20050

0c000a80 <Uart_Init>:

//------------------------UART------------------------------//
void Uart_Init(int mclk,int baud)
{
 c000a80:	e1a0c00d 	mov	ip, sp
 c000a84:	e92dd8f0 	push	{r4, r5, r6, r7, fp, ip, lr, pc}
 c000a88:	e24cb004 	sub	fp, ip, #4
 c000a8c:	e24dd010 	sub	sp, sp, #16
 c000a90:	e50b0028 	str	r0, [fp, #-40]	; 0xffffffd8
 c000a94:	e50b102c 	str	r1, [fp, #-44]	; 0xffffffd4
    int i;
    if(mclk==0)
 c000a98:	e51b3028 	ldr	r3, [fp, #-40]	; 0xffffffd8
 c000a9c:	e3530000 	cmp	r3, #0
 c000aa0:	1a000001 	bne	c000aac <Uart_Init+0x2c>
		mclk=MCLK;
 c000aa4:	e59f31d0 	ldr	r3, [pc, #464]	; c000c7c <Uart_Init+0x1fc>
 c000aa8:	e50b3028 	str	r3, [fp, #-40]	; 0xffffffd8

    rUFCON0=0x0;     //FIFO disable
 c000aac:	e59f31cc 	ldr	r3, [pc, #460]	; c000c80 <Uart_Init+0x200>
 c000ab0:	e3a02000 	mov	r2, #0
 c000ab4:	e5832000 	str	r2, [r3]
    rUFCON1=0x0;
 c000ab8:	e59f31c4 	ldr	r3, [pc, #452]	; c000c84 <Uart_Init+0x204>
 c000abc:	e3a02000 	mov	r2, #0
 c000ac0:	e5832000 	str	r2, [r3]
    rUMCON0=0x0;
 c000ac4:	e59f31bc 	ldr	r3, [pc, #444]	; c000c88 <Uart_Init+0x208>
 c000ac8:	e3a02000 	mov	r2, #0
 c000acc:	e5832000 	str	r2, [r3]
    rUMCON1=0x0;
 c000ad0:	e59f31b4 	ldr	r3, [pc, #436]	; c000c8c <Uart_Init+0x20c>
 c000ad4:	e3a02000 	mov	r2, #0
 c000ad8:	e5832000 	str	r2, [r3]
//UART0
    rULCON0=0x3;     //Normal,No parity,1 stop,8 bit
 c000adc:	e3a0361d 	mov	r3, #30408704	; 0x1d00000
 c000ae0:	e3a02003 	mov	r2, #3
 c000ae4:	e5832000 	str	r2, [r3]
    rUCON0=0x245;    //rx=edge,tx=level,disable timeout int.,enable rx error int.,normal,interrupt or polling
 c000ae8:	e59f31a0 	ldr	r3, [pc, #416]	; c000c90 <Uart_Init+0x210>
 c000aec:	e59f21a0 	ldr	r2, [pc, #416]	; c000c94 <Uart_Init+0x214>
 c000af0:	e5832000 	str	r2, [r3]
    rUBRDIV0=( (int)(mclk/16./baud + 0.5) -1 );
 c000af4:	e59f719c 	ldr	r7, [pc, #412]	; c000c98 <Uart_Init+0x218>
 c000af8:	e51b0028 	ldr	r0, [fp, #-40]	; 0xffffffd8
 c000afc:	eb0028b1 	bl	c00adc8 <__aeabi_i2d>
 c000b00:	e1a03000 	mov	r3, r0
 c000b04:	e1a04001 	mov	r4, r1
 c000b08:	e1a00003 	mov	r0, r3
 c000b0c:	e1a01004 	mov	r1, r4
 c000b10:	e3a02000 	mov	r2, #0
 c000b14:	e3a03101 	mov	r3, #1073741824	; 0x40000000
 c000b18:	e2833603 	add	r3, r3, #3145728	; 0x300000
 c000b1c:	eb002984 	bl	c00b134 <__aeabi_ddiv>
 c000b20:	e1a03000 	mov	r3, r0
 c000b24:	e1a04001 	mov	r4, r1
 c000b28:	e1a05003 	mov	r5, r3
 c000b2c:	e1a06004 	mov	r6, r4
 c000b30:	e51b002c 	ldr	r0, [fp, #-44]	; 0xffffffd4
 c000b34:	eb0028a3 	bl	c00adc8 <__aeabi_i2d>
 c000b38:	e1a03000 	mov	r3, r0
 c000b3c:	e1a04001 	mov	r4, r1
 c000b40:	e1a00005 	mov	r0, r5
 c000b44:	e1a01006 	mov	r1, r6
 c000b48:	e1a02003 	mov	r2, r3
 c000b4c:	e1a03004 	mov	r3, r4
 c000b50:	eb002977 	bl	c00b134 <__aeabi_ddiv>
 c000b54:	e1a03000 	mov	r3, r0
 c000b58:	e1a04001 	mov	r4, r1
 c000b5c:	e1a00003 	mov	r0, r3
 c000b60:	e1a01004 	mov	r1, r4
 c000b64:	e3a02000 	mov	r2, #0
 c000b68:	e3a035ff 	mov	r3, #1069547520	; 0x3fc00000
 c000b6c:	e2833602 	add	r3, r3, #2097152	; 0x200000
 c000b70:	eb0027c7 	bl	c00aa94 <__adddf3>
 c000b74:	e1a03000 	mov	r3, r0
 c000b78:	e1a04001 	mov	r4, r1
 c000b7c:	e1a00003 	mov	r0, r3
 c000b80:	e1a01004 	mov	r1, r4
 c000b84:	eb0029ed 	bl	c00b340 <__aeabi_d2iz>
 c000b88:	e1a03000 	mov	r3, r0
 c000b8c:	e2433001 	sub	r3, r3, #1
 c000b90:	e5873000 	str	r3, [r7]
//UART1
    rULCON1=0x3;
 c000b94:	e59f3100 	ldr	r3, [pc, #256]	; c000c9c <Uart_Init+0x21c>
 c000b98:	e3a02003 	mov	r2, #3
 c000b9c:	e5832000 	str	r2, [r3]
    rUCON1=0x245;
 c000ba0:	e59f30f8 	ldr	r3, [pc, #248]	; c000ca0 <Uart_Init+0x220>
 c000ba4:	e59f20e8 	ldr	r2, [pc, #232]	; c000c94 <Uart_Init+0x214>
 c000ba8:	e5832000 	str	r2, [r3]
    rUBRDIV1=( (int)(mclk/16./baud + 0.5) -1 );
 c000bac:	e59f70f0 	ldr	r7, [pc, #240]	; c000ca4 <Uart_Init+0x224>
 c000bb0:	e51b0028 	ldr	r0, [fp, #-40]	; 0xffffffd8
 c000bb4:	eb002883 	bl	c00adc8 <__aeabi_i2d>
 c000bb8:	e1a03000 	mov	r3, r0
 c000bbc:	e1a04001 	mov	r4, r1
 c000bc0:	e1a00003 	mov	r0, r3
 c000bc4:	e1a01004 	mov	r1, r4
 c000bc8:	e3a02000 	mov	r2, #0
 c000bcc:	e3a03101 	mov	r3, #1073741824	; 0x40000000
 c000bd0:	e2833603 	add	r3, r3, #3145728	; 0x300000
 c000bd4:	eb002956 	bl	c00b134 <__aeabi_ddiv>
 c000bd8:	e1a03000 	mov	r3, r0
 c000bdc:	e1a04001 	mov	r4, r1
 c000be0:	e1a05003 	mov	r5, r3
 c000be4:	e1a06004 	mov	r6, r4
 c000be8:	e51b002c 	ldr	r0, [fp, #-44]	; 0xffffffd4
 c000bec:	eb002875 	bl	c00adc8 <__aeabi_i2d>
 c000bf0:	e1a03000 	mov	r3, r0
 c000bf4:	e1a04001 	mov	r4, r1
 c000bf8:	e1a00005 	mov	r0, r5
 c000bfc:	e1a01006 	mov	r1, r6
 c000c00:	e1a02003 	mov	r2, r3
 c000c04:	e1a03004 	mov	r3, r4
 c000c08:	eb002949 	bl	c00b134 <__aeabi_ddiv>
 c000c0c:	e1a03000 	mov	r3, r0
 c000c10:	e1a04001 	mov	r4, r1
 c000c14:	e1a00003 	mov	r0, r3
 c000c18:	e1a01004 	mov	r1, r4
 c000c1c:	e3a02000 	mov	r2, #0
 c000c20:	e3a035ff 	mov	r3, #1069547520	; 0x3fc00000
 c000c24:	e2833602 	add	r3, r3, #2097152	; 0x200000
 c000c28:	eb002799 	bl	c00aa94 <__adddf3>
 c000c2c:	e1a03000 	mov	r3, r0
 c000c30:	e1a04001 	mov	r4, r1
 c000c34:	e1a00003 	mov	r0, r3
 c000c38:	e1a01004 	mov	r1, r4
 c000c3c:	eb0029bf 	bl	c00b340 <__aeabi_d2iz>
 c000c40:	e1a03000 	mov	r3, r0
 c000c44:	e2433001 	sub	r3, r3, #1
 c000c48:	e5873000 	str	r3, [r7]

    for(i=0;i<100;i++);
 c000c4c:	e3a03000 	mov	r3, #0
 c000c50:	e50b3020 	str	r3, [fp, #-32]	; 0xffffffe0
 c000c54:	ea000002 	b	c000c64 <Uart_Init+0x1e4>
 c000c58:	e51b3020 	ldr	r3, [fp, #-32]	; 0xffffffe0
 c000c5c:	e2833001 	add	r3, r3, #1
 c000c60:	e50b3020 	str	r3, [fp, #-32]	; 0xffffffe0
 c000c64:	e51b3020 	ldr	r3, [fp, #-32]	; 0xffffffe0
 c000c68:	e3530063 	cmp	r3, #99	; 0x63
 c000c6c:	dafffff9 	ble	c000c58 <Uart_Init+0x1d8>
}
 c000c70:	e24bd01c 	sub	sp, fp, #28
 c000c74:	e89d68f0 	ldm	sp, {r4, r5, r6, r7, fp, sp, lr}
 c000c78:	e12fff1e 	bx	lr
 c000c7c:	03d09000 	.word	0x03d09000
 c000c80:	01d00008 	.word	0x01d00008
 c000c84:	01d04008 	.word	0x01d04008
 c000c88:	01d0000c 	.word	0x01d0000c
 c000c8c:	01d0400c 	.word	0x01d0400c
 c000c90:	01d00004 	.word	0x01d00004
 c000c94:	00000245 	.word	0x00000245
 c000c98:	01d00028 	.word	0x01d00028
 c000c9c:	01d04000 	.word	0x01d04000
 c000ca0:	01d04004 	.word	0x01d04004
 c000ca4:	01d04028 	.word	0x01d04028

0c000ca8 <Timer_Start>:

//------------------------ Timer ------------------------------//
void Timer_Start(int divider)  //0:16us,1:32us 2:64us 3:128us
{
 c000ca8:	e1a0c00d 	mov	ip, sp
 c000cac:	e92dd800 	push	{fp, ip, lr, pc}
 c000cb0:	e24cb004 	sub	fp, ip, #4
 c000cb4:	e24dd008 	sub	sp, sp, #8
 c000cb8:	e50b0010 	str	r0, [fp, #-16]
    rWTCON=((MCLK/1000000-1)<<8)|(divider<<3);
 c000cbc:	e59f3048 	ldr	r3, [pc, #72]	; c000d0c <Timer_Start+0x64>
 c000cc0:	e51b2010 	ldr	r2, [fp, #-16]
 c000cc4:	e1a02182 	lsl	r2, r2, #3
 c000cc8:	e3822c3f 	orr	r2, r2, #16128	; 0x3f00
 c000ccc:	e5832000 	str	r2, [r3]
    rWTDAT=0xffff;
 c000cd0:	e59f3038 	ldr	r3, [pc, #56]	; c000d10 <Timer_Start+0x68>
 c000cd4:	e59f2038 	ldr	r2, [pc, #56]	; c000d14 <Timer_Start+0x6c>
 c000cd8:	e5832000 	str	r2, [r3]
    rWTCNT=0xffff;   
 c000cdc:	e59f3034 	ldr	r3, [pc, #52]	; c000d18 <Timer_Start+0x70>
 c000ce0:	e59f202c 	ldr	r2, [pc, #44]	; c000d14 <Timer_Start+0x6c>
 c000ce4:	e5832000 	str	r2, [r3]

    // 1/16/(65+1),nRESET & interrupt  disable
    rWTCON=((MCLK/1000000-1)<<8)|(divider<<3)|(1<<5);	
 c000ce8:	e59f201c 	ldr	r2, [pc, #28]	; c000d0c <Timer_Start+0x64>
 c000cec:	e51b3010 	ldr	r3, [fp, #-16]
 c000cf0:	e1a03183 	lsl	r3, r3, #3
 c000cf4:	e3833c3f 	orr	r3, r3, #16128	; 0x3f00
 c000cf8:	e3833020 	orr	r3, r3, #32
 c000cfc:	e5823000 	str	r3, [r2]
}
 c000d00:	e24bd00c 	sub	sp, fp, #12
 c000d04:	e89d6800 	ldm	sp, {fp, sp, lr}
 c000d08:	e12fff1e 	bx	lr
 c000d0c:	01d30000 	.word	0x01d30000
 c000d10:	01d30004 	.word	0x01d30004
 c000d14:	0000ffff 	.word	0x0000ffff
 c000d18:	01d30008 	.word	0x01d30008

0c000d1c <Timer_Stop>:


int Timer_Stop(void)
{
 c000d1c:	e1a0c00d 	mov	ip, sp
 c000d20:	e92dd800 	push	{fp, ip, lr, pc}
 c000d24:	e24cb004 	sub	fp, ip, #4
    rWTCON=((MCLK/1000000-1)<<8);
 c000d28:	e59f3024 	ldr	r3, [pc, #36]	; c000d54 <Timer_Stop+0x38>
 c000d2c:	e3a02c3f 	mov	r2, #16128	; 0x3f00
 c000d30:	e5832000 	str	r2, [r3]
    return (0xffff-rWTCNT);
 c000d34:	e59f301c 	ldr	r3, [pc, #28]	; c000d58 <Timer_Stop+0x3c>
 c000d38:	e5933000 	ldr	r3, [r3]
 c000d3c:	e2633cff 	rsb	r3, r3, #65280	; 0xff00
 c000d40:	e28330ff 	add	r3, r3, #255	; 0xff
}
 c000d44:	e1a00003 	mov	r0, r3
 c000d48:	e24bd00c 	sub	sp, fp, #12
 c000d4c:	e89d6800 	ldm	sp, {fp, sp, lr}
 c000d50:	e12fff1e 	bx	lr
 c000d54:	01d30000 	.word	0x01d30000
 c000d58:	01d30008 	.word	0x01d30008

0c000d5c <Beep>:

void Beep(int BeepStatus)
{
 c000d5c:	e1a0c00d 	mov	ip, sp
 c000d60:	e92dd800 	push	{fp, ip, lr, pc}
 c000d64:	e24cb004 	sub	fp, ip, #4
 c000d68:	e24dd008 	sub	sp, sp, #8
 c000d6c:	e50b0010 	str	r0, [fp, #-16]
	if (BeepStatus==0)
 c000d70:	e51b3010 	ldr	r3, [fp, #-16]
 c000d74:	e3530000 	cmp	r3, #0
 c000d78:	1a000005 	bne	c000d94 <Beep+0x38>
		rPDATE=rPDATE|0x8;
 c000d7c:	e59f3034 	ldr	r3, [pc, #52]	; c000db8 <Beep+0x5c>
 c000d80:	e59f2030 	ldr	r2, [pc, #48]	; c000db8 <Beep+0x5c>
 c000d84:	e5922000 	ldr	r2, [r2]
 c000d88:	e3822008 	orr	r2, r2, #8
 c000d8c:	e5832000 	str	r2, [r3]
 c000d90:	ea000005 	b	c000dac <Beep+0x50>
	else
		rPDATE=rPDATE&0x1f7;
 c000d94:	e59f201c 	ldr	r2, [pc, #28]	; c000db8 <Beep+0x5c>
 c000d98:	e59f3018 	ldr	r3, [pc, #24]	; c000db8 <Beep+0x5c>
 c000d9c:	e5931000 	ldr	r1, [r3]
 c000da0:	e59f3014 	ldr	r3, [pc, #20]	; c000dbc <Beep+0x60>
 c000da4:	e0013003 	and	r3, r1, r3
 c000da8:	e5823000 	str	r3, [r2]

}
 c000dac:	e24bd00c 	sub	sp, fp, #12
 c000db0:	e89d6800 	ldm	sp, {fp, sp, lr}
 c000db4:	e12fff1e 	bx	lr
 c000db8:	01d2002c 	.word	0x01d2002c
 c000dbc:	000001f7 	.word	0x000001f7

0c000dc0 <ChangePllValue>:

//------------------------ PLL ------------------------------//
void ChangePllValue(int mdiv,int pdiv,int sdiv)
{
 c000dc0:	e1a0c00d 	mov	ip, sp
 c000dc4:	e92dd800 	push	{fp, ip, lr, pc}
 c000dc8:	e24cb004 	sub	fp, ip, #4
 c000dcc:	e24dd010 	sub	sp, sp, #16
 c000dd0:	e50b0010 	str	r0, [fp, #-16]
 c000dd4:	e50b1014 	str	r1, [fp, #-20]	; 0xffffffec
 c000dd8:	e50b2018 	str	r2, [fp, #-24]	; 0xffffffe8
    rPLLCON=(mdiv<<12)|(pdiv<<4)|sdiv;
 c000ddc:	e3a03776 	mov	r3, #30932992	; 0x1d80000
 c000de0:	e51b2010 	ldr	r2, [fp, #-16]
 c000de4:	e1a01602 	lsl	r1, r2, #12
 c000de8:	e51b2014 	ldr	r2, [fp, #-20]	; 0xffffffec
 c000dec:	e1a02202 	lsl	r2, r2, #4
 c000df0:	e1811002 	orr	r1, r1, r2
 c000df4:	e51b2018 	ldr	r2, [fp, #-24]	; 0xffffffe8
 c000df8:	e1812002 	orr	r2, r1, r2
 c000dfc:	e5832000 	str	r2, [r3]
}
 c000e00:	e24bd00c 	sub	sp, fp, #12
 c000e04:	e89d6800 	ldm	sp, {fp, sp, lr}
 c000e08:	e12fff1e 	bx	lr

0c000e0c <malloc>:

//------------------------ General Library ------------------------------//
void * malloc(unsigned nbyte) 
/*Very simple; Use malloc() & free() like Stack*/
//void *mallocPt=Image$$RW$$Limit;
{
 c000e0c:	e1a0c00d 	mov	ip, sp
 c000e10:	e92dd800 	push	{fp, ip, lr, pc}
 c000e14:	e24cb004 	sub	fp, ip, #4
 c000e18:	e24dd010 	sub	sp, sp, #16
 c000e1c:	e50b0018 	str	r0, [fp, #-24]	; 0xffffffe8
    void *returnPt=mallocPt;
 c000e20:	e59f307c 	ldr	r3, [pc, #124]	; c000ea4 <malloc+0x98>
 c000e24:	e5933000 	ldr	r3, [r3]
 c000e28:	e50b3010 	str	r3, [fp, #-16]

    mallocPt= (int *)mallocPt+nbyte/4+((nbyte%4)>0); //to align 4byte
 c000e2c:	e59f3070 	ldr	r3, [pc, #112]	; c000ea4 <malloc+0x98>
 c000e30:	e5932000 	ldr	r2, [r3]
 c000e34:	e51b3018 	ldr	r3, [fp, #-24]	; 0xffffffe8
 c000e38:	e1a01123 	lsr	r1, r3, #2
 c000e3c:	e51b3018 	ldr	r3, [fp, #-24]	; 0xffffffe8
 c000e40:	e2033003 	and	r3, r3, #3
 c000e44:	e3530000 	cmp	r3, #0
 c000e48:	03a03000 	moveq	r3, #0
 c000e4c:	13a03001 	movne	r3, #1
 c000e50:	e0813003 	add	r3, r1, r3
 c000e54:	e1a03103 	lsl	r3, r3, #2
 c000e58:	e0822003 	add	r2, r2, r3
 c000e5c:	e59f3040 	ldr	r3, [pc, #64]	; c000ea4 <malloc+0x98>
 c000e60:	e5832000 	str	r2, [r3]

    if( (int)mallocPt > HEAPEND )
 c000e64:	e59f3038 	ldr	r3, [pc, #56]	; c000ea4 <malloc+0x98>
 c000e68:	e5933000 	ldr	r3, [r3]
 c000e6c:	e1a02003 	mov	r2, r3
 c000e70:	e59f3030 	ldr	r3, [pc, #48]	; c000ea8 <malloc+0x9c>
 c000e74:	e1520003 	cmp	r2, r3
 c000e78:	da000004 	ble	c000e90 <malloc+0x84>
    {
		mallocPt=returnPt;
 c000e7c:	e59f3020 	ldr	r3, [pc, #32]	; c000ea4 <malloc+0x98>
 c000e80:	e51b2010 	ldr	r2, [fp, #-16]
 c000e84:	e5832000 	str	r2, [r3]
		return NULL;
 c000e88:	e3a03000 	mov	r3, #0
 c000e8c:	ea000000 	b	c000e94 <malloc+0x88>
    }
    return returnPt;
 c000e90:	e51b3010 	ldr	r3, [fp, #-16]
}
 c000e94:	e1a00003 	mov	r0, r3
 c000e98:	e24bd00c 	sub	sp, fp, #12
 c000e9c:	e89d6800 	ldm	sp, {fp, sp, lr}
 c000ea0:	e12fff1e 	bx	lr
 c000ea4:	0c00be08 	.word	0x0c00be08
 c000ea8:	0c7ff000 	.word	0x0c7ff000

0c000eac <free>:

void free(void *pt)
{
 c000eac:	e1a0c00d 	mov	ip, sp
 c000eb0:	e92dd800 	push	{fp, ip, lr, pc}
 c000eb4:	e24cb004 	sub	fp, ip, #4
 c000eb8:	e24dd008 	sub	sp, sp, #8
 c000ebc:	e50b0010 	str	r0, [fp, #-16]
    mallocPt=pt;
 c000ec0:	e59f3010 	ldr	r3, [pc, #16]	; c000ed8 <free+0x2c>
 c000ec4:	e51b2010 	ldr	r2, [fp, #-16]
 c000ec8:	e5832000 	str	r2, [r3]
}
 c000ecc:	e24bd00c 	sub	sp, fp, #12
 c000ed0:	e89d6800 	ldm	sp, {fp, sp, lr}
 c000ed4:	e12fff1e 	bx	lr
 c000ed8:	0c00be08 	.word	0x0c00be08

0c000edc <Cache_Flush>:

void Cache_Flush(void)
{
 c000edc:	e1a0c00d 	mov	ip, sp
 c000ee0:	e92dd800 	push	{fp, ip, lr, pc}
 c000ee4:	e24cb004 	sub	fp, ip, #4
 c000ee8:	e24dd008 	sub	sp, sp, #8
    int i,saveSyscfg;
    
    saveSyscfg=rSYSCFG;
 c000eec:	e3a03507 	mov	r3, #29360128	; 0x1c00000
 c000ef0:	e5933000 	ldr	r3, [r3]
 c000ef4:	e50b3014 	str	r3, [fp, #-20]	; 0xffffffec

    rSYSCFG=SYSCFG_0KB; 		      
 c000ef8:	e3a03507 	mov	r3, #29360128	; 0x1c00000
 c000efc:	e3a02008 	mov	r2, #8
 c000f00:	e5832000 	str	r2, [r3]
    for(i=0x10004000;i<0x10004800;i+=16)    
 c000f04:	e59f3044 	ldr	r3, [pc, #68]	; c000f50 <Cache_Flush+0x74>
 c000f08:	e50b3010 	str	r3, [fp, #-16]
 c000f0c:	ea000005 	b	c000f28 <Cache_Flush+0x4c>
    {					   
		*((int *)i)=0x0;		   
 c000f10:	e51b3010 	ldr	r3, [fp, #-16]
 c000f14:	e3a02000 	mov	r2, #0
 c000f18:	e5832000 	str	r2, [r3]
    int i,saveSyscfg;
    
    saveSyscfg=rSYSCFG;

    rSYSCFG=SYSCFG_0KB; 		      
    for(i=0x10004000;i<0x10004800;i+=16)    
 c000f1c:	e51b3010 	ldr	r3, [fp, #-16]
 c000f20:	e2833010 	add	r3, r3, #16
 c000f24:	e50b3010 	str	r3, [fp, #-16]
 c000f28:	e51b2010 	ldr	r2, [fp, #-16]
 c000f2c:	e59f3020 	ldr	r3, [pc, #32]	; c000f54 <Cache_Flush+0x78>
 c000f30:	e1520003 	cmp	r2, r3
 c000f34:	dafffff5 	ble	c000f10 <Cache_Flush+0x34>
    {					   
		*((int *)i)=0x0;		   
    }
    rSYSCFG=saveSyscfg; 			    
 c000f38:	e3a03507 	mov	r3, #29360128	; 0x1c00000
 c000f3c:	e51b2014 	ldr	r2, [fp, #-20]	; 0xffffffec
 c000f40:	e5832000 	str	r2, [r3]
}
 c000f44:	e24bd00c 	sub	sp, fp, #12
 c000f48:	e89d6800 	ldm	sp, {fp, sp, lr}
 c000f4c:	e12fff1e 	bx	lr
 c000f50:	10004000 	.word	0x10004000
 c000f54:	100047ff 	.word	0x100047ff

0c000f58 <sys_init>:

void sys_init()// Interrupt,Port and UART
{
 c000f58:	e1a0c00d 	mov	ip, sp
 c000f5c:	e92dd800 	push	{fp, ip, lr, pc}
 c000f60:	e24cb004 	sub	fp, ip, #4
	/* enable interrupt */
	rINTMOD = 0x0;
 c000f64:	e59f304c 	ldr	r3, [pc, #76]	; c000fb8 <sys_init+0x60>
 c000f68:	e3a02000 	mov	r2, #0
 c000f6c:	e5832000 	str	r2, [r3]
	rINTCON = 0x1;
 c000f70:	e3a0361e 	mov	r3, #31457280	; 0x1e00000
 c000f74:	e3a02001 	mov	r2, #1
 c000f78:	e5832000 	str	r2, [r3]
	rI_ISPC = 0xffffffff;			// clear all interrupt pend
 c000f7c:	e59f3038 	ldr	r3, [pc, #56]	; c000fbc <sys_init+0x64>
 c000f80:	e3e02000 	mvn	r2, #0
 c000f84:	e5832000 	str	r2, [r3]
	rEXTINTPND = 0xf;				  // clear EXTINTPND reg
 c000f88:	e59f3030 	ldr	r3, [pc, #48]	; c000fc0 <sys_init+0x68>
 c000f8c:	e3a0200f 	mov	r2, #15
 c000f90:	e5832000 	str	r2, [r3]
	Port_Init();					    // Initial 44B0X's I/O port
 c000f94:	ebfffe55 	bl	c0008f0 <Port_Init>
	Delay(0);						      // delay time				
 c000f98:	e3a00000 	mov	r0, #0
 c000f9c:	ebfffdda 	bl	c00070c <Delay>
	rINTMSK = ~(BIT_GLOBAL);  //enable interrupt mask vector
 c000fa0:	e59f301c 	ldr	r3, [pc, #28]	; c000fc4 <sys_init+0x6c>
 c000fa4:	e3e02301 	mvn	r2, #67108864	; 0x4000000
 c000fa8:	e5832000 	str	r2, [r3]
}
 c000fac:	e24bd00c 	sub	sp, fp, #12
 c000fb0:	e89d6800 	ldm	sp, {fp, sp, lr}
 c000fb4:	e12fff1e 	bx	lr
 c000fb8:	01e00008 	.word	0x01e00008
 c000fbc:	01e00024 	.word	0x01e00024
 c000fc0:	01d20054 	.word	0x01d20054
 c000fc4:	01e0000c 	.word	0x01e0000c

0c000fc8 <D8Led_init>:
static int
Symbol[size_8led] = { cero, uno, dos, tres, cuatro, cinco, seis, siete, ocho, nueve, A, B, C, D, E, F, blank};

/*--- cdigo de las funciones ---*/
void D8Led_init(void)
{
 c000fc8:	e1a0c00d 	mov	ip, sp
 c000fcc:	e92dd800 	push	{fp, ip, lr, pc}
 c000fd0:	e24cb004 	sub	fp, ip, #4
	/* Estado inicial del display con todos los segmentos iluminados
	   (buscar en los ficheros de cabecera la direccion implicada) */
	LED8ADDR = (unsigned char) cero;
 c000fd4:	e3a03785 	mov	r3, #34865152	; 0x2140000
 c000fd8:	e3a02012 	mov	r2, #18
 c000fdc:	e5c32000 	strb	r2, [r3]
}
 c000fe0:	e24bd00c 	sub	sp, fp, #12
 c000fe4:	e89d6800 	ldm	sp, {fp, sp, lr}
 c000fe8:	e12fff1e 	bx	lr

0c000fec <D8Led_symbol>:

void D8Led_symbol(int value)
{
 c000fec:	e1a0c00d 	mov	ip, sp
 c000ff0:	e92dd800 	push	{fp, ip, lr, pc}
 c000ff4:	e24cb004 	sub	fp, ip, #4
 c000ff8:	e24dd008 	sub	sp, sp, #8
 c000ffc:	e50b0010 	str	r0, [fp, #-16]
	/* muestra el Symbol[value] en el display (analogo al caso anterior) */
	if ((value >= 0) && (value < size_8led)) {
 c001000:	e51b3010 	ldr	r3, [fp, #-16]
 c001004:	e3530000 	cmp	r3, #0
 c001008:	ba000008 	blt	c001030 <D8Led_symbol+0x44>
 c00100c:	e51b3010 	ldr	r3, [fp, #-16]
 c001010:	e3530010 	cmp	r3, #16
 c001014:	ca000005 	bgt	c001030 <D8Led_symbol+0x44>
		LED8ADDR = (unsigned char) Symbol[value];
 c001018:	e3a03785 	mov	r3, #34865152	; 0x2140000
 c00101c:	e59f2018 	ldr	r2, [pc, #24]	; c00103c <D8Led_symbol+0x50>
 c001020:	e51b1010 	ldr	r1, [fp, #-16]
 c001024:	e7922101 	ldr	r2, [r2, r1, lsl #2]
 c001028:	e20220ff 	and	r2, r2, #255	; 0xff
 c00102c:	e5c32000 	strb	r2, [r3]
	}
}
 c001030:	e24bd00c 	sub	sp, fp, #12
 c001034:	e89d6800 	ldm	sp, {fp, sp, lr}
 c001038:	e12fff1e 	bx	lr
 c00103c:	0c00be14 	.word	0x0c00be14

0c001040 <BitmapView>:
* ret:		none
* modify:
* comment:		
*********************************************************************************************/
void BitmapView (INT16U x, INT16U y, STRU_BITMAP Stru_Bitmap)
{
 c001040:	e1a0c00d 	mov	ip, sp
 c001044:	e24dd008 	sub	sp, sp, #8
 c001048:	e92dd800 	push	{fp, ip, lr, pc}
 c00104c:	e24cb00c 	sub	fp, ip, #12
 c001050:	e24dd018 	sub	sp, sp, #24
 c001054:	e28bc004 	add	ip, fp, #4
 c001058:	e88c000c 	stm	ip, {r2, r3}
 c00105c:	e14b01be 	strh	r0, [fp, #-30]	; 0xffffffe2
 c001060:	e14b12b0 	strh	r1, [fp, #-32]	; 0xffffffe0
	INT32U i, j;
	INT8U ucColor;
	
	for (i =  0; i < Stru_Bitmap.usHeight; i++)
 c001064:	e3a03000 	mov	r3, #0
 c001068:	e50b3010 	str	r3, [fp, #-16]
 c00106c:	ea00004e 	b	c0011ac <BitmapView+0x16c>
	{
		for (j = 0; j <Stru_Bitmap.usWidth; j++)
 c001070:	e3a03000 	mov	r3, #0
 c001074:	e50b3014 	str	r3, [fp, #-20]	; 0xffffffec
 c001078:	ea000043 	b	c00118c <BitmapView+0x14c>
		{
			if ((ucColor = *(INT8U*)(Stru_Bitmap.pucStart + i * Stru_Bitmap.usWidth + j)) != TRANSPARENCY)
 c00107c:	e59b2010 	ldr	r2, [fp, #16]
 c001080:	e1db30b6 	ldrh	r3, [fp, #6]
 c001084:	e51b1010 	ldr	r1, [fp, #-16]
 c001088:	e0010193 	mul	r1, r3, r1
 c00108c:	e51b3014 	ldr	r3, [fp, #-20]	; 0xffffffec
 c001090:	e0813003 	add	r3, r1, r3
 c001094:	e0823003 	add	r3, r2, r3
 c001098:	e5d33000 	ldrb	r3, [r3]
 c00109c:	e54b3015 	strb	r3, [fp, #-21]	; 0xffffffeb
 c0010a0:	e55b3015 	ldrb	r3, [fp, #-21]	; 0xffffffeb
 c0010a4:	e35300ff 	cmp	r3, #255	; 0xff
 c0010a8:	0a000034 	beq	c001180 <BitmapView+0x140>
			{
				LCD_PutPixel(x + j, y + i, ucColor); 
 c0010ac:	e15b22b0 	ldrh	r2, [fp, #-32]	; 0xffffffe0
 c0010b0:	e51b3010 	ldr	r3, [fp, #-16]
 c0010b4:	e0822003 	add	r2, r2, r3
 c0010b8:	e1a03002 	mov	r3, r2
 c0010bc:	e1a03103 	lsl	r3, r3, #2
 c0010c0:	e0833002 	add	r3, r3, r2
 c0010c4:	e1a03303 	lsl	r3, r3, #6
 c0010c8:	e1a020a3 	lsr	r2, r3, #1
 c0010cc:	e15b11be 	ldrh	r1, [fp, #-30]	; 0xffffffe2
 c0010d0:	e51b3014 	ldr	r3, [fp, #-20]	; 0xffffffec
 c0010d4:	e0813003 	add	r3, r1, r3
 c0010d8:	e1a031a3 	lsr	r3, r3, #3
 c0010dc:	e1a03103 	lsl	r3, r3, #2
 c0010e0:	e0823003 	add	r3, r2, r3
 c0010e4:	e28336c3 	add	r3, r3, #204472320	; 0xc300000
 c0010e8:	e2833c96 	add	r3, r3, #38400	; 0x9600
 c0010ec:	e1a01003 	mov	r1, r3
 c0010f0:	e15b22b0 	ldrh	r2, [fp, #-32]	; 0xffffffe0
 c0010f4:	e51b3010 	ldr	r3, [fp, #-16]
 c0010f8:	e0822003 	add	r2, r2, r3
 c0010fc:	e1a03002 	mov	r3, r2
 c001100:	e1a03103 	lsl	r3, r3, #2
 c001104:	e0833002 	add	r3, r3, r2
 c001108:	e1a03303 	lsl	r3, r3, #6
 c00110c:	e1a020a3 	lsr	r2, r3, #1
 c001110:	e15b01be 	ldrh	r0, [fp, #-30]	; 0xffffffe2
 c001114:	e51b3014 	ldr	r3, [fp, #-20]	; 0xffffffec
 c001118:	e0803003 	add	r3, r0, r3
 c00111c:	e1a031a3 	lsr	r3, r3, #3
 c001120:	e1a03103 	lsl	r3, r3, #2
 c001124:	e0823003 	add	r3, r2, r3
 c001128:	e28336c3 	add	r3, r3, #204472320	; 0xc300000
 c00112c:	e2833c96 	add	r3, r3, #38400	; 0x9600
 c001130:	e5932000 	ldr	r2, [r3]
 c001134:	e15b01be 	ldrh	r0, [fp, #-30]	; 0xffffffe2
 c001138:	e51b3014 	ldr	r3, [fp, #-20]	; 0xffffffec
 c00113c:	e0803003 	add	r3, r0, r3
 c001140:	e2033007 	and	r3, r3, #7
 c001144:	e1a03103 	lsl	r3, r3, #2
 c001148:	e3a0020f 	mov	r0, #-268435456	; 0xf0000000
 c00114c:	e1a03330 	lsr	r3, r0, r3
 c001150:	e1e03003 	mvn	r3, r3
 c001154:	e0022003 	and	r2, r2, r3
 c001158:	e55b0015 	ldrb	r0, [fp, #-21]	; 0xffffffeb
 c00115c:	e15bc1be 	ldrh	ip, [fp, #-30]	; 0xffffffe2
 c001160:	e51b3014 	ldr	r3, [fp, #-20]	; 0xffffffec
 c001164:	e08c3003 	add	r3, ip, r3
 c001168:	e1e03003 	mvn	r3, r3
 c00116c:	e2033007 	and	r3, r3, #7
 c001170:	e1a03103 	lsl	r3, r3, #2
 c001174:	e1a03310 	lsl	r3, r0, r3
 c001178:	e1823003 	orr	r3, r2, r3
 c00117c:	e5813000 	str	r3, [r1]
	INT32U i, j;
	INT8U ucColor;
	
	for (i =  0; i < Stru_Bitmap.usHeight; i++)
	{
		for (j = 0; j <Stru_Bitmap.usWidth; j++)
 c001180:	e51b3014 	ldr	r3, [fp, #-20]	; 0xffffffec
 c001184:	e2833001 	add	r3, r3, #1
 c001188:	e50b3014 	str	r3, [fp, #-20]	; 0xffffffec
 c00118c:	e1db30b6 	ldrh	r3, [fp, #6]
 c001190:	e1a02003 	mov	r2, r3
 c001194:	e51b3014 	ldr	r3, [fp, #-20]	; 0xffffffec
 c001198:	e1520003 	cmp	r2, r3
 c00119c:	8affffb6 	bhi	c00107c <BitmapView+0x3c>
void BitmapView (INT16U x, INT16U y, STRU_BITMAP Stru_Bitmap)
{
	INT32U i, j;
	INT8U ucColor;
	
	for (i =  0; i < Stru_Bitmap.usHeight; i++)
 c0011a0:	e51b3010 	ldr	r3, [fp, #-16]
 c0011a4:	e2833001 	add	r3, r3, #1
 c0011a8:	e50b3010 	str	r3, [fp, #-16]
 c0011ac:	e1db30b8 	ldrh	r3, [fp, #8]
 c0011b0:	e1a02003 	mov	r2, r3
 c0011b4:	e51b3010 	ldr	r3, [fp, #-16]
 c0011b8:	e1520003 	cmp	r2, r3
 c0011bc:	8affffab 	bhi	c001070 <BitmapView+0x30>
			{
				LCD_PutPixel(x + j, y + i, ucColor); 
			}
		}
	}
}
 c0011c0:	e24bd00c 	sub	sp, fp, #12
 c0011c4:	e89d6800 	ldm	sp, {fp, sp, lr}
 c0011c8:	e12fff1e 	bx	lr

0c0011cc <BitmapPush>:
* ret:		none
* modify:
* comment:		
*********************************************************************************************/
void BitmapPush (INT16U x, INT16U y, STRU_BITMAP Stru_Bitmap)
{
 c0011cc:	e1a0c00d 	mov	ip, sp
 c0011d0:	e24dd008 	sub	sp, sp, #8
 c0011d4:	e92dd800 	push	{fp, ip, lr, pc}
 c0011d8:	e24cb00c 	sub	fp, ip, #12
 c0011dc:	e24dd010 	sub	sp, sp, #16
 c0011e0:	e28bc004 	add	ip, fp, #4
 c0011e4:	e88c000c 	stm	ip, {r2, r3}
 c0011e8:	e14b01b6 	strh	r0, [fp, #-22]	; 0xffffffea
 c0011ec:	e14b11b8 	strh	r1, [fp, #-24]	; 0xffffffe8
	INT32U i, j;

	ulMouseX = x; 
 c0011f0:	e59f3234 	ldr	r3, [pc, #564]	; c00142c <BitmapPush+0x260>
 c0011f4:	e15b21b6 	ldrh	r2, [fp, #-22]	; 0xffffffea
 c0011f8:	e1c320b0 	strh	r2, [r3]
	ulMouseY = y;
 c0011fc:	e59f322c 	ldr	r3, [pc, #556]	; c001430 <BitmapPush+0x264>
 c001200:	e15b21b8 	ldrh	r2, [fp, #-24]	; 0xffffffe8
 c001204:	e1c320b0 	strh	r2, [r3]
	for (i =  0; i < Stru_Bitmap.usHeight; i++)
 c001208:	e3a03000 	mov	r3, #0
 c00120c:	e50b3010 	str	r3, [fp, #-16]
 c001210:	ea00007d 	b	c00140c <BitmapPush+0x240>
	{
		for (j = 0; j < Stru_Bitmap.usWidth; j+=2)
 c001214:	e3a03000 	mov	r3, #0
 c001218:	e50b3014 	str	r3, [fp, #-20]	; 0xffffffec
 c00121c:	ea000072 	b	c0013ec <BitmapPush+0x220>
		{
			if ((x + j)%2)
 c001220:	e15b21b6 	ldrh	r2, [fp, #-22]	; 0xffffffea
 c001224:	e51b3014 	ldr	r3, [fp, #-20]	; 0xffffffec
 c001228:	e0823003 	add	r3, r2, r3
 c00122c:	e2033001 	and	r3, r3, #1
 c001230:	e20330ff 	and	r3, r3, #255	; 0xff
 c001234:	e3530000 	cmp	r3, #0
 c001238:	0a000044 	beq	c001350 <BitmapPush+0x184>
			{
				ucCursorBackUp[i][j/2] =
 c00123c:	e51b3014 	ldr	r3, [fp, #-20]	; 0xffffffec
 c001240:	e1a0c0a3 	lsr	ip, r3, #1
				(((*(INT8U*)(LCD_ACTIVE_BUFFER + (y + i) * SCR_XSIZE / 2 + (x + j) / 8 * 4  + 3 - ((x + j)%8) / 2)) << 4) & 0xf0) + 
 c001244:	e15b21b8 	ldrh	r2, [fp, #-24]	; 0xffffffe8
 c001248:	e51b3010 	ldr	r3, [fp, #-16]
 c00124c:	e0822003 	add	r2, r2, r3
 c001250:	e1a03002 	mov	r3, r2
 c001254:	e1a03103 	lsl	r3, r3, #2
 c001258:	e0833002 	add	r3, r3, r2
 c00125c:	e1a03303 	lsl	r3, r3, #6
 c001260:	e1a020a3 	lsr	r2, r3, #1
 c001264:	e15b11b6 	ldrh	r1, [fp, #-22]	; 0xffffffea
 c001268:	e51b3014 	ldr	r3, [fp, #-20]	; 0xffffffec
 c00126c:	e0813003 	add	r3, r1, r3
 c001270:	e1a031a3 	lsr	r3, r3, #3
 c001274:	e1a03103 	lsl	r3, r3, #2
 c001278:	e0822003 	add	r2, r2, r3
 c00127c:	e15b11b6 	ldrh	r1, [fp, #-22]	; 0xffffffea
 c001280:	e51b3014 	ldr	r3, [fp, #-20]	; 0xffffffec
 c001284:	e0813003 	add	r3, r1, r3
 c001288:	e2033007 	and	r3, r3, #7
 c00128c:	e1a030a3 	lsr	r3, r3, #1
 c001290:	e2633000 	rsb	r3, r3, #0
 c001294:	e0823003 	add	r3, r2, r3
 c001298:	e28336c3 	add	r3, r3, #204472320	; 0xc300000
 c00129c:	e2833003 	add	r3, r3, #3
 c0012a0:	e5d33000 	ldrb	r3, [r3]
 c0012a4:	e1a03203 	lsl	r3, r3, #4
	{
		for (j = 0; j < Stru_Bitmap.usWidth; j+=2)
		{
			if ((x + j)%2)
			{
				ucCursorBackUp[i][j/2] =
 c0012a8:	e20310ff 	and	r1, r3, #255	; 0xff
				(((*(INT8U*)(LCD_ACTIVE_BUFFER + (y + i) * SCR_XSIZE / 2 + (x + j) / 8 * 4  + 3 - ((x + j)%8) / 2)) << 4) & 0xf0) + 
				(((*(INT8U*)(LCD_ACTIVE_BUFFER + (y + i) * SCR_XSIZE / 2 + (x + j+1) / 8 * 4  + 3 - ((x + j+1)%8) / 2)) >> 4) & 0x0f);
 c0012ac:	e15b21b8 	ldrh	r2, [fp, #-24]	; 0xffffffe8
 c0012b0:	e51b3010 	ldr	r3, [fp, #-16]
 c0012b4:	e0822003 	add	r2, r2, r3
 c0012b8:	e1a03002 	mov	r3, r2
 c0012bc:	e1a03103 	lsl	r3, r3, #2
 c0012c0:	e0833002 	add	r3, r3, r2
 c0012c4:	e1a03303 	lsl	r3, r3, #6
 c0012c8:	e1a020a3 	lsr	r2, r3, #1
 c0012cc:	e15b01b6 	ldrh	r0, [fp, #-22]	; 0xffffffea
 c0012d0:	e51b3014 	ldr	r3, [fp, #-20]	; 0xffffffec
 c0012d4:	e0803003 	add	r3, r0, r3
 c0012d8:	e2833001 	add	r3, r3, #1
 c0012dc:	e1a031a3 	lsr	r3, r3, #3
 c0012e0:	e1a03103 	lsl	r3, r3, #2
 c0012e4:	e0822003 	add	r2, r2, r3
 c0012e8:	e15b01b6 	ldrh	r0, [fp, #-22]	; 0xffffffea
 c0012ec:	e51b3014 	ldr	r3, [fp, #-20]	; 0xffffffec
 c0012f0:	e0803003 	add	r3, r0, r3
 c0012f4:	e2833001 	add	r3, r3, #1
 c0012f8:	e2033007 	and	r3, r3, #7
 c0012fc:	e1a030a3 	lsr	r3, r3, #1
 c001300:	e2633000 	rsb	r3, r3, #0
 c001304:	e0823003 	add	r3, r2, r3
 c001308:	e28336c3 	add	r3, r3, #204472320	; 0xc300000
 c00130c:	e2833003 	add	r3, r3, #3
 c001310:	e5d33000 	ldrb	r3, [r3]
	{
		for (j = 0; j < Stru_Bitmap.usWidth; j+=2)
		{
			if ((x + j)%2)
			{
				ucCursorBackUp[i][j/2] =
 c001314:	e1a03223 	lsr	r3, r3, #4
 c001318:	e20330ff 	and	r3, r3, #255	; 0xff
 c00131c:	e0813003 	add	r3, r1, r3
 c001320:	e20310ff 	and	r1, r3, #255	; 0xff
 c001324:	e59f0108 	ldr	r0, [pc, #264]	; c001434 <BitmapPush+0x268>
 c001328:	e51b2010 	ldr	r2, [fp, #-16]
 c00132c:	e1a03002 	mov	r3, r2
 c001330:	e1a03083 	lsl	r3, r3, #1
 c001334:	e0833002 	add	r3, r3, r2
 c001338:	e1a03083 	lsl	r3, r3, #1
 c00133c:	e083300c 	add	r3, r3, ip
 c001340:	e0803003 	add	r3, r0, r3
 c001344:	e1a02001 	mov	r2, r1
 c001348:	e5c32000 	strb	r2, [r3]
 c00134c:	ea000023 	b	c0013e0 <BitmapPush+0x214>
				(((*(INT8U*)(LCD_ACTIVE_BUFFER + (y + i) * SCR_XSIZE / 2 + (x + j) / 8 * 4  + 3 - ((x + j)%8) / 2)) << 4) & 0xf0) + 
				(((*(INT8U*)(LCD_ACTIVE_BUFFER + (y + i) * SCR_XSIZE / 2 + (x + j+1) / 8 * 4  + 3 - ((x + j+1)%8) / 2)) >> 4) & 0x0f);
			}
			else
			{
				ucCursorBackUp[i][j/2] = (*(INT8U*)(LCD_ACTIVE_BUFFER + (y + i) * SCR_XSIZE / 2 + (x + j) / 8 * 4  + 3 - ((x + j)%8) / 2));
 c001350:	e51b3014 	ldr	r3, [fp, #-20]	; 0xffffffec
 c001354:	e1a0c0a3 	lsr	ip, r3, #1
 c001358:	e15b21b8 	ldrh	r2, [fp, #-24]	; 0xffffffe8
 c00135c:	e51b3010 	ldr	r3, [fp, #-16]
 c001360:	e0822003 	add	r2, r2, r3
 c001364:	e1a03002 	mov	r3, r2
 c001368:	e1a03103 	lsl	r3, r3, #2
 c00136c:	e0833002 	add	r3, r3, r2
 c001370:	e1a03303 	lsl	r3, r3, #6
 c001374:	e1a020a3 	lsr	r2, r3, #1
 c001378:	e15b11b6 	ldrh	r1, [fp, #-22]	; 0xffffffea
 c00137c:	e51b3014 	ldr	r3, [fp, #-20]	; 0xffffffec
 c001380:	e0813003 	add	r3, r1, r3
 c001384:	e1a031a3 	lsr	r3, r3, #3
 c001388:	e1a03103 	lsl	r3, r3, #2
 c00138c:	e0822003 	add	r2, r2, r3
 c001390:	e15b11b6 	ldrh	r1, [fp, #-22]	; 0xffffffea
 c001394:	e51b3014 	ldr	r3, [fp, #-20]	; 0xffffffec
 c001398:	e0813003 	add	r3, r1, r3
 c00139c:	e2033007 	and	r3, r3, #7
 c0013a0:	e1a030a3 	lsr	r3, r3, #1
 c0013a4:	e2633000 	rsb	r3, r3, #0
 c0013a8:	e0823003 	add	r3, r2, r3
 c0013ac:	e28336c3 	add	r3, r3, #204472320	; 0xc300000
 c0013b0:	e2833003 	add	r3, r3, #3
 c0013b4:	e5d31000 	ldrb	r1, [r3]
 c0013b8:	e59f0074 	ldr	r0, [pc, #116]	; c001434 <BitmapPush+0x268>
 c0013bc:	e51b2010 	ldr	r2, [fp, #-16]
 c0013c0:	e1a03002 	mov	r3, r2
 c0013c4:	e1a03083 	lsl	r3, r3, #1
 c0013c8:	e0833002 	add	r3, r3, r2
 c0013cc:	e1a03083 	lsl	r3, r3, #1
 c0013d0:	e083300c 	add	r3, r3, ip
 c0013d4:	e0803003 	add	r3, r0, r3
 c0013d8:	e1a02001 	mov	r2, r1
 c0013dc:	e5c32000 	strb	r2, [r3]

	ulMouseX = x; 
	ulMouseY = y;
	for (i =  0; i < Stru_Bitmap.usHeight; i++)
	{
		for (j = 0; j < Stru_Bitmap.usWidth; j+=2)
 c0013e0:	e51b3014 	ldr	r3, [fp, #-20]	; 0xffffffec
 c0013e4:	e2833002 	add	r3, r3, #2
 c0013e8:	e50b3014 	str	r3, [fp, #-20]	; 0xffffffec
 c0013ec:	e1db30b6 	ldrh	r3, [fp, #6]
 c0013f0:	e1a02003 	mov	r2, r3
 c0013f4:	e51b3014 	ldr	r3, [fp, #-20]	; 0xffffffec
 c0013f8:	e1520003 	cmp	r2, r3
 c0013fc:	8affff87 	bhi	c001220 <BitmapPush+0x54>
{
	INT32U i, j;

	ulMouseX = x; 
	ulMouseY = y;
	for (i =  0; i < Stru_Bitmap.usHeight; i++)
 c001400:	e51b3010 	ldr	r3, [fp, #-16]
 c001404:	e2833001 	add	r3, r3, #1
 c001408:	e50b3010 	str	r3, [fp, #-16]
 c00140c:	e1db30b8 	ldrh	r3, [fp, #8]
 c001410:	e1a02003 	mov	r2, r3
 c001414:	e51b3010 	ldr	r3, [fp, #-16]
 c001418:	e1520003 	cmp	r2, r3
 c00141c:	8affff7c 	bhi	c001214 <BitmapPush+0x48>
			{
				ucCursorBackUp[i][j/2] = (*(INT8U*)(LCD_ACTIVE_BUFFER + (y + i) * SCR_XSIZE / 2 + (x + j) / 8 * 4  + 3 - ((x + j)%8) / 2));
			}
		}
	}
}
 c001420:	e24bd00c 	sub	sp, fp, #12
 c001424:	e89d6800 	ldm	sp, {fp, sp, lr}
 c001428:	e12fff1e 	bx	lr
 c00142c:	0c00efe6 	.word	0x0c00efe6
 c001430:	0c00efe4 	.word	0x0c00efe4
 c001434:	0c00ef6c 	.word	0x0c00ef6c

0c001438 <BitmapPop>:
* ret:		none
* modify:
* comment:		
*********************************************************************************************/
void BitmapPop(INT16U x, INT16U y, STRU_BITMAP Stru_Bitmap)
{
 c001438:	e1a0c00d 	mov	ip, sp
 c00143c:	e24dd008 	sub	sp, sp, #8
 c001440:	e92dd810 	push	{r4, fp, ip, lr, pc}
 c001444:	e24cb00c 	sub	fp, ip, #12
 c001448:	e24dd01c 	sub	sp, sp, #28
 c00144c:	e28bc004 	add	ip, fp, #4
 c001450:	e88c000c 	stm	ip, {r2, r3}
 c001454:	e14b02b6 	strh	r0, [fp, #-38]	; 0xffffffda
 c001458:	e14b12b8 	strh	r1, [fp, #-40]	; 0xffffffd8
	INT32U i, j;
	INT32U ulAddr, ulAddr1;

	for (i =  0; i < Stru_Bitmap.usHeight; i++)
 c00145c:	e3a03000 	mov	r3, #0
 c001460:	e50b3018 	str	r3, [fp, #-24]	; 0xffffffe8
 c001464:	ea00008d 	b	c0016a0 <BitmapPop+0x268>
	{
		for (j = 0; j <Stru_Bitmap.usWidth; j+=2)
 c001468:	e3a03000 	mov	r3, #0
 c00146c:	e50b301c 	str	r3, [fp, #-28]	; 0xffffffe4
 c001470:	ea000082 	b	c001680 <BitmapPop+0x248>
		{
			ulAddr = LCD_ACTIVE_BUFFER + (y + i) * SCR_XSIZE / 2 + (x + j) / 8 * 4 + 3 - ((x + j)%8) / 2;
 c001474:	e15b22b8 	ldrh	r2, [fp, #-40]	; 0xffffffd8
 c001478:	e51b3018 	ldr	r3, [fp, #-24]	; 0xffffffe8
 c00147c:	e0822003 	add	r2, r2, r3
 c001480:	e1a03002 	mov	r3, r2
 c001484:	e1a03103 	lsl	r3, r3, #2
 c001488:	e0833002 	add	r3, r3, r2
 c00148c:	e1a03303 	lsl	r3, r3, #6
 c001490:	e1a020a3 	lsr	r2, r3, #1
 c001494:	e15b12b6 	ldrh	r1, [fp, #-38]	; 0xffffffda
 c001498:	e51b301c 	ldr	r3, [fp, #-28]	; 0xffffffe4
 c00149c:	e0813003 	add	r3, r1, r3
 c0014a0:	e1a031a3 	lsr	r3, r3, #3
 c0014a4:	e1a03103 	lsl	r3, r3, #2
 c0014a8:	e0822003 	add	r2, r2, r3
 c0014ac:	e15b12b6 	ldrh	r1, [fp, #-38]	; 0xffffffda
 c0014b0:	e51b301c 	ldr	r3, [fp, #-28]	; 0xffffffe4
 c0014b4:	e0813003 	add	r3, r1, r3
 c0014b8:	e2033007 	and	r3, r3, #7
 c0014bc:	e1a030a3 	lsr	r3, r3, #1
 c0014c0:	e2633000 	rsb	r3, r3, #0
 c0014c4:	e0823003 	add	r3, r2, r3
 c0014c8:	e28336c3 	add	r3, r3, #204472320	; 0xc300000
 c0014cc:	e2833003 	add	r3, r3, #3
 c0014d0:	e50b3020 	str	r3, [fp, #-32]	; 0xffffffe0
			ulAddr1 =LCD_ACTIVE_BUFFER + (y + i) * SCR_XSIZE / 2 + (x + j + 1) / 8 * 4 + 3 - ((x + j + 1)%8) / 2;
 c0014d4:	e15b22b8 	ldrh	r2, [fp, #-40]	; 0xffffffd8
 c0014d8:	e51b3018 	ldr	r3, [fp, #-24]	; 0xffffffe8
 c0014dc:	e0822003 	add	r2, r2, r3
 c0014e0:	e1a03002 	mov	r3, r2
 c0014e4:	e1a03103 	lsl	r3, r3, #2
 c0014e8:	e0833002 	add	r3, r3, r2
 c0014ec:	e1a03303 	lsl	r3, r3, #6
 c0014f0:	e1a020a3 	lsr	r2, r3, #1
 c0014f4:	e15b12b6 	ldrh	r1, [fp, #-38]	; 0xffffffda
 c0014f8:	e51b301c 	ldr	r3, [fp, #-28]	; 0xffffffe4
 c0014fc:	e0813003 	add	r3, r1, r3
 c001500:	e2833001 	add	r3, r3, #1
 c001504:	e1a031a3 	lsr	r3, r3, #3
 c001508:	e1a03103 	lsl	r3, r3, #2
 c00150c:	e0822003 	add	r2, r2, r3
 c001510:	e15b12b6 	ldrh	r1, [fp, #-38]	; 0xffffffda
 c001514:	e51b301c 	ldr	r3, [fp, #-28]	; 0xffffffe4
 c001518:	e0813003 	add	r3, r1, r3
 c00151c:	e2833001 	add	r3, r3, #1
 c001520:	e2033007 	and	r3, r3, #7
 c001524:	e1a030a3 	lsr	r3, r3, #1
 c001528:	e2633000 	rsb	r3, r3, #0
 c00152c:	e0823003 	add	r3, r2, r3
 c001530:	e28336c3 	add	r3, r3, #204472320	; 0xc300000
 c001534:	e2833003 	add	r3, r3, #3
 c001538:	e50b3024 	str	r3, [fp, #-36]	; 0xffffffdc
			if ((x + j)%2)
 c00153c:	e15b22b6 	ldrh	r2, [fp, #-38]	; 0xffffffda
 c001540:	e51b301c 	ldr	r3, [fp, #-28]	; 0xffffffe4
 c001544:	e0823003 	add	r3, r2, r3
 c001548:	e2033001 	and	r3, r3, #1
 c00154c:	e20330ff 	and	r3, r3, #255	; 0xff
 c001550:	e3530000 	cmp	r3, #0
 c001554:	0a000039 	beq	c001640 <BitmapPop+0x208>
			{
				
				(*(INT8U*)ulAddr) &= 0xf0;
 c001558:	e51b3020 	ldr	r3, [fp, #-32]	; 0xffffffe0
 c00155c:	e51b2020 	ldr	r2, [fp, #-32]	; 0xffffffe0
 c001560:	e5d22000 	ldrb	r2, [r2]
 c001564:	e3c2200f 	bic	r2, r2, #15
 c001568:	e20220ff 	and	r2, r2, #255	; 0xff
 c00156c:	e5c32000 	strb	r2, [r3]
				(*(INT8U*)ulAddr) |= ((ucCursorBackUp[i][j/2] >> 4) & 0x0f);
 c001570:	e51b1020 	ldr	r1, [fp, #-32]	; 0xffffffe0
 c001574:	e51b3020 	ldr	r3, [fp, #-32]	; 0xffffffe0
 c001578:	e5d33000 	ldrb	r3, [r3]
 c00157c:	e20300ff 	and	r0, r3, #255	; 0xff
 c001580:	e51b301c 	ldr	r3, [fp, #-28]	; 0xffffffe4
 c001584:	e1a040a3 	lsr	r4, r3, #1
 c001588:	e59fc130 	ldr	ip, [pc, #304]	; c0016c0 <BitmapPop+0x288>
 c00158c:	e51b2018 	ldr	r2, [fp, #-24]	; 0xffffffe8
 c001590:	e1a03002 	mov	r3, r2
 c001594:	e1a03083 	lsl	r3, r3, #1
 c001598:	e0833002 	add	r3, r3, r2
 c00159c:	e1a03083 	lsl	r3, r3, #1
 c0015a0:	e0833004 	add	r3, r3, r4
 c0015a4:	e08c3003 	add	r3, ip, r3
 c0015a8:	e5d33000 	ldrb	r3, [r3]
 c0015ac:	e1a03223 	lsr	r3, r3, #4
 c0015b0:	e20330ff 	and	r3, r3, #255	; 0xff
 c0015b4:	e20330ff 	and	r3, r3, #255	; 0xff
 c0015b8:	e1a02000 	mov	r2, r0
 c0015bc:	e1823003 	orr	r3, r2, r3
 c0015c0:	e20330ff 	and	r3, r3, #255	; 0xff
 c0015c4:	e20330ff 	and	r3, r3, #255	; 0xff
 c0015c8:	e5c13000 	strb	r3, [r1]
				(*(INT8U*)ulAddr1) &= 0x0f;
 c0015cc:	e51b3024 	ldr	r3, [fp, #-36]	; 0xffffffdc
 c0015d0:	e51b2024 	ldr	r2, [fp, #-36]	; 0xffffffdc
 c0015d4:	e5d22000 	ldrb	r2, [r2]
 c0015d8:	e202200f 	and	r2, r2, #15
 c0015dc:	e20220ff 	and	r2, r2, #255	; 0xff
 c0015e0:	e5c32000 	strb	r2, [r3]
				(*(INT8U*)ulAddr1) |= ((ucCursorBackUp[i][j/2] << 4) & 0xf0);
 c0015e4:	e51b1024 	ldr	r1, [fp, #-36]	; 0xffffffdc
 c0015e8:	e51b3024 	ldr	r3, [fp, #-36]	; 0xffffffdc
 c0015ec:	e5d33000 	ldrb	r3, [r3]
 c0015f0:	e20300ff 	and	r0, r3, #255	; 0xff
 c0015f4:	e51b301c 	ldr	r3, [fp, #-28]	; 0xffffffe4
 c0015f8:	e1a040a3 	lsr	r4, r3, #1
 c0015fc:	e59fc0bc 	ldr	ip, [pc, #188]	; c0016c0 <BitmapPop+0x288>
 c001600:	e51b2018 	ldr	r2, [fp, #-24]	; 0xffffffe8
 c001604:	e1a03002 	mov	r3, r2
 c001608:	e1a03083 	lsl	r3, r3, #1
 c00160c:	e0833002 	add	r3, r3, r2
 c001610:	e1a03083 	lsl	r3, r3, #1
 c001614:	e0833004 	add	r3, r3, r4
 c001618:	e08c3003 	add	r3, ip, r3
 c00161c:	e5d33000 	ldrb	r3, [r3]
 c001620:	e1a03203 	lsl	r3, r3, #4
 c001624:	e20330ff 	and	r3, r3, #255	; 0xff
 c001628:	e1a02000 	mov	r2, r0
 c00162c:	e1823003 	orr	r3, r2, r3
 c001630:	e20330ff 	and	r3, r3, #255	; 0xff
 c001634:	e20330ff 	and	r3, r3, #255	; 0xff
 c001638:	e5c13000 	strb	r3, [r1]
 c00163c:	ea00000c 	b	c001674 <BitmapPop+0x23c>
			}
			else
			{
				(*(INT8U*)ulAddr) = ucCursorBackUp[i][j/2];
 c001640:	e51b1020 	ldr	r1, [fp, #-32]	; 0xffffffe0
 c001644:	e51b301c 	ldr	r3, [fp, #-28]	; 0xffffffe4
 c001648:	e1a0c0a3 	lsr	ip, r3, #1
 c00164c:	e59f006c 	ldr	r0, [pc, #108]	; c0016c0 <BitmapPop+0x288>
 c001650:	e51b2018 	ldr	r2, [fp, #-24]	; 0xffffffe8
 c001654:	e1a03002 	mov	r3, r2
 c001658:	e1a03083 	lsl	r3, r3, #1
 c00165c:	e0833002 	add	r3, r3, r2
 c001660:	e1a03083 	lsl	r3, r3, #1
 c001664:	e083300c 	add	r3, r3, ip
 c001668:	e0803003 	add	r3, r0, r3
 c00166c:	e5d33000 	ldrb	r3, [r3]
 c001670:	e5c13000 	strb	r3, [r1]
	INT32U i, j;
	INT32U ulAddr, ulAddr1;

	for (i =  0; i < Stru_Bitmap.usHeight; i++)
	{
		for (j = 0; j <Stru_Bitmap.usWidth; j+=2)
 c001674:	e51b301c 	ldr	r3, [fp, #-28]	; 0xffffffe4
 c001678:	e2833002 	add	r3, r3, #2
 c00167c:	e50b301c 	str	r3, [fp, #-28]	; 0xffffffe4
 c001680:	e1db30b6 	ldrh	r3, [fp, #6]
 c001684:	e1a02003 	mov	r2, r3
 c001688:	e51b301c 	ldr	r3, [fp, #-28]	; 0xffffffe4
 c00168c:	e1520003 	cmp	r2, r3
 c001690:	8affff77 	bhi	c001474 <BitmapPop+0x3c>
void BitmapPop(INT16U x, INT16U y, STRU_BITMAP Stru_Bitmap)
{
	INT32U i, j;
	INT32U ulAddr, ulAddr1;

	for (i =  0; i < Stru_Bitmap.usHeight; i++)
 c001694:	e51b3018 	ldr	r3, [fp, #-24]	; 0xffffffe8
 c001698:	e2833001 	add	r3, r3, #1
 c00169c:	e50b3018 	str	r3, [fp, #-24]	; 0xffffffe8
 c0016a0:	e1db30b8 	ldrh	r3, [fp, #8]
 c0016a4:	e1a02003 	mov	r2, r3
 c0016a8:	e51b3018 	ldr	r3, [fp, #-24]	; 0xffffffe8
 c0016ac:	e1520003 	cmp	r2, r3
 c0016b0:	8affff6c 	bhi	c001468 <BitmapPop+0x30>
				(*(INT8U*)ulAddr) = ucCursorBackUp[i][j/2];
			}
			
		}
	}
}
 c0016b4:	e24bd010 	sub	sp, fp, #16
 c0016b8:	e89d6810 	ldm	sp, {r4, fp, sp, lr}
 c0016bc:	e12fff1e 	bx	lr
 c0016c0:	0c00ef6c 	.word	0x0c00ef6c

0c0016c4 <CursorInit>:
* ret:		none
* modify:
* comment:		
*********************************************************************************************/
void CursorInit(void)
{
 c0016c4:	e1a0c00d 	mov	ip, sp
 c0016c8:	e92dd800 	push	{fp, ip, lr, pc}
 c0016cc:	e24cb004 	sub	fp, ip, #4
	ulMouseX = 0;
 c0016d0:	e59f3038 	ldr	r3, [pc, #56]	; c001710 <CursorInit+0x4c>
 c0016d4:	e3a02000 	mov	r2, #0
 c0016d8:	e1c320b0 	strh	r2, [r3]
	ulMouseY = 0;
 c0016dc:	e59f3030 	ldr	r3, [pc, #48]	; c001714 <CursorInit+0x50>
 c0016e0:	e3a02000 	mov	r2, #0
 c0016e4:	e1c320b0 	strh	r2, [r3]
	CursorView(ulMouseX, ulMouseY);
 c0016e8:	e59f3020 	ldr	r3, [pc, #32]	; c001710 <CursorInit+0x4c>
 c0016ec:	e1d320b0 	ldrh	r2, [r3]
 c0016f0:	e59f301c 	ldr	r3, [pc, #28]	; c001714 <CursorInit+0x50>
 c0016f4:	e1d330b0 	ldrh	r3, [r3]
 c0016f8:	e1a00002 	mov	r0, r2
 c0016fc:	e1a01003 	mov	r1, r3
 c001700:	eb000032 	bl	c0017d0 <CursorView>
}
 c001704:	e24bd00c 	sub	sp, fp, #12
 c001708:	e89d6800 	ldm	sp, {fp, sp, lr}
 c00170c:	e12fff1e 	bx	lr
 c001710:	0c00efe6 	.word	0x0c00efe6
 c001714:	0c00efe4 	.word	0x0c00efe4

0c001718 <CursorPush>:
* ret:		none
* modify:
* comment:		
*********************************************************************************************/
void CursorPush(INT16U x, INT16U y)
{
 c001718:	e1a0c00d 	mov	ip, sp
 c00171c:	e92dd800 	push	{fp, ip, lr, pc}
 c001720:	e24cb004 	sub	fp, ip, #4
 c001724:	e24dd010 	sub	sp, sp, #16
 c001728:	e1a02000 	mov	r2, r0
 c00172c:	e1a03001 	mov	r3, r1
 c001730:	e14b20be 	strh	r2, [fp, #-14]
 c001734:	e14b31b0 	strh	r3, [fp, #-16]
	BitmapPush(x, y, Stru_Bitmap_gbMouse);
 c001738:	e15be0be 	ldrh	lr, [fp, #-14]
 c00173c:	e15bc1b0 	ldrh	ip, [fp, #-16]
 c001740:	e59f3028 	ldr	r3, [pc, #40]	; c001770 <CursorPush+0x58>
 c001744:	e1a0200d 	mov	r2, sp
 c001748:	e2831008 	add	r1, r3, #8
 c00174c:	e8910003 	ldm	r1, {r0, r1}
 c001750:	e8820003 	stm	r2, {r0, r1}
 c001754:	e893000c 	ldm	r3, {r2, r3}
 c001758:	e1a0000e 	mov	r0, lr
 c00175c:	e1a0100c 	mov	r1, ip
 c001760:	ebfffe99 	bl	c0011cc <BitmapPush>
}
 c001764:	e24bd00c 	sub	sp, fp, #12
 c001768:	e89d6800 	ldm	sp, {fp, sp, lr}
 c00176c:	e12fff1e 	bx	lr
 c001770:	0c00be58 	.word	0x0c00be58

0c001774 <CursorPop>:
* ret:		none
* modify:
* comment:		
*********************************************************************************************/
void CursorPop()
{
 c001774:	e1a0c00d 	mov	ip, sp
 c001778:	e92dd800 	push	{fp, ip, lr, pc}
 c00177c:	e24cb004 	sub	fp, ip, #4
 c001780:	e24dd008 	sub	sp, sp, #8
	BitmapPop(ulMouseX, ulMouseY, Stru_Bitmap_gbMouse);
 c001784:	e59f3038 	ldr	r3, [pc, #56]	; c0017c4 <CursorPop+0x50>
 c001788:	e1d3e0b0 	ldrh	lr, [r3]
 c00178c:	e59f3034 	ldr	r3, [pc, #52]	; c0017c8 <CursorPop+0x54>
 c001790:	e1d3c0b0 	ldrh	ip, [r3]
 c001794:	e59f3030 	ldr	r3, [pc, #48]	; c0017cc <CursorPop+0x58>
 c001798:	e1a0200d 	mov	r2, sp
 c00179c:	e2831008 	add	r1, r3, #8
 c0017a0:	e8910003 	ldm	r1, {r0, r1}
 c0017a4:	e8820003 	stm	r2, {r0, r1}
 c0017a8:	e893000c 	ldm	r3, {r2, r3}
 c0017ac:	e1a0000e 	mov	r0, lr
 c0017b0:	e1a0100c 	mov	r1, ip
 c0017b4:	ebffff1f 	bl	c001438 <BitmapPop>
}
 c0017b8:	e24bd00c 	sub	sp, fp, #12
 c0017bc:	e89d6800 	ldm	sp, {fp, sp, lr}
 c0017c0:	e12fff1e 	bx	lr
 c0017c4:	0c00efe6 	.word	0x0c00efe6
 c0017c8:	0c00efe4 	.word	0x0c00efe4
 c0017cc:	0c00be58 	.word	0x0c00be58

0c0017d0 <CursorView>:
* ret:		none
* modify:
* comment:		
*********************************************************************************************/
void CursorView(INT16U x, INT16U y)
{
 c0017d0:	e1a0c00d 	mov	ip, sp
 c0017d4:	e92dd800 	push	{fp, ip, lr, pc}
 c0017d8:	e24cb004 	sub	fp, ip, #4
 c0017dc:	e24dd010 	sub	sp, sp, #16
 c0017e0:	e1a02000 	mov	r2, r0
 c0017e4:	e1a03001 	mov	r3, r1
 c0017e8:	e14b20be 	strh	r2, [fp, #-14]
 c0017ec:	e14b31b0 	strh	r3, [fp, #-16]
	CursorPush(x, y);
 c0017f0:	e15b20be 	ldrh	r2, [fp, #-14]
 c0017f4:	e15b31b0 	ldrh	r3, [fp, #-16]
 c0017f8:	e1a00002 	mov	r0, r2
 c0017fc:	e1a01003 	mov	r1, r3
 c001800:	ebffffc4 	bl	c001718 <CursorPush>
	BitmapView(x, y, Stru_Bitmap_gbMouse);
 c001804:	e15be0be 	ldrh	lr, [fp, #-14]
 c001808:	e15bc1b0 	ldrh	ip, [fp, #-16]
 c00180c:	e59f3028 	ldr	r3, [pc, #40]	; c00183c <CursorView+0x6c>
 c001810:	e1a0200d 	mov	r2, sp
 c001814:	e2831008 	add	r1, r3, #8
 c001818:	e8910003 	ldm	r1, {r0, r1}
 c00181c:	e8820003 	stm	r2, {r0, r1}
 c001820:	e893000c 	ldm	r3, {r2, r3}
 c001824:	e1a0000e 	mov	r0, lr
 c001828:	e1a0100c 	mov	r1, ip
 c00182c:	ebfffe03 	bl	c001040 <BitmapView>
}
 c001830:	e24bd00c 	sub	sp, fp, #12
 c001834:	e89d6800 	ldm	sp, {fp, sp, lr}
 c001838:	e12fff1e 	bx	lr
 c00183c:	0c00be58 	.word	0x0c00be58

0c001840 <celda_poner_valor>:
	
	/* *****************************************************************************
	 * modifica el valor almacenado en la celda indicada */
	__inline static void
	celda_poner_valor(CELDA *celdaptr, uint8_t val)
	{
 c001840:	e1a0c00d 	mov	ip, sp
 c001844:	e92dd800 	push	{fp, ip, lr, pc}
 c001848:	e24cb004 	sub	fp, ip, #4
 c00184c:	e24dd008 	sub	sp, sp, #8
 c001850:	e50b0010 	str	r0, [fp, #-16]
 c001854:	e1a03001 	mov	r3, r1
 c001858:	e54b3011 	strb	r3, [fp, #-17]	; 0xffffffef
		*celdaptr = (*celdaptr & 0xFFF0) | (val & 0x000F);
 c00185c:	e51b3010 	ldr	r3, [fp, #-16]
 c001860:	e1d330b0 	ldrh	r3, [r3]
 c001864:	e1a03803 	lsl	r3, r3, #16
 c001868:	e1a03823 	lsr	r3, r3, #16
 c00186c:	e3c3300f 	bic	r3, r3, #15
 c001870:	e1a03803 	lsl	r3, r3, #16
 c001874:	e1a02823 	lsr	r2, r3, #16
 c001878:	e55b3011 	ldrb	r3, [fp, #-17]	; 0xffffffef
 c00187c:	e1a03803 	lsl	r3, r3, #16
 c001880:	e1a03823 	lsr	r3, r3, #16
 c001884:	e203300f 	and	r3, r3, #15
 c001888:	e1a03803 	lsl	r3, r3, #16
 c00188c:	e1a03823 	lsr	r3, r3, #16
 c001890:	e1823003 	orr	r3, r2, r3
 c001894:	e1a03803 	lsl	r3, r3, #16
 c001898:	e1a03823 	lsr	r3, r3, #16
 c00189c:	e1a03803 	lsl	r3, r3, #16
 c0018a0:	e1a02823 	lsr	r2, r3, #16
 c0018a4:	e51b3010 	ldr	r3, [fp, #-16]
 c0018a8:	e1c320b0 	strh	r2, [r3]
	}
 c0018ac:	e24bd00c 	sub	sp, fp, #12
 c0018b0:	e89d6800 	ldm	sp, {fp, sp, lr}
 c0018b4:	e12fff1e 	bx	lr

0c0018b8 <celda_leer_valor>:
	
	/* *****************************************************************************
	 * extrae el valor almacenado en los 16 bits de una celda */
        __inline static uint8_t
        celda_leer_valor(CELDA celda)
        {
 c0018b8:	e1a0c00d 	mov	ip, sp
 c0018bc:	e92dd800 	push	{fp, ip, lr, pc}
 c0018c0:	e24cb004 	sub	fp, ip, #4
 c0018c4:	e24dd008 	sub	sp, sp, #8
 c0018c8:	e1a03000 	mov	r3, r0
 c0018cc:	e14b30be 	strh	r3, [fp, #-14]
                return (celda & 0x000F);
 c0018d0:	e15b30be 	ldrh	r3, [fp, #-14]
 c0018d4:	e20330ff 	and	r3, r3, #255	; 0xff
 c0018d8:	e203300f 	and	r3, r3, #15
 c0018dc:	e20330ff 	and	r3, r3, #255	; 0xff
        }
 c0018e0:	e1a00003 	mov	r0, r3
 c0018e4:	e24bd00c 	sub	sp, fp, #12
 c0018e8:	e89d6800 	ldm	sp, {fp, sp, lr}
 c0018ec:	e12fff1e 	bx	lr

0c0018f0 <celda_es_candidato>:

        /* *****************************************************************************
         * comprueba si el valor es candidato en la celda indicada */
        __inline static int
        celda_es_candidato(CELDA celda, uint8_t valor)
        {
 c0018f0:	e1a0c00d 	mov	ip, sp
 c0018f4:	e92dd800 	push	{fp, ip, lr, pc}
 c0018f8:	e24cb004 	sub	fp, ip, #4
 c0018fc:	e24dd008 	sub	sp, sp, #8
 c001900:	e1a02000 	mov	r2, r0
 c001904:	e1a03001 	mov	r3, r1
 c001908:	e14b20be 	strh	r2, [fp, #-14]
 c00190c:	e54b300f 	strb	r3, [fp, #-15]
                return (celda & (0x0001 << (BIT_CANDIDATOS + valor - 1))) == 0;
 c001910:	e15b20be 	ldrh	r2, [fp, #-14]
 c001914:	e55b300f 	ldrb	r3, [fp, #-15]
 c001918:	e2833006 	add	r3, r3, #6
 c00191c:	e1a03352 	asr	r3, r2, r3
 c001920:	e2033001 	and	r3, r3, #1
 c001924:	e3530000 	cmp	r3, #0
 c001928:	13a03000 	movne	r3, #0
 c00192c:	03a03001 	moveq	r3, #1
        }
 c001930:	e1a00003 	mov	r0, r3
 c001934:	e24bd00c 	sub	sp, fp, #12
 c001938:	e89d6800 	ldm	sp, {fp, sp, lr}
 c00193c:	e12fff1e 	bx	lr

0c001940 <celda_es_pista>:

        /* *****************************************************************************
         * comprueba si la celda es una pista */
        __inline static int
        celda_es_pista(CELDA celda)
        {
 c001940:	e1a0c00d 	mov	ip, sp
 c001944:	e92dd800 	push	{fp, ip, lr, pc}
 c001948:	e24cb004 	sub	fp, ip, #4
 c00194c:	e24dd008 	sub	sp, sp, #8
 c001950:	e1a03000 	mov	r3, r0
 c001954:	e14b30be 	strh	r3, [fp, #-14]
                return (celda & (1 << BIT_PISTA)) != 0;
 c001958:	e15b30be 	ldrh	r3, [fp, #-14]
 c00195c:	e2033010 	and	r3, r3, #16
 c001960:	e3530000 	cmp	r3, #0
 c001964:	03a03000 	moveq	r3, #0
 c001968:	13a03001 	movne	r3, #1
        }
 c00196c:	e1a00003 	mov	r0, r3
 c001970:	e24bd00c 	sub	sp, fp, #12
 c001974:	e89d6800 	ldm	sp, {fp, sp, lr}
 c001978:	e12fff1e 	bx	lr

0c00197c <celda_marcar_error>:

        /* *****************************************************************************
         * marca o limpia el bit de error de la celda */
        __inline static void
        celda_marcar_error(CELDA *celdaptr)
        {
 c00197c:	e1a0c00d 	mov	ip, sp
 c001980:	e92dd800 	push	{fp, ip, lr, pc}
 c001984:	e24cb004 	sub	fp, ip, #4
 c001988:	e24dd008 	sub	sp, sp, #8
 c00198c:	e50b0010 	str	r0, [fp, #-16]
                *celdaptr |= (1 << BIT_ERROR);
 c001990:	e51b3010 	ldr	r3, [fp, #-16]
 c001994:	e1d330b0 	ldrh	r3, [r3]
 c001998:	e3833020 	orr	r3, r3, #32
 c00199c:	e1a03803 	lsl	r3, r3, #16
 c0019a0:	e1a02823 	lsr	r2, r3, #16
 c0019a4:	e51b3010 	ldr	r3, [fp, #-16]
 c0019a8:	e1c320b0 	strh	r2, [r3]
        }
 c0019ac:	e24bd00c 	sub	sp, fp, #12
 c0019b0:	e89d6800 	ldm	sp, {fp, sp, lr}
 c0019b4:	e12fff1e 	bx	lr

0c0019b8 <celda_limpiar_error>:

        __inline static void
        celda_limpiar_error(CELDA *celdaptr)
        {
 c0019b8:	e1a0c00d 	mov	ip, sp
 c0019bc:	e92dd800 	push	{fp, ip, lr, pc}
 c0019c0:	e24cb004 	sub	fp, ip, #4
 c0019c4:	e24dd008 	sub	sp, sp, #8
 c0019c8:	e50b0010 	str	r0, [fp, #-16]
                *celdaptr &= ~(1 << BIT_ERROR);
 c0019cc:	e51b3010 	ldr	r3, [fp, #-16]
 c0019d0:	e1d330b0 	ldrh	r3, [r3]
 c0019d4:	e3c33020 	bic	r3, r3, #32
 c0019d8:	e1a03803 	lsl	r3, r3, #16
 c0019dc:	e1a02823 	lsr	r2, r3, #16
 c0019e0:	e51b3010 	ldr	r3, [fp, #-16]
 c0019e4:	e1c320b0 	strh	r2, [r3]
        }
 c0019e8:	e24bd00c 	sub	sp, fp, #12
 c0019ec:	e89d6800 	ldm	sp, {fp, sp, lr}
 c0019f0:	e12fff1e 	bx	lr

0c0019f4 <restaurar_cuadricula_original>:
/* Declaracin externa de la cuadrcula original (para reiniciar) */
#include "tableros.h"

/* Funcin auxiliar para restaurar la cuadrcula al estado original */
static void restaurar_cuadricula_original(void)
{
 c0019f4:	e1a0c00d 	mov	ip, sp
 c0019f8:	e92dd800 	push	{fp, ip, lr, pc}
 c0019fc:	e24cb004 	sub	fp, ip, #4
 c001a00:	e24dd008 	sub	sp, sp, #8
	uint8_t f, c, k;
	
	/* Copiar toda la cuadrcula original (incluye todas las columnas del array) */
	for (f = 0; f < NUM_FILAS; f++)
 c001a04:	e3a03000 	mov	r3, #0
 c001a08:	e54b300d 	strb	r3, [fp, #-13]
 c001a0c:	ea00001c 	b	c001a84 <restaurar_cuadricula_original+0x90>
	{
		for (c = 0; c < NUM_COLUMNAS; c++)
 c001a10:	e3a03000 	mov	r3, #0
 c001a14:	e54b300e 	strb	r3, [fp, #-14]
 c001a18:	ea000013 	b	c001a6c <restaurar_cuadricula_original+0x78>
		{
			cuadricula[f][c] = cuadricula_Respaldo[f][c];
 c001a1c:	e59f3078 	ldr	r3, [pc, #120]	; c001a9c <restaurar_cuadricula_original+0xa8>
 c001a20:	e5932000 	ldr	r2, [r3]
 c001a24:	e55b300d 	ldrb	r3, [fp, #-13]
 c001a28:	e1a03283 	lsl	r3, r3, #5
 c001a2c:	e0821003 	add	r1, r2, r3
 c001a30:	e55b300e 	ldrb	r3, [fp, #-14]
 c001a34:	e55bc00d 	ldrb	ip, [fp, #-13]
 c001a38:	e55b200e 	ldrb	r2, [fp, #-14]
 c001a3c:	e59f005c 	ldr	r0, [pc, #92]	; c001aa0 <restaurar_cuadricula_original+0xac>
 c001a40:	e1a0c20c 	lsl	ip, ip, #4
 c001a44:	e08c2002 	add	r2, ip, r2
 c001a48:	e1a02082 	lsl	r2, r2, #1
 c001a4c:	e0802002 	add	r2, r0, r2
 c001a50:	e1d220b0 	ldrh	r2, [r2]
 c001a54:	e1a03083 	lsl	r3, r3, #1
 c001a58:	e0813003 	add	r3, r1, r3
 c001a5c:	e1c320b0 	strh	r2, [r3]
	uint8_t f, c, k;
	
	/* Copiar toda la cuadrcula original (incluye todas las columnas del array) */
	for (f = 0; f < NUM_FILAS; f++)
	{
		for (c = 0; c < NUM_COLUMNAS; c++)
 c001a60:	e55b300e 	ldrb	r3, [fp, #-14]
 c001a64:	e2833001 	add	r3, r3, #1
 c001a68:	e54b300e 	strb	r3, [fp, #-14]
 c001a6c:	e55b300e 	ldrb	r3, [fp, #-14]
 c001a70:	e353000f 	cmp	r3, #15
 c001a74:	9affffe8 	bls	c001a1c <restaurar_cuadricula_original+0x28>
static void restaurar_cuadricula_original(void)
{
	uint8_t f, c, k;
	
	/* Copiar toda la cuadrcula original (incluye todas las columnas del array) */
	for (f = 0; f < NUM_FILAS; f++)
 c001a78:	e55b300d 	ldrb	r3, [fp, #-13]
 c001a7c:	e2833001 	add	r3, r3, #1
 c001a80:	e54b300d 	strb	r3, [fp, #-13]
 c001a84:	e55b300d 	ldrb	r3, [fp, #-13]
 c001a88:	e3530008 	cmp	r3, #8
 c001a8c:	9affffdf 	bls	c001a10 <restaurar_cuadricula_original+0x1c>
		for (c = 0; c < NUM_COLUMNAS; c++)
		{
			cuadricula[f][c] = cuadricula_Respaldo[f][c];
		}
	}
}
 c001a90:	e24bd00c 	sub	sp, fp, #12
 c001a94:	e89d6800 	ldm	sp, {fp, sp, lr}
 c001a98:	e12fff1e 	bx	lr
 c001a9c:	0c00cc20 	.word	0x0c00cc20
 c001aa0:	0c00e800 	.word	0x0c00e800

0c001aa4 <marcar_celdas_en_conflicto>:

/* Funcin auxiliar para marcar todas las celdas en conflicto con un valor */
static void marcar_celdas_en_conflicto(uint8_t fila_error, uint8_t col_error, uint8_t valor_error)
{
 c001aa4:	e1a0c00d 	mov	ip, sp
 c001aa8:	e92dd800 	push	{fp, ip, lr, pc}
 c001aac:	e24cb004 	sub	fp, ip, #4
 c001ab0:	e24dd010 	sub	sp, sp, #16
 c001ab4:	e1a03002 	mov	r3, r2
 c001ab8:	e1a02000 	mov	r2, r0
 c001abc:	e54b2015 	strb	r2, [fp, #-21]	; 0xffffffeb
 c001ac0:	e1a02001 	mov	r2, r1
 c001ac4:	e54b2016 	strb	r2, [fp, #-22]	; 0xffffffea
 c001ac8:	e54b3017 	strb	r3, [fp, #-23]	; 0xffffffe9
	uint8_t i, f, c;
	uint8_t region_fila_inicio, region_col_inicio;
	
	/* Primero limpiar todos los errores previos */
	for (f = 0; f < NUM_FILAS; f++)
 c001acc:	e3a03000 	mov	r3, #0
 c001ad0:	e54b300e 	strb	r3, [fp, #-14]
 c001ad4:	ea000016 	b	c001b34 <marcar_celdas_en_conflicto+0x90>
	{
		for (c = 0; c < NUM_COLUMNAS; c++)
 c001ad8:	e3a03000 	mov	r3, #0
 c001adc:	e54b300f 	strb	r3, [fp, #-15]
 c001ae0:	ea00000d 	b	c001b1c <marcar_celdas_en_conflicto+0x78>
		{
			celda_limpiar_error(&cuadricula[f][c]);
 c001ae4:	e59f32ec 	ldr	r3, [pc, #748]	; c001dd8 <marcar_celdas_en_conflicto+0x334>
 c001ae8:	e5933000 	ldr	r3, [r3]
 c001aec:	e1a02003 	mov	r2, r3
 c001af0:	e55b300e 	ldrb	r3, [fp, #-14]
 c001af4:	e1a01203 	lsl	r1, r3, #4
 c001af8:	e55b300f 	ldrb	r3, [fp, #-15]
 c001afc:	e0813003 	add	r3, r1, r3
 c001b00:	e1a03083 	lsl	r3, r3, #1
 c001b04:	e0823003 	add	r3, r2, r3
 c001b08:	e1a00003 	mov	r0, r3
 c001b0c:	ebffffa9 	bl	c0019b8 <celda_limpiar_error>
	uint8_t region_fila_inicio, region_col_inicio;
	
	/* Primero limpiar todos los errores previos */
	for (f = 0; f < NUM_FILAS; f++)
	{
		for (c = 0; c < NUM_COLUMNAS; c++)
 c001b10:	e55b300f 	ldrb	r3, [fp, #-15]
 c001b14:	e2833001 	add	r3, r3, #1
 c001b18:	e54b300f 	strb	r3, [fp, #-15]
 c001b1c:	e55b300f 	ldrb	r3, [fp, #-15]
 c001b20:	e353000f 	cmp	r3, #15
 c001b24:	9affffee 	bls	c001ae4 <marcar_celdas_en_conflicto+0x40>
{
	uint8_t i, f, c;
	uint8_t region_fila_inicio, region_col_inicio;
	
	/* Primero limpiar todos los errores previos */
	for (f = 0; f < NUM_FILAS; f++)
 c001b28:	e55b300e 	ldrb	r3, [fp, #-14]
 c001b2c:	e2833001 	add	r3, r3, #1
 c001b30:	e54b300e 	strb	r3, [fp, #-14]
 c001b34:	e55b300e 	ldrb	r3, [fp, #-14]
 c001b38:	e3530008 	cmp	r3, #8
 c001b3c:	9affffe5 	bls	c001ad8 <marcar_celdas_en_conflicto+0x34>
			celda_limpiar_error(&cuadricula[f][c]);
		}
	}
	
	/* Marcar la celda donde intentamos poner el valor */
	celda_marcar_error(&cuadricula[fila_error][col_error]);
 c001b40:	e59f3290 	ldr	r3, [pc, #656]	; c001dd8 <marcar_celdas_en_conflicto+0x334>
 c001b44:	e5933000 	ldr	r3, [r3]
 c001b48:	e1a02003 	mov	r2, r3
 c001b4c:	e55b3015 	ldrb	r3, [fp, #-21]	; 0xffffffeb
 c001b50:	e1a01203 	lsl	r1, r3, #4
 c001b54:	e55b3016 	ldrb	r3, [fp, #-22]	; 0xffffffea
 c001b58:	e0813003 	add	r3, r1, r3
 c001b5c:	e1a03083 	lsl	r3, r3, #1
 c001b60:	e0823003 	add	r3, r2, r3
 c001b64:	e1a00003 	mov	r0, r3
 c001b68:	ebffff83 	bl	c00197c <celda_marcar_error>
	
	/* Buscar y marcar todas las celdas con el mismo valor en la misma fila */
	for (i = 0; i < NUM_COLUMNAS; i++)
 c001b6c:	e3a03000 	mov	r3, #0
 c001b70:	e54b300d 	strb	r3, [fp, #-13]
 c001b74:	ea000020 	b	c001bfc <marcar_celdas_en_conflicto+0x158>
	{
		if (i != col_error && celda_leer_valor(cuadricula[fila_error][i]) == valor_error)
 c001b78:	e55b200d 	ldrb	r2, [fp, #-13]
 c001b7c:	e55b3016 	ldrb	r3, [fp, #-22]	; 0xffffffea
 c001b80:	e1520003 	cmp	r2, r3
 c001b84:	0a000019 	beq	c001bf0 <marcar_celdas_en_conflicto+0x14c>
 c001b88:	e59f3248 	ldr	r3, [pc, #584]	; c001dd8 <marcar_celdas_en_conflicto+0x334>
 c001b8c:	e5932000 	ldr	r2, [r3]
 c001b90:	e55b3015 	ldrb	r3, [fp, #-21]	; 0xffffffeb
 c001b94:	e1a03283 	lsl	r3, r3, #5
 c001b98:	e0822003 	add	r2, r2, r3
 c001b9c:	e55b300d 	ldrb	r3, [fp, #-13]
 c001ba0:	e1a03083 	lsl	r3, r3, #1
 c001ba4:	e0823003 	add	r3, r2, r3
 c001ba8:	e1d330b0 	ldrh	r3, [r3]
 c001bac:	e1a00003 	mov	r0, r3
 c001bb0:	ebffff40 	bl	c0018b8 <celda_leer_valor>
 c001bb4:	e1a03000 	mov	r3, r0
 c001bb8:	e55b2017 	ldrb	r2, [fp, #-23]	; 0xffffffe9
 c001bbc:	e1520003 	cmp	r2, r3
 c001bc0:	1a00000a 	bne	c001bf0 <marcar_celdas_en_conflicto+0x14c>
		{
			celda_marcar_error(&cuadricula[fila_error][i]);
 c001bc4:	e59f320c 	ldr	r3, [pc, #524]	; c001dd8 <marcar_celdas_en_conflicto+0x334>
 c001bc8:	e5933000 	ldr	r3, [r3]
 c001bcc:	e1a02003 	mov	r2, r3
 c001bd0:	e55b3015 	ldrb	r3, [fp, #-21]	; 0xffffffeb
 c001bd4:	e1a01203 	lsl	r1, r3, #4
 c001bd8:	e55b300d 	ldrb	r3, [fp, #-13]
 c001bdc:	e0813003 	add	r3, r1, r3
 c001be0:	e1a03083 	lsl	r3, r3, #1
 c001be4:	e0823003 	add	r3, r2, r3
 c001be8:	e1a00003 	mov	r0, r3
 c001bec:	ebffff62 	bl	c00197c <celda_marcar_error>
	
	/* Marcar la celda donde intentamos poner el valor */
	celda_marcar_error(&cuadricula[fila_error][col_error]);
	
	/* Buscar y marcar todas las celdas con el mismo valor en la misma fila */
	for (i = 0; i < NUM_COLUMNAS; i++)
 c001bf0:	e55b300d 	ldrb	r3, [fp, #-13]
 c001bf4:	e2833001 	add	r3, r3, #1
 c001bf8:	e54b300d 	strb	r3, [fp, #-13]
 c001bfc:	e55b300d 	ldrb	r3, [fp, #-13]
 c001c00:	e353000f 	cmp	r3, #15
 c001c04:	9affffdb 	bls	c001b78 <marcar_celdas_en_conflicto+0xd4>
			celda_marcar_error(&cuadricula[fila_error][i]);
		}
	}
	
	/* Buscar y marcar todas las celdas con el mismo valor en la misma columna */
	for (i = 0; i < NUM_FILAS; i++)
 c001c08:	e3a03000 	mov	r3, #0
 c001c0c:	e54b300d 	strb	r3, [fp, #-13]
 c001c10:	ea000020 	b	c001c98 <marcar_celdas_en_conflicto+0x1f4>
	{
		if (i != fila_error && celda_leer_valor(cuadricula[i][col_error]) == valor_error)
 c001c14:	e55b200d 	ldrb	r2, [fp, #-13]
 c001c18:	e55b3015 	ldrb	r3, [fp, #-21]	; 0xffffffeb
 c001c1c:	e1520003 	cmp	r2, r3
 c001c20:	0a000019 	beq	c001c8c <marcar_celdas_en_conflicto+0x1e8>
 c001c24:	e59f31ac 	ldr	r3, [pc, #428]	; c001dd8 <marcar_celdas_en_conflicto+0x334>
 c001c28:	e5932000 	ldr	r2, [r3]
 c001c2c:	e55b300d 	ldrb	r3, [fp, #-13]
 c001c30:	e1a03283 	lsl	r3, r3, #5
 c001c34:	e0822003 	add	r2, r2, r3
 c001c38:	e55b3016 	ldrb	r3, [fp, #-22]	; 0xffffffea
 c001c3c:	e1a03083 	lsl	r3, r3, #1
 c001c40:	e0823003 	add	r3, r2, r3
 c001c44:	e1d330b0 	ldrh	r3, [r3]
 c001c48:	e1a00003 	mov	r0, r3
 c001c4c:	ebffff19 	bl	c0018b8 <celda_leer_valor>
 c001c50:	e1a03000 	mov	r3, r0
 c001c54:	e55b2017 	ldrb	r2, [fp, #-23]	; 0xffffffe9
 c001c58:	e1520003 	cmp	r2, r3
 c001c5c:	1a00000a 	bne	c001c8c <marcar_celdas_en_conflicto+0x1e8>
		{
			celda_marcar_error(&cuadricula[i][col_error]);
 c001c60:	e59f3170 	ldr	r3, [pc, #368]	; c001dd8 <marcar_celdas_en_conflicto+0x334>
 c001c64:	e5933000 	ldr	r3, [r3]
 c001c68:	e1a02003 	mov	r2, r3
 c001c6c:	e55b300d 	ldrb	r3, [fp, #-13]
 c001c70:	e1a01203 	lsl	r1, r3, #4
 c001c74:	e55b3016 	ldrb	r3, [fp, #-22]	; 0xffffffea
 c001c78:	e0813003 	add	r3, r1, r3
 c001c7c:	e1a03083 	lsl	r3, r3, #1
 c001c80:	e0823003 	add	r3, r2, r3
 c001c84:	e1a00003 	mov	r0, r3
 c001c88:	ebffff3b 	bl	c00197c <celda_marcar_error>
			celda_marcar_error(&cuadricula[fila_error][i]);
		}
	}
	
	/* Buscar y marcar todas las celdas con el mismo valor en la misma columna */
	for (i = 0; i < NUM_FILAS; i++)
 c001c8c:	e55b300d 	ldrb	r3, [fp, #-13]
 c001c90:	e2833001 	add	r3, r3, #1
 c001c94:	e54b300d 	strb	r3, [fp, #-13]
 c001c98:	e55b300d 	ldrb	r3, [fp, #-13]
 c001c9c:	e3530008 	cmp	r3, #8
 c001ca0:	9affffdb 	bls	c001c14 <marcar_celdas_en_conflicto+0x170>
			celda_marcar_error(&cuadricula[i][col_error]);
		}
	}
	
	/* Buscar y marcar todas las celdas con el mismo valor en la misma regin 3x3 */
	region_fila_inicio = (fila_error / 3) * 3;
 c001ca4:	e55b2015 	ldrb	r2, [fp, #-21]	; 0xffffffeb
 c001ca8:	e59f312c 	ldr	r3, [pc, #300]	; c001ddc <marcar_celdas_en_conflicto+0x338>
 c001cac:	e0831392 	umull	r1, r3, r2, r3
 c001cb0:	e1a030a3 	lsr	r3, r3, #1
 c001cb4:	e20330ff 	and	r3, r3, #255	; 0xff
 c001cb8:	e1a02003 	mov	r2, r3
 c001cbc:	e1a02082 	lsl	r2, r2, #1
 c001cc0:	e0823003 	add	r3, r2, r3
 c001cc4:	e54b3010 	strb	r3, [fp, #-16]
	region_col_inicio = (col_error / 3) * 3;
 c001cc8:	e55b2016 	ldrb	r2, [fp, #-22]	; 0xffffffea
 c001ccc:	e59f3108 	ldr	r3, [pc, #264]	; c001ddc <marcar_celdas_en_conflicto+0x338>
 c001cd0:	e0831392 	umull	r1, r3, r2, r3
 c001cd4:	e1a030a3 	lsr	r3, r3, #1
 c001cd8:	e20330ff 	and	r3, r3, #255	; 0xff
 c001cdc:	e1a02003 	mov	r2, r3
 c001ce0:	e1a02082 	lsl	r2, r2, #1
 c001ce4:	e0823003 	add	r3, r2, r3
 c001ce8:	e54b3011 	strb	r3, [fp, #-17]	; 0xffffffef
	
	for (f = region_fila_inicio; f < region_fila_inicio + 3; f++)
 c001cec:	e55b3010 	ldrb	r3, [fp, #-16]
 c001cf0:	e54b300e 	strb	r3, [fp, #-14]
 c001cf4:	ea00002f 	b	c001db8 <marcar_celdas_en_conflicto+0x314>
	{
		for (c = region_col_inicio; c < region_col_inicio + 3; c++)
 c001cf8:	e55b3011 	ldrb	r3, [fp, #-17]	; 0xffffffef
 c001cfc:	e54b300f 	strb	r3, [fp, #-15]
 c001d00:	ea000024 	b	c001d98 <marcar_celdas_en_conflicto+0x2f4>
		{
			if ((f != fila_error || c != col_error) && celda_leer_valor(cuadricula[f][c]) == valor_error)
 c001d04:	e55b200e 	ldrb	r2, [fp, #-14]
 c001d08:	e55b3015 	ldrb	r3, [fp, #-21]	; 0xffffffeb
 c001d0c:	e1520003 	cmp	r2, r3
 c001d10:	1a000003 	bne	c001d24 <marcar_celdas_en_conflicto+0x280>
 c001d14:	e55b200f 	ldrb	r2, [fp, #-15]
 c001d18:	e55b3016 	ldrb	r3, [fp, #-22]	; 0xffffffea
 c001d1c:	e1520003 	cmp	r2, r3
 c001d20:	0a000019 	beq	c001d8c <marcar_celdas_en_conflicto+0x2e8>
 c001d24:	e59f30ac 	ldr	r3, [pc, #172]	; c001dd8 <marcar_celdas_en_conflicto+0x334>
 c001d28:	e5932000 	ldr	r2, [r3]
 c001d2c:	e55b300e 	ldrb	r3, [fp, #-14]
 c001d30:	e1a03283 	lsl	r3, r3, #5
 c001d34:	e0822003 	add	r2, r2, r3
 c001d38:	e55b300f 	ldrb	r3, [fp, #-15]
 c001d3c:	e1a03083 	lsl	r3, r3, #1
 c001d40:	e0823003 	add	r3, r2, r3
 c001d44:	e1d330b0 	ldrh	r3, [r3]
 c001d48:	e1a00003 	mov	r0, r3
 c001d4c:	ebfffed9 	bl	c0018b8 <celda_leer_valor>
 c001d50:	e1a03000 	mov	r3, r0
 c001d54:	e55b2017 	ldrb	r2, [fp, #-23]	; 0xffffffe9
 c001d58:	e1520003 	cmp	r2, r3
 c001d5c:	1a00000a 	bne	c001d8c <marcar_celdas_en_conflicto+0x2e8>
			{
				celda_marcar_error(&cuadricula[f][c]);
 c001d60:	e59f3070 	ldr	r3, [pc, #112]	; c001dd8 <marcar_celdas_en_conflicto+0x334>
 c001d64:	e5933000 	ldr	r3, [r3]
 c001d68:	e1a02003 	mov	r2, r3
 c001d6c:	e55b300e 	ldrb	r3, [fp, #-14]
 c001d70:	e1a01203 	lsl	r1, r3, #4
 c001d74:	e55b300f 	ldrb	r3, [fp, #-15]
 c001d78:	e0813003 	add	r3, r1, r3
 c001d7c:	e1a03083 	lsl	r3, r3, #1
 c001d80:	e0823003 	add	r3, r2, r3
 c001d84:	e1a00003 	mov	r0, r3
 c001d88:	ebfffefb 	bl	c00197c <celda_marcar_error>
	region_fila_inicio = (fila_error / 3) * 3;
	region_col_inicio = (col_error / 3) * 3;
	
	for (f = region_fila_inicio; f < region_fila_inicio + 3; f++)
	{
		for (c = region_col_inicio; c < region_col_inicio + 3; c++)
 c001d8c:	e55b300f 	ldrb	r3, [fp, #-15]
 c001d90:	e2833001 	add	r3, r3, #1
 c001d94:	e54b300f 	strb	r3, [fp, #-15]
 c001d98:	e55b200f 	ldrb	r2, [fp, #-15]
 c001d9c:	e55b3011 	ldrb	r3, [fp, #-17]	; 0xffffffef
 c001da0:	e2833003 	add	r3, r3, #3
 c001da4:	e1520003 	cmp	r2, r3
 c001da8:	baffffd5 	blt	c001d04 <marcar_celdas_en_conflicto+0x260>
	
	/* Buscar y marcar todas las celdas con el mismo valor en la misma regin 3x3 */
	region_fila_inicio = (fila_error / 3) * 3;
	region_col_inicio = (col_error / 3) * 3;
	
	for (f = region_fila_inicio; f < region_fila_inicio + 3; f++)
 c001dac:	e55b300e 	ldrb	r3, [fp, #-14]
 c001db0:	e2833001 	add	r3, r3, #1
 c001db4:	e54b300e 	strb	r3, [fp, #-14]
 c001db8:	e55b200e 	ldrb	r2, [fp, #-14]
 c001dbc:	e55b3010 	ldrb	r3, [fp, #-16]
 c001dc0:	e2833003 	add	r3, r3, #3
 c001dc4:	e1520003 	cmp	r2, r3
 c001dc8:	baffffca 	blt	c001cf8 <marcar_celdas_en_conflicto+0x254>
			{
				celda_marcar_error(&cuadricula[f][c]);
			}
		}
	}
}
 c001dcc:	e24bd00c 	sub	sp, fp, #12
 c001dd0:	e89d6800 	ldm	sp, {fp, sp, lr}
 c001dd4:	e12fff1e 	bx	lr
 c001dd8:	0c00cc20 	.word	0x0c00cc20
 c001ddc:	aaaaaaab 	.word	0xaaaaaaab

0c001de0 <boton_confirmado>:

/* Callback para recibir la confirmacin de pulsaciones filtradas por el timer3 */
static void boton_confirmado(uint8_t boton_id) // MODIFICAR FUNCIONES ACTUALIZAR Y PROPAGAR SEGUN LA VERSIN A PROBAR
{
 c001de0:	e1a0c00d 	mov	ip, sp
 c001de4:	e92dd800 	push	{fp, ip, lr, pc}
 c001de8:	e24cb004 	sub	fp, ip, #4
 c001dec:	e24dd010 	sub	sp, sp, #16
 c001df0:	e1a03000 	mov	r3, r0
 c001df4:	e54b3015 	strb	r3, [fp, #-21]	; 0xffffffeb
        cola_depuracion(timer2_count(), boton_id, estado_juego);
 c001df8:	eb0017c6 	bl	c007d18 <timer2_count>
 c001dfc:	e1a01000 	mov	r1, r0
 c001e00:	e59f3894 	ldr	r3, [pc, #2196]	; c00269c <boton_confirmado+0x8bc>
 c001e04:	e5d33000 	ldrb	r3, [r3]
 c001e08:	e20330ff 	and	r3, r3, #255	; 0xff
 c001e0c:	e55b2015 	ldrb	r2, [fp, #-21]	; 0xffffffeb
 c001e10:	e1a00001 	mov	r0, r1
 c001e14:	e1a01002 	mov	r1, r2
 c001e18:	e1a02003 	mov	r2, r3
 c001e1c:	eb0002fb 	bl	c002a10 <cola_depuracion>
        
        switch (estado_juego)
 c001e20:	e59f3874 	ldr	r3, [pc, #2164]	; c00269c <boton_confirmado+0x8bc>
 c001e24:	e5d33000 	ldrb	r3, [r3]
 c001e28:	e20330ff 	and	r3, r3, #255	; 0xff
 c001e2c:	e3530007 	cmp	r3, #7
 c001e30:	979ff103 	ldrls	pc, [pc, r3, lsl #2]
 c001e34:	ea000215 	b	c002690 <boton_confirmado+0x8b0>
 c001e38:	0c001e58 	.word	0x0c001e58
 c001e3c:	0c001ec8 	.word	0x0c001ec8
 c001e40:	0c001fb8 	.word	0x0c001fb8
 c001e44:	0c002078 	.word	0x0c002078
 c001e48:	0c002100 	.word	0x0c002100
 c001e4c:	0c0021a0 	.word	0x0c0021a0
 c001e50:	0c002690 	.word	0x0c002690
 c001e54:	0c002618 	.word	0x0c002618
        {
                case ESPERANDO_INICIO:
                        /* Cualquier botn inicia el juego */
                        /* Guardar tiempo de inicio para reiniciar el contador */
                        tiempo_inicio = timer2_count();
 c001e58:	eb0017ae 	bl	c007d18 <timer2_count>
 c001e5c:	e1a02000 	mov	r2, r0
 c001e60:	e59f3838 	ldr	r3, [pc, #2104]	; c0026a0 <boton_confirmado+0x8c0>
 c001e64:	e5832000 	str	r2, [r3]
                        
                        /* Calcular candidatos por primera vez */
                        celdas_vacias = candidatos_actualizar_all(cuadricula);
 c001e68:	e59f3834 	ldr	r3, [pc, #2100]	; c0026a4 <boton_confirmado+0x8c4>
 c001e6c:	e5933000 	ldr	r3, [r3]
 c001e70:	e1a00003 	mov	r0, r3
 c001e74:	eb0003fa 	bl	c002e64 <candidatos_actualizar_all>
 c001e78:	e1a02000 	mov	r2, r0
 c001e7c:	e59f3824 	ldr	r3, [pc, #2084]	; c0026a8 <boton_confirmado+0x8c8>
 c001e80:	e5832000 	str	r2, [r3]
                        
                        /* Dibujar el tablero del juego */
                        Sudoku_Dibujar_Tablero();
 c001e84:	eb00118d 	bl	c0064c0 <Sudoku_Dibujar_Tablero>
                        
                        /* Actualizar con los valores de la cuadrcula */
                        Sudoku_Actualizar_Tablero_Completo(cuadricula);
 c001e88:	e59f3814 	ldr	r3, [pc, #2068]	; c0026a4 <boton_confirmado+0x8c4>
 c001e8c:	e5933000 	ldr	r3, [r3]
 c001e90:	e1a00003 	mov	r0, r3
 c001e94:	eb00103e 	bl	c005f94 <Sudoku_Actualizar_Tablero_Completo>
                        
                        /* Pasar a introducir fila */
                        estado_juego = INTRODUCIR_FILA;
 c001e98:	e59f37fc 	ldr	r3, [pc, #2044]	; c00269c <boton_confirmado+0x8bc>
 c001e9c:	e3a02001 	mov	r2, #1
 c001ea0:	e5c32000 	strb	r2, [r3]
                        int_count = 9;  /* Iniciar en 9 para que al incrementar vaya a 0 */
 c001ea4:	e59f3800 	ldr	r3, [pc, #2048]	; c0026ac <boton_confirmado+0x8cc>
 c001ea8:	e3a02009 	mov	r2, #9
 c001eac:	e5c32000 	strb	r2, [r3]
                        D8Led_symbol(15);  /* Mostrar 'F' de Fila */
 c001eb0:	e3a0000f 	mov	r0, #15
 c001eb4:	ebfffc4c 	bl	c000fec <D8Led_symbol>
                        pantalla_mostrada = 0;  /* Resetear flag para prxima partida */
 c001eb8:	e59f37f0 	ldr	r3, [pc, #2032]	; c0026b0 <boton_confirmado+0x8d0>
 c001ebc:	e3a02000 	mov	r2, #0
 c001ec0:	e5c32000 	strb	r2, [r3]
                        break;
 c001ec4:	ea0001f1 	b	c002690 <boton_confirmado+0x8b0>
                
                case INTRODUCIR_FILA:
                        if (boton_id == EVENTO_BOTON_DERECHO)
 c001ec8:	e55b3015 	ldrb	r3, [fp, #-21]	; 0xffffffeb
 c001ecc:	e3530008 	cmp	r3, #8
 c001ed0:	1a000015 	bne	c001f2c <boton_confirmado+0x14c>
                        {
                                /* Incrementar fila (ciclo: 0  1  2  ...  9  0) */
                                int_count++;
 c001ed4:	e59f37d0 	ldr	r3, [pc, #2000]	; c0026ac <boton_confirmado+0x8cc>
 c001ed8:	e5d33000 	ldrb	r3, [r3]
 c001edc:	e20330ff 	and	r3, r3, #255	; 0xff
 c001ee0:	e2833001 	add	r3, r3, #1
 c001ee4:	e20320ff 	and	r2, r3, #255	; 0xff
 c001ee8:	e59f37bc 	ldr	r3, [pc, #1980]	; c0026ac <boton_confirmado+0x8cc>
 c001eec:	e5c32000 	strb	r2, [r3]
                                if (int_count > 9)
 c001ef0:	e59f37b4 	ldr	r3, [pc, #1972]	; c0026ac <boton_confirmado+0x8cc>
 c001ef4:	e5d33000 	ldrb	r3, [r3]
 c001ef8:	e20330ff 	and	r3, r3, #255	; 0xff
 c001efc:	e3530009 	cmp	r3, #9
 c001f00:	9a000002 	bls	c001f10 <boton_confirmado+0x130>
                                {
                                        int_count = 0;  /* Volver a 0 */
 c001f04:	e59f37a0 	ldr	r3, [pc, #1952]	; c0026ac <boton_confirmado+0x8cc>
 c001f08:	e3a02000 	mov	r2, #0
 c001f0c:	e5c32000 	strb	r2, [r3]
                                }
                                D8Led_symbol(int_count & 0x000f);
 c001f10:	e59f3794 	ldr	r3, [pc, #1940]	; c0026ac <boton_confirmado+0x8cc>
 c001f14:	e5d33000 	ldrb	r3, [r3]
 c001f18:	e20330ff 	and	r3, r3, #255	; 0xff
 c001f1c:	e203300f 	and	r3, r3, #15
 c001f20:	e1a00003 	mov	r0, r3
 c001f24:	ebfffc30 	bl	c000fec <D8Led_symbol>
                                        estado_juego = INTRODUCIR_COLUMNA;
                                        int_count = 0;
                                        D8Led_symbol(12);  /* Mostrar 'C' de Columna (ndice 12 en el array Symbol) */
                                }
                        }
                        break;
 c001f28:	ea0001d8 	b	c002690 <boton_confirmado+0x8b0>
                                {
                                        int_count = 0;  /* Volver a 0 */
                                }
                                D8Led_symbol(int_count & 0x000f);
                        }
                        else if (boton_id == EVENTO_BOTON_IZQUIERDO)
 c001f2c:	e55b3015 	ldrb	r3, [fp, #-21]	; 0xffffffeb
 c001f30:	e3530004 	cmp	r3, #4
 c001f34:	1a0001d0 	bne	c00267c <boton_confirmado+0x89c>
                        {
                                /* Verificar si se eligi fila 0 (terminar partida) */
                                if (int_count == 0)
 c001f38:	e59f376c 	ldr	r3, [pc, #1900]	; c0026ac <boton_confirmado+0x8cc>
 c001f3c:	e5d33000 	ldrb	r3, [r3]
 c001f40:	e20330ff 	and	r3, r3, #255	; 0xff
 c001f44:	e3530000 	cmp	r3, #0
 c001f48:	1a00000a 	bne	c001f78 <boton_confirmado+0x198>
                                {
                                        /* Fila 0: terminar la partida */
                                        /* Guardar tiempo transcurrido desde el inicio de esta partida */
                                        tiempo_final = timer2_count() - tiempo_inicio;
 c001f4c:	eb001771 	bl	c007d18 <timer2_count>
 c001f50:	e1a02000 	mov	r2, r0
 c001f54:	e59f3744 	ldr	r3, [pc, #1860]	; c0026a0 <boton_confirmado+0x8c0>
 c001f58:	e5933000 	ldr	r3, [r3]
 c001f5c:	e0632002 	rsb	r2, r3, r2
 c001f60:	e59f374c 	ldr	r3, [pc, #1868]	; c0026b4 <boton_confirmado+0x8d4>
 c001f64:	e5832000 	str	r2, [r3]
                                        estado_juego = PARTIDA_TERMINADA;
 c001f68:	e59f372c 	ldr	r3, [pc, #1836]	; c00269c <boton_confirmado+0x8bc>
 c001f6c:	e3a02007 	mov	r2, #7
 c001f70:	e5c32000 	strb	r2, [r3]
                                        estado_juego = INTRODUCIR_COLUMNA;
                                        int_count = 0;
                                        D8Led_symbol(12);  /* Mostrar 'C' de Columna (ndice 12 en el array Symbol) */
                                }
                        }
                        break;
 c001f74:	ea0001c5 	b	c002690 <boton_confirmado+0x8b0>
                                        /* La pantalla final se mostrar en este estado */
                                }
                                else
                                {
                                        /* Confirmar fila y pasar a introducir columna */
                                        fila = int_count - 1;  /* Convertir a ndice 0-8 */
 c001f78:	e59f372c 	ldr	r3, [pc, #1836]	; c0026ac <boton_confirmado+0x8cc>
 c001f7c:	e5d33000 	ldrb	r3, [r3]
 c001f80:	e20330ff 	and	r3, r3, #255	; 0xff
 c001f84:	e2433001 	sub	r3, r3, #1
 c001f88:	e20320ff 	and	r2, r3, #255	; 0xff
 c001f8c:	e59f3724 	ldr	r3, [pc, #1828]	; c0026b8 <boton_confirmado+0x8d8>
 c001f90:	e5c32000 	strb	r2, [r3]
                                        estado_juego = INTRODUCIR_COLUMNA;
 c001f94:	e59f3700 	ldr	r3, [pc, #1792]	; c00269c <boton_confirmado+0x8bc>
 c001f98:	e3a02002 	mov	r2, #2
 c001f9c:	e5c32000 	strb	r2, [r3]
                                        int_count = 0;
 c001fa0:	e59f3704 	ldr	r3, [pc, #1796]	; c0026ac <boton_confirmado+0x8cc>
 c001fa4:	e3a02000 	mov	r2, #0
 c001fa8:	e5c32000 	strb	r2, [r3]
                                        D8Led_symbol(12);  /* Mostrar 'C' de Columna (ndice 12 en el array Symbol) */
 c001fac:	e3a0000c 	mov	r0, #12
 c001fb0:	ebfffc0d 	bl	c000fec <D8Led_symbol>
                                }
                        }
                        break;
 c001fb4:	ea0001b5 	b	c002690 <boton_confirmado+0x8b0>
                
                case INTRODUCIR_COLUMNA:
                        if (boton_id == EVENTO_BOTON_DERECHO)
 c001fb8:	e55b3015 	ldrb	r3, [fp, #-21]	; 0xffffffeb
 c001fbc:	e3530008 	cmp	r3, #8
 c001fc0:	1a000015 	bne	c00201c <boton_confirmado+0x23c>
                        {
                                /* Incrementar columna */
                                int_count++;
 c001fc4:	e59f36e0 	ldr	r3, [pc, #1760]	; c0026ac <boton_confirmado+0x8cc>
 c001fc8:	e5d33000 	ldrb	r3, [r3]
 c001fcc:	e20330ff 	and	r3, r3, #255	; 0xff
 c001fd0:	e2833001 	add	r3, r3, #1
 c001fd4:	e20320ff 	and	r2, r3, #255	; 0xff
 c001fd8:	e59f36cc 	ldr	r3, [pc, #1740]	; c0026ac <boton_confirmado+0x8cc>
 c001fdc:	e5c32000 	strb	r2, [r3]
                                if (int_count > 9)
 c001fe0:	e59f36c4 	ldr	r3, [pc, #1732]	; c0026ac <boton_confirmado+0x8cc>
 c001fe4:	e5d33000 	ldrb	r3, [r3]
 c001fe8:	e20330ff 	and	r3, r3, #255	; 0xff
 c001fec:	e3530009 	cmp	r3, #9
 c001ff0:	9a000002 	bls	c002000 <boton_confirmado+0x220>
                                {
                                        int_count = 1;
 c001ff4:	e59f36b0 	ldr	r3, [pc, #1712]	; c0026ac <boton_confirmado+0x8cc>
 c001ff8:	e3a02001 	mov	r2, #1
 c001ffc:	e5c32000 	strb	r2, [r3]
                                }
                                D8Led_symbol(int_count & 0x000f);
 c002000:	e59f36a4 	ldr	r3, [pc, #1700]	; c0026ac <boton_confirmado+0x8cc>
 c002004:	e5d33000 	ldrb	r3, [r3]
 c002008:	e20330ff 	and	r3, r3, #255	; 0xff
 c00200c:	e203300f 	and	r3, r3, #15
 c002010:	e1a00003 	mov	r0, r3
 c002014:	ebfffbf4 	bl	c000fec <D8Led_symbol>
                                columna = int_count - 1;  /* Convertir a ndice 0-8 */
                                estado_juego = VERIFICAR_CELDA;
                                int_count = 0;
                                D8Led_symbol(int_count & 0x000f);
                        }
                        break;
 c002018:	ea00019c 	b	c002690 <boton_confirmado+0x8b0>
                                {
                                        int_count = 1;
                                }
                                D8Led_symbol(int_count & 0x000f);
                        }
                        else if (boton_id == EVENTO_BOTON_IZQUIERDO)
 c00201c:	e55b3015 	ldrb	r3, [fp, #-21]	; 0xffffffeb
 c002020:	e3530004 	cmp	r3, #4
 c002024:	1a000196 	bne	c002684 <boton_confirmado+0x8a4>
                        {
                                /* Confirmar columna y pasar a introducir valor */
                                columna = int_count - 1;  /* Convertir a ndice 0-8 */
 c002028:	e59f367c 	ldr	r3, [pc, #1660]	; c0026ac <boton_confirmado+0x8cc>
 c00202c:	e5d33000 	ldrb	r3, [r3]
 c002030:	e20330ff 	and	r3, r3, #255	; 0xff
 c002034:	e2433001 	sub	r3, r3, #1
 c002038:	e20320ff 	and	r2, r3, #255	; 0xff
 c00203c:	e59f3678 	ldr	r3, [pc, #1656]	; c0026bc <boton_confirmado+0x8dc>
 c002040:	e5c32000 	strb	r2, [r3]
                                estado_juego = VERIFICAR_CELDA;
 c002044:	e59f3650 	ldr	r3, [pc, #1616]	; c00269c <boton_confirmado+0x8bc>
 c002048:	e3a02003 	mov	r2, #3
 c00204c:	e5c32000 	strb	r2, [r3]
                                int_count = 0;
 c002050:	e59f3654 	ldr	r3, [pc, #1620]	; c0026ac <boton_confirmado+0x8cc>
 c002054:	e3a02000 	mov	r2, #0
 c002058:	e5c32000 	strb	r2, [r3]
                                D8Led_symbol(int_count & 0x000f);
 c00205c:	e59f3648 	ldr	r3, [pc, #1608]	; c0026ac <boton_confirmado+0x8cc>
 c002060:	e5d33000 	ldrb	r3, [r3]
 c002064:	e20330ff 	and	r3, r3, #255	; 0xff
 c002068:	e203300f 	and	r3, r3, #15
 c00206c:	e1a00003 	mov	r0, r3
 c002070:	ebfffbdd 	bl	c000fec <D8Led_symbol>
                        }
                        break;
 c002074:	ea000185 	b	c002690 <boton_confirmado+0x8b0>
                
                case VERIFICAR_CELDA:
                        /* Primero se verifica si la celda[fila][columna] no es una pista */
                        if (celda_es_pista(cuadricula[fila][columna]))
 c002078:	e59f3624 	ldr	r3, [pc, #1572]	; c0026a4 <boton_confirmado+0x8c4>
 c00207c:	e5932000 	ldr	r2, [r3]
 c002080:	e59f3630 	ldr	r3, [pc, #1584]	; c0026b8 <boton_confirmado+0x8d8>
 c002084:	e5d33000 	ldrb	r3, [r3]
 c002088:	e20330ff 	and	r3, r3, #255	; 0xff
 c00208c:	e1a03283 	lsl	r3, r3, #5
 c002090:	e0822003 	add	r2, r2, r3
 c002094:	e59f3620 	ldr	r3, [pc, #1568]	; c0026bc <boton_confirmado+0x8dc>
 c002098:	e5d33000 	ldrb	r3, [r3]
 c00209c:	e20330ff 	and	r3, r3, #255	; 0xff
 c0020a0:	e1a03083 	lsl	r3, r3, #1
 c0020a4:	e0823003 	add	r3, r2, r3
 c0020a8:	e1d330b0 	ldrh	r3, [r3]
 c0020ac:	e1a00003 	mov	r0, r3
 c0020b0:	ebfffe22 	bl	c001940 <celda_es_pista>
 c0020b4:	e1a03000 	mov	r3, r0
 c0020b8:	e3530000 	cmp	r3, #0
 c0020bc:	0a000008 	beq	c0020e4 <boton_confirmado+0x304>
                        {
                                // Se vuelve al estado INTRODUCIR_FILA
                                estado_juego = INTRODUCIR_FILA;
 c0020c0:	e59f35d4 	ldr	r3, [pc, #1492]	; c00269c <boton_confirmado+0x8bc>
 c0020c4:	e3a02001 	mov	r2, #1
 c0020c8:	e5c32000 	strb	r2, [r3]
                                int_count = 0;
 c0020cc:	e59f35d8 	ldr	r3, [pc, #1496]	; c0026ac <boton_confirmado+0x8cc>
 c0020d0:	e3a02000 	mov	r2, #0
 c0020d4:	e5c32000 	strb	r2, [r3]
                                D8Led_symbol(15);  /* Mostrar 'F' de Fila (ndice 15 en el array Symbol) */
 c0020d8:	e3a0000f 	mov	r0, #15
 c0020dc:	ebfffbc2 	bl	c000fec <D8Led_symbol>
                        {
                                // Si no es pista, se pasa a INTRODUCIR_VALOR
                                estado_juego = INTRODUCIR_VALOR;
                                int_count = 0;
                        }
                        break;
 c0020e0:	ea00016a 	b	c002690 <boton_confirmado+0x8b0>
                                D8Led_symbol(15);  /* Mostrar 'F' de Fila (ndice 15 en el array Symbol) */
                        } 
                        else
                        {
                                // Si no es pista, se pasa a INTRODUCIR_VALOR
                                estado_juego = INTRODUCIR_VALOR;
 c0020e4:	e59f35b0 	ldr	r3, [pc, #1456]	; c00269c <boton_confirmado+0x8bc>
 c0020e8:	e3a02004 	mov	r2, #4
 c0020ec:	e5c32000 	strb	r2, [r3]
                                int_count = 0;
 c0020f0:	e59f35b4 	ldr	r3, [pc, #1460]	; c0026ac <boton_confirmado+0x8cc>
 c0020f4:	e3a02000 	mov	r2, #0
 c0020f8:	e5c32000 	strb	r2, [r3]
                        }
                        break;
 c0020fc:	ea000163 	b	c002690 <boton_confirmado+0x8b0>
                
                case INTRODUCIR_VALOR:
                        if (boton_id == EVENTO_BOTON_DERECHO)
 c002100:	e55b3015 	ldrb	r3, [fp, #-21]	; 0xffffffeb
 c002104:	e3530008 	cmp	r3, #8
 c002108:	1a000015 	bne	c002164 <boton_confirmado+0x384>
                        {
                                /* Incrementar valor */
                                int_count++;
 c00210c:	e59f3598 	ldr	r3, [pc, #1432]	; c0026ac <boton_confirmado+0x8cc>
 c002110:	e5d33000 	ldrb	r3, [r3]
 c002114:	e20330ff 	and	r3, r3, #255	; 0xff
 c002118:	e2833001 	add	r3, r3, #1
 c00211c:	e20320ff 	and	r2, r3, #255	; 0xff
 c002120:	e59f3584 	ldr	r3, [pc, #1412]	; c0026ac <boton_confirmado+0x8cc>
 c002124:	e5c32000 	strb	r2, [r3]
                                if (int_count > 9)
 c002128:	e59f357c 	ldr	r3, [pc, #1404]	; c0026ac <boton_confirmado+0x8cc>
 c00212c:	e5d33000 	ldrb	r3, [r3]
 c002130:	e20330ff 	and	r3, r3, #255	; 0xff
 c002134:	e3530009 	cmp	r3, #9
 c002138:	9a000002 	bls	c002148 <boton_confirmado+0x368>
                                {
                                        int_count = 0;
 c00213c:	e59f3568 	ldr	r3, [pc, #1384]	; c0026ac <boton_confirmado+0x8cc>
 c002140:	e3a02000 	mov	r2, #0
 c002144:	e5c32000 	strb	r2, [r3]
                                }
                                D8Led_symbol(int_count & 0x000f);
 c002148:	e59f355c 	ldr	r3, [pc, #1372]	; c0026ac <boton_confirmado+0x8cc>
 c00214c:	e5d33000 	ldrb	r3, [r3]
 c002150:	e20330ff 	and	r3, r3, #255	; 0xff
 c002154:	e203300f 	and	r3, r3, #15
 c002158:	e1a00003 	mov	r0, r3
 c00215c:	ebfffba2 	bl	c000fec <D8Led_symbol>
                                valor = int_count;  /* Valor a escribir (0-9) */
                                
                                estado_juego = VERIFICAR_VALOR;
                                int_count = 0;
                        }
                        break;
 c002160:	ea00014a 	b	c002690 <boton_confirmado+0x8b0>
                                {
                                        int_count = 0;
                                }
                                D8Led_symbol(int_count & 0x000f);
                        }
                        else if (boton_id == EVENTO_BOTON_IZQUIERDO)
 c002164:	e55b3015 	ldrb	r3, [fp, #-21]	; 0xffffffeb
 c002168:	e3530004 	cmp	r3, #4
 c00216c:	1a000146 	bne	c00268c <boton_confirmado+0x8ac>
                        {
                                /* Confirmar valor e intentar escribir en la celda */
                                valor = int_count;  /* Valor a escribir (0-9) */
 c002170:	e59f3534 	ldr	r3, [pc, #1332]	; c0026ac <boton_confirmado+0x8cc>
 c002174:	e5d33000 	ldrb	r3, [r3]
 c002178:	e20320ff 	and	r2, r3, #255	; 0xff
 c00217c:	e59f353c 	ldr	r3, [pc, #1340]	; c0026c0 <boton_confirmado+0x8e0>
 c002180:	e5c32000 	strb	r2, [r3]
                                
                                estado_juego = VERIFICAR_VALOR;
 c002184:	e59f3510 	ldr	r3, [pc, #1296]	; c00269c <boton_confirmado+0x8bc>
 c002188:	e3a02005 	mov	r2, #5
 c00218c:	e5c32000 	strb	r2, [r3]
                                int_count = 0;
 c002190:	e59f3514 	ldr	r3, [pc, #1300]	; c0026ac <boton_confirmado+0x8cc>
 c002194:	e3a02000 	mov	r2, #0
 c002198:	e5c32000 	strb	r2, [r3]
                        }
                        break;
 c00219c:	ea00013b 	b	c002690 <boton_confirmado+0x8b0>
                
                case VERIFICAR_VALOR:
                        /* Guardar valor previo de la celda */
                        valor_previo = celda_leer_valor(cuadricula[fila][columna]);
 c0021a0:	e59f34fc 	ldr	r3, [pc, #1276]	; c0026a4 <boton_confirmado+0x8c4>
 c0021a4:	e5932000 	ldr	r2, [r3]
 c0021a8:	e59f3508 	ldr	r3, [pc, #1288]	; c0026b8 <boton_confirmado+0x8d8>
 c0021ac:	e5d33000 	ldrb	r3, [r3]
 c0021b0:	e20330ff 	and	r3, r3, #255	; 0xff
 c0021b4:	e1a03283 	lsl	r3, r3, #5
 c0021b8:	e0822003 	add	r2, r2, r3
 c0021bc:	e59f34f8 	ldr	r3, [pc, #1272]	; c0026bc <boton_confirmado+0x8dc>
 c0021c0:	e5d33000 	ldrb	r3, [r3]
 c0021c4:	e20330ff 	and	r3, r3, #255	; 0xff
 c0021c8:	e1a03083 	lsl	r3, r3, #1
 c0021cc:	e0823003 	add	r3, r2, r3
 c0021d0:	e1d330b0 	ldrh	r3, [r3]
 c0021d4:	e1a00003 	mov	r0, r3
 c0021d8:	ebfffdb6 	bl	c0018b8 <celda_leer_valor>
 c0021dc:	e1a03000 	mov	r3, r0
 c0021e0:	e1a02003 	mov	r2, r3
 c0021e4:	e59f34d8 	ldr	r3, [pc, #1240]	; c0026c4 <boton_confirmado+0x8e4>
 c0021e8:	e5c32000 	strb	r2, [r3]
                        
                        if (valor == 0)
 c0021ec:	e59f34cc 	ldr	r3, [pc, #1228]	; c0026c0 <boton_confirmado+0x8e0>
 c0021f0:	e5d33000 	ldrb	r3, [r3]
 c0021f4:	e20330ff 	and	r3, r3, #255	; 0xff
 c0021f8:	e3530000 	cmp	r3, #0
 c0021fc:	1a000040 	bne	c002304 <boton_confirmado+0x524>
                        {
                                uint8_t f, c;
                                
                                /* Valor 0 = borrar -> pasar a BORRAR_VALOR */
                                /* Limpiar todos los errores previos */
                                for (f = 0; f < NUM_FILAS; f++)
 c002200:	e3a03000 	mov	r3, #0
 c002204:	e54b300d 	strb	r3, [fp, #-13]
 c002208:	ea000016 	b	c002268 <boton_confirmado+0x488>
                                {
                                        for (c = 0; c < NUM_COLUMNAS; c++)
 c00220c:	e3a03000 	mov	r3, #0
 c002210:	e54b300e 	strb	r3, [fp, #-14]
 c002214:	ea00000d 	b	c002250 <boton_confirmado+0x470>
                                        {
                                                celda_limpiar_error(&cuadricula[f][c]);
 c002218:	e59f3484 	ldr	r3, [pc, #1156]	; c0026a4 <boton_confirmado+0x8c4>
 c00221c:	e5933000 	ldr	r3, [r3]
 c002220:	e1a02003 	mov	r2, r3
 c002224:	e55b300d 	ldrb	r3, [fp, #-13]
 c002228:	e1a01203 	lsl	r1, r3, #4
 c00222c:	e55b300e 	ldrb	r3, [fp, #-14]
 c002230:	e0813003 	add	r3, r1, r3
 c002234:	e1a03083 	lsl	r3, r3, #1
 c002238:	e0823003 	add	r3, r2, r3
 c00223c:	e1a00003 	mov	r0, r3
 c002240:	ebfffddc 	bl	c0019b8 <celda_limpiar_error>
                                
                                /* Valor 0 = borrar -> pasar a BORRAR_VALOR */
                                /* Limpiar todos los errores previos */
                                for (f = 0; f < NUM_FILAS; f++)
                                {
                                        for (c = 0; c < NUM_COLUMNAS; c++)
 c002244:	e55b300e 	ldrb	r3, [fp, #-14]
 c002248:	e2833001 	add	r3, r3, #1
 c00224c:	e54b300e 	strb	r3, [fp, #-14]
 c002250:	e55b300e 	ldrb	r3, [fp, #-14]
 c002254:	e353000f 	cmp	r3, #15
 c002258:	9affffee 	bls	c002218 <boton_confirmado+0x438>
                        {
                                uint8_t f, c;
                                
                                /* Valor 0 = borrar -> pasar a BORRAR_VALOR */
                                /* Limpiar todos los errores previos */
                                for (f = 0; f < NUM_FILAS; f++)
 c00225c:	e55b300d 	ldrb	r3, [fp, #-13]
 c002260:	e2833001 	add	r3, r3, #1
 c002264:	e54b300d 	strb	r3, [fp, #-13]
 c002268:	e55b300d 	ldrb	r3, [fp, #-13]
 c00226c:	e3530008 	cmp	r3, #8
 c002270:	9affffe5 	bls	c00220c <boton_confirmado+0x42c>
                                                celda_limpiar_error(&cuadricula[f][c]);
                                        }
                                }
                                
                                /* Borrar el valor de la celda */
                                celda_poner_valor(&cuadricula[fila][columna], 0);
 c002274:	e59f3428 	ldr	r3, [pc, #1064]	; c0026a4 <boton_confirmado+0x8c4>
 c002278:	e5933000 	ldr	r3, [r3]
 c00227c:	e1a02003 	mov	r2, r3
 c002280:	e59f3430 	ldr	r3, [pc, #1072]	; c0026b8 <boton_confirmado+0x8d8>
 c002284:	e5d33000 	ldrb	r3, [r3]
 c002288:	e20330ff 	and	r3, r3, #255	; 0xff
 c00228c:	e1a01203 	lsl	r1, r3, #4
 c002290:	e59f3424 	ldr	r3, [pc, #1060]	; c0026bc <boton_confirmado+0x8dc>
 c002294:	e5d33000 	ldrb	r3, [r3]
 c002298:	e20330ff 	and	r3, r3, #255	; 0xff
 c00229c:	e0813003 	add	r3, r1, r3
 c0022a0:	e1a03083 	lsl	r3, r3, #1
 c0022a4:	e0823003 	add	r3, r2, r3
 c0022a8:	e1a00003 	mov	r0, r3
 c0022ac:	e3a01000 	mov	r1, #0
 c0022b0:	ebfffd62 	bl	c001840 <celda_poner_valor>
                                
                                /* Al borrar un valor, hay que recalcular todos los candidatos */
                                celdas_vacias = candidatos_actualizar_all(cuadricula);
 c0022b4:	e59f33e8 	ldr	r3, [pc, #1000]	; c0026a4 <boton_confirmado+0x8c4>
 c0022b8:	e5933000 	ldr	r3, [r3]
 c0022bc:	e1a00003 	mov	r0, r3
 c0022c0:	eb0002e7 	bl	c002e64 <candidatos_actualizar_all>
 c0022c4:	e1a02000 	mov	r2, r0
 c0022c8:	e59f33d8 	ldr	r3, [pc, #984]	; c0026a8 <boton_confirmado+0x8c8>
 c0022cc:	e5832000 	str	r2, [r3]
                                
                                /* Actualizar la visualizacin del tablero */
                                Sudoku_Actualizar_Tablero_Completo(cuadricula);
 c0022d0:	e59f33cc 	ldr	r3, [pc, #972]	; c0026a4 <boton_confirmado+0x8c4>
 c0022d4:	e5933000 	ldr	r3, [r3]
 c0022d8:	e1a00003 	mov	r0, r3
 c0022dc:	eb000f2c 	bl	c005f94 <Sudoku_Actualizar_Tablero_Completo>
                                
                                /* Volver a introducir fila */
                                estado_juego = INTRODUCIR_FILA;
 c0022e0:	e59f33b4 	ldr	r3, [pc, #948]	; c00269c <boton_confirmado+0x8bc>
 c0022e4:	e3a02001 	mov	r2, #1
 c0022e8:	e5c32000 	strb	r2, [r3]
                                int_count = 9;  /* Iniciar en 9 para que al incrementar vaya a 0 */
 c0022ec:	e59f33b8 	ldr	r3, [pc, #952]	; c0026ac <boton_confirmado+0x8cc>
 c0022f0:	e3a02009 	mov	r2, #9
 c0022f4:	e5c32000 	strb	r2, [r3]
                                D8Led_symbol(15);  /* Mostrar 'F' de Fila */
 c0022f8:	e3a0000f 	mov	r0, #15
 c0022fc:	ebfffb3a 	bl	c000fec <D8Led_symbol>
                                break;
 c002300:	ea0000e2 	b	c002690 <boton_confirmado+0x8b0>
                        }
                        else
                        {
                                /* Verificar si el valor es candidato */
                                if (celda_es_candidato(cuadricula[fila][columna], valor))
 c002304:	e59f3398 	ldr	r3, [pc, #920]	; c0026a4 <boton_confirmado+0x8c4>
 c002308:	e5932000 	ldr	r2, [r3]
 c00230c:	e59f33a4 	ldr	r3, [pc, #932]	; c0026b8 <boton_confirmado+0x8d8>
 c002310:	e5d33000 	ldrb	r3, [r3]
 c002314:	e20330ff 	and	r3, r3, #255	; 0xff
 c002318:	e1a03283 	lsl	r3, r3, #5
 c00231c:	e0822003 	add	r2, r2, r3
 c002320:	e59f3394 	ldr	r3, [pc, #916]	; c0026bc <boton_confirmado+0x8dc>
 c002324:	e5d33000 	ldrb	r3, [r3]
 c002328:	e20330ff 	and	r3, r3, #255	; 0xff
 c00232c:	e1a03083 	lsl	r3, r3, #1
 c002330:	e0823003 	add	r3, r2, r3
 c002334:	e1d320b0 	ldrh	r2, [r3]
 c002338:	e59f3380 	ldr	r3, [pc, #896]	; c0026c0 <boton_confirmado+0x8e0>
 c00233c:	e5d33000 	ldrb	r3, [r3]
 c002340:	e20330ff 	and	r3, r3, #255	; 0xff
 c002344:	e1a00002 	mov	r0, r2
 c002348:	e1a01003 	mov	r1, r3
 c00234c:	ebfffd67 	bl	c0018f0 <celda_es_candidato>
 c002350:	e1a03000 	mov	r3, r0
 c002354:	e3530000 	cmp	r3, #0
 c002358:	0a000055 	beq	c0024b4 <boton_confirmado+0x6d4>
                                {
                                        uint8_t f, c;
                                        
                                        /* Es candidato: escribir el valor en la celda */
                                        /* Primero limpiar todos los errores previos */
                                        for (f = 0; f < NUM_FILAS; f++)
 c00235c:	e3a03000 	mov	r3, #0
 c002360:	e54b300f 	strb	r3, [fp, #-15]
 c002364:	ea000016 	b	c0023c4 <boton_confirmado+0x5e4>
                                        {
                                                for (c = 0; c < NUM_COLUMNAS; c++)
 c002368:	e3a03000 	mov	r3, #0
 c00236c:	e54b3010 	strb	r3, [fp, #-16]
 c002370:	ea00000d 	b	c0023ac <boton_confirmado+0x5cc>
                                                {
                                                        celda_limpiar_error(&cuadricula[f][c]);
 c002374:	e59f3328 	ldr	r3, [pc, #808]	; c0026a4 <boton_confirmado+0x8c4>
 c002378:	e5933000 	ldr	r3, [r3]
 c00237c:	e1a02003 	mov	r2, r3
 c002380:	e55b300f 	ldrb	r3, [fp, #-15]
 c002384:	e1a01203 	lsl	r1, r3, #4
 c002388:	e55b3010 	ldrb	r3, [fp, #-16]
 c00238c:	e0813003 	add	r3, r1, r3
 c002390:	e1a03083 	lsl	r3, r3, #1
 c002394:	e0823003 	add	r3, r2, r3
 c002398:	e1a00003 	mov	r0, r3
 c00239c:	ebfffd85 	bl	c0019b8 <celda_limpiar_error>
                                        
                                        /* Es candidato: escribir el valor en la celda */
                                        /* Primero limpiar todos los errores previos */
                                        for (f = 0; f < NUM_FILAS; f++)
                                        {
                                                for (c = 0; c < NUM_COLUMNAS; c++)
 c0023a0:	e55b3010 	ldrb	r3, [fp, #-16]
 c0023a4:	e2833001 	add	r3, r3, #1
 c0023a8:	e54b3010 	strb	r3, [fp, #-16]
 c0023ac:	e55b3010 	ldrb	r3, [fp, #-16]
 c0023b0:	e353000f 	cmp	r3, #15
 c0023b4:	9affffee 	bls	c002374 <boton_confirmado+0x594>
                                {
                                        uint8_t f, c;
                                        
                                        /* Es candidato: escribir el valor en la celda */
                                        /* Primero limpiar todos los errores previos */
                                        for (f = 0; f < NUM_FILAS; f++)
 c0023b8:	e55b300f 	ldrb	r3, [fp, #-15]
 c0023bc:	e2833001 	add	r3, r3, #1
 c0023c0:	e54b300f 	strb	r3, [fp, #-15]
 c0023c4:	e55b300f 	ldrb	r3, [fp, #-15]
 c0023c8:	e3530008 	cmp	r3, #8
 c0023cc:	9affffe5 	bls	c002368 <boton_confirmado+0x588>
                                                {
                                                        celda_limpiar_error(&cuadricula[f][c]);
                                                }
                                        }
                                        
                                        celda_poner_valor(&cuadricula[fila][columna], valor);
 c0023d0:	e59f32cc 	ldr	r3, [pc, #716]	; c0026a4 <boton_confirmado+0x8c4>
 c0023d4:	e5933000 	ldr	r3, [r3]
 c0023d8:	e1a02003 	mov	r2, r3
 c0023dc:	e59f32d4 	ldr	r3, [pc, #724]	; c0026b8 <boton_confirmado+0x8d8>
 c0023e0:	e5d33000 	ldrb	r3, [r3]
 c0023e4:	e20330ff 	and	r3, r3, #255	; 0xff
 c0023e8:	e1a01203 	lsl	r1, r3, #4
 c0023ec:	e59f32c8 	ldr	r3, [pc, #712]	; c0026bc <boton_confirmado+0x8dc>
 c0023f0:	e5d33000 	ldrb	r3, [r3]
 c0023f4:	e20330ff 	and	r3, r3, #255	; 0xff
 c0023f8:	e0813003 	add	r3, r1, r3
 c0023fc:	e1a03083 	lsl	r3, r3, #1
 c002400:	e0822003 	add	r2, r2, r3
 c002404:	e59f32b4 	ldr	r3, [pc, #692]	; c0026c0 <boton_confirmado+0x8e0>
 c002408:	e5d33000 	ldrb	r3, [r3]
 c00240c:	e20330ff 	and	r3, r3, #255	; 0xff
 c002410:	e1a00002 	mov	r0, r2
 c002414:	e1a01003 	mov	r1, r3
 c002418:	ebfffd08 	bl	c001840 <celda_poner_valor>
                                        
                                        /* Decidir si propagar o actualizar segn el caso */
                                        if (valor_previo != 0)
 c00241c:	e59f32a0 	ldr	r3, [pc, #672]	; c0026c4 <boton_confirmado+0x8e4>
 c002420:	e5d33000 	ldrb	r3, [r3]
 c002424:	e20330ff 	and	r3, r3, #255	; 0xff
 c002428:	e3530000 	cmp	r3, #0
 c00242c:	0a000007 	beq	c002450 <boton_confirmado+0x670>
                                        {
                                                /* Se modific un valor previo -> recalcular todo */
                                                celdas_vacias = candidatos_actualizar_all(cuadricula);
 c002430:	e59f326c 	ldr	r3, [pc, #620]	; c0026a4 <boton_confirmado+0x8c4>
 c002434:	e5933000 	ldr	r3, [r3]
 c002438:	e1a00003 	mov	r0, r3
 c00243c:	eb000288 	bl	c002e64 <candidatos_actualizar_all>
 c002440:	e1a02000 	mov	r2, r0
 c002444:	e59f325c 	ldr	r3, [pc, #604]	; c0026a8 <boton_confirmado+0x8c8>
 c002448:	e5832000 	str	r2, [r3]
 c00244c:	ea00000b 	b	c002480 <boton_confirmado+0x6a0>
                                        }
                                        else
                                        {
                                                /* Celda vaca -> solo propagar el nuevo valor */
                                                candidatos_propagar_arm(cuadricula, fila, columna);
 c002450:	e59f324c 	ldr	r3, [pc, #588]	; c0026a4 <boton_confirmado+0x8c4>
 c002454:	e5931000 	ldr	r1, [r3]
 c002458:	e59f3258 	ldr	r3, [pc, #600]	; c0026b8 <boton_confirmado+0x8d8>
 c00245c:	e5d33000 	ldrb	r3, [r3]
 c002460:	e20320ff 	and	r2, r3, #255	; 0xff
 c002464:	e59f3250 	ldr	r3, [pc, #592]	; c0026bc <boton_confirmado+0x8dc>
 c002468:	e5d33000 	ldrb	r3, [r3]
 c00246c:	e20330ff 	and	r3, r3, #255	; 0xff
 c002470:	e1a00001 	mov	r0, r1
 c002474:	e1a01002 	mov	r1, r2
 c002478:	e1a02003 	mov	r2, r3
 c00247c:	eb0001c2 	bl	c002b8c <candidatos_propagar_arm>
                                        }
                                        
                                        /* Actualizar la visualizacin del tablero */
                                        Sudoku_Actualizar_Tablero_Completo(cuadricula);
 c002480:	e59f321c 	ldr	r3, [pc, #540]	; c0026a4 <boton_confirmado+0x8c4>
 c002484:	e5933000 	ldr	r3, [r3]
 c002488:	e1a00003 	mov	r0, r3
 c00248c:	eb000ec0 	bl	c005f94 <Sudoku_Actualizar_Tablero_Completo>
                                        
                                        /* Volver a introducir fila */
                                        estado_juego = INTRODUCIR_FILA;
 c002490:	e59f3204 	ldr	r3, [pc, #516]	; c00269c <boton_confirmado+0x8bc>
 c002494:	e3a02001 	mov	r2, #1
 c002498:	e5c32000 	strb	r2, [r3]
                                        int_count = 9;  /* Iniciar en 9 para que al incrementar vaya a 0 */
 c00249c:	e59f3208 	ldr	r3, [pc, #520]	; c0026ac <boton_confirmado+0x8cc>
 c0024a0:	e3a02009 	mov	r2, #9
 c0024a4:	e5c32000 	strb	r2, [r3]
                                        D8Led_symbol(15);  /* Mostrar 'F' de Fila */
 c0024a8:	e3a0000f 	mov	r0, #15
 c0024ac:	ebffface 	bl	c000fec <D8Led_symbol>
                                        estado_juego = INTRODUCIR_FILA;
                                        int_count = 9;  /* Iniciar en 9 para que al incrementar vaya a 0 */
                                        D8Led_symbol(15);  /* Mostrar 'F' de Fila */
                                }
                        }
                        break;
 c0024b0:	ea000076 	b	c002690 <boton_confirmado+0x8b0>
                                        D8Led_symbol(15);  /* Mostrar 'F' de Fila */
                                }
                                else
                                {
                                        /* No es candidato: es un error */
                                        celda_marcar_error(&cuadricula[fila][columna]);
 c0024b4:	e59f31e8 	ldr	r3, [pc, #488]	; c0026a4 <boton_confirmado+0x8c4>
 c0024b8:	e5933000 	ldr	r3, [r3]
 c0024bc:	e1a02003 	mov	r2, r3
 c0024c0:	e59f31f0 	ldr	r3, [pc, #496]	; c0026b8 <boton_confirmado+0x8d8>
 c0024c4:	e5d33000 	ldrb	r3, [r3]
 c0024c8:	e20330ff 	and	r3, r3, #255	; 0xff
 c0024cc:	e1a01203 	lsl	r1, r3, #4
 c0024d0:	e59f31e4 	ldr	r3, [pc, #484]	; c0026bc <boton_confirmado+0x8dc>
 c0024d4:	e5d33000 	ldrb	r3, [r3]
 c0024d8:	e20330ff 	and	r3, r3, #255	; 0xff
 c0024dc:	e0813003 	add	r3, r1, r3
 c0024e0:	e1a03083 	lsl	r3, r3, #1
 c0024e4:	e0823003 	add	r3, r2, r3
 c0024e8:	e1a00003 	mov	r0, r3
 c0024ec:	ebfffd22 	bl	c00197c <celda_marcar_error>
                                        D8Led_symbol(14);  /* Mostrar 'E' de Error */
 c0024f0:	e3a0000e 	mov	r0, #14
 c0024f4:	ebfffabc 	bl	c000fec <D8Led_symbol>
                                        
                                        /* Esperar 2 segundos para que la 'E' sea visible */
                                        Delay(200);
 c0024f8:	e3a000c8 	mov	r0, #200	; 0xc8
 c0024fc:	ebfff882 	bl	c00070c <Delay>
                                        
                                        /* Poner el valor incorrecto en la celda para visualizarlo */
                                        celda_poner_valor(&cuadricula[fila][columna], valor);
 c002500:	e59f319c 	ldr	r3, [pc, #412]	; c0026a4 <boton_confirmado+0x8c4>
 c002504:	e5933000 	ldr	r3, [r3]
 c002508:	e1a02003 	mov	r2, r3
 c00250c:	e59f31a4 	ldr	r3, [pc, #420]	; c0026b8 <boton_confirmado+0x8d8>
 c002510:	e5d33000 	ldrb	r3, [r3]
 c002514:	e20330ff 	and	r3, r3, #255	; 0xff
 c002518:	e1a01203 	lsl	r1, r3, #4
 c00251c:	e59f3198 	ldr	r3, [pc, #408]	; c0026bc <boton_confirmado+0x8dc>
 c002520:	e5d33000 	ldrb	r3, [r3]
 c002524:	e20330ff 	and	r3, r3, #255	; 0xff
 c002528:	e0813003 	add	r3, r1, r3
 c00252c:	e1a03083 	lsl	r3, r3, #1
 c002530:	e0822003 	add	r2, r2, r3
 c002534:	e59f3184 	ldr	r3, [pc, #388]	; c0026c0 <boton_confirmado+0x8e0>
 c002538:	e5d33000 	ldrb	r3, [r3]
 c00253c:	e20330ff 	and	r3, r3, #255	; 0xff
 c002540:	e1a00002 	mov	r0, r2
 c002544:	e1a01003 	mov	r1, r3
 c002548:	ebfffcbc 	bl	c001840 <celda_poner_valor>
                                        
                                        /* Actualizar candidatos para reflejar el cambio */
                                        if (valor_previo != 0)
 c00254c:	e59f3170 	ldr	r3, [pc, #368]	; c0026c4 <boton_confirmado+0x8e4>
 c002550:	e5d33000 	ldrb	r3, [r3]
 c002554:	e20330ff 	and	r3, r3, #255	; 0xff
 c002558:	e3530000 	cmp	r3, #0
 c00255c:	0a000007 	beq	c002580 <boton_confirmado+0x7a0>
                                        {
                                                /* Se modific un valor previo -> recalcular todo */
                                                celdas_vacias = candidatos_actualizar_all(cuadricula);
 c002560:	e59f313c 	ldr	r3, [pc, #316]	; c0026a4 <boton_confirmado+0x8c4>
 c002564:	e5933000 	ldr	r3, [r3]
 c002568:	e1a00003 	mov	r0, r3
 c00256c:	eb00023c 	bl	c002e64 <candidatos_actualizar_all>
 c002570:	e1a02000 	mov	r2, r0
 c002574:	e59f312c 	ldr	r3, [pc, #300]	; c0026a8 <boton_confirmado+0x8c8>
 c002578:	e5832000 	str	r2, [r3]
 c00257c:	ea00000b 	b	c0025b0 <boton_confirmado+0x7d0>
                                        }
                                        else
                                        {
                                                /* Celda vaca -> propagar el nuevo valor */
                                                candidatos_propagar_arm(cuadricula, fila, columna);
 c002580:	e59f311c 	ldr	r3, [pc, #284]	; c0026a4 <boton_confirmado+0x8c4>
 c002584:	e5931000 	ldr	r1, [r3]
 c002588:	e59f3128 	ldr	r3, [pc, #296]	; c0026b8 <boton_confirmado+0x8d8>
 c00258c:	e5d33000 	ldrb	r3, [r3]
 c002590:	e20320ff 	and	r2, r3, #255	; 0xff
 c002594:	e59f3120 	ldr	r3, [pc, #288]	; c0026bc <boton_confirmado+0x8dc>
 c002598:	e5d33000 	ldrb	r3, [r3]
 c00259c:	e20330ff 	and	r3, r3, #255	; 0xff
 c0025a0:	e1a00001 	mov	r0, r1
 c0025a4:	e1a01002 	mov	r1, r2
 c0025a8:	e1a02003 	mov	r2, r3
 c0025ac:	eb000176 	bl	c002b8c <candidatos_propagar_arm>
                                        }
                                        
                                        /* Marcar TODAS las celdas involucradas en el conflicto */
                                        marcar_celdas_en_conflicto(fila, columna, valor);
 c0025b0:	e59f3100 	ldr	r3, [pc, #256]	; c0026b8 <boton_confirmado+0x8d8>
 c0025b4:	e5d33000 	ldrb	r3, [r3]
 c0025b8:	e20310ff 	and	r1, r3, #255	; 0xff
 c0025bc:	e59f30f8 	ldr	r3, [pc, #248]	; c0026bc <boton_confirmado+0x8dc>
 c0025c0:	e5d33000 	ldrb	r3, [r3]
 c0025c4:	e20320ff 	and	r2, r3, #255	; 0xff
 c0025c8:	e59f30f0 	ldr	r3, [pc, #240]	; c0026c0 <boton_confirmado+0x8e0>
 c0025cc:	e5d33000 	ldrb	r3, [r3]
 c0025d0:	e20330ff 	and	r3, r3, #255	; 0xff
 c0025d4:	e1a00001 	mov	r0, r1
 c0025d8:	e1a01002 	mov	r1, r2
 c0025dc:	e1a02003 	mov	r2, r3
 c0025e0:	ebfffd2f 	bl	c001aa4 <marcar_celdas_en_conflicto>
                                        
                                        /* Actualizar la visualizacin del tablero */
                                        Sudoku_Actualizar_Tablero_Completo(cuadricula);
 c0025e4:	e59f30b8 	ldr	r3, [pc, #184]	; c0026a4 <boton_confirmado+0x8c4>
 c0025e8:	e5933000 	ldr	r3, [r3]
 c0025ec:	e1a00003 	mov	r0, r3
 c0025f0:	eb000e67 	bl	c005f94 <Sudoku_Actualizar_Tablero_Completo>
                                        
                                        /* Volver a introducir fila */
                                        estado_juego = INTRODUCIR_FILA;
 c0025f4:	e59f30a0 	ldr	r3, [pc, #160]	; c00269c <boton_confirmado+0x8bc>
 c0025f8:	e3a02001 	mov	r2, #1
 c0025fc:	e5c32000 	strb	r2, [r3]
                                        int_count = 9;  /* Iniciar en 9 para que al incrementar vaya a 0 */
 c002600:	e59f30a4 	ldr	r3, [pc, #164]	; c0026ac <boton_confirmado+0x8cc>
 c002604:	e3a02009 	mov	r2, #9
 c002608:	e5c32000 	strb	r2, [r3]
                                        D8Led_symbol(15);  /* Mostrar 'F' de Fila */
 c00260c:	e3a0000f 	mov	r0, #15
 c002610:	ebfffa75 	bl	c000fec <D8Led_symbol>
                                }
                        }
                        break;
 c002614:	ea00001d 	b	c002690 <boton_confirmado+0x8b0>
                
                case PARTIDA_TERMINADA:
                        /* Mostrar pantalla de despedida solo una vez */
                        if (!pantalla_mostrada)
 c002618:	e59f3090 	ldr	r3, [pc, #144]	; c0026b0 <boton_confirmado+0x8d0>
 c00261c:	e5d33000 	ldrb	r3, [r3]
 c002620:	e20330ff 	and	r3, r3, #255	; 0xff
 c002624:	e3530000 	cmp	r3, #0
 c002628:	1a000007 	bne	c00264c <boton_confirmado+0x86c>
                        {
                                /* Usar la funcin existente de lcd.c */
                                Sudoku_Pantalla_Final(tiempo_final);
 c00262c:	e59f3080 	ldr	r3, [pc, #128]	; c0026b4 <boton_confirmado+0x8d4>
 c002630:	e5933000 	ldr	r3, [r3]
 c002634:	e1a00003 	mov	r0, r3
 c002638:	eb000f32 	bl	c006308 <Sudoku_Pantalla_Final>
                                
                                pantalla_mostrada = 1;
 c00263c:	e59f306c 	ldr	r3, [pc, #108]	; c0026b0 <boton_confirmado+0x8d0>
 c002640:	e3a02001 	mov	r2, #1
 c002644:	e5c32000 	strb	r2, [r3]
                                /* Volver al estado inicial */
                                estado_juego = ESPERANDO_INICIO;
                                int_count = 0;
                                pantalla_mostrada = 0;
                        }
                        break;
 c002648:	ea000010 	b	c002690 <boton_confirmado+0x8b0>
                        }
                        else
                        {
                                /* Cualquier botn despus de mostrar pantalla final reinicia el juego */
                                /* Restaurar la cuadrcula al estado original */
                                restaurar_cuadricula_original();
 c00264c:	ebfffce8 	bl	c0019f4 <restaurar_cuadricula_original>
                                
                                /* Mostrar pantalla inicial */
                                Sudoku_Pantalla_Inicial();
 c002650:	eb000acd 	bl	c00518c <Sudoku_Pantalla_Inicial>
                                
                                /* Volver al estado inicial */
                                estado_juego = ESPERANDO_INICIO;
 c002654:	e59f3040 	ldr	r3, [pc, #64]	; c00269c <boton_confirmado+0x8bc>
 c002658:	e3a02000 	mov	r2, #0
 c00265c:	e5c32000 	strb	r2, [r3]
                                int_count = 0;
 c002660:	e59f3044 	ldr	r3, [pc, #68]	; c0026ac <boton_confirmado+0x8cc>
 c002664:	e3a02000 	mov	r2, #0
 c002668:	e5c32000 	strb	r2, [r3]
                                pantalla_mostrada = 0;
 c00266c:	e59f303c 	ldr	r3, [pc, #60]	; c0026b0 <boton_confirmado+0x8d0>
 c002670:	e3a02000 	mov	r2, #0
 c002674:	e5c32000 	strb	r2, [r3]
                        }
                        break;
 c002678:	ea000004 	b	c002690 <boton_confirmado+0x8b0>
                                        estado_juego = INTRODUCIR_COLUMNA;
                                        int_count = 0;
                                        D8Led_symbol(12);  /* Mostrar 'C' de Columna (ndice 12 en el array Symbol) */
                                }
                        }
                        break;
 c00267c:	e1a00000 	nop			; (mov r0, r0)
 c002680:	ea000002 	b	c002690 <boton_confirmado+0x8b0>
                                columna = int_count - 1;  /* Convertir a ndice 0-8 */
                                estado_juego = VERIFICAR_CELDA;
                                int_count = 0;
                                D8Led_symbol(int_count & 0x000f);
                        }
                        break;
 c002684:	e1a00000 	nop			; (mov r0, r0)
 c002688:	ea000000 	b	c002690 <boton_confirmado+0x8b0>
                                valor = int_count;  /* Valor a escribir (0-9) */
                                
                                estado_juego = VERIFICAR_VALOR;
                                int_count = 0;
                        }
                        break;
 c00268c:	e1a00000 	nop			; (mov r0, r0)
                                int_count = 0;
                                pantalla_mostrada = 0;
                        }
                        break;
        }
}
 c002690:	e24bd00c 	sub	sp, fp, #12
 c002694:	e89d6800 	ldm	sp, {fp, sp, lr}
 c002698:	e12fff1e 	bx	lr
 c00269c:	0c00eef0 	.word	0x0c00eef0
 c0026a0:	0c00eef8 	.word	0x0c00eef8
 c0026a4:	0c00cc20 	.word	0x0c00cc20
 c0026a8:	0c00ef04 	.word	0x0c00ef04
 c0026ac:	0c00eef1 	.word	0x0c00eef1
 c0026b0:	0c00eef6 	.word	0x0c00eef6
 c0026b4:	0c00eefc 	.word	0x0c00eefc
 c0026b8:	0c00eef2 	.word	0x0c00eef2
 c0026bc:	0c00eef3 	.word	0x0c00eef3
 c0026c0:	0c00eef4 	.word	0x0c00eef4
 c0026c4:	0c00eef5 	.word	0x0c00eef5

0c0026c8 <Eint4567_ISR>:
 * https://gcc.gnu.org/onlinedocs/gcc/ARM-Function-Attributes.html */
void Eint4567_ISR(void) __attribute__((interrupt("IRQ")));

/*--- cdigo de funciones ---*/
void Eint4567_ISR(void)
{
 c0026c8:	e52dc004 	push	{ip}		; (str ip, [sp, #-4]!)
 c0026cc:	e1a0c00d 	mov	ip, sp
 c0026d0:	e92dd80f 	push	{r0, r1, r2, r3, fp, ip, lr, pc}
 c0026d4:	e24cb004 	sub	fp, ip, #4
 c0026d8:	e24dd008 	sub	sp, sp, #8
        /* Identificar la interrupcin (hay dos pulsadores) */
        unsigned int pending = rEXTINTPND & 0xF;
 c0026dc:	e59f308c 	ldr	r3, [pc, #140]	; c002770 <Eint4567_ISR+0xa8>
 c0026e0:	e5933000 	ldr	r3, [r3]
 c0026e4:	e203300f 	and	r3, r3, #15
 c0026e8:	e50b3024 	str	r3, [fp, #-36]	; 0xffffffdc
        uint8_t boton_id = 0;
 c0026ec:	e3a03000 	mov	r3, #0
 c0026f0:	e54b301d 	strb	r3, [fp, #-29]	; 0xffffffe3

        if (pending & 0x4)
 c0026f4:	e51b3024 	ldr	r3, [fp, #-36]	; 0xffffffdc
 c0026f8:	e2033004 	and	r3, r3, #4
 c0026fc:	e3530000 	cmp	r3, #0
 c002700:	0a000002 	beq	c002710 <Eint4567_ISR+0x48>
        {
                boton_id = EVENTO_BOTON_IZQUIERDO;
 c002704:	e3a03004 	mov	r3, #4
 c002708:	e54b301d 	strb	r3, [fp, #-29]	; 0xffffffe3
 c00270c:	ea000005 	b	c002728 <Eint4567_ISR+0x60>
        }
        else if (pending & 0x8)
 c002710:	e51b3024 	ldr	r3, [fp, #-36]	; 0xffffffdc
 c002714:	e2033008 	and	r3, r3, #8
 c002718:	e3530000 	cmp	r3, #0
 c00271c:	0a000001 	beq	c002728 <Eint4567_ISR+0x60>
        {
                boton_id = EVENTO_BOTON_DERECHO;
 c002720:	e3a03008 	mov	r3, #8
 c002724:	e54b301d 	strb	r3, [fp, #-29]	; 0xffffffe3
        }

        if (boton_id != 0U)
 c002728:	e55b301d 	ldrb	r3, [fp, #-29]	; 0xffffffe3
 c00272c:	e3530000 	cmp	r3, #0
 c002730:	0a000002 	beq	c002740 <Eint4567_ISR+0x78>
        {
                /* No registrar la pulsacin inicial, solo las confirmadas */

                /* Iniciar la mquina de antirrebotes. Si est ocupada, no hacer nada */
                timer3_start_antirrebote(boton_id);
 c002734:	e55b301d 	ldrb	r3, [fp, #-29]	; 0xffffffe3
 c002738:	e1a00003 	mov	r0, r3
 c00273c:	eb00164d 	bl	c008078 <timer3_start_antirrebote>
        }

        /* Finalizar ISR */
        rEXTINTPND = 0xf;                               // borra los bits en EXTINTPND
 c002740:	e59f3028 	ldr	r3, [pc, #40]	; c002770 <Eint4567_ISR+0xa8>
 c002744:	e3a0200f 	mov	r2, #15
 c002748:	e5832000 	str	r2, [r3]
        rI_ISPC   |= BIT_EINT4567;              // borra el bit pendiente en INTPND
 c00274c:	e59f3020 	ldr	r3, [pc, #32]	; c002774 <Eint4567_ISR+0xac>
 c002750:	e59f201c 	ldr	r2, [pc, #28]	; c002774 <Eint4567_ISR+0xac>
 c002754:	e5922000 	ldr	r2, [r2]
 c002758:	e3822602 	orr	r2, r2, #2097152	; 0x200000
 c00275c:	e5832000 	str	r2, [r3]
}
 c002760:	e24bd01c 	sub	sp, fp, #28
 c002764:	e89d680f 	ldm	sp, {r0, r1, r2, r3, fp, sp, lr}
 c002768:	e49dc004 	pop	{ip}		; (ldr ip, [sp], #4)
 c00276c:	e25ef004 	subs	pc, lr, #4
 c002770:	01d20054 	.word	0x01d20054
 c002774:	01e00024 	.word	0x01e00024

0c002778 <Sudoku_Partida_Terminada>:
/* Funcin para consultar si la partida est terminada */
int Sudoku_Partida_Terminada(void)
{
 c002778:	e1a0c00d 	mov	ip, sp
 c00277c:	e92dd800 	push	{fp, ip, lr, pc}
 c002780:	e24cb004 	sub	fp, ip, #4
	return (estado_juego == PARTIDA_TERMINADA);
 c002784:	e59f3020 	ldr	r3, [pc, #32]	; c0027ac <Sudoku_Partida_Terminada+0x34>
 c002788:	e5d33000 	ldrb	r3, [r3]
 c00278c:	e20330ff 	and	r3, r3, #255	; 0xff
 c002790:	e3530007 	cmp	r3, #7
 c002794:	13a03000 	movne	r3, #0
 c002798:	03a03001 	moveq	r3, #1
}
 c00279c:	e1a00003 	mov	r0, r3
 c0027a0:	e24bd00c 	sub	sp, fp, #12
 c0027a4:	e89d6800 	ldm	sp, {fp, sp, lr}
 c0027a8:	e12fff1e 	bx	lr
 c0027ac:	0c00eef0 	.word	0x0c00eef0

0c0027b0 <Sudoku_Juego_En_Progreso>:

/* Funcin para consultar si el juego est en progreso */
int Sudoku_Juego_En_Progreso(void)
{
 c0027b0:	e1a0c00d 	mov	ip, sp
 c0027b4:	e92dd800 	push	{fp, ip, lr, pc}
 c0027b8:	e24cb004 	sub	fp, ip, #4
	return (estado_juego != ESPERANDO_INICIO && estado_juego != PARTIDA_TERMINADA);
 c0027bc:	e59f303c 	ldr	r3, [pc, #60]	; c002800 <Sudoku_Juego_En_Progreso+0x50>
 c0027c0:	e5d33000 	ldrb	r3, [r3]
 c0027c4:	e20330ff 	and	r3, r3, #255	; 0xff
 c0027c8:	e3530000 	cmp	r3, #0
 c0027cc:	0a000006 	beq	c0027ec <Sudoku_Juego_En_Progreso+0x3c>
 c0027d0:	e59f3028 	ldr	r3, [pc, #40]	; c002800 <Sudoku_Juego_En_Progreso+0x50>
 c0027d4:	e5d33000 	ldrb	r3, [r3]
 c0027d8:	e20330ff 	and	r3, r3, #255	; 0xff
 c0027dc:	e3530007 	cmp	r3, #7
 c0027e0:	0a000001 	beq	c0027ec <Sudoku_Juego_En_Progreso+0x3c>
 c0027e4:	e3a03001 	mov	r3, #1
 c0027e8:	ea000000 	b	c0027f0 <Sudoku_Juego_En_Progreso+0x40>
 c0027ec:	e3a03000 	mov	r3, #0
}
 c0027f0:	e1a00003 	mov	r0, r3
 c0027f4:	e24bd00c 	sub	sp, fp, #12
 c0027f8:	e89d6800 	ldm	sp, {fp, sp, lr}
 c0027fc:	e12fff1e 	bx	lr
 c002800:	0c00eef0 	.word	0x0c00eef0

0c002804 <Sudoku_Obtener_Tiempo_Inicio>:

/* Funcin para obtener el tiempo de inicio de la partida */
unsigned int Sudoku_Obtener_Tiempo_Inicio(void)
{
 c002804:	e1a0c00d 	mov	ip, sp
 c002808:	e92dd800 	push	{fp, ip, lr, pc}
 c00280c:	e24cb004 	sub	fp, ip, #4
	return tiempo_inicio;
 c002810:	e59f3010 	ldr	r3, [pc, #16]	; c002828 <Sudoku_Obtener_Tiempo_Inicio+0x24>
 c002814:	e5933000 	ldr	r3, [r3]
}
 c002818:	e1a00003 	mov	r0, r3
 c00281c:	e24bd00c 	sub	sp, fp, #12
 c002820:	e89d6800 	ldm	sp, {fp, sp, lr}
 c002824:	e12fff1e 	bx	lr
 c002828:	0c00eef8 	.word	0x0c00eef8

0c00282c <Eint4567_init>:
void Eint4567_init(void)
{
 c00282c:	e1a0c00d 	mov	ip, sp
 c002830:	e92dd800 	push	{fp, ip, lr, pc}
 c002834:	e24cb004 	sub	fp, ip, #4
        /* Inicializar el temporizador dedicado a la eliminacin de rebotes */
        timer3_init(boton_confirmado);
 c002838:	e59f00ac 	ldr	r0, [pc, #172]	; c0028ec <Eint4567_init+0xc0>
 c00283c:	eb0015c2 	bl	c007f4c <timer3_init>

        /* Configuracion del controlador de interrupciones. Estos registros estn definidos en 44b.h */
        rI_ISPC    = 0x3ffffff;         // Borra INTPND escribiendo 1s en I_ISPC
 c002840:	e59f30a8 	ldr	r3, [pc, #168]	; c0028f0 <Eint4567_init+0xc4>
 c002844:	e3e0233f 	mvn	r2, #-67108864	; 0xfc000000
 c002848:	e5832000 	str	r2, [r3]
        rEXTINTPND = 0xf;               // Borra EXTINTPND escribiendo 1s en el propio registro
 c00284c:	e59f30a0 	ldr	r3, [pc, #160]	; c0028f4 <Eint4567_init+0xc8>
 c002850:	e3a0200f 	mov	r2, #15
 c002854:	e5832000 	str	r2, [r3]
        rINTMOD    = 0x0;               // Configura las lineas como de tipo IRQ
 c002858:	e59f3098 	ldr	r3, [pc, #152]	; c0028f8 <Eint4567_init+0xcc>
 c00285c:	e3a02000 	mov	r2, #0
 c002860:	e5832000 	str	r2, [r3]
        rINTCON    = 0x1;               // Habilita int. vectorizadas y la linea IRQ (FIQ no)
 c002864:	e3a0361e 	mov	r3, #31457280	; 0x1e00000
 c002868:	e3a02001 	mov	r2, #1
 c00286c:	e5832000 	str	r2, [r3]
        rINTMSK    &= ~(BIT_EINT4567);  // habilitamos interrupcion linea eint4567 en vector de mascaras
 c002870:	e59f3084 	ldr	r3, [pc, #132]	; c0028fc <Eint4567_init+0xd0>
 c002874:	e59f2080 	ldr	r2, [pc, #128]	; c0028fc <Eint4567_init+0xd0>
 c002878:	e5922000 	ldr	r2, [r2]
 c00287c:	e3c22602 	bic	r2, r2, #2097152	; 0x200000
 c002880:	e5832000 	str	r2, [r3]

        /* Establece la rutina de servicio para Eint4567 */
        pISR_EINT4567 = (int) Eint4567_ISR;
 c002884:	e59f3074 	ldr	r3, [pc, #116]	; c002900 <Eint4567_init+0xd4>
 c002888:	e59f2074 	ldr	r2, [pc, #116]	; c002904 <Eint4567_init+0xd8>
 c00288c:	e5832000 	str	r2, [r3]

        /* Configuracion del puerto G */
        rPCONG  = 0xffff;                       // Establece la funcion de los pines (EINT0-7)
 c002890:	e59f3070 	ldr	r3, [pc, #112]	; c002908 <Eint4567_init+0xdc>
 c002894:	e59f2070 	ldr	r2, [pc, #112]	; c00290c <Eint4567_init+0xe0>
 c002898:	e5832000 	str	r2, [r3]
        rPUPG   = 0x0;                  // Habilita el "pull up" del puerto
 c00289c:	e59f306c 	ldr	r3, [pc, #108]	; c002910 <Eint4567_init+0xe4>
 c0028a0:	e3a02000 	mov	r2, #0
 c0028a4:	e5832000 	str	r2, [r3]
        rEXTINT = rEXTINT | 0x22222222;   // Configura las lineas de int. como de flanco de bajada
 c0028a8:	e59f2064 	ldr	r2, [pc, #100]	; c002914 <Eint4567_init+0xe8>
 c0028ac:	e59f3060 	ldr	r3, [pc, #96]	; c002914 <Eint4567_init+0xe8>
 c0028b0:	e5931000 	ldr	r1, [r3]
 c0028b4:	e59f305c 	ldr	r3, [pc, #92]	; c002918 <Eint4567_init+0xec>
 c0028b8:	e1813003 	orr	r3, r1, r3
 c0028bc:	e5823000 	str	r3, [r2]

        /* Por precaucion, se vuelven a borrar los bits de INTPND y EXTINTPND */
        rEXTINTPND = 0xf;                               // borra los bits en EXTINTPND
 c0028c0:	e59f302c 	ldr	r3, [pc, #44]	; c0028f4 <Eint4567_init+0xc8>
 c0028c4:	e3a0200f 	mov	r2, #15
 c0028c8:	e5832000 	str	r2, [r3]
        rI_ISPC   |= BIT_EINT4567;              // borra el bit pendiente en INTPND
 c0028cc:	e59f301c 	ldr	r3, [pc, #28]	; c0028f0 <Eint4567_init+0xc4>
 c0028d0:	e59f2018 	ldr	r2, [pc, #24]	; c0028f0 <Eint4567_init+0xc4>
 c0028d4:	e5922000 	ldr	r2, [r2]
 c0028d8:	e3822602 	orr	r2, r2, #2097152	; 0x200000
 c0028dc:	e5832000 	str	r2, [r3]
 c0028e0:	e24bd00c 	sub	sp, fp, #12
 c0028e4:	e89d6800 	ldm	sp, {fp, sp, lr}
 c0028e8:	e12fff1e 	bx	lr
 c0028ec:	0c001de0 	.word	0x0c001de0
 c0028f0:	01e00024 	.word	0x01e00024
 c0028f4:	01d20054 	.word	0x01d20054
 c0028f8:	01e00008 	.word	0x01e00008
 c0028fc:	01e0000c 	.word	0x01e0000c
 c002900:	0c7fff74 	.word	0x0c7fff74
 c002904:	0c0026c8 	.word	0x0c0026c8
 c002908:	01d20040 	.word	0x01d20040
 c00290c:	0000ffff 	.word	0x0000ffff
 c002910:	01d20048 	.word	0x01d20048
 c002914:	01d20050 	.word	0x01d20050
 c002918:	22222222 	.word	0x22222222

0c00291c <cola_init>:
/**
 * Inicializa la cola de depuracin.
 * Pone a cero todos los contadores y limpia la estructura.
 */
void cola_init(void)
{
 c00291c:	e1a0c00d 	mov	ip, sp
 c002920:	e92dd800 	push	{fp, ip, lr, pc}
 c002924:	e24cb004 	sub	fp, ip, #4
 c002928:	e24dd008 	sub	sp, sp, #8
	int i;

	/* Inicializar los ndices de control */
	cola_global->indice_escritura = 0;
 c00292c:	e59f30d8 	ldr	r3, [pc, #216]	; c002a0c <cola_init+0xf0>
 c002930:	e5933000 	ldr	r3, [r3]
 c002934:	e3a02000 	mov	r2, #0
 c002938:	e5832000 	str	r2, [r3]
	cola_global->num_eventos = 0;
 c00293c:	e59f30c8 	ldr	r3, [pc, #200]	; c002a0c <cola_init+0xf0>
 c002940:	e5933000 	ldr	r3, [r3]
 c002944:	e3a02000 	mov	r2, #0
 c002948:	e5832004 	str	r2, [r3, #4]

	/* Limpiar todos los eventos de la cola */
	for (i = 0; i < COLA_SIZE; i++)
 c00294c:	e3a03000 	mov	r3, #0
 c002950:	e50b3010 	str	r3, [fp, #-16]
 c002954:	ea000026 	b	c0029f4 <cola_init+0xd8>
	{
		cola_global->eventos[i].instante = 0;
 c002958:	e59f30ac 	ldr	r3, [pc, #172]	; c002a0c <cola_init+0xf0>
 c00295c:	e5930000 	ldr	r0, [r3]
 c002960:	e51b2010 	ldr	r2, [fp, #-16]
 c002964:	e3a01008 	mov	r1, #8
 c002968:	e1a03002 	mov	r3, r2
 c00296c:	e1a03083 	lsl	r3, r3, #1
 c002970:	e0833002 	add	r3, r3, r2
 c002974:	e1a03103 	lsl	r3, r3, #2
 c002978:	e0803003 	add	r3, r0, r3
 c00297c:	e0833001 	add	r3, r3, r1
 c002980:	e3a02000 	mov	r2, #0
 c002984:	e5832000 	str	r2, [r3]
		cola_global->eventos[i].ID_evento = 0;
 c002988:	e59f307c 	ldr	r3, [pc, #124]	; c002a0c <cola_init+0xf0>
 c00298c:	e5930000 	ldr	r0, [r3]
 c002990:	e51b2010 	ldr	r2, [fp, #-16]
 c002994:	e3a01008 	mov	r1, #8
 c002998:	e1a03002 	mov	r3, r2
 c00299c:	e1a03083 	lsl	r3, r3, #1
 c0029a0:	e0833002 	add	r3, r3, r2
 c0029a4:	e1a03103 	lsl	r3, r3, #2
 c0029a8:	e0803003 	add	r3, r0, r3
 c0029ac:	e0833001 	add	r3, r3, r1
 c0029b0:	e3a02000 	mov	r2, #0
 c0029b4:	e5c32004 	strb	r2, [r3, #4]
		cola_global->eventos[i].auxData = 0;
 c0029b8:	e59f304c 	ldr	r3, [pc, #76]	; c002a0c <cola_init+0xf0>
 c0029bc:	e5930000 	ldr	r0, [r3]
 c0029c0:	e51b2010 	ldr	r2, [fp, #-16]
 c0029c4:	e3a01010 	mov	r1, #16
 c0029c8:	e1a03002 	mov	r3, r2
 c0029cc:	e1a03083 	lsl	r3, r3, #1
 c0029d0:	e0833002 	add	r3, r3, r2
 c0029d4:	e1a03103 	lsl	r3, r3, #2
 c0029d8:	e0803003 	add	r3, r0, r3
 c0029dc:	e0833001 	add	r3, r3, r1
 c0029e0:	e3a02000 	mov	r2, #0
 c0029e4:	e5832000 	str	r2, [r3]
	/* Inicializar los ndices de control */
	cola_global->indice_escritura = 0;
	cola_global->num_eventos = 0;

	/* Limpiar todos los eventos de la cola */
	for (i = 0; i < COLA_SIZE; i++)
 c0029e8:	e51b3010 	ldr	r3, [fp, #-16]
 c0029ec:	e2833001 	add	r3, r3, #1
 c0029f0:	e50b3010 	str	r3, [fp, #-16]
 c0029f4:	e51b3010 	ldr	r3, [fp, #-16]
 c0029f8:	e3530095 	cmp	r3, #149	; 0x95
 c0029fc:	daffffd5 	ble	c002958 <cola_init+0x3c>
	{
		cola_global->eventos[i].instante = 0;
		cola_global->eventos[i].ID_evento = 0;
		cola_global->eventos[i].auxData = 0;
	}
}
 c002a00:	e24bd00c 	sub	sp, fp, #12
 c002a04:	e89d6800 	ldm	sp, {fp, sp, lr}
 c002a08:	e12fff1e 	bx	lr
 c002a0c:	0c00c540 	.word	0x0c00c540

0c002a10 <cola_depuracion>:
 * @param instant Instante de tiempo en microsegundos (normalmente de timer2_count())
 * @param ID_evento Identificador del tipo de evento (ver eventos.h)
 * @param auxData Datos auxiliares especficos del evento
 */
void cola_depuracion(uint32_t instant, uint8_t ID_evento, uint32_t auxData)
{
 c002a10:	e1a0c00d 	mov	ip, sp
 c002a14:	e92dd800 	push	{fp, ip, lr, pc}
 c002a18:	e24cb004 	sub	fp, ip, #4
 c002a1c:	e24dd010 	sub	sp, sp, #16
 c002a20:	e50b0010 	str	r0, [fp, #-16]
 c002a24:	e1a03001 	mov	r3, r1
 c002a28:	e50b2018 	str	r2, [fp, #-24]	; 0xffffffe8
 c002a2c:	e54b3011 	strb	r3, [fp, #-17]	; 0xffffffef
	/* Guardar el evento en la posicin actual de escritura */
	cola_global->eventos[cola_global->indice_escritura].instante = instant;
 c002a30:	e59f30f8 	ldr	r3, [pc, #248]	; c002b30 <cola_depuracion+0x120>
 c002a34:	e5930000 	ldr	r0, [r3]
 c002a38:	e59f30f0 	ldr	r3, [pc, #240]	; c002b30 <cola_depuracion+0x120>
 c002a3c:	e5933000 	ldr	r3, [r3]
 c002a40:	e5932000 	ldr	r2, [r3]
 c002a44:	e3a01008 	mov	r1, #8
 c002a48:	e1a03002 	mov	r3, r2
 c002a4c:	e1a03083 	lsl	r3, r3, #1
 c002a50:	e0833002 	add	r3, r3, r2
 c002a54:	e1a03103 	lsl	r3, r3, #2
 c002a58:	e0803003 	add	r3, r0, r3
 c002a5c:	e0833001 	add	r3, r3, r1
 c002a60:	e51b2010 	ldr	r2, [fp, #-16]
 c002a64:	e5832000 	str	r2, [r3]
	cola_global->eventos[cola_global->indice_escritura].ID_evento = ID_evento;
 c002a68:	e59f30c0 	ldr	r3, [pc, #192]	; c002b30 <cola_depuracion+0x120>
 c002a6c:	e5930000 	ldr	r0, [r3]
 c002a70:	e59f30b8 	ldr	r3, [pc, #184]	; c002b30 <cola_depuracion+0x120>
 c002a74:	e5933000 	ldr	r3, [r3]
 c002a78:	e5932000 	ldr	r2, [r3]
 c002a7c:	e3a01008 	mov	r1, #8
 c002a80:	e1a03002 	mov	r3, r2
 c002a84:	e1a03083 	lsl	r3, r3, #1
 c002a88:	e0833002 	add	r3, r3, r2
 c002a8c:	e1a03103 	lsl	r3, r3, #2
 c002a90:	e0803003 	add	r3, r0, r3
 c002a94:	e0833001 	add	r3, r3, r1
 c002a98:	e55b2011 	ldrb	r2, [fp, #-17]	; 0xffffffef
 c002a9c:	e5c32004 	strb	r2, [r3, #4]
	cola_global->eventos[cola_global->indice_escritura].auxData = auxData;
 c002aa0:	e59f3088 	ldr	r3, [pc, #136]	; c002b30 <cola_depuracion+0x120>
 c002aa4:	e5930000 	ldr	r0, [r3]
 c002aa8:	e59f3080 	ldr	r3, [pc, #128]	; c002b30 <cola_depuracion+0x120>
 c002aac:	e5933000 	ldr	r3, [r3]
 c002ab0:	e5932000 	ldr	r2, [r3]
 c002ab4:	e3a01010 	mov	r1, #16
 c002ab8:	e1a03002 	mov	r3, r2
 c002abc:	e1a03083 	lsl	r3, r3, #1
 c002ac0:	e0833002 	add	r3, r3, r2
 c002ac4:	e1a03103 	lsl	r3, r3, #2
 c002ac8:	e0803003 	add	r3, r0, r3
 c002acc:	e0833001 	add	r3, r3, r1
 c002ad0:	e51b2018 	ldr	r2, [fp, #-24]	; 0xffffffe8
 c002ad4:	e5832000 	str	r2, [r3]

	/* Incrementar el ndice de escritura de forma circular */
	cola_global->indice_escritura++;
 c002ad8:	e59f3050 	ldr	r3, [pc, #80]	; c002b30 <cola_depuracion+0x120>
 c002adc:	e5933000 	ldr	r3, [r3]
 c002ae0:	e5932000 	ldr	r2, [r3]
 c002ae4:	e2822001 	add	r2, r2, #1
 c002ae8:	e5832000 	str	r2, [r3]
	if (cola_global->indice_escritura >= COLA_SIZE)
 c002aec:	e59f303c 	ldr	r3, [pc, #60]	; c002b30 <cola_depuracion+0x120>
 c002af0:	e5933000 	ldr	r3, [r3]
 c002af4:	e5933000 	ldr	r3, [r3]
 c002af8:	e3530095 	cmp	r3, #149	; 0x95
 c002afc:	9a000003 	bls	c002b10 <cola_depuracion+0x100>
	{
		cola_global->indice_escritura = 0;  // Volver al inicio (circular)
 c002b00:	e59f3028 	ldr	r3, [pc, #40]	; c002b30 <cola_depuracion+0x120>
 c002b04:	e5933000 	ldr	r3, [r3]
 c002b08:	e3a02000 	mov	r2, #0
 c002b0c:	e5832000 	str	r2, [r3]
	}

	/* Incrementar el contador total de eventos (para estadsticas) */
	cola_global->num_eventos++;
 c002b10:	e59f3018 	ldr	r3, [pc, #24]	; c002b30 <cola_depuracion+0x120>
 c002b14:	e5933000 	ldr	r3, [r3]
 c002b18:	e5932004 	ldr	r2, [r3, #4]
 c002b1c:	e2822001 	add	r2, r2, #1
 c002b20:	e5832004 	str	r2, [r3, #4]
}
 c002b24:	e24bd00c 	sub	sp, fp, #12
 c002b28:	e89d6800 	ldm	sp, {fp, sp, lr}
 c002b2c:	e12fff1e 	bx	lr
 c002b30:	0c00c540 	.word	0x0c00c540

0c002b34 <cola_get_num_eventos>:
 * 
 * @return Nmero total de eventos desde la inicializacin
 *         Puede ser mayor que COLA_SIZE si la cola ha dado varias vueltas
 */
uint32_t cola_get_num_eventos(void)
{
 c002b34:	e1a0c00d 	mov	ip, sp
 c002b38:	e92dd800 	push	{fp, ip, lr, pc}
 c002b3c:	e24cb004 	sub	fp, ip, #4
	return cola_global->num_eventos;
 c002b40:	e59f3014 	ldr	r3, [pc, #20]	; c002b5c <cola_get_num_eventos+0x28>
 c002b44:	e5933000 	ldr	r3, [r3]
 c002b48:	e5933004 	ldr	r3, [r3, #4]
}
 c002b4c:	e1a00003 	mov	r0, r3
 c002b50:	e24bd00c 	sub	sp, fp, #12
 c002b54:	e89d6800 	ldm	sp, {fp, sp, lr}
 c002b58:	e12fff1e 	bx	lr
 c002b5c:	0c00c540 	.word	0x0c00c540

0c002b60 <cola_get_indice>:
 * Obtiene el ndice actual de escritura.
 * 
 * @return ndice donde se escribir el prximo evento (0 a COLA_SIZE-1)
 */
uint32_t cola_get_indice(void)
{
 c002b60:	e1a0c00d 	mov	ip, sp
 c002b64:	e92dd800 	push	{fp, ip, lr, pc}
 c002b68:	e24cb004 	sub	fp, ip, #4
	return cola_global->indice_escritura;
 c002b6c:	e59f3014 	ldr	r3, [pc, #20]	; c002b88 <cola_get_indice+0x28>
 c002b70:	e5933000 	ldr	r3, [r3]
 c002b74:	e5933000 	ldr	r3, [r3]
 c002b78:	e1a00003 	mov	r0, r3
 c002b7c:	e24bd00c 	sub	sp, fp, #12
 c002b80:	e89d6800 	ldm	sp, {fp, sp, lr}
 c002b84:	e12fff1e 	bx	lr
 c002b88:	0c00c540 	.word	0x0c00c540

0c002b8c <candidatos_propagar_arm>:
################################################################################
.global candidatos_propagar_arm

candidatos_propagar_arm:
    # Preservar registros
    STMDB   SP!, {r4-r10, fp, LR}
 c002b8c:	e92d4ff0 	push	{r4, r5, r6, r7, r8, r9, sl, fp, lr}
    ADD     fp, SP, #(4*7-4)    @ FP  direccin base del marco (7 registros: r4-r10)
 c002b90:	e28db018 	add	fp, sp, #24
    # r7 = contador i (bucle columna / regin)
    # r8 = direccin de celda temporal
    # r9 = valor de celda temporal

    # Inicializar constantes
    MOV     r4, #9          // NUM_FILAS
 c002b94:	e3a04009 	mov	r4, #9
    MOV     r5, #16         // NUM_COLUMNAS (9 + 7 padding)
 c002b98:	e3a05010 	mov	r5, #16

    # Leer valor de la celda actual: cuadricula[fila][columna]
    MLA     r8, r1, r5, r2  // r8 = fila * NUM_COLUMNAS + columna
 c002b9c:	e0282591 	mla	r8, r1, r5, r2
    MOV     r8, r8, LSL #1  // r8 *= 2 (sizeof CELDA)
 c002ba0:	e1a08088 	lsl	r8, r8, #1
    ADD     r8, r0, r8      // r8 = direccin de cuadricula[fila][columna]
 c002ba4:	e0808008 	add	r8, r0, r8
    LDRH    r3, [r8]        // r3 = cuadricula[fila][columna]
 c002ba8:	e1d830b0 	ldrh	r3, [r8]
    AND     r3, r3, #0x0F   // r3 = valor (bits 3-0)
 c002bac:	e203300f 	and	r3, r3, #15

    # Si valor es 0, no hay nada que propagar
    CMP     r3, #0
 c002bb0:	e3530000 	cmp	r3, #0
    BEQ     propagar_fin
 c002bb4:	0a000038 	beq	c002c9c <fin_region>

    # Calcular mscara para eliminar candidato: (1 << (7 + valor - 1))
    ADD     r9, r3, #7      // r9 = 7 + valor (BIT_CANDIDATOS = 7)
 c002bb8:	e2839007 	add	r9, r3, #7
    SUB     r9, r9, #1      // r9 = 7 + valor - 1
 c002bbc:	e2499001 	sub	r9, r9, #1
    MOV     r10, #1         // r10 = 1
 c002bc0:	e3a0a001 	mov	sl, #1
    MOV     r10, r10, LSL r9 // r10 = mscara para eliminar candidato
 c002bc4:	e1a0a91a 	lsl	sl, sl, r9

    # ===== RECORRER FILA =====
    MOV     r6, #0          // j = 0
 c002bc8:	e3a06000 	mov	r6, #0

0c002bcc <bucle_fila>:

bucle_fila:
    CMP     r6, r4          // comparar j con NUM_FILAS
 c002bcc:	e1560004 	cmp	r6, r4
    BGE     fin_fila        // si j >= NUM_FILAS, terminar
 c002bd0:	aa000007 	bge	c002bf4 <fin_fila>

    # Calcular direccin: cuadricula[fila][j]
    MLA     r8, r1, r5, r6  // r8 = fila * NUM_COLUMNAS + j
 c002bd4:	e0286591 	mla	r8, r1, r5, r6
    MOV     r8, r8, LSL #1  // r8 *= 2 (sizeof CELDA)
 c002bd8:	e1a08088 	lsl	r8, r8, #1
    ADD     r8, r0, r8      // r8 = direccin de cuadricula[fila][j]
 c002bdc:	e0808008 	add	r8, r0, r8

    # Leer valor de la celda
    LDRH    r9, [r8]        // r9 = cuadricula[fila][j]
 c002be0:	e1d890b0 	ldrh	r9, [r8]

    # Eliminar candidato: celda |= mscara
    ORR     r9, r9, r10     // r9 |= mscara
 c002be4:	e189900a 	orr	r9, r9, sl
    STRH    r9, [r8]        // guardar celda modificada
 c002be8:	e1c890b0 	strh	r9, [r8]

0c002bec <siguiente_fila>:

siguiente_fila:
    ADD     r6, r6, #1      // j++
 c002bec:	e2866001 	add	r6, r6, #1
    B       bucle_fila
 c002bf0:	eafffff5 	b	c002bcc <bucle_fila>

0c002bf4 <fin_fila>:

fin_fila:
    # ===== RECORRER COLUMNA =====
    MOV     r7, #0          // i = 0
 c002bf4:	e3a07000 	mov	r7, #0

0c002bf8 <bucle_columna>:

bucle_columna:
    CMP     r7, r4          // comparar i con NUM_FILAS, evitamos padding
 c002bf8:	e1570004 	cmp	r7, r4
    BGE     fin_columna     // si i >= NUM_FILAS, terminar
 c002bfc:	aa000007 	bge	c002c20 <fin_columna>

    # Calcular direccin: cuadricula[i][columna]
    MLA     r8, r7, r5, r2  // r8 = i * NUM_COLUMNAS + columna
 c002c00:	e0282597 	mla	r8, r7, r5, r2
    MOV     r8, r8, LSL #1  // r8 *= 2 (sizeof CELDA)
 c002c04:	e1a08088 	lsl	r8, r8, #1
    ADD     r8, r0, r8      // r8 = direccin de cuadricula[i][columna]
 c002c08:	e0808008 	add	r8, r0, r8

    # Leer valor de la celda
    LDRH    r9, [r8]        // r9 = cuadricula[i][columna]
 c002c0c:	e1d890b0 	ldrh	r9, [r8]

    # Eliminar candidato: celda |= mscara
    ORR     r9, r9, r10     // r9 |= mscara
 c002c10:	e189900a 	orr	r9, r9, sl
    STRH    r9, [r8]        // guardar celda modificada
 c002c14:	e1c890b0 	strh	r9, [r8]

0c002c18 <siguiente_columna>:

siguiente_columna:
    ADD     r7, r7, #1      // i++
 c002c18:	e2877001 	add	r7, r7, #1
    B       bucle_columna
 c002c1c:	eafffff5 	b	c002bf8 <bucle_columna>

0c002c20 <fin_columna>:

fin_columna:
    # ===== RECORRER REGIN 3x3 =====
    # Implementar lookup table: init_region[9] = {0, 0, 0, 3, 3, 3, 6, 6, 6}
    # Calcular init_i usando lookup table
    CMP     r1, #3
 c002c20:	e3510003 	cmp	r1, #3
    MOVLT   r7, #0          // si fila < 3, init_i = 0
 c002c24:	b3a07000 	movlt	r7, #0
    MOVGE   r7, #3          // si fila >= 3, init_i = 3
 c002c28:	a3a07003 	movge	r7, #3
    CMP     r1, #6
 c002c2c:	e3510006 	cmp	r1, #6
    MOVGE   r7, #6          // si fila >= 6, init_i = 6
 c002c30:	a3a07006 	movge	r7, #6

    # Calcular init_j usando lookup table
    CMP     r2, #3
 c002c34:	e3520003 	cmp	r2, #3
    MOVLT   r6, #0          // si columna < 3, init_j = 0
 c002c38:	b3a06000 	movlt	r6, #0
    MOVGE   r6, #3          // si columna >= 3, init_j = 3
 c002c3c:	a3a06003 	movge	r6, #3
    CMP     r2, #6
 c002c40:	e3520006 	cmp	r2, #6
    MOVGE   r6, #6          // si columna >= 6, init_j = 6
 c002c44:	a3a06006 	movge	r6, #6

    # r7 = init_i, r6 = init_j
    # Bucle regin: for (i = init_i; i < init_i + 3; i++)
    ADD     r3, r7, #3      // r3 = init_i + 3 (reutilizar r3)
 c002c48:	e2873003 	add	r3, r7, #3

0c002c4c <bucle_region_i>:

bucle_region_i:
    CMP     r7, r3          // comparar i con init_i + 3
 c002c4c:	e1570003 	cmp	r7, r3
    BGE     fin_region      // si i >= init_i + 3, terminar
 c002c50:	aa000011 	bge	c002c9c <fin_region>

    # Bucle regin: for (j = init_j; j < init_j + 3; j++)
    # Recalcular init_j para bucle interno
    CMP     r2, #3
 c002c54:	e3520003 	cmp	r2, #3
    MOVLT   r6, #0
 c002c58:	b3a06000 	movlt	r6, #0
    MOVGE   r6, #3
 c002c5c:	a3a06003 	movge	r6, #3
    CMP     r2, #6
 c002c60:	e3520006 	cmp	r2, #6
    MOVGE   r6, #6
 c002c64:	a3a06006 	movge	r6, #6
    
    ADD     r9, r6, #3      // r9 = init_j + 3
 c002c68:	e2869003 	add	r9, r6, #3

0c002c6c <bucle_region_j>:

bucle_region_j:
    CMP     r6, r9          // comparar j con init_j + 3
 c002c6c:	e1560009 	cmp	r6, r9
    BGE     fin_region_j    // si j >= init_j + 3, terminar bucle j
 c002c70:	aa000007 	bge	c002c94 <fin_region_j>

    # Calcular direccin: cuadricula[i][j]
    MLA     r8, r7, r5, r6  // r8 = i * NUM_COLUMNAS + j
 c002c74:	e0286597 	mla	r8, r7, r5, r6
    MOV     r8, r8, LSL #1  // r8 *= 2 (sizeof CELDA)
 c002c78:	e1a08088 	lsl	r8, r8, #1
    ADD     r8, r0, r8      // r8 = direccin de cuadricula[i][j]
 c002c7c:	e0808008 	add	r8, r0, r8

    # Leer valor de la celda
    LDRH    r4, [r8]        // r4 = cuadricula[i][j] (reutilizar r4)
 c002c80:	e1d840b0 	ldrh	r4, [r8]

    # Eliminar candidato: celda |= mscara
    ORR     r4, r4, r10     // r4 |= mscara
 c002c84:	e184400a 	orr	r4, r4, sl
    STRH    r4, [r8]        // guardar celda modificada
 c002c88:	e1c840b0 	strh	r4, [r8]

0c002c8c <siguiente_region_j>:

siguiente_region_j:
    ADD     r6, r6, #1      // j++
 c002c8c:	e2866001 	add	r6, r6, #1
    B       bucle_region_j
 c002c90:	eafffff5 	b	c002c6c <bucle_region_j>

0c002c94 <fin_region_j>:

fin_region_j:
    ADD     r7, r7, #1      // i++
 c002c94:	e2877001 	add	r7, r7, #1
    B       bucle_region_i
 c002c98:	eaffffeb 	b	c002c4c <bucle_region_i>

0c002c9c <fin_region>:

fin_region:
propagar_fin:
    # Restaurar registros y retornar
    LDMIA   SP!, {r4-r10, fp, LR}
 c002c9c:	e8bd4ff0 	pop	{r4, r5, r6, r7, r8, r9, sl, fp, lr}
    BX      LR
 c002ca0:	e12fff1e 	bx	lr

0c002ca4 <candidatos_actualizar_arm_arm>:
################################################################################
.global candidatos_actualizar_arm_arm

candidatos_actualizar_arm_arm:
    # Preservar registros y configurar frame pointer
    STMDB   SP!, {r4-r10, fp, LR}
 c002ca4:	e92d4ff0 	push	{r4, r5, r6, r7, r8, r9, sl, fp, lr}
    ADD     fp, SP, #(4*7-4)    @ FP  direccin base del marco (7 registros: r4-r10)
 c002ca8:	e28db018 	add	fp, sp, #24
    SUB     SP, SP, #8      // Reservar espacio para 2 variables locales (i, j)
 c002cac:	e24dd008 	sub	sp, sp, #8
    # r9 = contador i (filas)
    # r10 = contador j (columnas)
    # r0,r1,r2,r3 = direcciones, valores temporales

    # Inicializar constantes
    MOV     r4, r0          // r4 = puntero base cuadrcula
 c002cb0:	e1a04000 	mov	r4, r0
    MOV     r5, #9          // r5 = NUM_FILAS
 c002cb4:	e3a05009 	mov	r5, #9
    MOV     r6, #16         // r6 = NUM_COLUMNAS (9 + 7 padding)
 c002cb8:	e3a06010 	mov	r6, #16
    MOV     r7, #0x007F     // r7 = mscara para limpiar candidatos (preservar bits 6-0)
 c002cbc:	e3a0707f 	mov	r7, #127	; 0x7f
    MOV     r8, #0          // r8 = contador celdas vacas
 c002cc0:	e3a08000 	mov	r8, #0

    # ===== FASE 1: LIMPIAR CANDIDATOS DE TODAS LAS CELDAS Y CONTAR CELDAS VACAS =====
    MOV     r9, #0          // r9 = i (contador filas)
 c002cc4:	e3a09000 	mov	r9, #0

0c002cc8 <fase1_arm_arm_bucle_i>:

fase1_arm_arm_bucle_i:
    CMP     r9, r5          // comparar i con NUM_FILAS
 c002cc8:	e1590005 	cmp	r9, r5
    BGE     fase1_arm_arm_fin // si i >= NUM_FILAS, terminar fase 1
 c002ccc:	aa00000f 	bge	c002d10 <fase1_arm_arm_fin>

    MOV     r10, #0         // r10 = j (contador columnas)
 c002cd0:	e3a0a000 	mov	sl, #0

0c002cd4 <fase1_arm_arm_bucle_j>:

fase1_arm_arm_bucle_j:
    CMP     r10, r5         // comparar j con NUM_FILAS (solo primeras 9 columnas)
 c002cd4:	e15a0005 	cmp	sl, r5
    BGE     fase1_arm_arm_fin_j // si j >= NUM_FILAS, terminar bucle j
 c002cd8:	aa00000a 	bge	c002d08 <fase1_arm_arm_fin_j>

    # Calcular direccin: cuadricula[i][j]
    MLA     r0, r9, r6, r10 // r0 = i * NUM_COLUMNAS + j
 c002cdc:	e020a699 	mla	r0, r9, r6, sl
    MOV     r0, r0, LSL #1  // r0 *= 2 (sizeof CELDA)
 c002ce0:	e1a00080 	lsl	r0, r0, #1
    ADD     r0, r4, r0      // r0 = direccin de cuadricula[i][j]
 c002ce4:	e0840000 	add	r0, r4, r0

    # Leer celda y limpiar candidatos de TODAS las celdas
    LDRH    r1, [r0]        // r1 = cuadricula[i][j]
 c002ce8:	e1d010b0 	ldrh	r1, [r0]
    AND     r1, r1, r7      // r1 &= 0x007F (limpiar bits candidatos 15-7)
 c002cec:	e0011007 	and	r1, r1, r7
    STRH    r1, [r0]        // guardar celda modificada
 c002cf0:	e1c010b0 	strh	r1, [r0]
    
    # Si valor es 0, incrementar contador de celdas vacas
    AND     r2, r1, #0x0F   // r2 = valor de la celda (bits 3-0)
 c002cf4:	e201200f 	and	r2, r1, #15
    CMP     r2, #0          // valor == 0?
 c002cf8:	e3520000 	cmp	r2, #0
    ADDEQ   r8, r8, #1      // si s, celdas_vacias++
 c002cfc:	02888001 	addeq	r8, r8, #1

0c002d00 <fase1_arm_arm_siguiente_j>:

fase1_arm_arm_siguiente_j:
    ADD     r10, r10, #1    // j++
 c002d00:	e28aa001 	add	sl, sl, #1
    B       fase1_arm_arm_bucle_j
 c002d04:	eafffff2 	b	c002cd4 <fase1_arm_arm_bucle_j>

0c002d08 <fase1_arm_arm_fin_j>:

fase1_arm_arm_fin_j:
    ADD     r9, r9, #1      // i++
 c002d08:	e2899001 	add	r9, r9, #1
    B       fase1_arm_arm_bucle_i
 c002d0c:	eaffffed 	b	c002cc8 <fase1_arm_arm_bucle_i>

0c002d10 <fase1_arm_arm_fin>:

fase1_arm_arm_fin:
    # ===== FASE 2: PROPAGAR VALORES DE CELDAS NO VACAS =====
    MOV     r9, #0          // r9 = i (contador filas)
 c002d10:	e3a09000 	mov	r9, #0

0c002d14 <fase2_arm_arm_bucle_i>:

fase2_arm_arm_bucle_i:
    CMP     r9, r5          // comparar i con NUM_FILAS
 c002d14:	e1590005 	cmp	r9, r5
    BGE     fase2_arm_arm_fin // si i >= NUM_FILAS, terminar fase 2
 c002d18:	aa000015 	bge	c002d74 <fase2_arm_arm_fin>

    MOV     r10, #0         // r10 = j (contador columnas)
 c002d1c:	e3a0a000 	mov	sl, #0

0c002d20 <fase2_arm_arm_bucle_j>:

fase2_arm_arm_bucle_j:
    CMP     r10, r5         // comparar j con NUM_FILAS (solo primeras 9 columnas)
 c002d20:	e15a0005 	cmp	sl, r5
    BGE     fase2_arm_arm_fin_j // si j >= NUM_FILAS, terminar bucle j
 c002d24:	aa000010 	bge	c002d6c <fase2_arm_arm_fin_j>

    # Calcular direccin: cuadricula[i][j]
    MLA     r0, r9, r6, r10 // r0 = i * NUM_COLUMNAS + j
 c002d28:	e020a699 	mla	r0, r9, r6, sl
    MOV     r0, r0, LSL #1  // r0 *= 2 (sizeof CELDA)
 c002d2c:	e1a00080 	lsl	r0, r0, #1
    ADD     r0, r4, r0      // r0 = direccin de cuadricula[i][j]
 c002d30:	e0840000 	add	r0, r4, r0

    # Procesar celda
    LDRH    r1, [r0]        // r1 = cuadricula[i][j]
 c002d34:	e1d010b0 	ldrh	r1, [r0]
    AND     r2, r1, #0x0F   // r2 = valor de la celda (bits 3-0)
 c002d38:	e201200f 	and	r2, r1, #15

    # Si celda est vaca (valor == 0), saltar
    CMP     r2, #0
 c002d3c:	e3520000 	cmp	r2, #0
    BEQ     fase2_arm_arm_siguiente_j
 c002d40:	0a000007 	beq	c002d64 <fase2_arm_arm_siguiente_j>

    # Celda con valor: llamar a candidatos_propagar_arm
    # Guardar estado actual usando frame pointer
    STR     r9, [fp, #-4]   // guardar i (fila)
 c002d44:	e50b9004 	str	r9, [fp, #-4]
    STR     r10, [fp, #-8]  // guardar j (columna)
 c002d48:	e50ba008 	str	sl, [fp, #-8]
    
    # Preparar parmetros para la llamada
    MOV     r0, r4          // r0 = puntero base cuadrcula
 c002d4c:	e1a00004 	mov	r0, r4
    MOV     r1, r9          // r1 = fila (i)
 c002d50:	e1a01009 	mov	r1, r9
    MOV     r2, r10         // r2 = columna (j)
 c002d54:	e1a0200a 	mov	r2, sl

    # Llamar a candidatos_propagar_arm
    BL      candidatos_propagar_arm
 c002d58:	ebffff8b 	bl	c002b8c <candidatos_propagar_arm>

    # Restaurar estado desde frame pointer
    LDR     r9, [fp, #-4]   // restaurar i (fila)
 c002d5c:	e51b9004 	ldr	r9, [fp, #-4]
    LDR     r10, [fp, #-8]  // restaurar j (columna)
 c002d60:	e51ba008 	ldr	sl, [fp, #-8]

0c002d64 <fase2_arm_arm_siguiente_j>:

fase2_arm_arm_siguiente_j:
    ADD     r10, r10, #1    // j++
 c002d64:	e28aa001 	add	sl, sl, #1
    B       fase2_arm_arm_bucle_j
 c002d68:	eaffffec 	b	c002d20 <fase2_arm_arm_bucle_j>

0c002d6c <fase2_arm_arm_fin_j>:

fase2_arm_arm_fin_j:
    ADD     r9, r9, #1      // i++
 c002d6c:	e2899001 	add	r9, r9, #1
    B       fase2_arm_arm_bucle_i
 c002d70:	eaffffe7 	b	c002d14 <fase2_arm_arm_bucle_i>

0c002d74 <fase2_arm_arm_fin>:

fase2_arm_arm_fin:
    # Preparar valor de retorno
    MOV     r0, r8          // r0 = celdas_vacias (valor de retorno)
 c002d74:	e1a00008 	mov	r0, r8

    # Restaurar pila y registros, luego retornar
    ADD     SP, SP, #8      // Liberar espacio de variables locales
 c002d78:	e28dd008 	add	sp, sp, #8
    LDMIA   SP!, {r4-r10, fp, LR}
 c002d7c:	e8bd4ff0 	pop	{r4, r5, r6, r7, r8, r9, sl, fp, lr}
    BX      LR
 c002d80:	e12fff1e 	bx	lr

0c002d84 <candidatos_actualizar_arm_c>:
################################################################################
.global candidatos_actualizar_arm_c

candidatos_actualizar_arm_c:
    # Preservar registros y configurar frame pointer
    STMDB   SP!, {r4-r10, fp, LR}
 c002d84:	e92d4ff0 	push	{r4, r5, r6, r7, r8, r9, sl, fp, lr}
    ADD     fp, SP, #(4*7-4)    @ FP  direccin base del marco (7 registros: r4-r10)
 c002d88:	e28db018 	add	fp, sp, #24
    SUB     SP, SP, #8      // Reservar espacio para 2 variables locales (i, j)
 c002d8c:	e24dd008 	sub	sp, sp, #8
    # r9 = contador i (filas)
    # r10 = contador j (columnas)
    # r0,r1,r2,r3 = direcciones, valores temporales

    # Inicializar constantes
    MOV     r4, r0          // r4 = puntero base cuadrcula
 c002d90:	e1a04000 	mov	r4, r0
    MOV     r5, #9          // r5 = NUM_FILAS
 c002d94:	e3a05009 	mov	r5, #9
    MOV     r6, #16         // r6 = NUM_COLUMNAS (9 + 7 padding)
 c002d98:	e3a06010 	mov	r6, #16
    MOV     r7, #0x007F     // r7 = mscara para limpiar candidatos (preservar bits 6-0)
 c002d9c:	e3a0707f 	mov	r7, #127	; 0x7f
    MOV     r8, #0          // r8 = contador celdas vacas
 c002da0:	e3a08000 	mov	r8, #0

    # ===== FASE 1: LIMPIAR CANDIDATOS DE TODAS LAS CELDAS Y CONTAR CELDAS VACAS =====
    MOV     r9, #0          // r9 = i (contador filas)
 c002da4:	e3a09000 	mov	r9, #0

0c002da8 <fase1_arm_c_bucle_i>:

fase1_arm_c_bucle_i:
    CMP     r9, r5          // comparar i con NUM_FILAS
 c002da8:	e1590005 	cmp	r9, r5
    BGE     fase1_arm_c_fin // si i >= NUM_FILAS, terminar fase 1
 c002dac:	aa00000f 	bge	c002df0 <fase1_arm_c_fin>

    MOV     r10, #0         // r10 = j (contador columnas)
 c002db0:	e3a0a000 	mov	sl, #0

0c002db4 <fase1_arm_c_bucle_j>:

fase1_arm_c_bucle_j:
    CMP     r10, r5         // comparar j con NUM_FILAS (solo primeras 9 columnas)
 c002db4:	e15a0005 	cmp	sl, r5
    BGE     fase1_arm_c_fin_j // si j >= NUM_FILAS, terminar bucle j
 c002db8:	aa00000a 	bge	c002de8 <fase1_arm_c_fin_j>

    # Calcular direccin: cuadricula[i][j]
    MLA     r0, r9, r6, r10 // r0 = i * NUM_COLUMNAS + j
 c002dbc:	e020a699 	mla	r0, r9, r6, sl
    MOV     r0, r0, LSL #1  // r0 *= 2 (sizeof CELDA)
 c002dc0:	e1a00080 	lsl	r0, r0, #1
    ADD     r0, r4, r0      // r0 = direccin de cuadricula[i][j]
 c002dc4:	e0840000 	add	r0, r4, r0

    # Leer celda y limpiar candidatos de TODAS las celdas
    LDRH    r1, [r0]        // r1 = cuadricula[i][j]
 c002dc8:	e1d010b0 	ldrh	r1, [r0]
    AND     r1, r1, r7      // r1 &= 0x007F (limpiar bits candidatos 15-7)
 c002dcc:	e0011007 	and	r1, r1, r7
    STRH    r1, [r0]        // guardar celda modificada
 c002dd0:	e1c010b0 	strh	r1, [r0]
    
    # Si valor es 0, incrementar contador de celdas vacas
    AND     r2, r1, #0x0F   // r2 = valor de la celda (bits 3-0)
 c002dd4:	e201200f 	and	r2, r1, #15
    CMP     r2, #0          // valor == 0?
 c002dd8:	e3520000 	cmp	r2, #0
    ADDEQ   r8, r8, #1      // si s, celdas_vacias++
 c002ddc:	02888001 	addeq	r8, r8, #1

0c002de0 <fase1_arm_c_siguiente_j>:

fase1_arm_c_siguiente_j:
    ADD     r10, r10, #1    // j++
 c002de0:	e28aa001 	add	sl, sl, #1
    B       fase1_arm_c_bucle_j
 c002de4:	eafffff2 	b	c002db4 <fase1_arm_c_bucle_j>

0c002de8 <fase1_arm_c_fin_j>:

fase1_arm_c_fin_j:
    ADD     r9, r9, #1      // i++
 c002de8:	e2899001 	add	r9, r9, #1
    B       fase1_arm_c_bucle_i
 c002dec:	eaffffed 	b	c002da8 <fase1_arm_c_bucle_i>

0c002df0 <fase1_arm_c_fin>:

fase1_arm_c_fin:
    # ===== FASE 2: PROPAGAR VALORES DE CELDAS NO VACAS =====
    MOV     r9, #0          // r9 = i (contador filas)
 c002df0:	e3a09000 	mov	r9, #0

0c002df4 <fase2_arm_c_bucle_i>:

fase2_arm_c_bucle_i:
    CMP     r9, r5          // comparar i con NUM_FILAS
 c002df4:	e1590005 	cmp	r9, r5
    BGE     fase2_arm_c_fin // si i >= NUM_FILAS, terminar fase 2
 c002df8:	aa000015 	bge	c002e54 <fase2_arm_c_fin>

    MOV     r10, #0         // r10 = j (contador columnas)
 c002dfc:	e3a0a000 	mov	sl, #0

0c002e00 <fase2_arm_c_bucle_j>:

fase2_arm_c_bucle_j:
    CMP     r10, r5         // comparar j con NUM_FILAS (solo primeras 9 columnas)
 c002e00:	e15a0005 	cmp	sl, r5
    BGE     fase2_arm_c_fin_j // si j >= NUM_FILAS, terminar bucle j
 c002e04:	aa000010 	bge	c002e4c <fase2_arm_c_fin_j>

    # Calcular direccin: cuadricula[i][j]
    MLA     r0, r9, r6, r10 // r0 = i * NUM_COLUMNAS + j
 c002e08:	e020a699 	mla	r0, r9, r6, sl
    MOV     r0, r0, LSL #1  // r0 *= 2 (sizeof CELDA)
 c002e0c:	e1a00080 	lsl	r0, r0, #1
    ADD     r0, r4, r0      // r0 = direccin de cuadricula[i][j]
 c002e10:	e0840000 	add	r0, r4, r0

    # Procesar celda
    LDRH    r1, [r0]        // r1 = cuadricula[i][j]
 c002e14:	e1d010b0 	ldrh	r1, [r0]
    AND     r2, r1, #0x0F   // r2 = valor de la celda (bits 3-0)
 c002e18:	e201200f 	and	r2, r1, #15

    # Si celda est vaca (valor == 0), saltar
    CMP     r2, #0
 c002e1c:	e3520000 	cmp	r2, #0
    BEQ     fase2_arm_c_siguiente_j
 c002e20:	0a000007 	beq	c002e44 <fase2_arm_c_siguiente_j>

    # Celda con valor: llamar a candidatos_propagar_c
    # Guardar estado actual usando frame pointer
    STR     r9, [fp, #-4]   // guardar i (fila)
 c002e24:	e50b9004 	str	r9, [fp, #-4]
    STR     r10, [fp, #-8]  // guardar j (columna)
 c002e28:	e50ba008 	str	sl, [fp, #-8]
    
    # Preparar parmetros para la llamada
    MOV     r0, r4          // r0 = puntero base cuadrcula
 c002e2c:	e1a00004 	mov	r0, r4
    MOV     r1, r9          // r1 = fila (i)
 c002e30:	e1a01009 	mov	r1, r9
    MOV     r2, r10         // r2 = columna (j)
 c002e34:	e1a0200a 	mov	r2, sl

    # Llamar a candidatos_propagar_c (funcin C)
    BL      candidatos_propagar_c
 c002e38:	eb00108a 	bl	c007068 <candidatos_propagar_c>

    # Restaurar estado desde frame pointer
    LDR     r9, [fp, #-4]   // restaurar i (fila)
 c002e3c:	e51b9004 	ldr	r9, [fp, #-4]
    LDR     r10, [fp, #-8]  // restaurar j (columna)
 c002e40:	e51ba008 	ldr	sl, [fp, #-8]

0c002e44 <fase2_arm_c_siguiente_j>:

fase2_arm_c_siguiente_j:
    ADD     r10, r10, #1    // j++
 c002e44:	e28aa001 	add	sl, sl, #1
    B       fase2_arm_c_bucle_j
 c002e48:	eaffffec 	b	c002e00 <fase2_arm_c_bucle_j>

0c002e4c <fase2_arm_c_fin_j>:

fase2_arm_c_fin_j:
    ADD     r9, r9, #1      // i++
 c002e4c:	e2899001 	add	r9, r9, #1
    B       fase2_arm_c_bucle_i
 c002e50:	eaffffe7 	b	c002df4 <fase2_arm_c_bucle_i>

0c002e54 <fase2_arm_c_fin>:

fase2_arm_c_fin:
    # Preparar valor de retorno
    MOV     r0, r8          // r0 = celdas_vacias (valor de retorno)
 c002e54:	e1a00008 	mov	r0, r8

    # Restaurar pila y registros, luego retornar
    ADD     SP, SP, #8      // Liberar espacio de variables locales
 c002e58:	e28dd008 	add	sp, sp, #8
    LDMIA   SP!, {r4-r10, fp, LR}
 c002e5c:	e8bd4ff0 	pop	{r4, r5, r6, r7, r8, r9, sl, fp, lr}
    BX      LR
 c002e60:	e12fff1e 	bx	lr

0c002e64 <candidatos_actualizar_all>:
################################################################################
.global candidatos_actualizar_all

candidatos_actualizar_all:
    # Preservar registros y configurar frame pointer
    STMDB   SP!, {r4-r10, fp, LR}
 c002e64:	e92d4ff0 	push	{r4, r5, r6, r7, r8, r9, sl, fp, lr}
    ADD     fp, SP, #(4*7-4)    @ FP  direccin base del marco (7 registros: r4-r10)
 c002e68:	e28db018 	add	fp, sp, #24
    SUB     SP, SP, #8      // Reservar espacio para 2 variables locales (i, j)
 c002e6c:	e24dd008 	sub	sp, sp, #8
    # r8 = contador i principal / contador bucles internos
    # r9 = contador j principal / direcciones temporales
    # r10 = direccin celda actual / mscaras temporales / valores temporales

    # Inicializar registros crticos
    MOV     r4, r0          // r4 = puntero base cuadrcula (inmutable)
 c002e70:	e1a04000 	mov	r4, r0
    MOV     r5, #9          // r5 = NUM_FILAS
 c002e74:	e3a05009 	mov	r5, #9
    MOV     r6, #16         // r6 = NUM_COLUMNAS (9 + 7 padding)
 c002e78:	e3a06010 	mov	r6, #16
    MOV     r7, #0          // r7 = contador celdas vacas
 c002e7c:	e3a07000 	mov	r7, #0

    # ===== FASE 1: LIMPIAR CANDIDATOS Y CONTAR CELDAS VACAS =====
    MOV     r8, #0          // r8 = i (contador filas)
 c002e80:	e3a08000 	mov	r8, #0

0c002e84 <fase1_all_bucle_i>:

fase1_all_bucle_i:
    CMP     r8, r5          // comparar i con NUM_FILAS
 c002e84:	e1580005 	cmp	r8, r5
    BGE     fase1_all_fin   // si i >= NUM_FILAS, terminar fase 1
 c002e88:	aa00000f 	bge	c002ecc <fase1_all_fin>

    MOV     r9, #0          // r9 = j (contador columnas)
 c002e8c:	e3a09000 	mov	r9, #0

0c002e90 <fase1_all_bucle_j>:

fase1_all_bucle_j:
    CMP     r9, r5          // comparar j con NUM_FILAS (solo primeras 9 columnas)
 c002e90:	e1590005 	cmp	r9, r5
    BGE     fase1_all_fin_j // si j >= NUM_FILAS, terminar bucle j
 c002e94:	aa00000a 	bge	c002ec4 <fase1_all_fin_j>

    # Calcular direccin: cuadricula[i][j]
    MLA     r10, r8, r6, r9 // r10 = i * NUM_COLUMNAS + j
 c002e98:	e02a9698 	mla	sl, r8, r6, r9
    MOV     r10, r10, LSL #1 // r10 *= 2 (sizeof CELDA)
 c002e9c:	e1a0a08a 	lsl	sl, sl, #1
    ADD     r10, r4, r10    // r10 = direccin de cuadricula[i][j]
 c002ea0:	e084a00a 	add	sl, r4, sl

    # Leer celda y procesar
    LDRH    r0, [r10]       // r0 = cuadricula[i][j]
 c002ea4:	e1da00b0 	ldrh	r0, [sl]
    
    # Limpiar bits candidatos [15,7] manteniendo [6,0]
    AND     r0, r0, #0x007F // r0 &= 0x007F (limpiar candidatos)
 c002ea8:	e200007f 	and	r0, r0, #127	; 0x7f
    STRH    r0, [r10]       // guardar celda modificada
 c002eac:	e1ca00b0 	strh	r0, [sl]
    
    # Si valor es 0, incrementar contador de celdas vacas
    AND     r0, r0, #0x0F   // r0 = valor de la celda (bits 3-0)
 c002eb0:	e200000f 	and	r0, r0, #15
    CMP     r0, #0          // valor == 0?
 c002eb4:	e3500000 	cmp	r0, #0
    ADDEQ   r7, r7, #1      // si s, celdas_vacias++
 c002eb8:	02877001 	addeq	r7, r7, #1

0c002ebc <fase1_all_siguiente_j>:

fase1_all_siguiente_j:
    ADD     r9, r9, #1      // j++
 c002ebc:	e2899001 	add	r9, r9, #1
    B       fase1_all_bucle_j
 c002ec0:	eafffff2 	b	c002e90 <fase1_all_bucle_j>

0c002ec4 <fase1_all_fin_j>:

fase1_all_fin_j:
    ADD     r8, r8, #1      // i++
 c002ec4:	e2888001 	add	r8, r8, #1
    B       fase1_all_bucle_i
 c002ec8:	eaffffed 	b	c002e84 <fase1_all_bucle_i>

0c002ecc <fase1_all_fin>:

fase1_all_fin:
    # ===== FASE 2: PROPAGAR VALORES DE CELDAS NO VACAS =====
    MOV     r8, #0          // r8 = i (contador filas principales)
 c002ecc:	e3a08000 	mov	r8, #0

0c002ed0 <fase2_all_bucle_i>:

fase2_all_bucle_i:
    CMP     r8, r5          // comparar i con NUM_FILAS
 c002ed0:	e1580005 	cmp	r8, r5
    BGE     fase2_all_fin   // si i >= NUM_FILAS, terminar fase 2
 c002ed4:	aa00004b 	bge	c003008 <fase2_all_fin>

    MOV     r9, #0          // r9 = j (contador columnas principales)
 c002ed8:	e3a09000 	mov	r9, #0

0c002edc <fase2_all_bucle_j>:

fase2_all_bucle_j:
    CMP     r9, r5          // comparar j con NUM_FILAS (solo primeras 9 columnas)
 c002edc:	e1590005 	cmp	r9, r5
    BGE     fase2_all_fin_j // si j >= NUM_FILAS, terminar bucle j
 c002ee0:	aa000046 	bge	c003000 <fase2_all_fin_j>

    # Calcular direccin: cuadricula[i][j]
    MLA     r10, r8, r6, r9 // r10 = i * NUM_COLUMNAS + j
 c002ee4:	e02a9698 	mla	sl, r8, r6, r9
    MOV     r10, r10, LSL #1 // r10 *= 2 (sizeof CELDA)
 c002ee8:	e1a0a08a 	lsl	sl, sl, #1
    ADD     r10, r4, r10    // r10 = direccin de cuadricula[i][j]
 c002eec:	e084a00a 	add	sl, r4, sl

    # Leer valor de la celda
    LDRH    r0, [r10]       // r0 = cuadricula[i][j]
 c002ef0:	e1da00b0 	ldrh	r0, [sl]
    AND     r0, r0, #0x0F   // r0 = valor de la celda (bits 3-0)
 c002ef4:	e200000f 	and	r0, r0, #15

    # Si celda est vaca (valor == 0), saltar propagacin
    CMP     r0, #0
 c002ef8:	e3500000 	cmp	r0, #0
    BEQ     fase2_all_siguiente_j
 c002efc:	0a00003d 	beq	c002ff8 <all_fin_region>
    # ===== CDIGO INLINEADO DE CANDIDATOS_PROPAGAR =====
    # Variables actuales: r8=fila, r9=columna, r0=valor
    # Registros disponibles para reutilizar: r1,r2,r3
    
    # Calcular mscara para eliminar candidato: (1 << (7 + valor - 1))
    ADD     r1, r0, #6      // r1 = valor + 6 (7 + valor - 1)
 c002f00:	e2801006 	add	r1, r0, #6
    MOV     r2, #1          // r2 = 1
 c002f04:	e3a02001 	mov	r2, #1
    MOV     r2, r2, LSL r1  // r2 = mscara para eliminar candidato
 c002f08:	e1a02112 	lsl	r2, r2, r1

    # ===== PROPAGAR EN FILA (i=r8 fijo, j variable) =====
    MOV     r1, #0          // r1 = j_prop (contador columnas para propagacin)
 c002f0c:	e3a01000 	mov	r1, #0

0c002f10 <propagar_fila>:

propagar_fila:
    CMP     r1, r5          // comparar j_prop con NUM_FILAS
 c002f10:	e1510005 	cmp	r1, r5
    BGE     fin_propagar_fila
 c002f14:	aa000007 	bge	c002f38 <fin_propagar_fila>

    # Calcular direccin: cuadricula[fila][j_prop]
    MLA     r3, r8, r6, r1  // r3 = fila * NUM_COLUMNAS + j_prop
 c002f18:	e0231698 	mla	r3, r8, r6, r1
    MOV     r3, r3, LSL #1  // r3 *= 2 (sizeof CELDA)
 c002f1c:	e1a03083 	lsl	r3, r3, #1
    ADD     r3, r4, r3      // r3 = direccin de cuadricula[fila][j_prop]
 c002f20:	e0843003 	add	r3, r4, r3

    # Eliminar candidato: celda |= mscara
    LDRH    r0, [r3]        // r0 = celda actual
 c002f24:	e1d300b0 	ldrh	r0, [r3]
    ORR     r0, r0, r2      // r0 |= mscara
 c002f28:	e1800002 	orr	r0, r0, r2
    STRH    r0, [r3]        // guardar celda modificada
 c002f2c:	e1c300b0 	strh	r0, [r3]

    ADD     r1, r1, #1      // j_prop++
 c002f30:	e2811001 	add	r1, r1, #1
    B       propagar_fila
 c002f34:	eafffff5 	b	c002f10 <propagar_fila>

0c002f38 <fin_propagar_fila>:

fin_propagar_fila:
    # ===== PROPAGAR EN COLUMNA (j=r9 fijo, i variable) =====
    MOV     r1, #0          // r1 = i_prop (contador filas para propagacin)
 c002f38:	e3a01000 	mov	r1, #0

0c002f3c <propagar_columna>:

propagar_columna:
    CMP     r1, r5          // comparar i_prop con NUM_FILAS
 c002f3c:	e1510005 	cmp	r1, r5
    BGE     fin_propagar_columna
 c002f40:	aa000007 	bge	c002f64 <fin_propagar_columna>

    # Calcular direccin: cuadricula[i_prop][columna]
    MLA     r3, r1, r6, r9  // r3 = i_prop * NUM_COLUMNAS + columna
 c002f44:	e0239691 	mla	r3, r1, r6, r9
    MOV     r3, r3, LSL #1  // r3 *= 2 (sizeof CELDA)
 c002f48:	e1a03083 	lsl	r3, r3, #1
    ADD     r3, r4, r3      // r3 = direccin de cuadricula[i_prop][columna]
 c002f4c:	e0843003 	add	r3, r4, r3

    # Eliminar candidato: celda |= mscara
    LDRH    r0, [r3]        // r0 = celda actual
 c002f50:	e1d300b0 	ldrh	r0, [r3]
    ORR     r0, r0, r2      // r0 |= mscara
 c002f54:	e1800002 	orr	r0, r0, r2
    STRH    r0, [r3]        // guardar celda modificada
 c002f58:	e1c300b0 	strh	r0, [r3]

    ADD     r1, r1, #1      // i_prop++
 c002f5c:	e2811001 	add	r1, r1, #1
    B       propagar_columna
 c002f60:	eafffff5 	b	c002f3c <propagar_columna>

0c002f64 <fin_propagar_columna>:

fin_propagar_columna:
    # ===== PROPAGAR EN REGIN 3x3 =====
    # Calcular init_i = (fila / 3) * 3
    CMP     r8, #3
 c002f64:	e3580003 	cmp	r8, #3
    MOVLT   r1, #0          // si fila < 3, init_i = 0
 c002f68:	b3a01000 	movlt	r1, #0
    MOVGE   r1, #3          // si fila >= 3, init_i = 3
 c002f6c:	a3a01003 	movge	r1, #3
    CMP     r8, #6
 c002f70:	e3580006 	cmp	r8, #6
    MOVGE   r1, #6          // si fila >= 6, init_i = 6
 c002f74:	a3a01006 	movge	r1, #6

    # Calcular init_j = (columna / 3) * 3
    CMP     r9, #3
 c002f78:	e3590003 	cmp	r9, #3
    MOVLT   r3, #0          // si columna < 3, init_j = 0
 c002f7c:	b3a03000 	movlt	r3, #0
    MOVGE   r3, #3          // si columna >= 3, init_j = 3
 c002f80:	a3a03003 	movge	r3, #3
    CMP     r9, #6
 c002f84:	e3590006 	cmp	r9, #6
    MOVGE   r3, #6          // si columna >= 6, init_j = 6
 c002f88:	a3a03006 	movge	r3, #6

    # Guardar variables en pila usando frame pointer
    # fp-4 = init_i, fp-8 = init_j, fp-12 = end_i, fp-16 = end_j, fp-20 = mscara
    STR     r1, [fp, #-4]   // guardar init_i
 c002f8c:	e50b1004 	str	r1, [fp, #-4]
    STR     r3, [fp, #-8]   // guardar init_j
 c002f90:	e50b3008 	str	r3, [fp, #-8]
    ADD     r0, r1, #3      // r0 = end_i
 c002f94:	e2810003 	add	r0, r1, #3
    STR     r0, [fp, #-12]  // guardar end_i
 c002f98:	e50b000c 	str	r0, [fp, #-12]
    ADD     r0, r3, #3      // r0 = end_j
 c002f9c:	e2830003 	add	r0, r3, #3
    STR     r0, [fp, #-16]  // guardar end_j
 c002fa0:	e50b0010 	str	r0, [fp, #-16]
    STR     r2, [fp, #-20]  // guardar mscara (r2 contiene la mscara)
 c002fa4:	e50b2014 	str	r2, [fp, #-20]	; 0xffffffec

    # Bucle regin: for (i_reg = init_i; i_reg < end_i; i_reg++)
    MOV     r1, r1          // r1 = i_reg = init_i
 c002fa8:	e1a01001 	mov	r1, r1

0c002fac <all_bucle_region_i>:

all_bucle_region_i:
    LDR     r0, [fp, #-12]  // cargar end_i
 c002fac:	e51b000c 	ldr	r0, [fp, #-12]
    CMP     r1, r0          // comparar i_reg con end_i
 c002fb0:	e1510000 	cmp	r1, r0
    BGE     all_fin_region
 c002fb4:	aa00000f 	bge	c002ff8 <all_fin_region>

    # Bucle regin: for (j_reg = init_j; j_reg < end_j; j_reg++)
    LDR     r3, [fp, #-8]   // cargar init_j
 c002fb8:	e51b3008 	ldr	r3, [fp, #-8]
    MOV     r3, r3          // r3 = j_reg = init_j
 c002fbc:	e1a03003 	mov	r3, r3

0c002fc0 <all_bucle_region_j>:

all_bucle_region_j:
    LDR     r0, [fp, #-16]  // cargar end_j
 c002fc0:	e51b0010 	ldr	r0, [fp, #-16]
    CMP     r3, r0          // comparar j_reg con end_j
 c002fc4:	e1530000 	cmp	r3, r0
    BGE     all_fin_region_j
 c002fc8:	aa000008 	bge	c002ff0 <all_fin_region_j>

    # Calcular direccin: cuadricula[i_reg][j_reg]
    MLA     r0, r1, r6, r3  // r0 = i_reg * NUM_COLUMNAS + j_reg
 c002fcc:	e0203691 	mla	r0, r1, r6, r3
    MOV     r0, r0, LSL #1  // r0 *= 2 (sizeof CELDA)
 c002fd0:	e1a00080 	lsl	r0, r0, #1
    ADD     r0, r4, r0      // r0 = direccin de cuadricula[i_reg][j_reg]
 c002fd4:	e0840000 	add	r0, r4, r0

    # Eliminar candidato: celda |= mscara
    LDRH    r10, [r0]       // r10 = celda actual
 c002fd8:	e1d0a0b0 	ldrh	sl, [r0]
    LDR     r2, [fp, #-20]  // cargar mscara
 c002fdc:	e51b2014 	ldr	r2, [fp, #-20]	; 0xffffffec
    ORR     r10, r10, r2    // r10 |= mscara
 c002fe0:	e18aa002 	orr	sl, sl, r2
    STRH    r10, [r0]       // guardar celda modificada
 c002fe4:	e1c0a0b0 	strh	sl, [r0]

    ADD     r3, r3, #1      // j_reg++
 c002fe8:	e2833001 	add	r3, r3, #1
    B       all_bucle_region_j
 c002fec:	eafffff3 	b	c002fc0 <all_bucle_region_j>

0c002ff0 <all_fin_region_j>:

all_fin_region_j:
    ADD     r1, r1, #1      // i_reg++
 c002ff0:	e2811001 	add	r1, r1, #1
    B       all_bucle_region_i
 c002ff4:	eaffffec 	b	c002fac <all_bucle_region_i>

0c002ff8 <all_fin_region>:

all_fin_region:
    # ===== FIN CDIGO INLINEADO DE CANDIDATOS_PROPAGAR =====

fase2_all_siguiente_j:
    ADD     r9, r9, #1      // j++
 c002ff8:	e2899001 	add	r9, r9, #1
    B       fase2_all_bucle_j
 c002ffc:	eaffffb6 	b	c002edc <fase2_all_bucle_j>

0c003000 <fase2_all_fin_j>:

fase2_all_fin_j:
    ADD     r8, r8, #1      // i++
 c003000:	e2888001 	add	r8, r8, #1
    B       fase2_all_bucle_i
 c003004:	eaffffb1 	b	c002ed0 <fase2_all_bucle_i>

0c003008 <fase2_all_fin>:

fase2_all_fin:
    # Preparar valor de retorno
    MOV     r0, r7          // r0 = celdas_vacias (valor de retorno)
 c003008:	e1a00007 	mov	r0, r7

    # Restaurar pila y registros, luego retornar
    ADD     SP, SP, #8      // Liberar espacio de variables locales
 c00300c:	e28dd008 	add	sp, sp, #8
    LDMIA   SP!, {r4-r10, fp, LR}
 c003010:	e8bd4ff0 	pop	{r4, r5, r6, r7, r8, r9, sl, fp, lr}
    BX      LR
 c003014:	e12fff1e 	bx	lr

0c003018 <celda_leer_valor>:
	
	/* *****************************************************************************
	 * extrae el valor almacenado en los 16 bits de una celda */
        __inline static uint8_t
        celda_leer_valor(CELDA celda)
        {
 c003018:	e1a0c00d 	mov	ip, sp
 c00301c:	e92dd800 	push	{fp, ip, lr, pc}
 c003020:	e24cb004 	sub	fp, ip, #4
 c003024:	e24dd008 	sub	sp, sp, #8
 c003028:	e1a03000 	mov	r3, r0
 c00302c:	e14b30be 	strh	r3, [fp, #-14]
                return (celda & 0x000F);
 c003030:	e15b30be 	ldrh	r3, [fp, #-14]
 c003034:	e20330ff 	and	r3, r3, #255	; 0xff
 c003038:	e203300f 	and	r3, r3, #15
 c00303c:	e20330ff 	and	r3, r3, #255	; 0xff
        }
 c003040:	e1a00003 	mov	r0, r3
 c003044:	e24bd00c 	sub	sp, fp, #12
 c003048:	e89d6800 	ldm	sp, {fp, sp, lr}
 c00304c:	e12fff1e 	bx	lr

0c003050 <celda_es_candidato>:

        /* *****************************************************************************
         * comprueba si el valor es candidato en la celda indicada */
        __inline static int
        celda_es_candidato(CELDA celda, uint8_t valor)
        {
 c003050:	e1a0c00d 	mov	ip, sp
 c003054:	e92dd800 	push	{fp, ip, lr, pc}
 c003058:	e24cb004 	sub	fp, ip, #4
 c00305c:	e24dd008 	sub	sp, sp, #8
 c003060:	e1a02000 	mov	r2, r0
 c003064:	e1a03001 	mov	r3, r1
 c003068:	e14b20be 	strh	r2, [fp, #-14]
 c00306c:	e54b300f 	strb	r3, [fp, #-15]
                return (celda & (0x0001 << (BIT_CANDIDATOS + valor - 1))) == 0;
 c003070:	e15b20be 	ldrh	r2, [fp, #-14]
 c003074:	e55b300f 	ldrb	r3, [fp, #-15]
 c003078:	e2833006 	add	r3, r3, #6
 c00307c:	e1a03352 	asr	r3, r2, r3
 c003080:	e2033001 	and	r3, r3, #1
 c003084:	e3530000 	cmp	r3, #0
 c003088:	13a03000 	movne	r3, #0
 c00308c:	03a03001 	moveq	r3, #1
        }
 c003090:	e1a00003 	mov	r0, r3
 c003094:	e24bd00c 	sub	sp, fp, #12
 c003098:	e89d6800 	ldm	sp, {fp, sp, lr}
 c00309c:	e12fff1e 	bx	lr

0c0030a0 <celda_es_pista>:

        /* *****************************************************************************
         * comprueba si la celda es una pista */
        __inline static int
        celda_es_pista(CELDA celda)
        {
 c0030a0:	e1a0c00d 	mov	ip, sp
 c0030a4:	e92dd800 	push	{fp, ip, lr, pc}
 c0030a8:	e24cb004 	sub	fp, ip, #4
 c0030ac:	e24dd008 	sub	sp, sp, #8
 c0030b0:	e1a03000 	mov	r3, r0
 c0030b4:	e14b30be 	strh	r3, [fp, #-14]
                return (celda & (1 << BIT_PISTA)) != 0;
 c0030b8:	e15b30be 	ldrh	r3, [fp, #-14]
 c0030bc:	e2033010 	and	r3, r3, #16
 c0030c0:	e3530000 	cmp	r3, #0
 c0030c4:	03a03000 	moveq	r3, #0
 c0030c8:	13a03001 	movne	r3, #1
        }
 c0030cc:	e1a00003 	mov	r0, r3
 c0030d0:	e24bd00c 	sub	sp, fp, #12
 c0030d4:	e89d6800 	ldm	sp, {fp, sp, lr}
 c0030d8:	e12fff1e 	bx	lr

0c0030dc <Lcd_Init>:
extern INT8U g_auc_Ascii6x8[];
extern STRU_BITMAP Stru_Bitmap_gbMouse;

/*--- cdigo de la funcin ---*/
void Lcd_Init(void)
{       
 c0030dc:	e1a0c00d 	mov	ip, sp
 c0030e0:	e92dd800 	push	{fp, ip, lr, pc}
 c0030e4:	e24cb004 	sub	fp, ip, #4
	rDITHMODE=0x1223a;
 c0030e8:	e59f30fc 	ldr	r3, [pc, #252]	; c0031ec <Lcd_Init+0x110>
 c0030ec:	e59f20fc 	ldr	r2, [pc, #252]	; c0031f0 <Lcd_Init+0x114>
 c0030f0:	e5832000 	str	r2, [r3]
	rDP1_2 =0x5a5a;      
 c0030f4:	e59f30f8 	ldr	r3, [pc, #248]	; c0031f4 <Lcd_Init+0x118>
 c0030f8:	e59f20f8 	ldr	r2, [pc, #248]	; c0031f8 <Lcd_Init+0x11c>
 c0030fc:	e5832000 	str	r2, [r3]
	rDP4_7 =0x366cd9b;
 c003100:	e59f30f4 	ldr	r3, [pc, #244]	; c0031fc <Lcd_Init+0x120>
 c003104:	e59f20f4 	ldr	r2, [pc, #244]	; c003200 <Lcd_Init+0x124>
 c003108:	e5832000 	str	r2, [r3]
	rDP3_5 =0xda5a7;
 c00310c:	e59f30f0 	ldr	r3, [pc, #240]	; c003204 <Lcd_Init+0x128>
 c003110:	e59f20f0 	ldr	r2, [pc, #240]	; c003208 <Lcd_Init+0x12c>
 c003114:	e5832000 	str	r2, [r3]
	rDP2_3 =0xad7;
 c003118:	e59f30ec 	ldr	r3, [pc, #236]	; c00320c <Lcd_Init+0x130>
 c00311c:	e59f20ec 	ldr	r2, [pc, #236]	; c003210 <Lcd_Init+0x134>
 c003120:	e5832000 	str	r2, [r3]
	rDP5_7 =0xfeda5b7;
 c003124:	e59f30e8 	ldr	r3, [pc, #232]	; c003214 <Lcd_Init+0x138>
 c003128:	e59f20e8 	ldr	r2, [pc, #232]	; c003218 <Lcd_Init+0x13c>
 c00312c:	e5832000 	str	r2, [r3]
	rDP3_4 =0xebd7;
 c003130:	e59f30e4 	ldr	r3, [pc, #228]	; c00321c <Lcd_Init+0x140>
 c003134:	e59f20e4 	ldr	r2, [pc, #228]	; c003220 <Lcd_Init+0x144>
 c003138:	e5832000 	str	r2, [r3]
	rDP4_5 =0xebfd7;
 c00313c:	e59f30e0 	ldr	r3, [pc, #224]	; c003224 <Lcd_Init+0x148>
 c003140:	e59f20e0 	ldr	r2, [pc, #224]	; c003228 <Lcd_Init+0x14c>
 c003144:	e5832000 	str	r2, [r3]
	rDP6_7 =0x7efdfbf;
 c003148:	e59f30dc 	ldr	r3, [pc, #220]	; c00322c <Lcd_Init+0x150>
 c00314c:	e59f20dc 	ldr	r2, [pc, #220]	; c003230 <Lcd_Init+0x154>
 c003150:	e5832000 	str	r2, [r3]

	rLCDCON1=(0)|(1<<5)|(MVAL_USED<<7)|(0x0<<8)|(0x0<<10)|(CLKVAL_GREY16<<12);
 c003154:	e3a0361f 	mov	r3, #32505856	; 0x1f00000
 c003158:	e59f20d4 	ldr	r2, [pc, #212]	; c003234 <Lcd_Init+0x158>
 c00315c:	e5832000 	str	r2, [r3]
	rLCDCON2=(LINEVAL)|(HOZVAL<<10)|(10<<21); 
 c003160:	e59f30d0 	ldr	r3, [pc, #208]	; c003238 <Lcd_Init+0x15c>
 c003164:	e59f20d0 	ldr	r2, [pc, #208]	; c00323c <Lcd_Init+0x160>
 c003168:	e5832000 	str	r2, [r3]
	rLCDSADDR1= (0x2<<27) | ( ((LCD_ACTIVE_BUFFER>>22)<<21 ) | M5D(LCD_ACTIVE_BUFFER>>1));
 c00316c:	e59f30cc 	ldr	r3, [pc, #204]	; c003240 <Lcd_Init+0x164>
 c003170:	e59f20cc 	ldr	r2, [pc, #204]	; c003244 <Lcd_Init+0x168>
 c003174:	e5832000 	str	r2, [r3]
 	rLCDSADDR2= M5D(((LCD_ACTIVE_BUFFER+(SCR_XSIZE*LCD_YSIZE/2))>>1)) | (MVAL<<21);
 c003178:	e59f30c8 	ldr	r3, [pc, #200]	; c003248 <Lcd_Init+0x16c>
 c00317c:	e59f20c8 	ldr	r2, [pc, #200]	; c00324c <Lcd_Init+0x170>
 c003180:	e5832000 	str	r2, [r3]
	rLCDSADDR3= (LCD_XSIZE/4) | ( ((SCR_XSIZE-LCD_XSIZE)/4)<<9 );
 c003184:	e59f30c4 	ldr	r3, [pc, #196]	; c003250 <Lcd_Init+0x174>
 c003188:	e3a02050 	mov	r2, #80	; 0x50
 c00318c:	e5832000 	str	r2, [r3]
	// enable,4B_SNGL_SCAN,WDLY=8clk,WLH=8clk,
	rLCDCON1=(1)|(1<<5)|(MVAL_USED<<7)|(0x3<<8)|(0x3<<10)|(CLKVAL_GREY16<<12);
 c003190:	e3a0361f 	mov	r3, #32505856	; 0x1f00000
 c003194:	e59f20b8 	ldr	r2, [pc, #184]	; c003254 <Lcd_Init+0x178>
 c003198:	e5832000 	str	r2, [r3]
	rBLUELUT=0xfa40;
 c00319c:	e59f30b4 	ldr	r3, [pc, #180]	; c003258 <Lcd_Init+0x17c>
 c0031a0:	e59f20b4 	ldr	r2, [pc, #180]	; c00325c <Lcd_Init+0x180>
 c0031a4:	e5832000 	str	r2, [r3]
	//Enable LCD Logic and EL back-light.
	rPDATE=rPDATE&0x0e;
 c0031a8:	e59f30b0 	ldr	r3, [pc, #176]	; c003260 <Lcd_Init+0x184>
 c0031ac:	e59f20ac 	ldr	r2, [pc, #172]	; c003260 <Lcd_Init+0x184>
 c0031b0:	e5922000 	ldr	r2, [r2]
 c0031b4:	e202200e 	and	r2, r2, #14
 c0031b8:	e5832000 	str	r2, [r3]
	
	//DMA ISR
	rINTMSK &= ~(BIT_GLOBAL|BIT_ZDMA0);
 c0031bc:	e59f20a0 	ldr	r2, [pc, #160]	; c003264 <Lcd_Init+0x188>
 c0031c0:	e59f309c 	ldr	r3, [pc, #156]	; c003264 <Lcd_Init+0x188>
 c0031c4:	e5933000 	ldr	r3, [r3]
 c0031c8:	e3c33301 	bic	r3, r3, #67108864	; 0x4000000
 c0031cc:	e3c33702 	bic	r3, r3, #524288	; 0x80000
 c0031d0:	e5823000 	str	r3, [r2]
    pISR_ZDMA0=(int)Zdma0Done;
 c0031d4:	e59f308c 	ldr	r3, [pc, #140]	; c003268 <Lcd_Init+0x18c>
 c0031d8:	e59f208c 	ldr	r2, [pc, #140]	; c00326c <Lcd_Init+0x190>
 c0031dc:	e5832000 	str	r2, [r3]
}
 c0031e0:	e24bd00c 	sub	sp, fp, #12
 c0031e4:	e89d6800 	ldm	sp, {fp, sp, lr}
 c0031e8:	e12fff1e 	bx	lr
 c0031ec:	01f00044 	.word	0x01f00044
 c0031f0:	0001223a 	.word	0x0001223a
 c0031f4:	01f00020 	.word	0x01f00020
 c0031f8:	00005a5a 	.word	0x00005a5a
 c0031fc:	01f00024 	.word	0x01f00024
 c003200:	0366cd9b 	.word	0x0366cd9b
 c003204:	01f00028 	.word	0x01f00028
 c003208:	000da5a7 	.word	0x000da5a7
 c00320c:	01f0002c 	.word	0x01f0002c
 c003210:	00000ad7 	.word	0x00000ad7
 c003214:	01f00030 	.word	0x01f00030
 c003218:	0feda5b7 	.word	0x0feda5b7
 c00321c:	01f00034 	.word	0x01f00034
 c003220:	0000ebd7 	.word	0x0000ebd7
 c003224:	01f00038 	.word	0x01f00038
 c003228:	000ebfd7 	.word	0x000ebfd7
 c00322c:	01f0003c 	.word	0x01f0003c
 c003230:	07efdfbf 	.word	0x07efdfbf
 c003234:	0000c020 	.word	0x0000c020
 c003238:	01f00004 	.word	0x01f00004
 c00323c:	01413cef 	.word	0x01413cef
 c003240:	01f00008 	.word	0x01f00008
 c003244:	16180000 	.word	0x16180000
 c003248:	01f0000c 	.word	0x01f0000c
 c00324c:	01b84b00 	.word	0x01b84b00
 c003250:	01f00010 	.word	0x01f00010
 c003254:	0000cf21 	.word	0x0000cf21
 c003258:	01f0001c 	.word	0x01f0001c
 c00325c:	0000fa40 	.word	0x0000fa40
 c003260:	01d2002c 	.word	0x01d2002c
 c003264:	01e0000c 	.word	0x01e0000c
 c003268:	0c7fff6c 	.word	0x0c7fff6c
 c00326c:	0c004e90 	.word	0x0c004e90

0c003270 <Lcd_Active_Clr>:
* ret:		none
* modify:
* comment:		
*********************************************************************************************/
void Lcd_Active_Clr(void)
{
 c003270:	e1a0c00d 	mov	ip, sp
 c003274:	e92dd800 	push	{fp, ip, lr, pc}
 c003278:	e24cb004 	sub	fp, ip, #4
 c00327c:	e24dd008 	sub	sp, sp, #8
	INT32U i;
	INT32U *pDisp = (INT32U *)LCD_ACTIVE_BUFFER;
 c003280:	e3a036c3 	mov	r3, #204472320	; 0xc300000
 c003284:	e50b3014 	str	r3, [fp, #-20]	; 0xffffffec
	
	for( i = 0; i < (SCR_XSIZE*SCR_YSIZE/2/4); i++ )
 c003288:	e3a03000 	mov	r3, #0
 c00328c:	e50b3010 	str	r3, [fp, #-16]
 c003290:	ea000008 	b	c0032b8 <Lcd_Active_Clr+0x48>
	{
		*pDisp++ = WHITE;
 c003294:	e51b3014 	ldr	r3, [fp, #-20]	; 0xffffffec
 c003298:	e3a02000 	mov	r2, #0
 c00329c:	e5832000 	str	r2, [r3]
 c0032a0:	e51b3014 	ldr	r3, [fp, #-20]	; 0xffffffec
 c0032a4:	e2833004 	add	r3, r3, #4
 c0032a8:	e50b3014 	str	r3, [fp, #-20]	; 0xffffffec
void Lcd_Active_Clr(void)
{
	INT32U i;
	INT32U *pDisp = (INT32U *)LCD_ACTIVE_BUFFER;
	
	for( i = 0; i < (SCR_XSIZE*SCR_YSIZE/2/4); i++ )
 c0032ac:	e51b3010 	ldr	r3, [fp, #-16]
 c0032b0:	e2833001 	add	r3, r3, #1
 c0032b4:	e50b3010 	str	r3, [fp, #-16]
 c0032b8:	e51b2010 	ldr	r2, [fp, #-16]
 c0032bc:	e59f3010 	ldr	r3, [pc, #16]	; c0032d4 <Lcd_Active_Clr+0x64>
 c0032c0:	e1520003 	cmp	r2, r3
 c0032c4:	9afffff2 	bls	c003294 <Lcd_Active_Clr+0x24>
	{
		*pDisp++ = WHITE;
	}
}
 c0032c8:	e24bd00c 	sub	sp, fp, #12
 c0032cc:	e89d6800 	ldm	sp, {fp, sp, lr}
 c0032d0:	e12fff1e 	bx	lr
 c0032d4:	0000257f 	.word	0x0000257f

0c0032d8 <LCD_GetPixel>:
* ret:		pot's color value
* modify:
* comment:		
*********************************************************************************************/
INT8U LCD_GetPixel(INT16U usX, INT16U usY)
{
 c0032d8:	e1a0c00d 	mov	ip, sp
 c0032dc:	e92dd800 	push	{fp, ip, lr, pc}
 c0032e0:	e24cb004 	sub	fp, ip, #4
 c0032e4:	e24dd010 	sub	sp, sp, #16
 c0032e8:	e1a02000 	mov	r2, r0
 c0032ec:	e1a03001 	mov	r3, r1
 c0032f0:	e14b21b6 	strh	r2, [fp, #-22]	; 0xffffffea
 c0032f4:	e14b31b8 	strh	r3, [fp, #-24]	; 0xffffffe8
	INT8U ucColor;

	ucColor = *((INT8U*)(LCD_VIRTUAL_BUFFER + usY*SCR_XSIZE/2 + usX/8*4 + 3 - (usX%8)/2));
 c0032f8:	e15b21b8 	ldrh	r2, [fp, #-24]	; 0xffffffe8
 c0032fc:	e1a03002 	mov	r3, r2
 c003300:	e1a03103 	lsl	r3, r3, #2
 c003304:	e0833002 	add	r3, r3, r2
 c003308:	e1a03303 	lsl	r3, r3, #6
 c00330c:	e1a02fa3 	lsr	r2, r3, #31
 c003310:	e0823003 	add	r3, r2, r3
 c003314:	e1a030c3 	asr	r3, r3, #1
 c003318:	e28336c3 	add	r3, r3, #204472320	; 0xc300000
 c00331c:	e2833c96 	add	r3, r3, #38400	; 0x9600
 c003320:	e15b21b6 	ldrh	r2, [fp, #-22]	; 0xffffffea
 c003324:	e1a021a2 	lsr	r2, r2, #3
 c003328:	e1a02802 	lsl	r2, r2, #16
 c00332c:	e1a02822 	lsr	r2, r2, #16
 c003330:	e1a02102 	lsl	r2, r2, #2
 c003334:	e0833002 	add	r3, r3, r2
 c003338:	e2832003 	add	r2, r3, #3
 c00333c:	e15b31b6 	ldrh	r3, [fp, #-22]	; 0xffffffea
 c003340:	e2033007 	and	r3, r3, #7
 c003344:	e1a03803 	lsl	r3, r3, #16
 c003348:	e1a03823 	lsr	r3, r3, #16
 c00334c:	e1a030a3 	lsr	r3, r3, #1
 c003350:	e1a03803 	lsl	r3, r3, #16
 c003354:	e1a03823 	lsr	r3, r3, #16
 c003358:	e0633002 	rsb	r3, r3, r2
 c00335c:	e5d33000 	ldrb	r3, [r3]
 c003360:	e54b300d 	strb	r3, [fp, #-13]
	ucColor = (ucColor >> ((1-(usX%2))*4)) & 0x0f;
 c003364:	e55b200d 	ldrb	r2, [fp, #-13]
 c003368:	e15b31b6 	ldrh	r3, [fp, #-22]	; 0xffffffea
 c00336c:	e2033001 	and	r3, r3, #1
 c003370:	e3530000 	cmp	r3, #0
 c003374:	1a000001 	bne	c003380 <LCD_GetPixel+0xa8>
 c003378:	e3a03004 	mov	r3, #4
 c00337c:	ea000000 	b	c003384 <LCD_GetPixel+0xac>
 c003380:	e3a03000 	mov	r3, #0
 c003384:	e1a03352 	asr	r3, r2, r3
 c003388:	e20330ff 	and	r3, r3, #255	; 0xff
 c00338c:	e203300f 	and	r3, r3, #15
 c003390:	e54b300d 	strb	r3, [fp, #-13]
	return ucColor;
 c003394:	e55b300d 	ldrb	r3, [fp, #-13]
}
 c003398:	e1a00003 	mov	r0, r3
 c00339c:	e24bd00c 	sub	sp, fp, #12
 c0033a0:	e89d6800 	ldm	sp, {fp, sp, lr}
 c0033a4:	e12fff1e 	bx	lr

0c0033a8 <Lcd_Clr>:
* ret:		none
* modify:
* comment:		
*********************************************************************************************/
void Lcd_Clr(void)
{
 c0033a8:	e1a0c00d 	mov	ip, sp
 c0033ac:	e92dd800 	push	{fp, ip, lr, pc}
 c0033b0:	e24cb004 	sub	fp, ip, #4
 c0033b4:	e24dd008 	sub	sp, sp, #8
	INT32U i;
	INT32U *pDisp = (INT32U *)LCD_VIRTUAL_BUFFER;
 c0033b8:	e59f304c 	ldr	r3, [pc, #76]	; c00340c <Lcd_Clr+0x64>
 c0033bc:	e50b3014 	str	r3, [fp, #-20]	; 0xffffffec
	
	for( i = 0; i < (SCR_XSIZE*SCR_YSIZE/2/4); i++ )
 c0033c0:	e3a03000 	mov	r3, #0
 c0033c4:	e50b3010 	str	r3, [fp, #-16]
 c0033c8:	ea000008 	b	c0033f0 <Lcd_Clr+0x48>
	{
		*pDisp++ = WHITE;
 c0033cc:	e51b3014 	ldr	r3, [fp, #-20]	; 0xffffffec
 c0033d0:	e3a02000 	mov	r2, #0
 c0033d4:	e5832000 	str	r2, [r3]
 c0033d8:	e51b3014 	ldr	r3, [fp, #-20]	; 0xffffffec
 c0033dc:	e2833004 	add	r3, r3, #4
 c0033e0:	e50b3014 	str	r3, [fp, #-20]	; 0xffffffec
void Lcd_Clr(void)
{
	INT32U i;
	INT32U *pDisp = (INT32U *)LCD_VIRTUAL_BUFFER;
	
	for( i = 0; i < (SCR_XSIZE*SCR_YSIZE/2/4); i++ )
 c0033e4:	e51b3010 	ldr	r3, [fp, #-16]
 c0033e8:	e2833001 	add	r3, r3, #1
 c0033ec:	e50b3010 	str	r3, [fp, #-16]
 c0033f0:	e51b2010 	ldr	r2, [fp, #-16]
 c0033f4:	e59f3014 	ldr	r3, [pc, #20]	; c003410 <Lcd_Clr+0x68>
 c0033f8:	e1520003 	cmp	r2, r3
 c0033fc:	9afffff2 	bls	c0033cc <Lcd_Clr+0x24>
	{
		*pDisp++ = WHITE;
	}
}
 c003400:	e24bd00c 	sub	sp, fp, #12
 c003404:	e89d6800 	ldm	sp, {fp, sp, lr}
 c003408:	e12fff1e 	bx	lr
 c00340c:	0c309600 	.word	0x0c309600
 c003410:	0000257f 	.word	0x0000257f

0c003414 <LcdClrRect>:
* ret:		none
* modify:
* comment:	also as clear screen function 
*********************************************************************************************/
void LcdClrRect(INT16 usLeft, INT16 usTop, INT16 usRight, INT16 usBottom, INT8U ucColor)
{
 c003414:	e1a0c00d 	mov	ip, sp
 c003418:	e92dd800 	push	{fp, ip, lr, pc}
 c00341c:	e24cb004 	sub	fp, ip, #4
 c003420:	e24dd018 	sub	sp, sp, #24
 c003424:	e14b01be 	strh	r0, [fp, #-30]	; 0xffffffe2
 c003428:	e14b12b0 	strh	r1, [fp, #-32]	; 0xffffffe0
 c00342c:	e14b22b2 	strh	r2, [fp, #-34]	; 0xffffffde
 c003430:	e14b32b4 	strh	r3, [fp, #-36]	; 0xffffffdc
	INT16 i,k,l,m;
	
	INT32U ulColor = (ucColor << 28) | (ucColor << 24) | (ucColor << 20) | (ucColor << 16) | 
 c003434:	e5db3004 	ldrb	r3, [fp, #4]
 c003438:	e1a02e03 	lsl	r2, r3, #28
 c00343c:	e5db3004 	ldrb	r3, [fp, #4]
 c003440:	e1a03c03 	lsl	r3, r3, #24
 c003444:	e1822003 	orr	r2, r2, r3
 c003448:	e5db3004 	ldrb	r3, [fp, #4]
 c00344c:	e1a03a03 	lsl	r3, r3, #20
 c003450:	e1822003 	orr	r2, r2, r3
 c003454:	e5db3004 	ldrb	r3, [fp, #4]
 c003458:	e1a03803 	lsl	r3, r3, #16
 c00345c:	e1822003 	orr	r2, r2, r3
				     (ucColor << 12) | (ucColor << 8) | (ucColor << 4) | ucColor;
 c003460:	e5db3004 	ldrb	r3, [fp, #4]
 c003464:	e1a03603 	lsl	r3, r3, #12
*********************************************************************************************/
void LcdClrRect(INT16 usLeft, INT16 usTop, INT16 usRight, INT16 usBottom, INT8U ucColor)
{
	INT16 i,k,l,m;
	
	INT32U ulColor = (ucColor << 28) | (ucColor << 24) | (ucColor << 20) | (ucColor << 16) | 
 c003468:	e1822003 	orr	r2, r2, r3
				     (ucColor << 12) | (ucColor << 8) | (ucColor << 4) | ucColor;
 c00346c:	e5db3004 	ldrb	r3, [fp, #4]
 c003470:	e1a03403 	lsl	r3, r3, #8
 c003474:	e1822003 	orr	r2, r2, r3
 c003478:	e5db3004 	ldrb	r3, [fp, #4]
 c00347c:	e1a03203 	lsl	r3, r3, #4
 c003480:	e1822003 	orr	r2, r2, r3
 c003484:	e5db3004 	ldrb	r3, [fp, #4]
 c003488:	e1823003 	orr	r3, r2, r3
*********************************************************************************************/
void LcdClrRect(INT16 usLeft, INT16 usTop, INT16 usRight, INT16 usBottom, INT8U ucColor)
{
	INT16 i,k,l,m;
	
	INT32U ulColor = (ucColor << 28) | (ucColor << 24) | (ucColor << 20) | (ucColor << 16) | 
 c00348c:	e50b3018 	str	r3, [fp, #-24]	; 0xffffffe8
				     (ucColor << 12) | (ucColor << 8) | (ucColor << 4) | ucColor;

	i = k = l = m = 0;	
 c003490:	e3a03000 	mov	r3, #0
 c003494:	e14b31b4 	strh	r3, [fp, #-20]	; 0xffffffec
 c003498:	e15b31b4 	ldrh	r3, [fp, #-20]	; 0xffffffec
 c00349c:	e14b31b2 	strh	r3, [fp, #-18]	; 0xffffffee
 c0034a0:	e15b31b2 	ldrh	r3, [fp, #-18]	; 0xffffffee
 c0034a4:	e14b31b0 	strh	r3, [fp, #-16]
 c0034a8:	e15b31b0 	ldrh	r3, [fp, #-16]
 c0034ac:	e14b30be 	strh	r3, [fp, #-14]
	if( (usRight-usLeft) <= 8 )
 c0034b0:	e15b22f2 	ldrsh	r2, [fp, #-34]	; 0xffffffde
 c0034b4:	e15b31fe 	ldrsh	r3, [fp, #-30]	; 0xffffffe2
 c0034b8:	e0633002 	rsb	r3, r3, r2
 c0034bc:	e3530008 	cmp	r3, #8
 c0034c0:	ca00005f 	bgt	c003644 <LcdClrRect+0x230>
	{
		for( i=usTop; i<=usBottom; i++)
 c0034c4:	e15b32b0 	ldrh	r3, [fp, #-32]	; 0xffffffe0
 c0034c8:	e14b30be 	strh	r3, [fp, #-14]
 c0034cc:	ea000057 	b	c003630 <LcdClrRect+0x21c>
		{
			for( m=usLeft; m<=usRight; m++)
 c0034d0:	e15b31be 	ldrh	r3, [fp, #-30]	; 0xffffffe2
 c0034d4:	e14b31b4 	strh	r3, [fp, #-20]	; 0xffffffec
 c0034d8:	ea00004d 	b	c003614 <LcdClrRect+0x200>
			{
				(LCD_PutPixel(m, i, ucColor));
 c0034dc:	e15b20fe 	ldrsh	r2, [fp, #-14]
 c0034e0:	e1a03002 	mov	r3, r2
 c0034e4:	e1a03103 	lsl	r3, r3, #2
 c0034e8:	e0833002 	add	r3, r3, r2
 c0034ec:	e1a03303 	lsl	r3, r3, #6
 c0034f0:	e1a02fa3 	lsr	r2, r3, #31
 c0034f4:	e0823003 	add	r3, r2, r3
 c0034f8:	e1a030c3 	asr	r3, r3, #1
 c0034fc:	e28326c3 	add	r2, r3, #204472320	; 0xc300000
 c003500:	e2822c96 	add	r2, r2, #38400	; 0x9600
 c003504:	e15b31f4 	ldrsh	r3, [fp, #-20]	; 0xffffffec
 c003508:	e2831007 	add	r1, r3, #7
 c00350c:	e3530000 	cmp	r3, #0
 c003510:	b1a03001 	movlt	r3, r1
 c003514:	e1a031c3 	asr	r3, r3, #3
 c003518:	e1a03803 	lsl	r3, r3, #16
 c00351c:	e1a03823 	lsr	r3, r3, #16
 c003520:	e1a03803 	lsl	r3, r3, #16
 c003524:	e1a03843 	asr	r3, r3, #16
 c003528:	e1a03103 	lsl	r3, r3, #2
 c00352c:	e0823003 	add	r3, r2, r3
 c003530:	e1a01003 	mov	r1, r3
 c003534:	e15b20fe 	ldrsh	r2, [fp, #-14]
 c003538:	e1a03002 	mov	r3, r2
 c00353c:	e1a03103 	lsl	r3, r3, #2
 c003540:	e0833002 	add	r3, r3, r2
 c003544:	e1a03303 	lsl	r3, r3, #6
 c003548:	e1a02fa3 	lsr	r2, r3, #31
 c00354c:	e0823003 	add	r3, r2, r3
 c003550:	e1a030c3 	asr	r3, r3, #1
 c003554:	e28326c3 	add	r2, r3, #204472320	; 0xc300000
 c003558:	e2822c96 	add	r2, r2, #38400	; 0x9600
 c00355c:	e15b31f4 	ldrsh	r3, [fp, #-20]	; 0xffffffec
 c003560:	e2830007 	add	r0, r3, #7
 c003564:	e3530000 	cmp	r3, #0
 c003568:	b1a03000 	movlt	r3, r0
 c00356c:	e1a031c3 	asr	r3, r3, #3
 c003570:	e1a03803 	lsl	r3, r3, #16
 c003574:	e1a03823 	lsr	r3, r3, #16
 c003578:	e1a03803 	lsl	r3, r3, #16
 c00357c:	e1a03843 	asr	r3, r3, #16
 c003580:	e1a03103 	lsl	r3, r3, #2
 c003584:	e0823003 	add	r3, r2, r3
 c003588:	e5930000 	ldr	r0, [r3]
 c00358c:	e15b21f4 	ldrsh	r2, [fp, #-20]	; 0xffffffec
 c003590:	e1a03fc2 	asr	r3, r2, #31
 c003594:	e1a03ea3 	lsr	r3, r3, #29
 c003598:	e0822003 	add	r2, r2, r3
 c00359c:	e2022007 	and	r2, r2, #7
 c0035a0:	e0633002 	rsb	r3, r3, r2
 c0035a4:	e1a03803 	lsl	r3, r3, #16
 c0035a8:	e1a03823 	lsr	r3, r3, #16
 c0035ac:	e1a03803 	lsl	r3, r3, #16
 c0035b0:	e1a03843 	asr	r3, r3, #16
 c0035b4:	e1a03103 	lsl	r3, r3, #2
 c0035b8:	e3a0220f 	mov	r2, #-268435456	; 0xf0000000
 c0035bc:	e1a03332 	lsr	r3, r2, r3
 c0035c0:	e1e03003 	mvn	r3, r3
 c0035c4:	e0000003 	and	r0, r0, r3
 c0035c8:	e5dbc004 	ldrb	ip, [fp, #4]
 c0035cc:	e15b21f4 	ldrsh	r2, [fp, #-20]	; 0xffffffec
 c0035d0:	e1a03fc2 	asr	r3, r2, #31
 c0035d4:	e1a03ea3 	lsr	r3, r3, #29
 c0035d8:	e0822003 	add	r2, r2, r3
 c0035dc:	e2022007 	and	r2, r2, #7
 c0035e0:	e0633002 	rsb	r3, r3, r2
 c0035e4:	e1a03803 	lsl	r3, r3, #16
 c0035e8:	e1a03823 	lsr	r3, r3, #16
 c0035ec:	e1a03803 	lsl	r3, r3, #16
 c0035f0:	e1a03843 	asr	r3, r3, #16
 c0035f4:	e2633007 	rsb	r3, r3, #7
 c0035f8:	e1a03103 	lsl	r3, r3, #2
 c0035fc:	e1a0331c 	lsl	r3, ip, r3
 c003600:	e1803003 	orr	r3, r0, r3
 c003604:	e5813000 	str	r3, [r1]
	i = k = l = m = 0;	
	if( (usRight-usLeft) <= 8 )
	{
		for( i=usTop; i<=usBottom; i++)
		{
			for( m=usLeft; m<=usRight; m++)
 c003608:	e15b31b4 	ldrh	r3, [fp, #-20]	; 0xffffffec
 c00360c:	e2833001 	add	r3, r3, #1
 c003610:	e14b31b4 	strh	r3, [fp, #-20]	; 0xffffffec
 c003614:	e15b21f4 	ldrsh	r2, [fp, #-20]	; 0xffffffec
 c003618:	e15b32f2 	ldrsh	r3, [fp, #-34]	; 0xffffffde
 c00361c:	e1520003 	cmp	r2, r3
 c003620:	daffffad 	ble	c0034dc <LcdClrRect+0xc8>
				     (ucColor << 12) | (ucColor << 8) | (ucColor << 4) | ucColor;

	i = k = l = m = 0;	
	if( (usRight-usLeft) <= 8 )
	{
		for( i=usTop; i<=usBottom; i++)
 c003624:	e15b30be 	ldrh	r3, [fp, #-14]
 c003628:	e2833001 	add	r3, r3, #1
 c00362c:	e14b30be 	strh	r3, [fp, #-14]
 c003630:	e15b20fe 	ldrsh	r2, [fp, #-14]
 c003634:	e15b32f4 	ldrsh	r3, [fp, #-36]	; 0xffffffdc
 c003638:	e1520003 	cmp	r2, r3
 c00363c:	daffffa3 	ble	c0034d0 <LcdClrRect+0xbc>
			for( m=usLeft; m<=usRight; m++)
			{
				(LCD_PutPixel(m, i, ucColor));
			}
		}	
		return;
 c003640:	ea000104 	b	c003a58 <LcdClrRect+0x644>
	}

	/* check borderline */
	if( 0 == (usLeft%8) )
 c003644:	e15b31be 	ldrh	r3, [fp, #-30]	; 0xffffffe2
 c003648:	e2033007 	and	r3, r3, #7
 c00364c:	e1a03803 	lsl	r3, r3, #16
 c003650:	e1a03823 	lsr	r3, r3, #16
 c003654:	e3530000 	cmp	r3, #0
 c003658:	1a000002 	bne	c003668 <LcdClrRect+0x254>
		k=usLeft;
 c00365c:	e15b31be 	ldrh	r3, [fp, #-30]	; 0xffffffe2
 c003660:	e14b31b0 	strh	r3, [fp, #-16]
 c003664:	ea00000f 	b	c0036a8 <LcdClrRect+0x294>
	else
	{
		k=(usLeft/8)*8+8;
 c003668:	e15b31fe 	ldrsh	r3, [fp, #-30]	; 0xffffffe2
 c00366c:	e2832007 	add	r2, r3, #7
 c003670:	e3530000 	cmp	r3, #0
 c003674:	b1a03002 	movlt	r3, r2
 c003678:	e1a031c3 	asr	r3, r3, #3
 c00367c:	e1a03803 	lsl	r3, r3, #16
 c003680:	e1a03823 	lsr	r3, r3, #16
 c003684:	e1a03803 	lsl	r3, r3, #16
 c003688:	e1a03843 	asr	r3, r3, #16
 c00368c:	e2833001 	add	r3, r3, #1
 c003690:	e1a03803 	lsl	r3, r3, #16
 c003694:	e1a03823 	lsr	r3, r3, #16
 c003698:	e1a03183 	lsl	r3, r3, #3
 c00369c:	e1a03803 	lsl	r3, r3, #16
 c0036a0:	e1a03823 	lsr	r3, r3, #16
 c0036a4:	e14b31b0 	strh	r3, [fp, #-16]
	}
	if( 0 == (usRight%8) )
 c0036a8:	e15b32b2 	ldrh	r3, [fp, #-34]	; 0xffffffde
 c0036ac:	e2033007 	and	r3, r3, #7
 c0036b0:	e1a03803 	lsl	r3, r3, #16
 c0036b4:	e1a03823 	lsr	r3, r3, #16
 c0036b8:	e3530000 	cmp	r3, #0
 c0036bc:	1a000002 	bne	c0036cc <LcdClrRect+0x2b8>
		l= usRight;
 c0036c0:	e15b32b2 	ldrh	r3, [fp, #-34]	; 0xffffffde
 c0036c4:	e14b31b2 	strh	r3, [fp, #-18]	; 0xffffffee
 c0036c8:	ea00000c 	b	c003700 <LcdClrRect+0x2ec>
	else
	{
		l=(usRight/8)*8;
 c0036cc:	e15b32f2 	ldrsh	r3, [fp, #-34]	; 0xffffffde
 c0036d0:	e2832007 	add	r2, r3, #7
 c0036d4:	e3530000 	cmp	r3, #0
 c0036d8:	b1a03002 	movlt	r3, r2
 c0036dc:	e1a031c3 	asr	r3, r3, #3
 c0036e0:	e1a03803 	lsl	r3, r3, #16
 c0036e4:	e1a03823 	lsr	r3, r3, #16
 c0036e8:	e1a03803 	lsl	r3, r3, #16
 c0036ec:	e1a03823 	lsr	r3, r3, #16
 c0036f0:	e1a03183 	lsl	r3, r3, #3
 c0036f4:	e1a03803 	lsl	r3, r3, #16
 c0036f8:	e1a03823 	lsr	r3, r3, #16
 c0036fc:	e14b31b2 	strh	r3, [fp, #-18]	; 0xffffffee
	}

	for( i=usTop; i<=usBottom; i++ )
 c003700:	e15b32b0 	ldrh	r3, [fp, #-32]	; 0xffffffe0
 c003704:	e14b30be 	strh	r3, [fp, #-14]
 c003708:	ea0000ce 	b	c003a48 <LcdClrRect+0x634>
	{
		for( m=usLeft; m<=(k-1); m++ )
 c00370c:	e15b31be 	ldrh	r3, [fp, #-30]	; 0xffffffe2
 c003710:	e14b31b4 	strh	r3, [fp, #-20]	; 0xffffffec
 c003714:	ea00004d 	b	c003850 <LcdClrRect+0x43c>
		{
			(LCD_PutPixel(m, i, ucColor));
 c003718:	e15b20fe 	ldrsh	r2, [fp, #-14]
 c00371c:	e1a03002 	mov	r3, r2
 c003720:	e1a03103 	lsl	r3, r3, #2
 c003724:	e0833002 	add	r3, r3, r2
 c003728:	e1a03303 	lsl	r3, r3, #6
 c00372c:	e1a02fa3 	lsr	r2, r3, #31
 c003730:	e0823003 	add	r3, r2, r3
 c003734:	e1a030c3 	asr	r3, r3, #1
 c003738:	e28326c3 	add	r2, r3, #204472320	; 0xc300000
 c00373c:	e2822c96 	add	r2, r2, #38400	; 0x9600
 c003740:	e15b31f4 	ldrsh	r3, [fp, #-20]	; 0xffffffec
 c003744:	e2831007 	add	r1, r3, #7
 c003748:	e3530000 	cmp	r3, #0
 c00374c:	b1a03001 	movlt	r3, r1
 c003750:	e1a031c3 	asr	r3, r3, #3
 c003754:	e1a03803 	lsl	r3, r3, #16
 c003758:	e1a03823 	lsr	r3, r3, #16
 c00375c:	e1a03803 	lsl	r3, r3, #16
 c003760:	e1a03843 	asr	r3, r3, #16
 c003764:	e1a03103 	lsl	r3, r3, #2
 c003768:	e0823003 	add	r3, r2, r3
 c00376c:	e1a01003 	mov	r1, r3
 c003770:	e15b20fe 	ldrsh	r2, [fp, #-14]
 c003774:	e1a03002 	mov	r3, r2
 c003778:	e1a03103 	lsl	r3, r3, #2
 c00377c:	e0833002 	add	r3, r3, r2
 c003780:	e1a03303 	lsl	r3, r3, #6
 c003784:	e1a02fa3 	lsr	r2, r3, #31
 c003788:	e0823003 	add	r3, r2, r3
 c00378c:	e1a030c3 	asr	r3, r3, #1
 c003790:	e28326c3 	add	r2, r3, #204472320	; 0xc300000
 c003794:	e2822c96 	add	r2, r2, #38400	; 0x9600
 c003798:	e15b31f4 	ldrsh	r3, [fp, #-20]	; 0xffffffec
 c00379c:	e2830007 	add	r0, r3, #7
 c0037a0:	e3530000 	cmp	r3, #0
 c0037a4:	b1a03000 	movlt	r3, r0
 c0037a8:	e1a031c3 	asr	r3, r3, #3
 c0037ac:	e1a03803 	lsl	r3, r3, #16
 c0037b0:	e1a03823 	lsr	r3, r3, #16
 c0037b4:	e1a03803 	lsl	r3, r3, #16
 c0037b8:	e1a03843 	asr	r3, r3, #16
 c0037bc:	e1a03103 	lsl	r3, r3, #2
 c0037c0:	e0823003 	add	r3, r2, r3
 c0037c4:	e5930000 	ldr	r0, [r3]
 c0037c8:	e15b21f4 	ldrsh	r2, [fp, #-20]	; 0xffffffec
 c0037cc:	e1a03fc2 	asr	r3, r2, #31
 c0037d0:	e1a03ea3 	lsr	r3, r3, #29
 c0037d4:	e0822003 	add	r2, r2, r3
 c0037d8:	e2022007 	and	r2, r2, #7
 c0037dc:	e0633002 	rsb	r3, r3, r2
 c0037e0:	e1a03803 	lsl	r3, r3, #16
 c0037e4:	e1a03823 	lsr	r3, r3, #16
 c0037e8:	e1a03803 	lsl	r3, r3, #16
 c0037ec:	e1a03843 	asr	r3, r3, #16
 c0037f0:	e1a03103 	lsl	r3, r3, #2
 c0037f4:	e3a0220f 	mov	r2, #-268435456	; 0xf0000000
 c0037f8:	e1a03332 	lsr	r3, r2, r3
 c0037fc:	e1e03003 	mvn	r3, r3
 c003800:	e0000003 	and	r0, r0, r3
 c003804:	e5dbc004 	ldrb	ip, [fp, #4]
 c003808:	e15b21f4 	ldrsh	r2, [fp, #-20]	; 0xffffffec
 c00380c:	e1a03fc2 	asr	r3, r2, #31
 c003810:	e1a03ea3 	lsr	r3, r3, #29
 c003814:	e0822003 	add	r2, r2, r3
 c003818:	e2022007 	and	r2, r2, #7
 c00381c:	e0633002 	rsb	r3, r3, r2
 c003820:	e1a03803 	lsl	r3, r3, #16
 c003824:	e1a03823 	lsr	r3, r3, #16
 c003828:	e1a03803 	lsl	r3, r3, #16
 c00382c:	e1a03843 	asr	r3, r3, #16
 c003830:	e2633007 	rsb	r3, r3, #7
 c003834:	e1a03103 	lsl	r3, r3, #2
 c003838:	e1a0331c 	lsl	r3, ip, r3
 c00383c:	e1803003 	orr	r3, r0, r3
 c003840:	e5813000 	str	r3, [r1]
		l=(usRight/8)*8;
	}

	for( i=usTop; i<=usBottom; i++ )
	{
		for( m=usLeft; m<=(k-1); m++ )
 c003844:	e15b31b4 	ldrh	r3, [fp, #-20]	; 0xffffffec
 c003848:	e2833001 	add	r3, r3, #1
 c00384c:	e14b31b4 	strh	r3, [fp, #-20]	; 0xffffffec
 c003850:	e15b21f4 	ldrsh	r2, [fp, #-20]	; 0xffffffec
 c003854:	e15b31f0 	ldrsh	r3, [fp, #-16]
 c003858:	e2433001 	sub	r3, r3, #1
 c00385c:	e1520003 	cmp	r2, r3
 c003860:	daffffac 	ble	c003718 <LcdClrRect+0x304>
		{
			(LCD_PutPixel(m, i, ucColor));
		}
		for( m=k; m<l; m+=8 )
 c003864:	e15b31b0 	ldrh	r3, [fp, #-16]
 c003868:	e14b31b4 	strh	r3, [fp, #-20]	; 0xffffffec
 c00386c:	ea000019 	b	c0038d8 <LcdClrRect+0x4c4>
		{
			(*(INT32U*)(LCD_VIRTUAL_BUFFER + i * SCR_XSIZE / 2 + m / 2)) = ulColor;
 c003870:	e15b20fe 	ldrsh	r2, [fp, #-14]
 c003874:	e1a03002 	mov	r3, r2
 c003878:	e1a03103 	lsl	r3, r3, #2
 c00387c:	e0833002 	add	r3, r3, r2
 c003880:	e1a03303 	lsl	r3, r3, #6
 c003884:	e1a02fa3 	lsr	r2, r3, #31
 c003888:	e0823003 	add	r3, r2, r3
 c00388c:	e1a030c3 	asr	r3, r3, #1
 c003890:	e28336c3 	add	r3, r3, #204472320	; 0xc300000
 c003894:	e2833c96 	add	r3, r3, #38400	; 0x9600
 c003898:	e15b21f4 	ldrsh	r2, [fp, #-20]	; 0xffffffec
 c00389c:	e1a01fa2 	lsr	r1, r2, #31
 c0038a0:	e0812002 	add	r2, r1, r2
 c0038a4:	e1a020c2 	asr	r2, r2, #1
 c0038a8:	e1a02802 	lsl	r2, r2, #16
 c0038ac:	e1a02822 	lsr	r2, r2, #16
 c0038b0:	e1a02802 	lsl	r2, r2, #16
 c0038b4:	e1a02842 	asr	r2, r2, #16
 c0038b8:	e0833002 	add	r3, r3, r2
 c0038bc:	e51b2018 	ldr	r2, [fp, #-24]	; 0xffffffe8
 c0038c0:	e5832000 	str	r2, [r3]
	{
		for( m=usLeft; m<=(k-1); m++ )
		{
			(LCD_PutPixel(m, i, ucColor));
		}
		for( m=k; m<l; m+=8 )
 c0038c4:	e15b31b4 	ldrh	r3, [fp, #-20]	; 0xffffffec
 c0038c8:	e2833008 	add	r3, r3, #8
 c0038cc:	e1a03803 	lsl	r3, r3, #16
 c0038d0:	e1a03823 	lsr	r3, r3, #16
 c0038d4:	e14b31b4 	strh	r3, [fp, #-20]	; 0xffffffec
 c0038d8:	e15b21f4 	ldrsh	r2, [fp, #-20]	; 0xffffffec
 c0038dc:	e15b31f2 	ldrsh	r3, [fp, #-18]	; 0xffffffee
 c0038e0:	e1520003 	cmp	r2, r3
 c0038e4:	baffffe1 	blt	c003870 <LcdClrRect+0x45c>
		{
			(*(INT32U*)(LCD_VIRTUAL_BUFFER + i * SCR_XSIZE / 2 + m / 2)) = ulColor;
		}
		for( m=l; m<=usRight; m++ )
 c0038e8:	e15b31b2 	ldrh	r3, [fp, #-18]	; 0xffffffee
 c0038ec:	e14b31b4 	strh	r3, [fp, #-20]	; 0xffffffec
 c0038f0:	ea00004d 	b	c003a2c <LcdClrRect+0x618>
		{
			(LCD_PutPixel(m, i, ucColor));
 c0038f4:	e15b20fe 	ldrsh	r2, [fp, #-14]
 c0038f8:	e1a03002 	mov	r3, r2
 c0038fc:	e1a03103 	lsl	r3, r3, #2
 c003900:	e0833002 	add	r3, r3, r2
 c003904:	e1a03303 	lsl	r3, r3, #6
 c003908:	e1a02fa3 	lsr	r2, r3, #31
 c00390c:	e0823003 	add	r3, r2, r3
 c003910:	e1a030c3 	asr	r3, r3, #1
 c003914:	e28326c3 	add	r2, r3, #204472320	; 0xc300000
 c003918:	e2822c96 	add	r2, r2, #38400	; 0x9600
 c00391c:	e15b31f4 	ldrsh	r3, [fp, #-20]	; 0xffffffec
 c003920:	e2831007 	add	r1, r3, #7
 c003924:	e3530000 	cmp	r3, #0
 c003928:	b1a03001 	movlt	r3, r1
 c00392c:	e1a031c3 	asr	r3, r3, #3
 c003930:	e1a03803 	lsl	r3, r3, #16
 c003934:	e1a03823 	lsr	r3, r3, #16
 c003938:	e1a03803 	lsl	r3, r3, #16
 c00393c:	e1a03843 	asr	r3, r3, #16
 c003940:	e1a03103 	lsl	r3, r3, #2
 c003944:	e0823003 	add	r3, r2, r3
 c003948:	e1a01003 	mov	r1, r3
 c00394c:	e15b20fe 	ldrsh	r2, [fp, #-14]
 c003950:	e1a03002 	mov	r3, r2
 c003954:	e1a03103 	lsl	r3, r3, #2
 c003958:	e0833002 	add	r3, r3, r2
 c00395c:	e1a03303 	lsl	r3, r3, #6
 c003960:	e1a02fa3 	lsr	r2, r3, #31
 c003964:	e0823003 	add	r3, r2, r3
 c003968:	e1a030c3 	asr	r3, r3, #1
 c00396c:	e28326c3 	add	r2, r3, #204472320	; 0xc300000
 c003970:	e2822c96 	add	r2, r2, #38400	; 0x9600
 c003974:	e15b31f4 	ldrsh	r3, [fp, #-20]	; 0xffffffec
 c003978:	e2830007 	add	r0, r3, #7
 c00397c:	e3530000 	cmp	r3, #0
 c003980:	b1a03000 	movlt	r3, r0
 c003984:	e1a031c3 	asr	r3, r3, #3
 c003988:	e1a03803 	lsl	r3, r3, #16
 c00398c:	e1a03823 	lsr	r3, r3, #16
 c003990:	e1a03803 	lsl	r3, r3, #16
 c003994:	e1a03843 	asr	r3, r3, #16
 c003998:	e1a03103 	lsl	r3, r3, #2
 c00399c:	e0823003 	add	r3, r2, r3
 c0039a0:	e5930000 	ldr	r0, [r3]
 c0039a4:	e15b21f4 	ldrsh	r2, [fp, #-20]	; 0xffffffec
 c0039a8:	e1a03fc2 	asr	r3, r2, #31
 c0039ac:	e1a03ea3 	lsr	r3, r3, #29
 c0039b0:	e0822003 	add	r2, r2, r3
 c0039b4:	e2022007 	and	r2, r2, #7
 c0039b8:	e0633002 	rsb	r3, r3, r2
 c0039bc:	e1a03803 	lsl	r3, r3, #16
 c0039c0:	e1a03823 	lsr	r3, r3, #16
 c0039c4:	e1a03803 	lsl	r3, r3, #16
 c0039c8:	e1a03843 	asr	r3, r3, #16
 c0039cc:	e1a03103 	lsl	r3, r3, #2
 c0039d0:	e3a0220f 	mov	r2, #-268435456	; 0xf0000000
 c0039d4:	e1a03332 	lsr	r3, r2, r3
 c0039d8:	e1e03003 	mvn	r3, r3
 c0039dc:	e0000003 	and	r0, r0, r3
 c0039e0:	e5dbc004 	ldrb	ip, [fp, #4]
 c0039e4:	e15b21f4 	ldrsh	r2, [fp, #-20]	; 0xffffffec
 c0039e8:	e1a03fc2 	asr	r3, r2, #31
 c0039ec:	e1a03ea3 	lsr	r3, r3, #29
 c0039f0:	e0822003 	add	r2, r2, r3
 c0039f4:	e2022007 	and	r2, r2, #7
 c0039f8:	e0633002 	rsb	r3, r3, r2
 c0039fc:	e1a03803 	lsl	r3, r3, #16
 c003a00:	e1a03823 	lsr	r3, r3, #16
 c003a04:	e1a03803 	lsl	r3, r3, #16
 c003a08:	e1a03843 	asr	r3, r3, #16
 c003a0c:	e2633007 	rsb	r3, r3, #7
 c003a10:	e1a03103 	lsl	r3, r3, #2
 c003a14:	e1a0331c 	lsl	r3, ip, r3
 c003a18:	e1803003 	orr	r3, r0, r3
 c003a1c:	e5813000 	str	r3, [r1]
		}
		for( m=k; m<l; m+=8 )
		{
			(*(INT32U*)(LCD_VIRTUAL_BUFFER + i * SCR_XSIZE / 2 + m / 2)) = ulColor;
		}
		for( m=l; m<=usRight; m++ )
 c003a20:	e15b31b4 	ldrh	r3, [fp, #-20]	; 0xffffffec
 c003a24:	e2833001 	add	r3, r3, #1
 c003a28:	e14b31b4 	strh	r3, [fp, #-20]	; 0xffffffec
 c003a2c:	e15b21f4 	ldrsh	r2, [fp, #-20]	; 0xffffffec
 c003a30:	e15b32f2 	ldrsh	r3, [fp, #-34]	; 0xffffffde
 c003a34:	e1520003 	cmp	r2, r3
 c003a38:	daffffad 	ble	c0038f4 <LcdClrRect+0x4e0>
	else
	{
		l=(usRight/8)*8;
	}

	for( i=usTop; i<=usBottom; i++ )
 c003a3c:	e15b30be 	ldrh	r3, [fp, #-14]
 c003a40:	e2833001 	add	r3, r3, #1
 c003a44:	e14b30be 	strh	r3, [fp, #-14]
 c003a48:	e15b20fe 	ldrsh	r2, [fp, #-14]
 c003a4c:	e15b32f4 	ldrsh	r3, [fp, #-36]	; 0xffffffdc
 c003a50:	e1520003 	cmp	r2, r3
 c003a54:	daffff2c 	ble	c00370c <LcdClrRect+0x2f8>
		for( m=l; m<=usRight; m++ )
		{
			(LCD_PutPixel(m, i, ucColor));
		}
	}
}
 c003a58:	e24bd00c 	sub	sp, fp, #12
 c003a5c:	e89d6800 	ldm	sp, {fp, sp, lr}
 c003a60:	e12fff1e 	bx	lr

0c003a64 <Lcd_Draw_Box>:
* ret:		none
* modify:
* comment:		
*********************************************************************************************/
void Lcd_Draw_Box(INT16 usLeft, INT16 usTop, INT16 usRight, INT16 usBottom, INT8U ucColor)
{
 c003a64:	e1a0c00d 	mov	ip, sp
 c003a68:	e92dd800 	push	{fp, ip, lr, pc}
 c003a6c:	e24cb004 	sub	fp, ip, #4
 c003a70:	e24dd010 	sub	sp, sp, #16
 c003a74:	e14b00be 	strh	r0, [fp, #-14]
 c003a78:	e14b11b0 	strh	r1, [fp, #-16]
 c003a7c:	e14b21b2 	strh	r2, [fp, #-18]	; 0xffffffee
 c003a80:	e14b31b4 	strh	r3, [fp, #-20]	; 0xffffffec
	Lcd_Draw_HLine(usLeft, usRight,  usTop,    ucColor, 1);
 c003a84:	e15b00fe 	ldrsh	r0, [fp, #-14]
 c003a88:	e15b11f2 	ldrsh	r1, [fp, #-18]	; 0xffffffee
 c003a8c:	e15b21f0 	ldrsh	r2, [fp, #-16]
 c003a90:	e5db3004 	ldrb	r3, [fp, #4]
 c003a94:	e3a0c001 	mov	ip, #1
 c003a98:	e58dc000 	str	ip, [sp]
 c003a9c:	eb00026d 	bl	c004458 <Lcd_Draw_HLine>
	Lcd_Draw_HLine(usLeft, usRight,  usBottom, ucColor, 1);
 c003aa0:	e15b00fe 	ldrsh	r0, [fp, #-14]
 c003aa4:	e15b11f2 	ldrsh	r1, [fp, #-18]	; 0xffffffee
 c003aa8:	e15b21f4 	ldrsh	r2, [fp, #-20]	; 0xffffffec
 c003aac:	e5db3004 	ldrb	r3, [fp, #4]
 c003ab0:	e3a0c001 	mov	ip, #1
 c003ab4:	e58dc000 	str	ip, [sp]
 c003ab8:	eb000266 	bl	c004458 <Lcd_Draw_HLine>
	Lcd_Draw_VLine(usTop,  usBottom, usLeft,   ucColor, 1);
 c003abc:	e15b01f0 	ldrsh	r0, [fp, #-16]
 c003ac0:	e15b11f4 	ldrsh	r1, [fp, #-20]	; 0xffffffec
 c003ac4:	e15b20fe 	ldrsh	r2, [fp, #-14]
 c003ac8:	e5db3004 	ldrb	r3, [fp, #4]
 c003acc:	e3a0c001 	mov	ip, #1
 c003ad0:	e58dc000 	str	ip, [sp]
 c003ad4:	eb0002e1 	bl	c004660 <Lcd_Draw_VLine>
	Lcd_Draw_VLine(usTop,  usBottom, usRight,  ucColor, 1);
 c003ad8:	e15b01f0 	ldrsh	r0, [fp, #-16]
 c003adc:	e15b11f4 	ldrsh	r1, [fp, #-20]	; 0xffffffec
 c003ae0:	e15b21f2 	ldrsh	r2, [fp, #-18]	; 0xffffffee
 c003ae4:	e5db3004 	ldrb	r3, [fp, #4]
 c003ae8:	e3a0c001 	mov	ip, #1
 c003aec:	e58dc000 	str	ip, [sp]
 c003af0:	eb0002da 	bl	c004660 <Lcd_Draw_VLine>
}
 c003af4:	e24bd00c 	sub	sp, fp, #12
 c003af8:	e89d6800 	ldm	sp, {fp, sp, lr}
 c003afc:	e12fff1e 	bx	lr

0c003b00 <Lcd_Draw_Line>:
* ret:		none
* modify:
* comment:		
*********************************************************************************************/
void Lcd_Draw_Line(INT16 usX0, INT16 usY0, INT16 usX1, INT16 usY1, INT8U ucColor, INT16U usWidth)
{
 c003b00:	e1a0c00d 	mov	ip, sp
 c003b04:	e92dd800 	push	{fp, ip, lr, pc}
 c003b08:	e24cb004 	sub	fp, ip, #4
 c003b0c:	e24dd028 	sub	sp, sp, #40	; 0x28
 c003b10:	e14b02b6 	strh	r0, [fp, #-38]	; 0xffffffda
 c003b14:	e14b12b8 	strh	r1, [fp, #-40]	; 0xffffffd8
 c003b18:	e14b22ba 	strh	r2, [fp, #-42]	; 0xffffffd6
 c003b1c:	e14b32bc 	strh	r3, [fp, #-44]	; 0xffffffd4
	INT16 y_sign;
	INT16 x_sign;
	INT16 decision;
	INT16 wCurx, wCury, wNextx, wNexty, wpy, wpx;

	if( usY0 == usY1 )
 c003b20:	e15b22f8 	ldrsh	r2, [fp, #-40]	; 0xffffffd8
 c003b24:	e15b32fc 	ldrsh	r3, [fp, #-44]	; 0xffffffd4
 c003b28:	e1520003 	cmp	r2, r3
 c003b2c:	1a000007 	bne	c003b50 <Lcd_Draw_Line+0x50>
	{
		Lcd_Draw_HLine (usX0, usX1, usY0, ucColor, usWidth);
 c003b30:	e15b02f6 	ldrsh	r0, [fp, #-38]	; 0xffffffda
 c003b34:	e15b12fa 	ldrsh	r1, [fp, #-42]	; 0xffffffd6
 c003b38:	e15b22f8 	ldrsh	r2, [fp, #-40]	; 0xffffffd8
 c003b3c:	e5db3004 	ldrb	r3, [fp, #4]
 c003b40:	e1dbc0b8 	ldrh	ip, [fp, #8]
 c003b44:	e58dc000 	str	ip, [sp]
 c003b48:	eb000242 	bl	c004458 <Lcd_Draw_HLine>
		return;
 c003b4c:	ea00023e 	b	c00444c <Lcd_Draw_Line+0x94c>
	}
	if( usX0 == usX1 )
 c003b50:	e15b22f6 	ldrsh	r2, [fp, #-38]	; 0xffffffda
 c003b54:	e15b32fa 	ldrsh	r3, [fp, #-42]	; 0xffffffd6
 c003b58:	e1520003 	cmp	r2, r3
 c003b5c:	1a000007 	bne	c003b80 <Lcd_Draw_Line+0x80>
	{
		Lcd_Draw_VLine (usY0, usY1, usX0, ucColor, usWidth);
 c003b60:	e15b02f8 	ldrsh	r0, [fp, #-40]	; 0xffffffd8
 c003b64:	e15b12fc 	ldrsh	r1, [fp, #-44]	; 0xffffffd4
 c003b68:	e15b22f6 	ldrsh	r2, [fp, #-38]	; 0xffffffda
 c003b6c:	e5db3004 	ldrb	r3, [fp, #4]
 c003b70:	e1dbc0b8 	ldrh	ip, [fp, #8]
 c003b74:	e58dc000 	str	ip, [sp]
 c003b78:	eb0002b8 	bl	c004660 <Lcd_Draw_VLine>
		return;
 c003b7c:	ea000232 	b	c00444c <Lcd_Draw_Line+0x94c>
	}
	usDx = abs(usX0 - usX1);
 c003b80:	e15b22f6 	ldrsh	r2, [fp, #-38]	; 0xffffffda
 c003b84:	e15b32fa 	ldrsh	r3, [fp, #-42]	; 0xffffffd6
 c003b88:	e0633002 	rsb	r3, r3, r2
 c003b8c:	e3530000 	cmp	r3, #0
 c003b90:	b2633000 	rsblt	r3, r3, #0
 c003b94:	e14b31bc 	strh	r3, [fp, #-28]	; 0xffffffe4
	usDy = abs(usY0 - usY1);
 c003b98:	e15b22f8 	ldrsh	r2, [fp, #-40]	; 0xffffffd8
 c003b9c:	e15b32fc 	ldrsh	r3, [fp, #-44]	; 0xffffffd4
 c003ba0:	e0633002 	rsb	r3, r3, r2
 c003ba4:	e3530000 	cmp	r3, #0
 c003ba8:	b2633000 	rsblt	r3, r3, #0
 c003bac:	e14b31be 	strh	r3, [fp, #-30]	; 0xffffffe2
	if( ((usDx >= usDy && (usX0 > usX1)) ||
 c003bb0:	e15b21fc 	ldrsh	r2, [fp, #-28]	; 0xffffffe4
 c003bb4:	e15b31fe 	ldrsh	r3, [fp, #-30]	; 0xffffffe2
 c003bb8:	e1520003 	cmp	r2, r3
 c003bbc:	ba000003 	blt	c003bd0 <Lcd_Draw_Line+0xd0>
 c003bc0:	e15b22f6 	ldrsh	r2, [fp, #-38]	; 0xffffffda
 c003bc4:	e15b32fa 	ldrsh	r3, [fp, #-42]	; 0xffffffd6
 c003bc8:	e1520003 	cmp	r2, r3
 c003bcc:	ca000007 	bgt	c003bf0 <Lcd_Draw_Line+0xf0>
 c003bd0:	e15b21fe 	ldrsh	r2, [fp, #-30]	; 0xffffffe2
 c003bd4:	e15b31fc 	ldrsh	r3, [fp, #-28]	; 0xffffffe4
 c003bd8:	e1520003 	cmp	r2, r3
 c003bdc:	da00001b 	ble	c003c50 <Lcd_Draw_Line+0x150>
        ((usDy > usDx) && (usY0 > usY1))) )
 c003be0:	e15b22f8 	ldrsh	r2, [fp, #-40]	; 0xffffffd8
 c003be4:	e15b32fc 	ldrsh	r3, [fp, #-44]	; 0xffffffd4
 c003be8:	e1520003 	cmp	r2, r3
 c003bec:	da000017 	ble	c003c50 <Lcd_Draw_Line+0x150>
    {
        GUISWAP(usX1, usX0);
 c003bf0:	e15b22ba 	ldrh	r2, [fp, #-42]	; 0xffffffd6
 c003bf4:	e15b32b6 	ldrh	r3, [fp, #-38]	; 0xffffffda
 c003bf8:	e0223003 	eor	r3, r2, r3
 c003bfc:	e14b32ba 	strh	r3, [fp, #-42]	; 0xffffffd6
 c003c00:	e15b22b6 	ldrh	r2, [fp, #-38]	; 0xffffffda
 c003c04:	e15b32ba 	ldrh	r3, [fp, #-42]	; 0xffffffd6
 c003c08:	e0223003 	eor	r3, r2, r3
 c003c0c:	e14b32b6 	strh	r3, [fp, #-38]	; 0xffffffda
 c003c10:	e15b22ba 	ldrh	r2, [fp, #-42]	; 0xffffffd6
 c003c14:	e15b32b6 	ldrh	r3, [fp, #-38]	; 0xffffffda
 c003c18:	e0223003 	eor	r3, r2, r3
 c003c1c:	e14b32ba 	strh	r3, [fp, #-42]	; 0xffffffd6
        GUISWAP(usY1, usY0);
 c003c20:	e15b22bc 	ldrh	r2, [fp, #-44]	; 0xffffffd4
 c003c24:	e15b32b8 	ldrh	r3, [fp, #-40]	; 0xffffffd8
 c003c28:	e0223003 	eor	r3, r2, r3
 c003c2c:	e14b32bc 	strh	r3, [fp, #-44]	; 0xffffffd4
 c003c30:	e15b22b8 	ldrh	r2, [fp, #-40]	; 0xffffffd8
 c003c34:	e15b32bc 	ldrh	r3, [fp, #-44]	; 0xffffffd4
 c003c38:	e0223003 	eor	r3, r2, r3
 c003c3c:	e14b32b8 	strh	r3, [fp, #-40]	; 0xffffffd8
 c003c40:	e15b22bc 	ldrh	r2, [fp, #-44]	; 0xffffffd4
 c003c44:	e15b32b8 	ldrh	r3, [fp, #-40]	; 0xffffffd8
 c003c48:	e0223003 	eor	r3, r2, r3
 c003c4c:	e14b32bc 	strh	r3, [fp, #-44]	; 0xffffffd4
    }
    y_sign = (usY1 - usY0) / usDy;
 c003c50:	e15b22fc 	ldrsh	r2, [fp, #-44]	; 0xffffffd4
 c003c54:	e15b32f8 	ldrsh	r3, [fp, #-40]	; 0xffffffd8
 c003c58:	e0632002 	rsb	r2, r3, r2
 c003c5c:	e15b31fe 	ldrsh	r3, [fp, #-30]	; 0xffffffe2
 c003c60:	e1a00002 	mov	r0, r2
 c003c64:	e1a01003 	mov	r1, r3
 c003c68:	eb001b33 	bl	c00a93c <__aeabi_idiv>
 c003c6c:	e1a03000 	mov	r3, r0
 c003c70:	e14b32b0 	strh	r3, [fp, #-32]	; 0xffffffe0
    x_sign = (usX1 - usX0) / usDx;
 c003c74:	e15b22fa 	ldrsh	r2, [fp, #-42]	; 0xffffffd6
 c003c78:	e15b32f6 	ldrsh	r3, [fp, #-38]	; 0xffffffda
 c003c7c:	e0632002 	rsb	r2, r3, r2
 c003c80:	e15b31fc 	ldrsh	r3, [fp, #-28]	; 0xffffffe4
 c003c84:	e1a00002 	mov	r0, r2
 c003c88:	e1a01003 	mov	r1, r3
 c003c8c:	eb001b2a 	bl	c00a93c <__aeabi_idiv>
 c003c90:	e1a03000 	mov	r3, r0
 c003c94:	e14b32b2 	strh	r3, [fp, #-34]	; 0xffffffde

    if( usDx >= usDy )
 c003c98:	e15b21fc 	ldrsh	r2, [fp, #-28]	; 0xffffffe4
 c003c9c:	e15b31fe 	ldrsh	r3, [fp, #-30]	; 0xffffffe2
 c003ca0:	e1520003 	cmp	r2, r3
 c003ca4:	ba0000f4 	blt	c00407c <Lcd_Draw_Line+0x57c>
    {
        for( wCurx = usX0, wCury = usY0, wNextx = usX1,
 c003ca8:	e15b32b6 	ldrh	r3, [fp, #-38]	; 0xffffffda
 c003cac:	e14b31b0 	strh	r3, [fp, #-16]
 c003cb0:	e15b32b8 	ldrh	r3, [fp, #-40]	; 0xffffffd8
 c003cb4:	e14b31b2 	strh	r3, [fp, #-18]	; 0xffffffee
 c003cb8:	e15b32ba 	ldrh	r3, [fp, #-42]	; 0xffffffd6
 c003cbc:	e14b31b4 	strh	r3, [fp, #-20]	; 0xffffffec
             wNexty = usY1, decision = (usDx >> 1);
 c003cc0:	e15b32bc 	ldrh	r3, [fp, #-44]	; 0xffffffd4
 c003cc4:	e14b31b6 	strh	r3, [fp, #-22]	; 0xffffffea
 c003cc8:	e15b31fc 	ldrsh	r3, [fp, #-28]	; 0xffffffe4
 c003ccc:	e1a030c3 	asr	r3, r3, #1
 c003cd0:	e14b30be 	strh	r3, [fp, #-14]
    y_sign = (usY1 - usY0) / usDy;
    x_sign = (usX1 - usX0) / usDx;

    if( usDx >= usDy )
    {
        for( wCurx = usX0, wCury = usY0, wNextx = usX1,
 c003cd4:	ea0000e3 	b	c004068 <Lcd_Draw_Line+0x568>
             wNexty = usY1, decision = (usDx >> 1);
             wCurx <= wNextx; wCurx++, wNextx--, decision += usDy )
        {
            if( decision >= usDx )
 c003cd8:	e15b20fe 	ldrsh	r2, [fp, #-14]
 c003cdc:	e15b31fc 	ldrsh	r3, [fp, #-28]	; 0xffffffe4
 c003ce0:	e1520003 	cmp	r2, r3
 c003ce4:	ba000011 	blt	c003d30 <Lcd_Draw_Line+0x230>
            {
                decision -= usDx;
 c003ce8:	e15b20be 	ldrh	r2, [fp, #-14]
 c003cec:	e15b31bc 	ldrh	r3, [fp, #-28]	; 0xffffffe4
 c003cf0:	e0633002 	rsb	r3, r3, r2
 c003cf4:	e1a03803 	lsl	r3, r3, #16
 c003cf8:	e1a03823 	lsr	r3, r3, #16
 c003cfc:	e14b30be 	strh	r3, [fp, #-14]
                wCury += y_sign;
 c003d00:	e15b21b2 	ldrh	r2, [fp, #-18]	; 0xffffffee
 c003d04:	e15b32b0 	ldrh	r3, [fp, #-32]	; 0xffffffe0
 c003d08:	e0823003 	add	r3, r2, r3
 c003d0c:	e1a03803 	lsl	r3, r3, #16
 c003d10:	e1a03823 	lsr	r3, r3, #16
 c003d14:	e14b31b2 	strh	r3, [fp, #-18]	; 0xffffffee
                wNexty -= y_sign;
 c003d18:	e15b21b6 	ldrh	r2, [fp, #-22]	; 0xffffffea
 c003d1c:	e15b32b0 	ldrh	r3, [fp, #-32]	; 0xffffffe0
 c003d20:	e0633002 	rsb	r3, r3, r2
 c003d24:	e1a03803 	lsl	r3, r3, #16
 c003d28:	e1a03823 	lsr	r3, r3, #16
 c003d2c:	e14b31b6 	strh	r3, [fp, #-22]	; 0xffffffea
            }
            for( wpy = wCury - usWidth / 2;
 c003d30:	e15b21b2 	ldrh	r2, [fp, #-18]	; 0xffffffee
 c003d34:	e1db30b8 	ldrh	r3, [fp, #8]
 c003d38:	e1a030a3 	lsr	r3, r3, #1
 c003d3c:	e1a03803 	lsl	r3, r3, #16
 c003d40:	e1a03823 	lsr	r3, r3, #16
 c003d44:	e0633002 	rsb	r3, r3, r2
 c003d48:	e1a03803 	lsl	r3, r3, #16
 c003d4c:	e1a03823 	lsr	r3, r3, #16
 c003d50:	e14b31b8 	strh	r3, [fp, #-24]	; 0xffffffe8
 c003d54:	ea00004d 	b	c003e90 <Lcd_Draw_Line+0x390>
                 wpy <= wCury + usWidth / 2; wpy++ )
            {
                (LCD_PutPixel(wCurx, wpy, ucColor));
 c003d58:	e15b21f8 	ldrsh	r2, [fp, #-24]	; 0xffffffe8
 c003d5c:	e1a03002 	mov	r3, r2
 c003d60:	e1a03103 	lsl	r3, r3, #2
 c003d64:	e0833002 	add	r3, r3, r2
 c003d68:	e1a03303 	lsl	r3, r3, #6
 c003d6c:	e1a02fa3 	lsr	r2, r3, #31
 c003d70:	e0823003 	add	r3, r2, r3
 c003d74:	e1a030c3 	asr	r3, r3, #1
 c003d78:	e28326c3 	add	r2, r3, #204472320	; 0xc300000
 c003d7c:	e2822c96 	add	r2, r2, #38400	; 0x9600
 c003d80:	e15b31f0 	ldrsh	r3, [fp, #-16]
 c003d84:	e2831007 	add	r1, r3, #7
 c003d88:	e3530000 	cmp	r3, #0
 c003d8c:	b1a03001 	movlt	r3, r1
 c003d90:	e1a031c3 	asr	r3, r3, #3
 c003d94:	e1a03803 	lsl	r3, r3, #16
 c003d98:	e1a03823 	lsr	r3, r3, #16
 c003d9c:	e1a03803 	lsl	r3, r3, #16
 c003da0:	e1a03843 	asr	r3, r3, #16
 c003da4:	e1a03103 	lsl	r3, r3, #2
 c003da8:	e0823003 	add	r3, r2, r3
 c003dac:	e1a01003 	mov	r1, r3
 c003db0:	e15b21f8 	ldrsh	r2, [fp, #-24]	; 0xffffffe8
 c003db4:	e1a03002 	mov	r3, r2
 c003db8:	e1a03103 	lsl	r3, r3, #2
 c003dbc:	e0833002 	add	r3, r3, r2
 c003dc0:	e1a03303 	lsl	r3, r3, #6
 c003dc4:	e1a02fa3 	lsr	r2, r3, #31
 c003dc8:	e0823003 	add	r3, r2, r3
 c003dcc:	e1a030c3 	asr	r3, r3, #1
 c003dd0:	e28326c3 	add	r2, r3, #204472320	; 0xc300000
 c003dd4:	e2822c96 	add	r2, r2, #38400	; 0x9600
 c003dd8:	e15b31f0 	ldrsh	r3, [fp, #-16]
 c003ddc:	e2830007 	add	r0, r3, #7
 c003de0:	e3530000 	cmp	r3, #0
 c003de4:	b1a03000 	movlt	r3, r0
 c003de8:	e1a031c3 	asr	r3, r3, #3
 c003dec:	e1a03803 	lsl	r3, r3, #16
 c003df0:	e1a03823 	lsr	r3, r3, #16
 c003df4:	e1a03803 	lsl	r3, r3, #16
 c003df8:	e1a03843 	asr	r3, r3, #16
 c003dfc:	e1a03103 	lsl	r3, r3, #2
 c003e00:	e0823003 	add	r3, r2, r3
 c003e04:	e5930000 	ldr	r0, [r3]
 c003e08:	e15b21f0 	ldrsh	r2, [fp, #-16]
 c003e0c:	e1a03fc2 	asr	r3, r2, #31
 c003e10:	e1a03ea3 	lsr	r3, r3, #29
 c003e14:	e0822003 	add	r2, r2, r3
 c003e18:	e2022007 	and	r2, r2, #7
 c003e1c:	e0633002 	rsb	r3, r3, r2
 c003e20:	e1a03803 	lsl	r3, r3, #16
 c003e24:	e1a03823 	lsr	r3, r3, #16
 c003e28:	e1a03803 	lsl	r3, r3, #16
 c003e2c:	e1a03843 	asr	r3, r3, #16
 c003e30:	e1a03103 	lsl	r3, r3, #2
 c003e34:	e3a0220f 	mov	r2, #-268435456	; 0xf0000000
 c003e38:	e1a03332 	lsr	r3, r2, r3
 c003e3c:	e1e03003 	mvn	r3, r3
 c003e40:	e0000003 	and	r0, r0, r3
 c003e44:	e5dbc004 	ldrb	ip, [fp, #4]
 c003e48:	e15b21f0 	ldrsh	r2, [fp, #-16]
 c003e4c:	e1a03fc2 	asr	r3, r2, #31
 c003e50:	e1a03ea3 	lsr	r3, r3, #29
 c003e54:	e0822003 	add	r2, r2, r3
 c003e58:	e2022007 	and	r2, r2, #7
 c003e5c:	e0633002 	rsb	r3, r3, r2
 c003e60:	e1a03803 	lsl	r3, r3, #16
 c003e64:	e1a03823 	lsr	r3, r3, #16
 c003e68:	e1a03803 	lsl	r3, r3, #16
 c003e6c:	e1a03843 	asr	r3, r3, #16
 c003e70:	e2633007 	rsb	r3, r3, #7
 c003e74:	e1a03103 	lsl	r3, r3, #2
 c003e78:	e1a0331c 	lsl	r3, ip, r3
 c003e7c:	e1803003 	orr	r3, r0, r3
 c003e80:	e5813000 	str	r3, [r1]
                decision -= usDx;
                wCury += y_sign;
                wNexty -= y_sign;
            }
            for( wpy = wCury - usWidth / 2;
                 wpy <= wCury + usWidth / 2; wpy++ )
 c003e84:	e15b31b8 	ldrh	r3, [fp, #-24]	; 0xffffffe8
 c003e88:	e2833001 	add	r3, r3, #1
 c003e8c:	e14b31b8 	strh	r3, [fp, #-24]	; 0xffffffe8
 c003e90:	e15b21f8 	ldrsh	r2, [fp, #-24]	; 0xffffffe8
 c003e94:	e15b11f2 	ldrsh	r1, [fp, #-18]	; 0xffffffee
 c003e98:	e1db30b8 	ldrh	r3, [fp, #8]
 c003e9c:	e1a030a3 	lsr	r3, r3, #1
 c003ea0:	e1a03803 	lsl	r3, r3, #16
 c003ea4:	e1a03823 	lsr	r3, r3, #16
 c003ea8:	e0813003 	add	r3, r1, r3
            {
                decision -= usDx;
                wCury += y_sign;
                wNexty -= y_sign;
            }
            for( wpy = wCury - usWidth / 2;
 c003eac:	e1520003 	cmp	r2, r3
 c003eb0:	daffffa8 	ble	c003d58 <Lcd_Draw_Line+0x258>
                 wpy <= wCury + usWidth / 2; wpy++ )
            {
                (LCD_PutPixel(wCurx, wpy, ucColor));
            }

            for( wpy = wNexty - usWidth / 2;
 c003eb4:	e15b21b6 	ldrh	r2, [fp, #-22]	; 0xffffffea
 c003eb8:	e1db30b8 	ldrh	r3, [fp, #8]
 c003ebc:	e1a030a3 	lsr	r3, r3, #1
 c003ec0:	e1a03803 	lsl	r3, r3, #16
 c003ec4:	e1a03823 	lsr	r3, r3, #16
 c003ec8:	e0633002 	rsb	r3, r3, r2
 c003ecc:	e1a03803 	lsl	r3, r3, #16
 c003ed0:	e1a03823 	lsr	r3, r3, #16
 c003ed4:	e14b31b8 	strh	r3, [fp, #-24]	; 0xffffffe8
 c003ed8:	ea00004d 	b	c004014 <Lcd_Draw_Line+0x514>
                 wpy <= wNexty + usWidth / 2; wpy++ )
            {
                (LCD_PutPixel(wNextx, wpy, ucColor));
 c003edc:	e15b21f8 	ldrsh	r2, [fp, #-24]	; 0xffffffe8
 c003ee0:	e1a03002 	mov	r3, r2
 c003ee4:	e1a03103 	lsl	r3, r3, #2
 c003ee8:	e0833002 	add	r3, r3, r2
 c003eec:	e1a03303 	lsl	r3, r3, #6
 c003ef0:	e1a02fa3 	lsr	r2, r3, #31
 c003ef4:	e0823003 	add	r3, r2, r3
 c003ef8:	e1a030c3 	asr	r3, r3, #1
 c003efc:	e28326c3 	add	r2, r3, #204472320	; 0xc300000
 c003f00:	e2822c96 	add	r2, r2, #38400	; 0x9600
 c003f04:	e15b31f4 	ldrsh	r3, [fp, #-20]	; 0xffffffec
 c003f08:	e2831007 	add	r1, r3, #7
 c003f0c:	e3530000 	cmp	r3, #0
 c003f10:	b1a03001 	movlt	r3, r1
 c003f14:	e1a031c3 	asr	r3, r3, #3
 c003f18:	e1a03803 	lsl	r3, r3, #16
 c003f1c:	e1a03823 	lsr	r3, r3, #16
 c003f20:	e1a03803 	lsl	r3, r3, #16
 c003f24:	e1a03843 	asr	r3, r3, #16
 c003f28:	e1a03103 	lsl	r3, r3, #2
 c003f2c:	e0823003 	add	r3, r2, r3
 c003f30:	e1a01003 	mov	r1, r3
 c003f34:	e15b21f8 	ldrsh	r2, [fp, #-24]	; 0xffffffe8
 c003f38:	e1a03002 	mov	r3, r2
 c003f3c:	e1a03103 	lsl	r3, r3, #2
 c003f40:	e0833002 	add	r3, r3, r2
 c003f44:	e1a03303 	lsl	r3, r3, #6
 c003f48:	e1a02fa3 	lsr	r2, r3, #31
 c003f4c:	e0823003 	add	r3, r2, r3
 c003f50:	e1a030c3 	asr	r3, r3, #1
 c003f54:	e28326c3 	add	r2, r3, #204472320	; 0xc300000
 c003f58:	e2822c96 	add	r2, r2, #38400	; 0x9600
 c003f5c:	e15b31f4 	ldrsh	r3, [fp, #-20]	; 0xffffffec
 c003f60:	e2830007 	add	r0, r3, #7
 c003f64:	e3530000 	cmp	r3, #0
 c003f68:	b1a03000 	movlt	r3, r0
 c003f6c:	e1a031c3 	asr	r3, r3, #3
 c003f70:	e1a03803 	lsl	r3, r3, #16
 c003f74:	e1a03823 	lsr	r3, r3, #16
 c003f78:	e1a03803 	lsl	r3, r3, #16
 c003f7c:	e1a03843 	asr	r3, r3, #16
 c003f80:	e1a03103 	lsl	r3, r3, #2
 c003f84:	e0823003 	add	r3, r2, r3
 c003f88:	e5930000 	ldr	r0, [r3]
 c003f8c:	e15b21f4 	ldrsh	r2, [fp, #-20]	; 0xffffffec
 c003f90:	e1a03fc2 	asr	r3, r2, #31
 c003f94:	e1a03ea3 	lsr	r3, r3, #29
 c003f98:	e0822003 	add	r2, r2, r3
 c003f9c:	e2022007 	and	r2, r2, #7
 c003fa0:	e0633002 	rsb	r3, r3, r2
 c003fa4:	e1a03803 	lsl	r3, r3, #16
 c003fa8:	e1a03823 	lsr	r3, r3, #16
 c003fac:	e1a03803 	lsl	r3, r3, #16
 c003fb0:	e1a03843 	asr	r3, r3, #16
 c003fb4:	e1a03103 	lsl	r3, r3, #2
 c003fb8:	e3a0220f 	mov	r2, #-268435456	; 0xf0000000
 c003fbc:	e1a03332 	lsr	r3, r2, r3
 c003fc0:	e1e03003 	mvn	r3, r3
 c003fc4:	e0000003 	and	r0, r0, r3
 c003fc8:	e5dbc004 	ldrb	ip, [fp, #4]
 c003fcc:	e15b21f4 	ldrsh	r2, [fp, #-20]	; 0xffffffec
 c003fd0:	e1a03fc2 	asr	r3, r2, #31
 c003fd4:	e1a03ea3 	lsr	r3, r3, #29
 c003fd8:	e0822003 	add	r2, r2, r3
 c003fdc:	e2022007 	and	r2, r2, #7
 c003fe0:	e0633002 	rsb	r3, r3, r2
 c003fe4:	e1a03803 	lsl	r3, r3, #16
 c003fe8:	e1a03823 	lsr	r3, r3, #16
 c003fec:	e1a03803 	lsl	r3, r3, #16
 c003ff0:	e1a03843 	asr	r3, r3, #16
 c003ff4:	e2633007 	rsb	r3, r3, #7
 c003ff8:	e1a03103 	lsl	r3, r3, #2
 c003ffc:	e1a0331c 	lsl	r3, ip, r3
 c004000:	e1803003 	orr	r3, r0, r3
 c004004:	e5813000 	str	r3, [r1]
            {
                (LCD_PutPixel(wCurx, wpy, ucColor));
            }

            for( wpy = wNexty - usWidth / 2;
                 wpy <= wNexty + usWidth / 2; wpy++ )
 c004008:	e15b31b8 	ldrh	r3, [fp, #-24]	; 0xffffffe8
 c00400c:	e2833001 	add	r3, r3, #1
 c004010:	e14b31b8 	strh	r3, [fp, #-24]	; 0xffffffe8
 c004014:	e15b21f8 	ldrsh	r2, [fp, #-24]	; 0xffffffe8
 c004018:	e15b11f6 	ldrsh	r1, [fp, #-22]	; 0xffffffea
 c00401c:	e1db30b8 	ldrh	r3, [fp, #8]
 c004020:	e1a030a3 	lsr	r3, r3, #1
 c004024:	e1a03803 	lsl	r3, r3, #16
 c004028:	e1a03823 	lsr	r3, r3, #16
 c00402c:	e0813003 	add	r3, r1, r3
                 wpy <= wCury + usWidth / 2; wpy++ )
            {
                (LCD_PutPixel(wCurx, wpy, ucColor));
            }

            for( wpy = wNexty - usWidth / 2;
 c004030:	e1520003 	cmp	r2, r3
 c004034:	daffffa8 	ble	c003edc <Lcd_Draw_Line+0x3dc>

    if( usDx >= usDy )
    {
        for( wCurx = usX0, wCury = usY0, wNextx = usX1,
             wNexty = usY1, decision = (usDx >> 1);
             wCurx <= wNextx; wCurx++, wNextx--, decision += usDy )
 c004038:	e15b31b0 	ldrh	r3, [fp, #-16]
 c00403c:	e2833001 	add	r3, r3, #1
 c004040:	e14b31b0 	strh	r3, [fp, #-16]
 c004044:	e15b31b4 	ldrh	r3, [fp, #-20]	; 0xffffffec
 c004048:	e2433001 	sub	r3, r3, #1
 c00404c:	e14b31b4 	strh	r3, [fp, #-20]	; 0xffffffec
 c004050:	e15b20be 	ldrh	r2, [fp, #-14]
 c004054:	e15b31be 	ldrh	r3, [fp, #-30]	; 0xffffffe2
 c004058:	e0823003 	add	r3, r2, r3
 c00405c:	e1a03803 	lsl	r3, r3, #16
 c004060:	e1a03823 	lsr	r3, r3, #16
 c004064:	e14b30be 	strh	r3, [fp, #-14]
    y_sign = (usY1 - usY0) / usDy;
    x_sign = (usX1 - usX0) / usDx;

    if( usDx >= usDy )
    {
        for( wCurx = usX0, wCury = usY0, wNextx = usX1,
 c004068:	e15b21f0 	ldrsh	r2, [fp, #-16]
 c00406c:	e15b31f4 	ldrsh	r3, [fp, #-20]	; 0xffffffec
 c004070:	e1520003 	cmp	r2, r3
 c004074:	daffff17 	ble	c003cd8 <Lcd_Draw_Line+0x1d8>
 c004078:	ea0000f3 	b	c00444c <Lcd_Draw_Line+0x94c>
            }
        }
    }
    else
    {
        for( wCurx = usX0, wCury = usY0, wNextx = usX1,
 c00407c:	e15b32b6 	ldrh	r3, [fp, #-38]	; 0xffffffda
 c004080:	e14b31b0 	strh	r3, [fp, #-16]
 c004084:	e15b32b8 	ldrh	r3, [fp, #-40]	; 0xffffffd8
 c004088:	e14b31b2 	strh	r3, [fp, #-18]	; 0xffffffee
 c00408c:	e15b32ba 	ldrh	r3, [fp, #-42]	; 0xffffffd6
 c004090:	e14b31b4 	strh	r3, [fp, #-20]	; 0xffffffec
             wNexty = usY1, decision = (usDy >> 1);
 c004094:	e15b32bc 	ldrh	r3, [fp, #-44]	; 0xffffffd4
 c004098:	e14b31b6 	strh	r3, [fp, #-22]	; 0xffffffea
 c00409c:	e15b31fe 	ldrsh	r3, [fp, #-30]	; 0xffffffe2
 c0040a0:	e1a030c3 	asr	r3, r3, #1
 c0040a4:	e14b30be 	strh	r3, [fp, #-14]
            }
        }
    }
    else
    {
        for( wCurx = usX0, wCury = usY0, wNextx = usX1,
 c0040a8:	ea0000e3 	b	c00443c <Lcd_Draw_Line+0x93c>
             wNexty = usY1, decision = (usDy >> 1);
             wCury <= wNexty; wCury++, wNexty--, decision += usDx )
        {
            if( decision >= usDy )
 c0040ac:	e15b20fe 	ldrsh	r2, [fp, #-14]
 c0040b0:	e15b31fe 	ldrsh	r3, [fp, #-30]	; 0xffffffe2
 c0040b4:	e1520003 	cmp	r2, r3
 c0040b8:	ba000011 	blt	c004104 <Lcd_Draw_Line+0x604>
            {
                decision -= usDy;
 c0040bc:	e15b20be 	ldrh	r2, [fp, #-14]
 c0040c0:	e15b31be 	ldrh	r3, [fp, #-30]	; 0xffffffe2
 c0040c4:	e0633002 	rsb	r3, r3, r2
 c0040c8:	e1a03803 	lsl	r3, r3, #16
 c0040cc:	e1a03823 	lsr	r3, r3, #16
 c0040d0:	e14b30be 	strh	r3, [fp, #-14]
                wCurx += x_sign;
 c0040d4:	e15b21b0 	ldrh	r2, [fp, #-16]
 c0040d8:	e15b32b2 	ldrh	r3, [fp, #-34]	; 0xffffffde
 c0040dc:	e0823003 	add	r3, r2, r3
 c0040e0:	e1a03803 	lsl	r3, r3, #16
 c0040e4:	e1a03823 	lsr	r3, r3, #16
 c0040e8:	e14b31b0 	strh	r3, [fp, #-16]
                wNextx -= x_sign;
 c0040ec:	e15b21b4 	ldrh	r2, [fp, #-20]	; 0xffffffec
 c0040f0:	e15b32b2 	ldrh	r3, [fp, #-34]	; 0xffffffde
 c0040f4:	e0633002 	rsb	r3, r3, r2
 c0040f8:	e1a03803 	lsl	r3, r3, #16
 c0040fc:	e1a03823 	lsr	r3, r3, #16
 c004100:	e14b31b4 	strh	r3, [fp, #-20]	; 0xffffffec
            }
            for( wpx = wCurx - usWidth / 2;
 c004104:	e15b21b0 	ldrh	r2, [fp, #-16]
 c004108:	e1db30b8 	ldrh	r3, [fp, #8]
 c00410c:	e1a030a3 	lsr	r3, r3, #1
 c004110:	e1a03803 	lsl	r3, r3, #16
 c004114:	e1a03823 	lsr	r3, r3, #16
 c004118:	e0633002 	rsb	r3, r3, r2
 c00411c:	e1a03803 	lsl	r3, r3, #16
 c004120:	e1a03823 	lsr	r3, r3, #16
 c004124:	e14b31ba 	strh	r3, [fp, #-26]	; 0xffffffe6
 c004128:	ea00004d 	b	c004264 <Lcd_Draw_Line+0x764>
                 wpx <= wCurx + usWidth / 2; wpx++ )
            {
                (LCD_PutPixel(wpx, wCury, ucColor));
 c00412c:	e15b21f2 	ldrsh	r2, [fp, #-18]	; 0xffffffee
 c004130:	e1a03002 	mov	r3, r2
 c004134:	e1a03103 	lsl	r3, r3, #2
 c004138:	e0833002 	add	r3, r3, r2
 c00413c:	e1a03303 	lsl	r3, r3, #6
 c004140:	e1a02fa3 	lsr	r2, r3, #31
 c004144:	e0823003 	add	r3, r2, r3
 c004148:	e1a030c3 	asr	r3, r3, #1
 c00414c:	e28326c3 	add	r2, r3, #204472320	; 0xc300000
 c004150:	e2822c96 	add	r2, r2, #38400	; 0x9600
 c004154:	e15b31fa 	ldrsh	r3, [fp, #-26]	; 0xffffffe6
 c004158:	e2831007 	add	r1, r3, #7
 c00415c:	e3530000 	cmp	r3, #0
 c004160:	b1a03001 	movlt	r3, r1
 c004164:	e1a031c3 	asr	r3, r3, #3
 c004168:	e1a03803 	lsl	r3, r3, #16
 c00416c:	e1a03823 	lsr	r3, r3, #16
 c004170:	e1a03803 	lsl	r3, r3, #16
 c004174:	e1a03843 	asr	r3, r3, #16
 c004178:	e1a03103 	lsl	r3, r3, #2
 c00417c:	e0823003 	add	r3, r2, r3
 c004180:	e1a01003 	mov	r1, r3
 c004184:	e15b21f2 	ldrsh	r2, [fp, #-18]	; 0xffffffee
 c004188:	e1a03002 	mov	r3, r2
 c00418c:	e1a03103 	lsl	r3, r3, #2
 c004190:	e0833002 	add	r3, r3, r2
 c004194:	e1a03303 	lsl	r3, r3, #6
 c004198:	e1a02fa3 	lsr	r2, r3, #31
 c00419c:	e0823003 	add	r3, r2, r3
 c0041a0:	e1a030c3 	asr	r3, r3, #1
 c0041a4:	e28326c3 	add	r2, r3, #204472320	; 0xc300000
 c0041a8:	e2822c96 	add	r2, r2, #38400	; 0x9600
 c0041ac:	e15b31fa 	ldrsh	r3, [fp, #-26]	; 0xffffffe6
 c0041b0:	e2830007 	add	r0, r3, #7
 c0041b4:	e3530000 	cmp	r3, #0
 c0041b8:	b1a03000 	movlt	r3, r0
 c0041bc:	e1a031c3 	asr	r3, r3, #3
 c0041c0:	e1a03803 	lsl	r3, r3, #16
 c0041c4:	e1a03823 	lsr	r3, r3, #16
 c0041c8:	e1a03803 	lsl	r3, r3, #16
 c0041cc:	e1a03843 	asr	r3, r3, #16
 c0041d0:	e1a03103 	lsl	r3, r3, #2
 c0041d4:	e0823003 	add	r3, r2, r3
 c0041d8:	e5930000 	ldr	r0, [r3]
 c0041dc:	e15b21fa 	ldrsh	r2, [fp, #-26]	; 0xffffffe6
 c0041e0:	e1a03fc2 	asr	r3, r2, #31
 c0041e4:	e1a03ea3 	lsr	r3, r3, #29
 c0041e8:	e0822003 	add	r2, r2, r3
 c0041ec:	e2022007 	and	r2, r2, #7
 c0041f0:	e0633002 	rsb	r3, r3, r2
 c0041f4:	e1a03803 	lsl	r3, r3, #16
 c0041f8:	e1a03823 	lsr	r3, r3, #16
 c0041fc:	e1a03803 	lsl	r3, r3, #16
 c004200:	e1a03843 	asr	r3, r3, #16
 c004204:	e1a03103 	lsl	r3, r3, #2
 c004208:	e3a0220f 	mov	r2, #-268435456	; 0xf0000000
 c00420c:	e1a03332 	lsr	r3, r2, r3
 c004210:	e1e03003 	mvn	r3, r3
 c004214:	e0000003 	and	r0, r0, r3
 c004218:	e5dbc004 	ldrb	ip, [fp, #4]
 c00421c:	e15b21fa 	ldrsh	r2, [fp, #-26]	; 0xffffffe6
 c004220:	e1a03fc2 	asr	r3, r2, #31
 c004224:	e1a03ea3 	lsr	r3, r3, #29
 c004228:	e0822003 	add	r2, r2, r3
 c00422c:	e2022007 	and	r2, r2, #7
 c004230:	e0633002 	rsb	r3, r3, r2
 c004234:	e1a03803 	lsl	r3, r3, #16
 c004238:	e1a03823 	lsr	r3, r3, #16
 c00423c:	e1a03803 	lsl	r3, r3, #16
 c004240:	e1a03843 	asr	r3, r3, #16
 c004244:	e2633007 	rsb	r3, r3, #7
 c004248:	e1a03103 	lsl	r3, r3, #2
 c00424c:	e1a0331c 	lsl	r3, ip, r3
 c004250:	e1803003 	orr	r3, r0, r3
 c004254:	e5813000 	str	r3, [r1]
                decision -= usDy;
                wCurx += x_sign;
                wNextx -= x_sign;
            }
            for( wpx = wCurx - usWidth / 2;
                 wpx <= wCurx + usWidth / 2; wpx++ )
 c004258:	e15b31ba 	ldrh	r3, [fp, #-26]	; 0xffffffe6
 c00425c:	e2833001 	add	r3, r3, #1
 c004260:	e14b31ba 	strh	r3, [fp, #-26]	; 0xffffffe6
 c004264:	e15b21fa 	ldrsh	r2, [fp, #-26]	; 0xffffffe6
 c004268:	e15b11f0 	ldrsh	r1, [fp, #-16]
 c00426c:	e1db30b8 	ldrh	r3, [fp, #8]
 c004270:	e1a030a3 	lsr	r3, r3, #1
 c004274:	e1a03803 	lsl	r3, r3, #16
 c004278:	e1a03823 	lsr	r3, r3, #16
 c00427c:	e0813003 	add	r3, r1, r3
            {
                decision -= usDy;
                wCurx += x_sign;
                wNextx -= x_sign;
            }
            for( wpx = wCurx - usWidth / 2;
 c004280:	e1520003 	cmp	r2, r3
 c004284:	daffffa8 	ble	c00412c <Lcd_Draw_Line+0x62c>
                 wpx <= wCurx + usWidth / 2; wpx++ )
            {
                (LCD_PutPixel(wpx, wCury, ucColor));
            }

            for( wpx = wNextx - usWidth / 2;
 c004288:	e15b21b4 	ldrh	r2, [fp, #-20]	; 0xffffffec
 c00428c:	e1db30b8 	ldrh	r3, [fp, #8]
 c004290:	e1a030a3 	lsr	r3, r3, #1
 c004294:	e1a03803 	lsl	r3, r3, #16
 c004298:	e1a03823 	lsr	r3, r3, #16
 c00429c:	e0633002 	rsb	r3, r3, r2
 c0042a0:	e1a03803 	lsl	r3, r3, #16
 c0042a4:	e1a03823 	lsr	r3, r3, #16
 c0042a8:	e14b31ba 	strh	r3, [fp, #-26]	; 0xffffffe6
 c0042ac:	ea00004d 	b	c0043e8 <Lcd_Draw_Line+0x8e8>
                 wpx <= wNextx + usWidth / 2; wpx++ )
            {
                (LCD_PutPixel(wpx, wNexty, ucColor));
 c0042b0:	e15b21f6 	ldrsh	r2, [fp, #-22]	; 0xffffffea
 c0042b4:	e1a03002 	mov	r3, r2
 c0042b8:	e1a03103 	lsl	r3, r3, #2
 c0042bc:	e0833002 	add	r3, r3, r2
 c0042c0:	e1a03303 	lsl	r3, r3, #6
 c0042c4:	e1a02fa3 	lsr	r2, r3, #31
 c0042c8:	e0823003 	add	r3, r2, r3
 c0042cc:	e1a030c3 	asr	r3, r3, #1
 c0042d0:	e28326c3 	add	r2, r3, #204472320	; 0xc300000
 c0042d4:	e2822c96 	add	r2, r2, #38400	; 0x9600
 c0042d8:	e15b31fa 	ldrsh	r3, [fp, #-26]	; 0xffffffe6
 c0042dc:	e2831007 	add	r1, r3, #7
 c0042e0:	e3530000 	cmp	r3, #0
 c0042e4:	b1a03001 	movlt	r3, r1
 c0042e8:	e1a031c3 	asr	r3, r3, #3
 c0042ec:	e1a03803 	lsl	r3, r3, #16
 c0042f0:	e1a03823 	lsr	r3, r3, #16
 c0042f4:	e1a03803 	lsl	r3, r3, #16
 c0042f8:	e1a03843 	asr	r3, r3, #16
 c0042fc:	e1a03103 	lsl	r3, r3, #2
 c004300:	e0823003 	add	r3, r2, r3
 c004304:	e1a01003 	mov	r1, r3
 c004308:	e15b21f6 	ldrsh	r2, [fp, #-22]	; 0xffffffea
 c00430c:	e1a03002 	mov	r3, r2
 c004310:	e1a03103 	lsl	r3, r3, #2
 c004314:	e0833002 	add	r3, r3, r2
 c004318:	e1a03303 	lsl	r3, r3, #6
 c00431c:	e1a02fa3 	lsr	r2, r3, #31
 c004320:	e0823003 	add	r3, r2, r3
 c004324:	e1a030c3 	asr	r3, r3, #1
 c004328:	e28326c3 	add	r2, r3, #204472320	; 0xc300000
 c00432c:	e2822c96 	add	r2, r2, #38400	; 0x9600
 c004330:	e15b31fa 	ldrsh	r3, [fp, #-26]	; 0xffffffe6
 c004334:	e2830007 	add	r0, r3, #7
 c004338:	e3530000 	cmp	r3, #0
 c00433c:	b1a03000 	movlt	r3, r0
 c004340:	e1a031c3 	asr	r3, r3, #3
 c004344:	e1a03803 	lsl	r3, r3, #16
 c004348:	e1a03823 	lsr	r3, r3, #16
 c00434c:	e1a03803 	lsl	r3, r3, #16
 c004350:	e1a03843 	asr	r3, r3, #16
 c004354:	e1a03103 	lsl	r3, r3, #2
 c004358:	e0823003 	add	r3, r2, r3
 c00435c:	e5930000 	ldr	r0, [r3]
 c004360:	e15b21fa 	ldrsh	r2, [fp, #-26]	; 0xffffffe6
 c004364:	e1a03fc2 	asr	r3, r2, #31
 c004368:	e1a03ea3 	lsr	r3, r3, #29
 c00436c:	e0822003 	add	r2, r2, r3
 c004370:	e2022007 	and	r2, r2, #7
 c004374:	e0633002 	rsb	r3, r3, r2
 c004378:	e1a03803 	lsl	r3, r3, #16
 c00437c:	e1a03823 	lsr	r3, r3, #16
 c004380:	e1a03803 	lsl	r3, r3, #16
 c004384:	e1a03843 	asr	r3, r3, #16
 c004388:	e1a03103 	lsl	r3, r3, #2
 c00438c:	e3a0220f 	mov	r2, #-268435456	; 0xf0000000
 c004390:	e1a03332 	lsr	r3, r2, r3
 c004394:	e1e03003 	mvn	r3, r3
 c004398:	e0000003 	and	r0, r0, r3
 c00439c:	e5dbc004 	ldrb	ip, [fp, #4]
 c0043a0:	e15b21fa 	ldrsh	r2, [fp, #-26]	; 0xffffffe6
 c0043a4:	e1a03fc2 	asr	r3, r2, #31
 c0043a8:	e1a03ea3 	lsr	r3, r3, #29
 c0043ac:	e0822003 	add	r2, r2, r3
 c0043b0:	e2022007 	and	r2, r2, #7
 c0043b4:	e0633002 	rsb	r3, r3, r2
 c0043b8:	e1a03803 	lsl	r3, r3, #16
 c0043bc:	e1a03823 	lsr	r3, r3, #16
 c0043c0:	e1a03803 	lsl	r3, r3, #16
 c0043c4:	e1a03843 	asr	r3, r3, #16
 c0043c8:	e2633007 	rsb	r3, r3, #7
 c0043cc:	e1a03103 	lsl	r3, r3, #2
 c0043d0:	e1a0331c 	lsl	r3, ip, r3
 c0043d4:	e1803003 	orr	r3, r0, r3
 c0043d8:	e5813000 	str	r3, [r1]
            {
                (LCD_PutPixel(wpx, wCury, ucColor));
            }

            for( wpx = wNextx - usWidth / 2;
                 wpx <= wNextx + usWidth / 2; wpx++ )
 c0043dc:	e15b31ba 	ldrh	r3, [fp, #-26]	; 0xffffffe6
 c0043e0:	e2833001 	add	r3, r3, #1
 c0043e4:	e14b31ba 	strh	r3, [fp, #-26]	; 0xffffffe6
 c0043e8:	e15b21fa 	ldrsh	r2, [fp, #-26]	; 0xffffffe6
 c0043ec:	e15b11f4 	ldrsh	r1, [fp, #-20]	; 0xffffffec
 c0043f0:	e1db30b8 	ldrh	r3, [fp, #8]
 c0043f4:	e1a030a3 	lsr	r3, r3, #1
 c0043f8:	e1a03803 	lsl	r3, r3, #16
 c0043fc:	e1a03823 	lsr	r3, r3, #16
 c004400:	e0813003 	add	r3, r1, r3
                 wpx <= wCurx + usWidth / 2; wpx++ )
            {
                (LCD_PutPixel(wpx, wCury, ucColor));
            }

            for( wpx = wNextx - usWidth / 2;
 c004404:	e1520003 	cmp	r2, r3
 c004408:	daffffa8 	ble	c0042b0 <Lcd_Draw_Line+0x7b0>
    }
    else
    {
        for( wCurx = usX0, wCury = usY0, wNextx = usX1,
             wNexty = usY1, decision = (usDy >> 1);
             wCury <= wNexty; wCury++, wNexty--, decision += usDx )
 c00440c:	e15b31b2 	ldrh	r3, [fp, #-18]	; 0xffffffee
 c004410:	e2833001 	add	r3, r3, #1
 c004414:	e14b31b2 	strh	r3, [fp, #-18]	; 0xffffffee
 c004418:	e15b31b6 	ldrh	r3, [fp, #-22]	; 0xffffffea
 c00441c:	e2433001 	sub	r3, r3, #1
 c004420:	e14b31b6 	strh	r3, [fp, #-22]	; 0xffffffea
 c004424:	e15b20be 	ldrh	r2, [fp, #-14]
 c004428:	e15b31bc 	ldrh	r3, [fp, #-28]	; 0xffffffe4
 c00442c:	e0823003 	add	r3, r2, r3
 c004430:	e1a03803 	lsl	r3, r3, #16
 c004434:	e1a03823 	lsr	r3, r3, #16
 c004438:	e14b30be 	strh	r3, [fp, #-14]
            }
        }
    }
    else
    {
        for( wCurx = usX0, wCury = usY0, wNextx = usX1,
 c00443c:	e15b21f2 	ldrsh	r2, [fp, #-18]	; 0xffffffee
 c004440:	e15b31f6 	ldrsh	r3, [fp, #-22]	; 0xffffffea
 c004444:	e1520003 	cmp	r2, r3
 c004448:	daffff17 	ble	c0040ac <Lcd_Draw_Line+0x5ac>
            {
                (LCD_PutPixel(wpx, wNexty, ucColor));
            }
        }
    }
}
 c00444c:	e24bd00c 	sub	sp, fp, #12
 c004450:	e89d6800 	ldm	sp, {fp, sp, lr}
 c004454:	e12fff1e 	bx	lr

0c004458 <Lcd_Draw_HLine>:
* ret:		none
* modify:
* comment:		
*********************************************************************************************/
void Lcd_Draw_HLine(INT16 usX0, INT16 usX1, INT16 usY0, INT8U ucColor, INT16U usWidth)
{
 c004458:	e1a0c00d 	mov	ip, sp
 c00445c:	e92dd800 	push	{fp, ip, lr, pc}
 c004460:	e24cb004 	sub	fp, ip, #4
 c004464:	e24dd010 	sub	sp, sp, #16
 c004468:	e14b01b6 	strh	r0, [fp, #-22]	; 0xffffffea
 c00446c:	e14b11b8 	strh	r1, [fp, #-24]	; 0xffffffe8
 c004470:	e14b21ba 	strh	r2, [fp, #-26]	; 0xffffffe6
 c004474:	e54b301b 	strb	r3, [fp, #-27]	; 0xffffffe5
	INT16 usLen;

    if( usX1 < usX0 )
 c004478:	e15b21f8 	ldrsh	r2, [fp, #-24]	; 0xffffffe8
 c00447c:	e15b31f6 	ldrsh	r3, [fp, #-22]	; 0xffffffea
 c004480:	e1520003 	cmp	r2, r3
 c004484:	aa000067 	bge	c004628 <Lcd_Draw_HLine+0x1d0>
    {
        GUISWAP (usX1, usX0);
 c004488:	e15b21b8 	ldrh	r2, [fp, #-24]	; 0xffffffe8
 c00448c:	e15b31b6 	ldrh	r3, [fp, #-22]	; 0xffffffea
 c004490:	e0223003 	eor	r3, r2, r3
 c004494:	e14b31b8 	strh	r3, [fp, #-24]	; 0xffffffe8
 c004498:	e15b21b6 	ldrh	r2, [fp, #-22]	; 0xffffffea
 c00449c:	e15b31b8 	ldrh	r3, [fp, #-24]	; 0xffffffe8
 c0044a0:	e0223003 	eor	r3, r2, r3
 c0044a4:	e14b31b6 	strh	r3, [fp, #-22]	; 0xffffffea
 c0044a8:	e15b21b8 	ldrh	r2, [fp, #-24]	; 0xffffffe8
 c0044ac:	e15b31b6 	ldrh	r3, [fp, #-22]	; 0xffffffea
 c0044b0:	e0223003 	eor	r3, r2, r3
 c0044b4:	e14b31b8 	strh	r3, [fp, #-24]	; 0xffffffe8
    }

    while( (usWidth--) > 0 )
 c0044b8:	ea00005b 	b	c00462c <Lcd_Draw_HLine+0x1d4>
    {
        usLen = usX1 - usX0 + 1;
 c0044bc:	e15b21b8 	ldrh	r2, [fp, #-24]	; 0xffffffe8
 c0044c0:	e15b31b6 	ldrh	r3, [fp, #-22]	; 0xffffffea
 c0044c4:	e0633002 	rsb	r3, r3, r2
 c0044c8:	e1a03803 	lsl	r3, r3, #16
 c0044cc:	e1a03823 	lsr	r3, r3, #16
 c0044d0:	e2833001 	add	r3, r3, #1
 c0044d4:	e1a03803 	lsl	r3, r3, #16
 c0044d8:	e1a03823 	lsr	r3, r3, #16
 c0044dc:	e14b30be 	strh	r3, [fp, #-14]
        while( (usLen--) > 0 )
 c0044e0:	ea000042 	b	c0045f0 <Lcd_Draw_HLine+0x198>
        {
        	(LCD_PutPixel(usX0 + usLen, usY0, ucColor));
 c0044e4:	e15b21fa 	ldrsh	r2, [fp, #-26]	; 0xffffffe6
 c0044e8:	e1a03002 	mov	r3, r2
 c0044ec:	e1a03103 	lsl	r3, r3, #2
 c0044f0:	e0833002 	add	r3, r3, r2
 c0044f4:	e1a03303 	lsl	r3, r3, #6
 c0044f8:	e1a02fa3 	lsr	r2, r3, #31
 c0044fc:	e0823003 	add	r3, r2, r3
 c004500:	e1a030c3 	asr	r3, r3, #1
 c004504:	e28326c3 	add	r2, r3, #204472320	; 0xc300000
 c004508:	e2822c96 	add	r2, r2, #38400	; 0x9600
 c00450c:	e15b11f6 	ldrsh	r1, [fp, #-22]	; 0xffffffea
 c004510:	e15b30fe 	ldrsh	r3, [fp, #-14]
 c004514:	e0813003 	add	r3, r1, r3
 c004518:	e2831007 	add	r1, r3, #7
 c00451c:	e3530000 	cmp	r3, #0
 c004520:	b1a03001 	movlt	r3, r1
 c004524:	e1a031c3 	asr	r3, r3, #3
 c004528:	e1a03103 	lsl	r3, r3, #2
 c00452c:	e0823003 	add	r3, r2, r3
 c004530:	e1a01003 	mov	r1, r3
 c004534:	e15b21fa 	ldrsh	r2, [fp, #-26]	; 0xffffffe6
 c004538:	e1a03002 	mov	r3, r2
 c00453c:	e1a03103 	lsl	r3, r3, #2
 c004540:	e0833002 	add	r3, r3, r2
 c004544:	e1a03303 	lsl	r3, r3, #6
 c004548:	e1a02fa3 	lsr	r2, r3, #31
 c00454c:	e0823003 	add	r3, r2, r3
 c004550:	e1a030c3 	asr	r3, r3, #1
 c004554:	e28326c3 	add	r2, r3, #204472320	; 0xc300000
 c004558:	e2822c96 	add	r2, r2, #38400	; 0x9600
 c00455c:	e15b01f6 	ldrsh	r0, [fp, #-22]	; 0xffffffea
 c004560:	e15b30fe 	ldrsh	r3, [fp, #-14]
 c004564:	e0803003 	add	r3, r0, r3
 c004568:	e2830007 	add	r0, r3, #7
 c00456c:	e3530000 	cmp	r3, #0
 c004570:	b1a03000 	movlt	r3, r0
 c004574:	e1a031c3 	asr	r3, r3, #3
 c004578:	e1a03103 	lsl	r3, r3, #2
 c00457c:	e0823003 	add	r3, r2, r3
 c004580:	e5930000 	ldr	r0, [r3]
 c004584:	e15b21f6 	ldrsh	r2, [fp, #-22]	; 0xffffffea
 c004588:	e15b30fe 	ldrsh	r3, [fp, #-14]
 c00458c:	e0822003 	add	r2, r2, r3
 c004590:	e1a03fc2 	asr	r3, r2, #31
 c004594:	e1a03ea3 	lsr	r3, r3, #29
 c004598:	e0822003 	add	r2, r2, r3
 c00459c:	e2022007 	and	r2, r2, #7
 c0045a0:	e0633002 	rsb	r3, r3, r2
 c0045a4:	e1a03103 	lsl	r3, r3, #2
 c0045a8:	e3a0220f 	mov	r2, #-268435456	; 0xf0000000
 c0045ac:	e1a03332 	lsr	r3, r2, r3
 c0045b0:	e1e03003 	mvn	r3, r3
 c0045b4:	e0000003 	and	r0, r0, r3
 c0045b8:	e55bc01b 	ldrb	ip, [fp, #-27]	; 0xffffffe5
 c0045bc:	e15b21f6 	ldrsh	r2, [fp, #-22]	; 0xffffffea
 c0045c0:	e15b30fe 	ldrsh	r3, [fp, #-14]
 c0045c4:	e0822003 	add	r2, r2, r3
 c0045c8:	e1a03fc2 	asr	r3, r2, #31
 c0045cc:	e1a03ea3 	lsr	r3, r3, #29
 c0045d0:	e0822003 	add	r2, r2, r3
 c0045d4:	e2022007 	and	r2, r2, #7
 c0045d8:	e0633002 	rsb	r3, r3, r2
 c0045dc:	e2633007 	rsb	r3, r3, #7
 c0045e0:	e1a03103 	lsl	r3, r3, #2
 c0045e4:	e1a0331c 	lsl	r3, ip, r3
 c0045e8:	e1803003 	orr	r3, r0, r3
 c0045ec:	e5813000 	str	r3, [r1]
    }

    while( (usWidth--) > 0 )
    {
        usLen = usX1 - usX0 + 1;
        while( (usLen--) > 0 )
 c0045f0:	e15b30fe 	ldrsh	r3, [fp, #-14]
 c0045f4:	e3530000 	cmp	r3, #0
 c0045f8:	d3a03000 	movle	r3, #0
 c0045fc:	c3a03001 	movgt	r3, #1
 c004600:	e20330ff 	and	r3, r3, #255	; 0xff
 c004604:	e15b20be 	ldrh	r2, [fp, #-14]
 c004608:	e2422001 	sub	r2, r2, #1
 c00460c:	e14b20be 	strh	r2, [fp, #-14]
 c004610:	e3530000 	cmp	r3, #0
 c004614:	1affffb2 	bne	c0044e4 <Lcd_Draw_HLine+0x8c>
        {
        	(LCD_PutPixel(usX0 + usLen, usY0, ucColor));
        }
        usY0++;
 c004618:	e15b31ba 	ldrh	r3, [fp, #-26]	; 0xffffffe6
 c00461c:	e2833001 	add	r3, r3, #1
 c004620:	e14b31ba 	strh	r3, [fp, #-26]	; 0xffffffe6
 c004624:	ea000000 	b	c00462c <Lcd_Draw_HLine+0x1d4>
    if( usX1 < usX0 )
    {
        GUISWAP (usX1, usX0);
    }

    while( (usWidth--) > 0 )
 c004628:	e1a00000 	nop			; (mov r0, r0)
 c00462c:	e1db30b4 	ldrh	r3, [fp, #4]
 c004630:	e3530000 	cmp	r3, #0
 c004634:	03a03000 	moveq	r3, #0
 c004638:	13a03001 	movne	r3, #1
 c00463c:	e20330ff 	and	r3, r3, #255	; 0xff
 c004640:	e1db20b4 	ldrh	r2, [fp, #4]
 c004644:	e2422001 	sub	r2, r2, #1
 c004648:	e1cb20b4 	strh	r2, [fp, #4]
 c00464c:	e3530000 	cmp	r3, #0
 c004650:	1affff99 	bne	c0044bc <Lcd_Draw_HLine+0x64>
        {
        	(LCD_PutPixel(usX0 + usLen, usY0, ucColor));
        }
        usY0++;
    }
}
 c004654:	e24bd00c 	sub	sp, fp, #12
 c004658:	e89d6800 	ldm	sp, {fp, sp, lr}
 c00465c:	e12fff1e 	bx	lr

0c004660 <Lcd_Draw_VLine>:
* ret:		none
* modify:
* comment:		
*********************************************************************************************/
void Lcd_Draw_VLine (INT16 usY0, INT16 usY1, INT16 usX0, INT8U ucColor, INT16U usWidth)
{
 c004660:	e1a0c00d 	mov	ip, sp
 c004664:	e92dd800 	push	{fp, ip, lr, pc}
 c004668:	e24cb004 	sub	fp, ip, #4
 c00466c:	e24dd010 	sub	sp, sp, #16
 c004670:	e14b01b6 	strh	r0, [fp, #-22]	; 0xffffffea
 c004674:	e14b11b8 	strh	r1, [fp, #-24]	; 0xffffffe8
 c004678:	e14b21ba 	strh	r2, [fp, #-26]	; 0xffffffe6
 c00467c:	e54b301b 	strb	r3, [fp, #-27]	; 0xffffffe5
	INT16 usLen;

    if( usY1 < usY0 )
 c004680:	e15b21f8 	ldrsh	r2, [fp, #-24]	; 0xffffffe8
 c004684:	e15b31f6 	ldrsh	r3, [fp, #-22]	; 0xffffffea
 c004688:	e1520003 	cmp	r2, r3
 c00468c:	aa000073 	bge	c004860 <Lcd_Draw_VLine+0x200>
    {
        GUISWAP (usY1, usY0);
 c004690:	e15b21b8 	ldrh	r2, [fp, #-24]	; 0xffffffe8
 c004694:	e15b31b6 	ldrh	r3, [fp, #-22]	; 0xffffffea
 c004698:	e0223003 	eor	r3, r2, r3
 c00469c:	e14b31b8 	strh	r3, [fp, #-24]	; 0xffffffe8
 c0046a0:	e15b21b6 	ldrh	r2, [fp, #-22]	; 0xffffffea
 c0046a4:	e15b31b8 	ldrh	r3, [fp, #-24]	; 0xffffffe8
 c0046a8:	e0223003 	eor	r3, r2, r3
 c0046ac:	e14b31b6 	strh	r3, [fp, #-22]	; 0xffffffea
 c0046b0:	e15b21b8 	ldrh	r2, [fp, #-24]	; 0xffffffe8
 c0046b4:	e15b31b6 	ldrh	r3, [fp, #-22]	; 0xffffffea
 c0046b8:	e0223003 	eor	r3, r2, r3
 c0046bc:	e14b31b8 	strh	r3, [fp, #-24]	; 0xffffffe8
    }

    while( (usWidth--) > 0 )
 c0046c0:	ea000067 	b	c004864 <Lcd_Draw_VLine+0x204>
    {
        usLen = usY1 - usY0 + 1;
 c0046c4:	e15b21b8 	ldrh	r2, [fp, #-24]	; 0xffffffe8
 c0046c8:	e15b31b6 	ldrh	r3, [fp, #-22]	; 0xffffffea
 c0046cc:	e0633002 	rsb	r3, r3, r2
 c0046d0:	e1a03803 	lsl	r3, r3, #16
 c0046d4:	e1a03823 	lsr	r3, r3, #16
 c0046d8:	e2833001 	add	r3, r3, #1
 c0046dc:	e1a03803 	lsl	r3, r3, #16
 c0046e0:	e1a03823 	lsr	r3, r3, #16
 c0046e4:	e14b30be 	strh	r3, [fp, #-14]
        while( (usLen--) > 0 )
 c0046e8:	ea00004e 	b	c004828 <Lcd_Draw_VLine+0x1c8>
        {
        	(LCD_PutPixel(usX0, usY0 + usLen, ucColor));
 c0046ec:	e15b21f6 	ldrsh	r2, [fp, #-22]	; 0xffffffea
 c0046f0:	e15b30fe 	ldrsh	r3, [fp, #-14]
 c0046f4:	e0822003 	add	r2, r2, r3
 c0046f8:	e1a03002 	mov	r3, r2
 c0046fc:	e1a03103 	lsl	r3, r3, #2
 c004700:	e0833002 	add	r3, r3, r2
 c004704:	e1a03303 	lsl	r3, r3, #6
 c004708:	e1a02fa3 	lsr	r2, r3, #31
 c00470c:	e0823003 	add	r3, r2, r3
 c004710:	e1a030c3 	asr	r3, r3, #1
 c004714:	e28326c3 	add	r2, r3, #204472320	; 0xc300000
 c004718:	e2822c96 	add	r2, r2, #38400	; 0x9600
 c00471c:	e15b31fa 	ldrsh	r3, [fp, #-26]	; 0xffffffe6
 c004720:	e2831007 	add	r1, r3, #7
 c004724:	e3530000 	cmp	r3, #0
 c004728:	b1a03001 	movlt	r3, r1
 c00472c:	e1a031c3 	asr	r3, r3, #3
 c004730:	e1a03803 	lsl	r3, r3, #16
 c004734:	e1a03823 	lsr	r3, r3, #16
 c004738:	e1a03803 	lsl	r3, r3, #16
 c00473c:	e1a03843 	asr	r3, r3, #16
 c004740:	e1a03103 	lsl	r3, r3, #2
 c004744:	e0823003 	add	r3, r2, r3
 c004748:	e1a01003 	mov	r1, r3
 c00474c:	e15b21f6 	ldrsh	r2, [fp, #-22]	; 0xffffffea
 c004750:	e15b30fe 	ldrsh	r3, [fp, #-14]
 c004754:	e0822003 	add	r2, r2, r3
 c004758:	e1a03002 	mov	r3, r2
 c00475c:	e1a03103 	lsl	r3, r3, #2
 c004760:	e0833002 	add	r3, r3, r2
 c004764:	e1a03303 	lsl	r3, r3, #6
 c004768:	e1a02fa3 	lsr	r2, r3, #31
 c00476c:	e0823003 	add	r3, r2, r3
 c004770:	e1a030c3 	asr	r3, r3, #1
 c004774:	e28326c3 	add	r2, r3, #204472320	; 0xc300000
 c004778:	e2822c96 	add	r2, r2, #38400	; 0x9600
 c00477c:	e15b31fa 	ldrsh	r3, [fp, #-26]	; 0xffffffe6
 c004780:	e2830007 	add	r0, r3, #7
 c004784:	e3530000 	cmp	r3, #0
 c004788:	b1a03000 	movlt	r3, r0
 c00478c:	e1a031c3 	asr	r3, r3, #3
 c004790:	e1a03803 	lsl	r3, r3, #16
 c004794:	e1a03823 	lsr	r3, r3, #16
 c004798:	e1a03803 	lsl	r3, r3, #16
 c00479c:	e1a03843 	asr	r3, r3, #16
 c0047a0:	e1a03103 	lsl	r3, r3, #2
 c0047a4:	e0823003 	add	r3, r2, r3
 c0047a8:	e5930000 	ldr	r0, [r3]
 c0047ac:	e15b21fa 	ldrsh	r2, [fp, #-26]	; 0xffffffe6
 c0047b0:	e1a03fc2 	asr	r3, r2, #31
 c0047b4:	e1a03ea3 	lsr	r3, r3, #29
 c0047b8:	e0822003 	add	r2, r2, r3
 c0047bc:	e2022007 	and	r2, r2, #7
 c0047c0:	e0633002 	rsb	r3, r3, r2
 c0047c4:	e1a03803 	lsl	r3, r3, #16
 c0047c8:	e1a03823 	lsr	r3, r3, #16
 c0047cc:	e1a03803 	lsl	r3, r3, #16
 c0047d0:	e1a03843 	asr	r3, r3, #16
 c0047d4:	e1a03103 	lsl	r3, r3, #2
 c0047d8:	e3a0220f 	mov	r2, #-268435456	; 0xf0000000
 c0047dc:	e1a03332 	lsr	r3, r2, r3
 c0047e0:	e1e03003 	mvn	r3, r3
 c0047e4:	e0000003 	and	r0, r0, r3
 c0047e8:	e55bc01b 	ldrb	ip, [fp, #-27]	; 0xffffffe5
 c0047ec:	e15b21fa 	ldrsh	r2, [fp, #-26]	; 0xffffffe6
 c0047f0:	e1a03fc2 	asr	r3, r2, #31
 c0047f4:	e1a03ea3 	lsr	r3, r3, #29
 c0047f8:	e0822003 	add	r2, r2, r3
 c0047fc:	e2022007 	and	r2, r2, #7
 c004800:	e0633002 	rsb	r3, r3, r2
 c004804:	e1a03803 	lsl	r3, r3, #16
 c004808:	e1a03823 	lsr	r3, r3, #16
 c00480c:	e1a03803 	lsl	r3, r3, #16
 c004810:	e1a03843 	asr	r3, r3, #16
 c004814:	e2633007 	rsb	r3, r3, #7
 c004818:	e1a03103 	lsl	r3, r3, #2
 c00481c:	e1a0331c 	lsl	r3, ip, r3
 c004820:	e1803003 	orr	r3, r0, r3
 c004824:	e5813000 	str	r3, [r1]
    }

    while( (usWidth--) > 0 )
    {
        usLen = usY1 - usY0 + 1;
        while( (usLen--) > 0 )
 c004828:	e15b30fe 	ldrsh	r3, [fp, #-14]
 c00482c:	e3530000 	cmp	r3, #0
 c004830:	d3a03000 	movle	r3, #0
 c004834:	c3a03001 	movgt	r3, #1
 c004838:	e20330ff 	and	r3, r3, #255	; 0xff
 c00483c:	e15b20be 	ldrh	r2, [fp, #-14]
 c004840:	e2422001 	sub	r2, r2, #1
 c004844:	e14b20be 	strh	r2, [fp, #-14]
 c004848:	e3530000 	cmp	r3, #0
 c00484c:	1affffa6 	bne	c0046ec <Lcd_Draw_VLine+0x8c>
        {
        	(LCD_PutPixel(usX0, usY0 + usLen, ucColor));
        }
        usX0++;
 c004850:	e15b31ba 	ldrh	r3, [fp, #-26]	; 0xffffffe6
 c004854:	e2833001 	add	r3, r3, #1
 c004858:	e14b31ba 	strh	r3, [fp, #-26]	; 0xffffffe6
 c00485c:	ea000000 	b	c004864 <Lcd_Draw_VLine+0x204>
    if( usY1 < usY0 )
    {
        GUISWAP (usY1, usY0);
    }

    while( (usWidth--) > 0 )
 c004860:	e1a00000 	nop			; (mov r0, r0)
 c004864:	e1db30b4 	ldrh	r3, [fp, #4]
 c004868:	e3530000 	cmp	r3, #0
 c00486c:	03a03000 	moveq	r3, #0
 c004870:	13a03001 	movne	r3, #1
 c004874:	e20330ff 	and	r3, r3, #255	; 0xff
 c004878:	e1db20b4 	ldrh	r2, [fp, #4]
 c00487c:	e2422001 	sub	r2, r2, #1
 c004880:	e1cb20b4 	strh	r2, [fp, #4]
 c004884:	e3530000 	cmp	r3, #0
 c004888:	1affff8d 	bne	c0046c4 <Lcd_Draw_VLine+0x64>
        {
        	(LCD_PutPixel(usX0, usY0 + usLen, ucColor));
        }
        usX0++;
    }
}
 c00488c:	e24bd00c 	sub	sp, fp, #12
 c004890:	e89d6800 	ldm	sp, {fp, sp, lr}
 c004894:	e12fff1e 	bx	lr

0c004898 <Lcd_DisplayString>:

void Lcd_DisplayString(INT16U usX0, INT16U usY0, INT8U *pucStr){
 c004898:	e1a0c00d 	mov	ip, sp
 c00489c:	e92dd800 	push	{fp, ip, lr, pc}
 c0048a0:	e24cb004 	sub	fp, ip, #4
 c0048a4:	e24dd008 	sub	sp, sp, #8
 c0048a8:	e1a03001 	mov	r3, r1
 c0048ac:	e50b2014 	str	r2, [fp, #-20]	; 0xffffffec
 c0048b0:	e14b00be 	strh	r0, [fp, #-14]
 c0048b4:	e14b31b0 	strh	r3, [fp, #-16]

}
 c0048b8:	e24bd00c 	sub	sp, fp, #12
 c0048bc:	e89d6800 	ldm	sp, {fp, sp, lr}
 c0048c0:	e12fff1e 	bx	lr

0c0048c4 <Lcd_DspAscII8x16>:
* ret:		none
* modify:
* comment:		
*********************************************************************************************/
void Lcd_DspAscII8x16(INT16U x0, INT16U y0, INT8U ForeColor, INT8U * s)
{
 c0048c4:	e1a0c00d 	mov	ip, sp
 c0048c8:	e92dd810 	push	{r4, fp, ip, lr, pc}
 c0048cc:	e24cb004 	sub	fp, ip, #4
 c0048d0:	e24dd03c 	sub	sp, sp, #60	; 0x3c
 c0048d4:	e50b3048 	str	r3, [fp, #-72]	; 0xffffffb8
 c0048d8:	e14b03be 	strh	r0, [fp, #-62]	; 0xffffffc2
 c0048dc:	e14b14b0 	strh	r1, [fp, #-64]	; 0xffffffc0
 c0048e0:	e1a03002 	mov	r3, r2
 c0048e4:	e54b3041 	strb	r3, [fp, #-65]	; 0xffffffbf
	INT16 i,j,k,x,y,xx;
	INT8U qm;
	INT32U ulOffset;
	INT8 ywbuf[16],temp[2];
    
	for( i = 0; i < strlen((const char*)s); i++ )
 c0048e8:	e3a03000 	mov	r3, #0
 c0048ec:	e14b31b6 	strh	r3, [fp, #-22]	; 0xffffffea
 c0048f0:	ea0000ae 	b	c004bb0 <Lcd_DspAscII8x16+0x2ec>
	{
		if( (INT8U)*(s+i) >= 161 )
 c0048f4:	e15b31f6 	ldrsh	r3, [fp, #-22]	; 0xffffffea
 c0048f8:	e51b2048 	ldr	r2, [fp, #-72]	; 0xffffffb8
 c0048fc:	e0823003 	add	r3, r2, r3
 c004900:	e5d33000 	ldrb	r3, [r3]
 c004904:	e35300a0 	cmp	r3, #160	; 0xa0
 c004908:	9a000007 	bls	c00492c <Lcd_DspAscII8x16+0x68>
		{
			temp[0] = *(s + i);
 c00490c:	e15b31f6 	ldrsh	r3, [fp, #-22]	; 0xffffffea
 c004910:	e51b2048 	ldr	r2, [fp, #-72]	; 0xffffffb8
 c004914:	e0823003 	add	r3, r2, r3
 c004918:	e5d33000 	ldrb	r3, [r3]
 c00491c:	e54b303c 	strb	r3, [fp, #-60]	; 0xffffffc4
			temp[1] = '\0';
 c004920:	e3a03000 	mov	r3, #0
 c004924:	e54b303b 	strb	r3, [fp, #-59]	; 0xffffffc5
			return;
 c004928:	ea0000a6 	b	c004bc8 <Lcd_DspAscII8x16+0x304>
		}
		else
		{
			qm = *(s+i);
 c00492c:	e15b31f6 	ldrsh	r3, [fp, #-22]	; 0xffffffea
 c004930:	e51b2048 	ldr	r2, [fp, #-72]	; 0xffffffb8
 c004934:	e0823003 	add	r3, r2, r3
 c004938:	e5d33000 	ldrb	r3, [r3]
 c00493c:	e54b301d 	strb	r3, [fp, #-29]	; 0xffffffe3
			ulOffset = (INT32U)(qm) * 16;		//Here to be changed tomorrow
 c004940:	e55b301d 	ldrb	r3, [fp, #-29]	; 0xffffffe3
 c004944:	e1a03203 	lsl	r3, r3, #4
 c004948:	e50b3024 	str	r3, [fp, #-36]	; 0xffffffdc
			for( j = 0; j < 16; j ++ )
 c00494c:	e3a03000 	mov	r3, #0
 c004950:	e14b31b8 	strh	r3, [fp, #-24]	; 0xffffffe8
 c004954:	ea00000d 	b	c004990 <Lcd_DspAscII8x16+0xcc>
			{
				ywbuf[j] = g_auc_Ascii8x16[ulOffset + j];
 c004958:	e15b11f8 	ldrsh	r1, [fp, #-24]	; 0xffffffe8
 c00495c:	e15b21f8 	ldrsh	r2, [fp, #-24]	; 0xffffffe8
 c004960:	e51b3024 	ldr	r3, [fp, #-36]	; 0xffffffdc
 c004964:	e0823003 	add	r3, r2, r3
 c004968:	e59f2264 	ldr	r2, [pc, #612]	; c004bd4 <Lcd_DspAscII8x16+0x310>
 c00496c:	e7d22003 	ldrb	r2, [r2, r3]
 c004970:	e3e03023 	mvn	r3, #35	; 0x23
 c004974:	e24b0014 	sub	r0, fp, #20
 c004978:	e0801001 	add	r1, r0, r1
 c00497c:	e0813003 	add	r3, r1, r3
 c004980:	e5c32000 	strb	r2, [r3]
		}
		else
		{
			qm = *(s+i);
			ulOffset = (INT32U)(qm) * 16;		//Here to be changed tomorrow
			for( j = 0; j < 16; j ++ )
 c004984:	e15b31b8 	ldrh	r3, [fp, #-24]	; 0xffffffe8
 c004988:	e2833001 	add	r3, r3, #1
 c00498c:	e14b31b8 	strh	r3, [fp, #-24]	; 0xffffffe8
 c004990:	e15b31f8 	ldrsh	r3, [fp, #-24]	; 0xffffffe8
 c004994:	e353000f 	cmp	r3, #15
 c004998:	daffffee 	ble	c004958 <Lcd_DspAscII8x16+0x94>
			{
				ywbuf[j] = g_auc_Ascii8x16[ulOffset + j];
            }

            for( y = 0; y < 16; y++ )
 c00499c:	e3a03000 	mov	r3, #0
 c0049a0:	e14b31bc 	strh	r3, [fp, #-28]	; 0xffffffe4
 c0049a4:	ea00007b 	b	c004b98 <Lcd_DspAscII8x16+0x2d4>
            {
            	for( x = 0; x < 8; x++ ) 
 c0049a8:	e3a03000 	mov	r3, #0
 c0049ac:	e14b31ba 	strh	r3, [fp, #-26]	; 0xffffffe6
 c0049b0:	ea000072 	b	c004b80 <Lcd_DspAscII8x16+0x2bc>
               	{
                	k = x % 8;
 c0049b4:	e15b21fa 	ldrsh	r2, [fp, #-26]	; 0xffffffe6
 c0049b8:	e1a03fc2 	asr	r3, r2, #31
 c0049bc:	e1a03ea3 	lsr	r3, r3, #29
 c0049c0:	e0822003 	add	r2, r2, r3
 c0049c4:	e2022007 	and	r2, r2, #7
 c0049c8:	e0633002 	rsb	r3, r3, r2
 c0049cc:	e14b32b6 	strh	r3, [fp, #-38]	; 0xffffffda
			    	if( ywbuf[y]  & (0x80 >> k) )
 c0049d0:	e15b21fc 	ldrsh	r2, [fp, #-28]	; 0xffffffe4
 c0049d4:	e3e03023 	mvn	r3, #35	; 0x23
 c0049d8:	e24b1014 	sub	r1, fp, #20
 c0049dc:	e0812002 	add	r2, r1, r2
 c0049e0:	e0823003 	add	r3, r2, r3
 c0049e4:	e5d33000 	ldrb	r3, [r3]
 c0049e8:	e1a02003 	mov	r2, r3
 c0049ec:	e15b32f6 	ldrsh	r3, [fp, #-38]	; 0xffffffda
 c0049f0:	e3a01080 	mov	r1, #128	; 0x80
 c0049f4:	e1a03351 	asr	r3, r1, r3
 c0049f8:	e0023003 	and	r3, r2, r3
 c0049fc:	e3530000 	cmp	r3, #0
 c004a00:	0a00005b 	beq	c004b74 <Lcd_DspAscII8x16+0x2b0>
			       	{
			       		xx = x0 + x + i*8;
 c004a04:	e15b21ba 	ldrh	r2, [fp, #-26]	; 0xffffffe6
 c004a08:	e15b33be 	ldrh	r3, [fp, #-62]	; 0xffffffc2
 c004a0c:	e0823003 	add	r3, r2, r3
 c004a10:	e1a03803 	lsl	r3, r3, #16
 c004a14:	e1a02823 	lsr	r2, r3, #16
 c004a18:	e15b31b6 	ldrh	r3, [fp, #-22]	; 0xffffffea
 c004a1c:	e1a03183 	lsl	r3, r3, #3
 c004a20:	e1a03803 	lsl	r3, r3, #16
 c004a24:	e1a03823 	lsr	r3, r3, #16
 c004a28:	e0823003 	add	r3, r2, r3
 c004a2c:	e1a03803 	lsl	r3, r3, #16
 c004a30:	e1a03823 	lsr	r3, r3, #16
 c004a34:	e14b32b8 	strh	r3, [fp, #-40]	; 0xffffffd8
			       		(LCD_PutPixel(xx, y + y0, (INT8U)ForeColor));
 c004a38:	e15b21fc 	ldrsh	r2, [fp, #-28]	; 0xffffffe4
 c004a3c:	e15b34b0 	ldrh	r3, [fp, #-64]	; 0xffffffc0
 c004a40:	e0822003 	add	r2, r2, r3
 c004a44:	e1a03002 	mov	r3, r2
 c004a48:	e1a03103 	lsl	r3, r3, #2
 c004a4c:	e0833002 	add	r3, r3, r2
 c004a50:	e1a03303 	lsl	r3, r3, #6
 c004a54:	e1a02fa3 	lsr	r2, r3, #31
 c004a58:	e0823003 	add	r3, r2, r3
 c004a5c:	e1a030c3 	asr	r3, r3, #1
 c004a60:	e28326c3 	add	r2, r3, #204472320	; 0xc300000
 c004a64:	e2822c96 	add	r2, r2, #38400	; 0x9600
 c004a68:	e15b32f8 	ldrsh	r3, [fp, #-40]	; 0xffffffd8
 c004a6c:	e2831007 	add	r1, r3, #7
 c004a70:	e3530000 	cmp	r3, #0
 c004a74:	b1a03001 	movlt	r3, r1
 c004a78:	e1a031c3 	asr	r3, r3, #3
 c004a7c:	e1a03803 	lsl	r3, r3, #16
 c004a80:	e1a03823 	lsr	r3, r3, #16
 c004a84:	e1a03803 	lsl	r3, r3, #16
 c004a88:	e1a03843 	asr	r3, r3, #16
 c004a8c:	e1a03103 	lsl	r3, r3, #2
 c004a90:	e0823003 	add	r3, r2, r3
 c004a94:	e1a01003 	mov	r1, r3
 c004a98:	e15b21fc 	ldrsh	r2, [fp, #-28]	; 0xffffffe4
 c004a9c:	e15b34b0 	ldrh	r3, [fp, #-64]	; 0xffffffc0
 c004aa0:	e0822003 	add	r2, r2, r3
 c004aa4:	e1a03002 	mov	r3, r2
 c004aa8:	e1a03103 	lsl	r3, r3, #2
 c004aac:	e0833002 	add	r3, r3, r2
 c004ab0:	e1a03303 	lsl	r3, r3, #6
 c004ab4:	e1a02fa3 	lsr	r2, r3, #31
 c004ab8:	e0823003 	add	r3, r2, r3
 c004abc:	e1a030c3 	asr	r3, r3, #1
 c004ac0:	e28326c3 	add	r2, r3, #204472320	; 0xc300000
 c004ac4:	e2822c96 	add	r2, r2, #38400	; 0x9600
 c004ac8:	e15b32f8 	ldrsh	r3, [fp, #-40]	; 0xffffffd8
 c004acc:	e2830007 	add	r0, r3, #7
 c004ad0:	e3530000 	cmp	r3, #0
 c004ad4:	b1a03000 	movlt	r3, r0
 c004ad8:	e1a031c3 	asr	r3, r3, #3
 c004adc:	e1a03803 	lsl	r3, r3, #16
 c004ae0:	e1a03823 	lsr	r3, r3, #16
 c004ae4:	e1a03803 	lsl	r3, r3, #16
 c004ae8:	e1a03843 	asr	r3, r3, #16
 c004aec:	e1a03103 	lsl	r3, r3, #2
 c004af0:	e0823003 	add	r3, r2, r3
 c004af4:	e5930000 	ldr	r0, [r3]
 c004af8:	e15b22f8 	ldrsh	r2, [fp, #-40]	; 0xffffffd8
 c004afc:	e1a03fc2 	asr	r3, r2, #31
 c004b00:	e1a03ea3 	lsr	r3, r3, #29
 c004b04:	e0822003 	add	r2, r2, r3
 c004b08:	e2022007 	and	r2, r2, #7
 c004b0c:	e0633002 	rsb	r3, r3, r2
 c004b10:	e1a03803 	lsl	r3, r3, #16
 c004b14:	e1a03823 	lsr	r3, r3, #16
 c004b18:	e1a03803 	lsl	r3, r3, #16
 c004b1c:	e1a03843 	asr	r3, r3, #16
 c004b20:	e1a03103 	lsl	r3, r3, #2
 c004b24:	e3a0220f 	mov	r2, #-268435456	; 0xf0000000
 c004b28:	e1a03332 	lsr	r3, r2, r3
 c004b2c:	e1e03003 	mvn	r3, r3
 c004b30:	e0000003 	and	r0, r0, r3
 c004b34:	e55bc041 	ldrb	ip, [fp, #-65]	; 0xffffffbf
 c004b38:	e15b22f8 	ldrsh	r2, [fp, #-40]	; 0xffffffd8
 c004b3c:	e1a03fc2 	asr	r3, r2, #31
 c004b40:	e1a03ea3 	lsr	r3, r3, #29
 c004b44:	e0822003 	add	r2, r2, r3
 c004b48:	e2022007 	and	r2, r2, #7
 c004b4c:	e0633002 	rsb	r3, r3, r2
 c004b50:	e1a03803 	lsl	r3, r3, #16
 c004b54:	e1a03823 	lsr	r3, r3, #16
 c004b58:	e1a03803 	lsl	r3, r3, #16
 c004b5c:	e1a03843 	asr	r3, r3, #16
 c004b60:	e2633007 	rsb	r3, r3, #7
 c004b64:	e1a03103 	lsl	r3, r3, #2
 c004b68:	e1a0331c 	lsl	r3, ip, r3
 c004b6c:	e1803003 	orr	r3, r0, r3
 c004b70:	e5813000 	str	r3, [r1]
				ywbuf[j] = g_auc_Ascii8x16[ulOffset + j];
            }

            for( y = 0; y < 16; y++ )
            {
            	for( x = 0; x < 8; x++ ) 
 c004b74:	e15b31ba 	ldrh	r3, [fp, #-26]	; 0xffffffe6
 c004b78:	e2833001 	add	r3, r3, #1
 c004b7c:	e14b31ba 	strh	r3, [fp, #-26]	; 0xffffffe6
 c004b80:	e15b31fa 	ldrsh	r3, [fp, #-26]	; 0xffffffe6
 c004b84:	e3530007 	cmp	r3, #7
 c004b88:	daffff89 	ble	c0049b4 <Lcd_DspAscII8x16+0xf0>
			for( j = 0; j < 16; j ++ )
			{
				ywbuf[j] = g_auc_Ascii8x16[ulOffset + j];
            }

            for( y = 0; y < 16; y++ )
 c004b8c:	e15b31bc 	ldrh	r3, [fp, #-28]	; 0xffffffe4
 c004b90:	e2833001 	add	r3, r3, #1
 c004b94:	e14b31bc 	strh	r3, [fp, #-28]	; 0xffffffe4
 c004b98:	e15b31fc 	ldrsh	r3, [fp, #-28]	; 0xffffffe4
 c004b9c:	e353000f 	cmp	r3, #15
 c004ba0:	daffff80 	ble	c0049a8 <Lcd_DspAscII8x16+0xe4>
	INT16 i,j,k,x,y,xx;
	INT8U qm;
	INT32U ulOffset;
	INT8 ywbuf[16],temp[2];
    
	for( i = 0; i < strlen((const char*)s); i++ )
 c004ba4:	e15b31b6 	ldrh	r3, [fp, #-22]	; 0xffffffea
 c004ba8:	e2833001 	add	r3, r3, #1
 c004bac:	e14b31b6 	strh	r3, [fp, #-22]	; 0xffffffea
 c004bb0:	e15b41f6 	ldrsh	r4, [fp, #-22]	; 0xffffffea
 c004bb4:	e51b0048 	ldr	r0, [fp, #-72]	; 0xffffffb8
 c004bb8:	eb001c71 	bl	c00bd84 <strlen>
 c004bbc:	e1a03000 	mov	r3, r0
 c004bc0:	e1540003 	cmp	r4, r3
 c004bc4:	3affff4a 	bcc	c0048f4 <Lcd_DspAscII8x16+0x30>
			       	}
			   	}
            }
		}
	}
}
 c004bc8:	e24bd010 	sub	sp, fp, #16
 c004bcc:	e89d6810 	ldm	sp, {r4, fp, sp, lr}
 c004bd0:	e12fff1e 	bx	lr
 c004bd4:	0c00d700 	.word	0x0c00d700

0c004bd8 <Lcd_DspAscII6x8>:
* ret:		none
* modify:
* comment:
*********************************************************************************************/
void Lcd_DspAscII6x8(INT16U usX0, INT16U usY0,INT8U ForeColor, INT8U* pucChar)
{
 c004bd8:	e1a0c00d 	mov	ip, sp
 c004bdc:	e92dd800 	push	{fp, ip, lr, pc}
 c004be0:	e24cb004 	sub	fp, ip, #4
 c004be4:	e24dd020 	sub	sp, sp, #32
 c004be8:	e50b3028 	str	r3, [fp, #-40]	; 0xffffffd8
 c004bec:	e14b01be 	strh	r0, [fp, #-30]	; 0xffffffe2
 c004bf0:	e14b12b0 	strh	r1, [fp, #-32]	; 0xffffffe0
 c004bf4:	e1a03002 	mov	r3, r2
 c004bf8:	e54b3021 	strb	r3, [fp, #-33]	; 0xffffffdf
	INT32U i,j;
	INT8U  ucTemp;

	while( *pucChar != 0 )
 c004bfc:	ea00005e 	b	c004d7c <Lcd_DspAscII6x8+0x1a4>
	{
		for( i=0; i < 8; i++ )
 c004c00:	e3a03000 	mov	r3, #0
 c004c04:	e50b3010 	str	r3, [fp, #-16]
 c004c08:	ea000052 	b	c004d58 <Lcd_DspAscII6x8+0x180>
		{
  			ucTemp = g_auc_Ascii6x8[(*pucChar) * 8 + i];
 c004c0c:	e51b3028 	ldr	r3, [fp, #-40]	; 0xffffffd8
 c004c10:	e5d33000 	ldrb	r3, [r3]
 c004c14:	e1a03183 	lsl	r3, r3, #3
 c004c18:	e1a02003 	mov	r2, r3
 c004c1c:	e51b3010 	ldr	r3, [fp, #-16]
 c004c20:	e0823003 	add	r3, r2, r3
 c004c24:	e59f216c 	ldr	r2, [pc, #364]	; c004d98 <Lcd_DspAscII6x8+0x1c0>
 c004c28:	e7d23003 	ldrb	r3, [r2, r3]
 c004c2c:	e54b3015 	strb	r3, [fp, #-21]	; 0xffffffeb
  			for( j = 0; j < 8; j++ )
 c004c30:	e3a03000 	mov	r3, #0
 c004c34:	e50b3014 	str	r3, [fp, #-20]	; 0xffffffec
 c004c38:	ea000040 	b	c004d40 <Lcd_DspAscII6x8+0x168>
  			{
  				if( (ucTemp & (0x80 >> j)) != 0 )
 c004c3c:	e55b2015 	ldrb	r2, [fp, #-21]	; 0xffffffeb
 c004c40:	e51b3014 	ldr	r3, [fp, #-20]	; 0xffffffec
 c004c44:	e3a01080 	mov	r1, #128	; 0x80
 c004c48:	e1a03351 	asr	r3, r1, r3
 c004c4c:	e0023003 	and	r3, r2, r3
 c004c50:	e3530000 	cmp	r3, #0
 c004c54:	0a000036 	beq	c004d34 <Lcd_DspAscII6x8+0x15c>
  				{
  					LCD_PutPixel(usX0 + i, usY0 + 8 - j, (INT8U)ForeColor);
 c004c58:	e15b22b0 	ldrh	r2, [fp, #-32]	; 0xffffffe0
 c004c5c:	e51b3014 	ldr	r3, [fp, #-20]	; 0xffffffec
 c004c60:	e0632002 	rsb	r2, r3, r2
 c004c64:	e1a03002 	mov	r3, r2
 c004c68:	e1a03103 	lsl	r3, r3, #2
 c004c6c:	e0833002 	add	r3, r3, r2
 c004c70:	e1a03303 	lsl	r3, r3, #6
 c004c74:	e2833c0a 	add	r3, r3, #2560	; 0xa00
 c004c78:	e1a020a3 	lsr	r2, r3, #1
 c004c7c:	e15b11be 	ldrh	r1, [fp, #-30]	; 0xffffffe2
 c004c80:	e51b3010 	ldr	r3, [fp, #-16]
 c004c84:	e0813003 	add	r3, r1, r3
 c004c88:	e1a031a3 	lsr	r3, r3, #3
 c004c8c:	e1a03103 	lsl	r3, r3, #2
 c004c90:	e0823003 	add	r3, r2, r3
 c004c94:	e28336c3 	add	r3, r3, #204472320	; 0xc300000
 c004c98:	e2833c96 	add	r3, r3, #38400	; 0x9600
 c004c9c:	e1a01003 	mov	r1, r3
 c004ca0:	e15b22b0 	ldrh	r2, [fp, #-32]	; 0xffffffe0
 c004ca4:	e51b3014 	ldr	r3, [fp, #-20]	; 0xffffffec
 c004ca8:	e0632002 	rsb	r2, r3, r2
 c004cac:	e1a03002 	mov	r3, r2
 c004cb0:	e1a03103 	lsl	r3, r3, #2
 c004cb4:	e0833002 	add	r3, r3, r2
 c004cb8:	e1a03303 	lsl	r3, r3, #6
 c004cbc:	e2833c0a 	add	r3, r3, #2560	; 0xa00
 c004cc0:	e1a020a3 	lsr	r2, r3, #1
 c004cc4:	e15b01be 	ldrh	r0, [fp, #-30]	; 0xffffffe2
 c004cc8:	e51b3010 	ldr	r3, [fp, #-16]
 c004ccc:	e0803003 	add	r3, r0, r3
 c004cd0:	e1a031a3 	lsr	r3, r3, #3
 c004cd4:	e1a03103 	lsl	r3, r3, #2
 c004cd8:	e0823003 	add	r3, r2, r3
 c004cdc:	e28336c3 	add	r3, r3, #204472320	; 0xc300000
 c004ce0:	e2833c96 	add	r3, r3, #38400	; 0x9600
 c004ce4:	e5932000 	ldr	r2, [r3]
 c004ce8:	e15b01be 	ldrh	r0, [fp, #-30]	; 0xffffffe2
 c004cec:	e51b3010 	ldr	r3, [fp, #-16]
 c004cf0:	e0803003 	add	r3, r0, r3
 c004cf4:	e2033007 	and	r3, r3, #7
 c004cf8:	e1a03103 	lsl	r3, r3, #2
 c004cfc:	e3a0020f 	mov	r0, #-268435456	; 0xf0000000
 c004d00:	e1a03330 	lsr	r3, r0, r3
 c004d04:	e1e03003 	mvn	r3, r3
 c004d08:	e0022003 	and	r2, r2, r3
 c004d0c:	e55b0021 	ldrb	r0, [fp, #-33]	; 0xffffffdf
 c004d10:	e15bc1be 	ldrh	ip, [fp, #-30]	; 0xffffffe2
 c004d14:	e51b3010 	ldr	r3, [fp, #-16]
 c004d18:	e08c3003 	add	r3, ip, r3
 c004d1c:	e1e03003 	mvn	r3, r3
 c004d20:	e2033007 	and	r3, r3, #7
 c004d24:	e1a03103 	lsl	r3, r3, #2
 c004d28:	e1a03310 	lsl	r3, r0, r3
 c004d2c:	e1823003 	orr	r3, r2, r3
 c004d30:	e5813000 	str	r3, [r1]
	while( *pucChar != 0 )
	{
		for( i=0; i < 8; i++ )
		{
  			ucTemp = g_auc_Ascii6x8[(*pucChar) * 8 + i];
  			for( j = 0; j < 8; j++ )
 c004d34:	e51b3014 	ldr	r3, [fp, #-20]	; 0xffffffec
 c004d38:	e2833001 	add	r3, r3, #1
 c004d3c:	e50b3014 	str	r3, [fp, #-20]	; 0xffffffec
 c004d40:	e51b3014 	ldr	r3, [fp, #-20]	; 0xffffffec
 c004d44:	e3530007 	cmp	r3, #7
 c004d48:	9affffbb 	bls	c004c3c <Lcd_DspAscII6x8+0x64>
	INT32U i,j;
	INT8U  ucTemp;

	while( *pucChar != 0 )
	{
		for( i=0; i < 8; i++ )
 c004d4c:	e51b3010 	ldr	r3, [fp, #-16]
 c004d50:	e2833001 	add	r3, r3, #1
 c004d54:	e50b3010 	str	r3, [fp, #-16]
 c004d58:	e51b3010 	ldr	r3, [fp, #-16]
 c004d5c:	e3530007 	cmp	r3, #7
 c004d60:	9affffa9 	bls	c004c0c <Lcd_DspAscII6x8+0x34>
  				{
  					LCD_PutPixel(usX0 + i, usY0 + 8 - j, (INT8U)ForeColor);
  				}
  			}
		}
		usX0 += XWIDTH;
 c004d64:	e15b31be 	ldrh	r3, [fp, #-30]	; 0xffffffe2
 c004d68:	e2833006 	add	r3, r3, #6
 c004d6c:	e14b31be 	strh	r3, [fp, #-30]	; 0xffffffe2
		pucChar++;
 c004d70:	e51b3028 	ldr	r3, [fp, #-40]	; 0xffffffd8
 c004d74:	e2833001 	add	r3, r3, #1
 c004d78:	e50b3028 	str	r3, [fp, #-40]	; 0xffffffd8
void Lcd_DspAscII6x8(INT16U usX0, INT16U usY0,INT8U ForeColor, INT8U* pucChar)
{
	INT32U i,j;
	INT8U  ucTemp;

	while( *pucChar != 0 )
 c004d7c:	e51b3028 	ldr	r3, [fp, #-40]	; 0xffffffd8
 c004d80:	e5d33000 	ldrb	r3, [r3]
 c004d84:	e3530000 	cmp	r3, #0
 c004d88:	1affff9c 	bne	c004c00 <Lcd_DspAscII6x8+0x28>
  			}
		}
		usX0 += XWIDTH;
		pucChar++;
	}
}
 c004d8c:	e24bd00c 	sub	sp, fp, #12
 c004d90:	e89d6800 	ldm	sp, {fp, sp, lr}
 c004d94:	e12fff1e 	bx	lr
 c004d98:	0c00d300 	.word	0x0c00d300

0c004d9c <ReverseLine>:
* ret:		none
* modify:
* comment:		
*********************************************************************************************/
void ReverseLine(INT32U ulHeight, INT32U ulY)
{
 c004d9c:	e1a0c00d 	mov	ip, sp
 c004da0:	e92dd800 	push	{fp, ip, lr, pc}
 c004da4:	e24cb004 	sub	fp, ip, #4
 c004da8:	e24dd018 	sub	sp, sp, #24
 c004dac:	e50b0020 	str	r0, [fp, #-32]	; 0xffffffe0
 c004db0:	e50b1024 	str	r1, [fp, #-36]	; 0xffffffdc
	INT32U i, j, temp;
	
	for( i = 0; i < ulHeight; i++ )
 c004db4:	e3a03000 	mov	r3, #0
 c004db8:	e50b3010 	str	r3, [fp, #-16]
 c004dbc:	ea00002c 	b	c004e74 <ReverseLine+0xd8>
	{
		for( j = 0; j < (SCR_XSIZE/4/2) ; j++ )
 c004dc0:	e3a03000 	mov	r3, #0
 c004dc4:	e50b3014 	str	r3, [fp, #-20]	; 0xffffffec
 c004dc8:	ea000023 	b	c004e5c <ReverseLine+0xc0>
		{
			temp = *(INT32U*)(LCD_VIRTUAL_BUFFER + (ulY+i)*SCR_XSIZE/2 + j*4);
 c004dcc:	e51b2024 	ldr	r2, [fp, #-36]	; 0xffffffdc
 c004dd0:	e51b3010 	ldr	r3, [fp, #-16]
 c004dd4:	e0822003 	add	r2, r2, r3
 c004dd8:	e1a03002 	mov	r3, r2
 c004ddc:	e1a03103 	lsl	r3, r3, #2
 c004de0:	e0833002 	add	r3, r3, r2
 c004de4:	e1a03303 	lsl	r3, r3, #6
 c004de8:	e1a020a3 	lsr	r2, r3, #1
 c004dec:	e51b3014 	ldr	r3, [fp, #-20]	; 0xffffffec
 c004df0:	e1a03103 	lsl	r3, r3, #2
 c004df4:	e0823003 	add	r3, r2, r3
 c004df8:	e28336c3 	add	r3, r3, #204472320	; 0xc300000
 c004dfc:	e2833c96 	add	r3, r3, #38400	; 0x9600
 c004e00:	e5933000 	ldr	r3, [r3]
 c004e04:	e50b3018 	str	r3, [fp, #-24]	; 0xffffffe8
			temp ^= 0xFFFFFFFF;
 c004e08:	e51b3018 	ldr	r3, [fp, #-24]	; 0xffffffe8
 c004e0c:	e1e03003 	mvn	r3, r3
 c004e10:	e50b3018 	str	r3, [fp, #-24]	; 0xffffffe8
			*(INT32U*)(LCD_VIRTUAL_BUFFER + (ulY+i)*SCR_XSIZE/2 + j*4) = temp;
 c004e14:	e51b2024 	ldr	r2, [fp, #-36]	; 0xffffffdc
 c004e18:	e51b3010 	ldr	r3, [fp, #-16]
 c004e1c:	e0822003 	add	r2, r2, r3
 c004e20:	e1a03002 	mov	r3, r2
 c004e24:	e1a03103 	lsl	r3, r3, #2
 c004e28:	e0833002 	add	r3, r3, r2
 c004e2c:	e1a03303 	lsl	r3, r3, #6
 c004e30:	e1a020a3 	lsr	r2, r3, #1
 c004e34:	e51b3014 	ldr	r3, [fp, #-20]	; 0xffffffec
 c004e38:	e1a03103 	lsl	r3, r3, #2
 c004e3c:	e0823003 	add	r3, r2, r3
 c004e40:	e28336c3 	add	r3, r3, #204472320	; 0xc300000
 c004e44:	e2833c96 	add	r3, r3, #38400	; 0x9600
 c004e48:	e51b2018 	ldr	r2, [fp, #-24]	; 0xffffffe8
 c004e4c:	e5832000 	str	r2, [r3]
{
	INT32U i, j, temp;
	
	for( i = 0; i < ulHeight; i++ )
	{
		for( j = 0; j < (SCR_XSIZE/4/2) ; j++ )
 c004e50:	e51b3014 	ldr	r3, [fp, #-20]	; 0xffffffec
 c004e54:	e2833001 	add	r3, r3, #1
 c004e58:	e50b3014 	str	r3, [fp, #-20]	; 0xffffffec
 c004e5c:	e51b3014 	ldr	r3, [fp, #-20]	; 0xffffffec
 c004e60:	e3530027 	cmp	r3, #39	; 0x27
 c004e64:	9affffd8 	bls	c004dcc <ReverseLine+0x30>
*********************************************************************************************/
void ReverseLine(INT32U ulHeight, INT32U ulY)
{
	INT32U i, j, temp;
	
	for( i = 0; i < ulHeight; i++ )
 c004e68:	e51b3010 	ldr	r3, [fp, #-16]
 c004e6c:	e2833001 	add	r3, r3, #1
 c004e70:	e50b3010 	str	r3, [fp, #-16]
 c004e74:	e51b2010 	ldr	r2, [fp, #-16]
 c004e78:	e51b3020 	ldr	r3, [fp, #-32]	; 0xffffffe0
 c004e7c:	e1520003 	cmp	r2, r3
 c004e80:	3affffce 	bcc	c004dc0 <ReverseLine+0x24>
			temp = *(INT32U*)(LCD_VIRTUAL_BUFFER + (ulY+i)*SCR_XSIZE/2 + j*4);
			temp ^= 0xFFFFFFFF;
			*(INT32U*)(LCD_VIRTUAL_BUFFER + (ulY+i)*SCR_XSIZE/2 + j*4) = temp;
		}
	}
}
 c004e84:	e24bd00c 	sub	sp, fp, #12
 c004e88:	e89d6800 	ldm	sp, {fp, sp, lr}
 c004e8c:	e12fff1e 	bx	lr

0c004e90 <Zdma0Done>:
* modify:
* comment:		
*********************************************************************************************/
volatile static INT8U ucZdma0Done=1;	//When DMA is finish,ucZdma0Done is cleared to Zero
void Zdma0Done(void)
{
 c004e90:	e52dc004 	push	{ip}		; (str ip, [sp, #-4]!)
 c004e94:	e1a0c00d 	mov	ip, sp
 c004e98:	e92dd80c 	push	{r2, r3, fp, ip, lr, pc}
 c004e9c:	e24cb004 	sub	fp, ip, #4
	rI_ISPC=BIT_ZDMA0;	    //clear pending
 c004ea0:	e59f3020 	ldr	r3, [pc, #32]	; c004ec8 <Zdma0Done+0x38>
 c004ea4:	e3a02702 	mov	r2, #524288	; 0x80000
 c004ea8:	e5832000 	str	r2, [r3]
	ucZdma0Done=0;
 c004eac:	e59f3018 	ldr	r3, [pc, #24]	; c004ecc <Zdma0Done+0x3c>
 c004eb0:	e3a02000 	mov	r2, #0
 c004eb4:	e5c32000 	strb	r2, [r3]
}
 c004eb8:	e24bd014 	sub	sp, fp, #20
 c004ebc:	e89d680c 	ldm	sp, {r2, r3, fp, sp, lr}
 c004ec0:	e49dc004 	pop	{ip}		; (ldr ip, [sp], #4)
 c004ec4:	e25ef004 	subs	pc, lr, #4
 c004ec8:	01e00024 	.word	0x01e00024
 c004ecc:	0c00c544 	.word	0x0c00c544

0c004ed0 <Lcd_Dma_Trans>:
* ret:		none
* modify:
* comment:		
*********************************************************************************************/
void Lcd_Dma_Trans(void)
{
 c004ed0:	e1a0c00d 	mov	ip, sp
 c004ed4:	e92dd800 	push	{fp, ip, lr, pc}
 c004ed8:	e24cb004 	sub	fp, ip, #4
 c004edc:	e24dd008 	sub	sp, sp, #8
	INT8U err;
	
	ucZdma0Done=1;
 c004ee0:	e59f3098 	ldr	r3, [pc, #152]	; c004f80 <Lcd_Dma_Trans+0xb0>
 c004ee4:	e3a02001 	mov	r2, #1
 c004ee8:	e5c32000 	strb	r2, [r3]
	//#define LCD_VIRTUAL_BUFFER	(0xc400000)
	//#define LCD_ACTIVE_BUFFER	(LCD_VIRTUAL_BUFFER+(SCR_XSIZE*SCR_YSIZE/2))	//DMA ON
	//#define LCD_ACTIVE_BUFFER	LCD_VIRTUAL_BUFFER								//DMA OFF
	//#define LCD_BUF_SIZE		(SCR_XSIZE*SCR_YSIZE/2)
	//So the Lcd Buffer Low area is from LCD_VIRTUAL_BUFFER to (LCD_ACTIVE_BUFFER+(SCR_XSIZE*SCR_YSIZE/2))
	rNCACHBE1=(((unsigned)(LCD_ACTIVE_BUFFER)>>12) <<16 )|((unsigned)(LCD_VIRTUAL_BUFFER)>>12);
 c004eec:	e59f3090 	ldr	r3, [pc, #144]	; c004f84 <Lcd_Dma_Trans+0xb4>
 c004ef0:	e59f2090 	ldr	r2, [pc, #144]	; c004f88 <Lcd_Dma_Trans+0xb8>
 c004ef4:	e5832000 	str	r2, [r3]
  	rZDISRC0=(DW<<30)|(1<<28)     |LCD_VIRTUAL_BUFFER; // inc
 c004ef8:	e59f308c 	ldr	r3, [pc, #140]	; c004f8c <Lcd_Dma_Trans+0xbc>
 c004efc:	e59f208c 	ldr	r2, [pc, #140]	; c004f90 <Lcd_Dma_Trans+0xc0>
 c004f00:	e5832000 	str	r2, [r3]
  	rZDIDES0=( 2<<30)|(1<<28)     |LCD_ACTIVE_BUFFER; // inc
 c004f04:	e59f3088 	ldr	r3, [pc, #136]	; c004f94 <Lcd_Dma_Trans+0xc4>
 c004f08:	e59f2088 	ldr	r2, [pc, #136]	; c004f98 <Lcd_Dma_Trans+0xc8>
 c004f0c:	e5832000 	str	r2, [r3]
    rZDICNT0=( 2<<28)|(1<<26)     |(3<<22)     |(0<<20)      |(LCD_BUF_SIZE);
 c004f10:	e59f3084 	ldr	r3, [pc, #132]	; c004f9c <Lcd_Dma_Trans+0xcc>
 c004f14:	e59f2084 	ldr	r2, [pc, #132]	; c004fa0 <Lcd_Dma_Trans+0xd0>
 c004f18:	e5832000 	str	r2, [r3]
        //           |            |            |             |------------>Int. whenever transferred
        //           |            |            |-------------------->Write time on the fly
        //           |            |---------------------------->Block(4-word) transfer mode
        //           |------------------------------------>whole service
	    //reEnable ZDMA transfer
  	rZDICNT0 |= (1<<20);		//after ES3
 c004f1c:	e59f3078 	ldr	r3, [pc, #120]	; c004f9c <Lcd_Dma_Trans+0xcc>
 c004f20:	e59f2074 	ldr	r2, [pc, #116]	; c004f9c <Lcd_Dma_Trans+0xcc>
 c004f24:	e5922000 	ldr	r2, [r2]
 c004f28:	e3822601 	orr	r2, r2, #1048576	; 0x100000
 c004f2c:	e5832000 	str	r2, [r3]
    rZDCON0=0x1; // start!!!  
 c004f30:	e3a0377a 	mov	r3, #31981568	; 0x1e80000
 c004f34:	e3a02001 	mov	r2, #1
 c004f38:	e5832000 	str	r2, [r3]

	//Delay(500);
	/* Esperar con timeout para evitar bloqueo */
	{
		INT32U timeout = 100000;
 c004f3c:	e59f3060 	ldr	r3, [pc, #96]	; c004fa4 <Lcd_Dma_Trans+0xd4>
 c004f40:	e50b3010 	str	r3, [fp, #-16]
		while(ucZdma0Done && timeout > 0)
 c004f44:	ea000002 	b	c004f54 <Lcd_Dma_Trans+0x84>
		{
			timeout--;
 c004f48:	e51b3010 	ldr	r3, [fp, #-16]
 c004f4c:	e2433001 	sub	r3, r3, #1
 c004f50:	e50b3010 	str	r3, [fp, #-16]

	//Delay(500);
	/* Esperar con timeout para evitar bloqueo */
	{
		INT32U timeout = 100000;
		while(ucZdma0Done && timeout > 0)
 c004f54:	e59f3024 	ldr	r3, [pc, #36]	; c004f80 <Lcd_Dma_Trans+0xb0>
 c004f58:	e5d33000 	ldrb	r3, [r3]
 c004f5c:	e20330ff 	and	r3, r3, #255	; 0xff
 c004f60:	e3530000 	cmp	r3, #0
 c004f64:	0a000002 	beq	c004f74 <Lcd_Dma_Trans+0xa4>
 c004f68:	e51b3010 	ldr	r3, [fp, #-16]
 c004f6c:	e3530000 	cmp	r3, #0
 c004f70:	1afffff4 	bne	c004f48 <Lcd_Dma_Trans+0x78>
		{
			timeout--;
		}
	}
}
 c004f74:	e24bd00c 	sub	sp, fp, #12
 c004f78:	e89d6800 	ldm	sp, {fp, sp, lr}
 c004f7c:	e12fff1e 	bx	lr
 c004f80:	0c00c544 	.word	0x0c00c544
 c004f84:	01c00008 	.word	0x01c00008
 c004f88:	c300c309 	.word	0xc300c309
 c004f8c:	01e80004 	.word	0x01e80004
 c004f90:	1c309600 	.word	0x1c309600
 c004f94:	01e80008 	.word	0x01e80008
 c004f98:	9c300000 	.word	0x9c300000
 c004f9c:	01e8000c 	.word	0x01e8000c
 c004fa0:	24c09600 	.word	0x24c09600
 c004fa4:	000186a0 	.word	0x000186a0

0c004fa8 <Lcd_Test>:
* ret:		none
* modify:
* comment:		
*********************************************************************************************/
void Lcd_Test(void)
{
 c004fa8:	e1a0c00d 	mov	ip, sp
 c004fac:	e92dd800 	push	{fp, ip, lr, pc}
 c004fb0:	e24cb004 	sub	fp, ip, #4
 c004fb4:	e24dd008 	sub	sp, sp, #8
	/* initial LCD controller */
	Lcd_Init();
 c004fb8:	ebfff847 	bl	c0030dc <Lcd_Init>
	/* clear screen */
	Lcd_Clr();
 c004fbc:	ebfff8f9 	bl	c0033a8 <Lcd_Clr>
	Lcd_Active_Clr();
 c004fc0:	ebfff8aa 	bl	c003270 <Lcd_Active_Clr>
    #ifdef Eng_v // english version
	Lcd_DspAscII8x16(10,0,DARKGRAY,"Embest S3CEV40 ");
	#else
//	Lcd_DspHz16(10,0,DARKGRAY,"");
	#endif
	Lcd_DspAscII8x16(10,20,BLACK,"Codigo del puesto: ");
 c004fc4:	e3a0000a 	mov	r0, #10
 c004fc8:	e3a01014 	mov	r1, #20
 c004fcc:	e3a0200f 	mov	r2, #15
 c004fd0:	e59f31a0 	ldr	r3, [pc, #416]	; c005178 <Lcd_Test+0x1d0>
 c004fd4:	ebfffe3a 	bl	c0048c4 <Lcd_DspAscII8x16>
	Lcd_Draw_Box(10,40,310,230,14);
 c004fd8:	e3a0300e 	mov	r3, #14
 c004fdc:	e58d3000 	str	r3, [sp]
 c004fe0:	e3a0000a 	mov	r0, #10
 c004fe4:	e3a01028 	mov	r1, #40	; 0x28
 c004fe8:	e59f218c 	ldr	r2, [pc, #396]	; c00517c <Lcd_Test+0x1d4>
 c004fec:	e3a030e6 	mov	r3, #230	; 0xe6
 c004ff0:	ebfffa9b 	bl	c003a64 <Lcd_Draw_Box>
	Lcd_Draw_Box(20,45,300,225,13);
 c004ff4:	e3a0300d 	mov	r3, #13
 c004ff8:	e58d3000 	str	r3, [sp]
 c004ffc:	e3a00014 	mov	r0, #20
 c005000:	e3a0102d 	mov	r1, #45	; 0x2d
 c005004:	e3a02f4b 	mov	r2, #300	; 0x12c
 c005008:	e3a030e1 	mov	r3, #225	; 0xe1
 c00500c:	ebfffa94 	bl	c003a64 <Lcd_Draw_Box>
	Lcd_Draw_Box(30,50,290,220,12);
 c005010:	e3a0300c 	mov	r3, #12
 c005014:	e58d3000 	str	r3, [sp]
 c005018:	e3a0001e 	mov	r0, #30
 c00501c:	e3a01032 	mov	r1, #50	; 0x32
 c005020:	e59f2158 	ldr	r2, [pc, #344]	; c005180 <Lcd_Test+0x1d8>
 c005024:	e3a030dc 	mov	r3, #220	; 0xdc
 c005028:	ebfffa8d 	bl	c003a64 <Lcd_Draw_Box>
	Lcd_Draw_Box(40,55,280,215,11);
 c00502c:	e3a0300b 	mov	r3, #11
 c005030:	e58d3000 	str	r3, [sp]
 c005034:	e3a00028 	mov	r0, #40	; 0x28
 c005038:	e3a01037 	mov	r1, #55	; 0x37
 c00503c:	e3a02f46 	mov	r2, #280	; 0x118
 c005040:	e3a030d7 	mov	r3, #215	; 0xd7
 c005044:	ebfffa86 	bl	c003a64 <Lcd_Draw_Box>
	Lcd_Draw_Box(50,60,270,210,10);
 c005048:	e3a0300a 	mov	r3, #10
 c00504c:	e58d3000 	str	r3, [sp]
 c005050:	e3a00032 	mov	r0, #50	; 0x32
 c005054:	e3a0103c 	mov	r1, #60	; 0x3c
 c005058:	e59f2124 	ldr	r2, [pc, #292]	; c005184 <Lcd_Test+0x1dc>
 c00505c:	e3a030d2 	mov	r3, #210	; 0xd2
 c005060:	ebfffa7f 	bl	c003a64 <Lcd_Draw_Box>
	Lcd_Draw_Box(60,65,260,205,9);
 c005064:	e3a03009 	mov	r3, #9
 c005068:	e58d3000 	str	r3, [sp]
 c00506c:	e3a0003c 	mov	r0, #60	; 0x3c
 c005070:	e3a01041 	mov	r1, #65	; 0x41
 c005074:	e3a02f41 	mov	r2, #260	; 0x104
 c005078:	e3a030cd 	mov	r3, #205	; 0xcd
 c00507c:	ebfffa78 	bl	c003a64 <Lcd_Draw_Box>
	Lcd_Draw_Box(70,70,250,200,8);
 c005080:	e3a03008 	mov	r3, #8
 c005084:	e58d3000 	str	r3, [sp]
 c005088:	e3a00046 	mov	r0, #70	; 0x46
 c00508c:	e3a01046 	mov	r1, #70	; 0x46
 c005090:	e3a020fa 	mov	r2, #250	; 0xfa
 c005094:	e3a030c8 	mov	r3, #200	; 0xc8
 c005098:	ebfffa71 	bl	c003a64 <Lcd_Draw_Box>
	Lcd_Draw_Box(80,75,240,195,7);
 c00509c:	e3a03007 	mov	r3, #7
 c0050a0:	e58d3000 	str	r3, [sp]
 c0050a4:	e3a00050 	mov	r0, #80	; 0x50
 c0050a8:	e3a0104b 	mov	r1, #75	; 0x4b
 c0050ac:	e3a020f0 	mov	r2, #240	; 0xf0
 c0050b0:	e3a030c3 	mov	r3, #195	; 0xc3
 c0050b4:	ebfffa6a 	bl	c003a64 <Lcd_Draw_Box>
	Lcd_Draw_Box(90,80,230,190,6);
 c0050b8:	e3a03006 	mov	r3, #6
 c0050bc:	e58d3000 	str	r3, [sp]
 c0050c0:	e3a0005a 	mov	r0, #90	; 0x5a
 c0050c4:	e3a01050 	mov	r1, #80	; 0x50
 c0050c8:	e3a020e6 	mov	r2, #230	; 0xe6
 c0050cc:	e3a030be 	mov	r3, #190	; 0xbe
 c0050d0:	ebfffa63 	bl	c003a64 <Lcd_Draw_Box>
	Lcd_Draw_Box(100,85,220,185,5);
 c0050d4:	e3a03005 	mov	r3, #5
 c0050d8:	e58d3000 	str	r3, [sp]
 c0050dc:	e3a00064 	mov	r0, #100	; 0x64
 c0050e0:	e3a01055 	mov	r1, #85	; 0x55
 c0050e4:	e3a020dc 	mov	r2, #220	; 0xdc
 c0050e8:	e3a030b9 	mov	r3, #185	; 0xb9
 c0050ec:	ebfffa5c 	bl	c003a64 <Lcd_Draw_Box>
	Lcd_Draw_Box(110,90,210,180,4);
 c0050f0:	e3a03004 	mov	r3, #4
 c0050f4:	e58d3000 	str	r3, [sp]
 c0050f8:	e3a0006e 	mov	r0, #110	; 0x6e
 c0050fc:	e3a0105a 	mov	r1, #90	; 0x5a
 c005100:	e3a020d2 	mov	r2, #210	; 0xd2
 c005104:	e3a030b4 	mov	r3, #180	; 0xb4
 c005108:	ebfffa55 	bl	c003a64 <Lcd_Draw_Box>
	Lcd_Draw_Box(120,95,200,175,3);
 c00510c:	e3a03003 	mov	r3, #3
 c005110:	e58d3000 	str	r3, [sp]
 c005114:	e3a00078 	mov	r0, #120	; 0x78
 c005118:	e3a0105f 	mov	r1, #95	; 0x5f
 c00511c:	e3a020c8 	mov	r2, #200	; 0xc8
 c005120:	e3a030af 	mov	r3, #175	; 0xaf
 c005124:	ebfffa4e 	bl	c003a64 <Lcd_Draw_Box>
	Lcd_Draw_Box(130,100,190,170,2);
 c005128:	e3a03002 	mov	r3, #2
 c00512c:	e58d3000 	str	r3, [sp]
 c005130:	e3a00082 	mov	r0, #130	; 0x82
 c005134:	e3a01064 	mov	r1, #100	; 0x64
 c005138:	e3a020be 	mov	r2, #190	; 0xbe
 c00513c:	e3a030aa 	mov	r3, #170	; 0xaa
 c005140:	ebfffa47 	bl	c003a64 <Lcd_Draw_Box>
	BitmapView(125,135,Stru_Bitmap_gbMouse);
 c005144:	e59f303c 	ldr	r3, [pc, #60]	; c005188 <Lcd_Test+0x1e0>
 c005148:	e1a0200d 	mov	r2, sp
 c00514c:	e2831008 	add	r1, r3, #8
 c005150:	e8910003 	ldm	r1, {r0, r1}
 c005154:	e8820003 	stm	r2, {r0, r1}
 c005158:	e893000c 	ldm	r3, {r2, r3}
 c00515c:	e3a0007d 	mov	r0, #125	; 0x7d
 c005160:	e3a01087 	mov	r1, #135	; 0x87
 c005164:	ebffefb5 	bl	c001040 <BitmapView>
	Lcd_Dma_Trans();
 c005168:	ebffff58 	bl	c004ed0 <Lcd_Dma_Trans>

}
 c00516c:	e24bd00c 	sub	sp, fp, #12
 c005170:	e89d6800 	ldm	sp, {fp, sp, lr}
 c005174:	e12fff1e 	bx	lr
 c005178:	0c00e920 	.word	0x0c00e920
 c00517c:	00000136 	.word	0x00000136
 c005180:	00000122 	.word	0x00000122
 c005184:	0000010e 	.word	0x0000010e
 c005188:	0c00be58 	.word	0x0c00be58

0c00518c <Sudoku_Pantalla_Inicial>:
* ret:		none
* modify:
* comment:		
*********************************************************************************************/
void Sudoku_Pantalla_Inicial(void)
{
 c00518c:	e1a0c00d 	mov	ip, sp
 c005190:	e92dd800 	push	{fp, ip, lr, pc}
 c005194:	e24cb004 	sub	fp, ip, #4
 c005198:	e24dd008 	sub	sp, sp, #8
	/* Limpiar pantalla */
	Lcd_Clr();
 c00519c:	ebfff881 	bl	c0033a8 <Lcd_Clr>
	
	/* Ttulo */
	Lcd_DspAscII8x16(85, 10, BLACK, "SUDOKU 9x9");
 c0051a0:	e3a00055 	mov	r0, #85	; 0x55
 c0051a4:	e3a0100a 	mov	r1, #10
 c0051a8:	e3a0200f 	mov	r2, #15
 c0051ac:	e59f30e0 	ldr	r3, [pc, #224]	; c005294 <Sudoku_Pantalla_Inicial+0x108>
 c0051b0:	ebfffdc3 	bl	c0048c4 <Lcd_DspAscII8x16>
	
	/* Instrucciones */
	Lcd_DspAscII6x8(20, 40, DARKGRAY, "INSTRUCCIONES:");
 c0051b4:	e3a00014 	mov	r0, #20
 c0051b8:	e3a01028 	mov	r1, #40	; 0x28
 c0051bc:	e3a0200a 	mov	r2, #10
 c0051c0:	e59f30d0 	ldr	r3, [pc, #208]	; c005298 <Sudoku_Pantalla_Inicial+0x10c>
 c0051c4:	ebfffe83 	bl	c004bd8 <Lcd_DspAscII6x8>
	Lcd_DspAscII6x8(10, 55, BLACK, "1. Boton Derecho: cambia valor");
 c0051c8:	e3a0000a 	mov	r0, #10
 c0051cc:	e3a01037 	mov	r1, #55	; 0x37
 c0051d0:	e3a0200f 	mov	r2, #15
 c0051d4:	e59f30c0 	ldr	r3, [pc, #192]	; c00529c <Sudoku_Pantalla_Inicial+0x110>
 c0051d8:	ebfffe7e 	bl	c004bd8 <Lcd_DspAscII6x8>
	Lcd_DspAscII6x8(10, 70, BLACK, "2. Boton Izquierdo: confirma");
 c0051dc:	e3a0000a 	mov	r0, #10
 c0051e0:	e3a01046 	mov	r1, #70	; 0x46
 c0051e4:	e3a0200f 	mov	r2, #15
 c0051e8:	e59f30b0 	ldr	r3, [pc, #176]	; c0052a0 <Sudoku_Pantalla_Inicial+0x114>
 c0051ec:	ebfffe79 	bl	c004bd8 <Lcd_DspAscII6x8>
	Lcd_DspAscII6x8(10, 85, BLACK, "3. Introducir valor 0: borrar");
 c0051f0:	e3a0000a 	mov	r0, #10
 c0051f4:	e3a01055 	mov	r1, #85	; 0x55
 c0051f8:	e3a0200f 	mov	r2, #15
 c0051fc:	e59f30a0 	ldr	r3, [pc, #160]	; c0052a4 <Sudoku_Pantalla_Inicial+0x118>
 c005200:	ebfffe74 	bl	c004bd8 <Lcd_DspAscII6x8>
	Lcd_DspAscII6x8(10, 100, BLACK, "4. Fila 0: terminar partida");
 c005204:	e3a0000a 	mov	r0, #10
 c005208:	e3a01064 	mov	r1, #100	; 0x64
 c00520c:	e3a0200f 	mov	r2, #15
 c005210:	e59f3090 	ldr	r3, [pc, #144]	; c0052a8 <Sudoku_Pantalla_Inicial+0x11c>
 c005214:	ebfffe6f 	bl	c004bd8 <Lcd_DspAscII6x8>
	
	/* Leyenda de smbolos en pantalla */
	Lcd_DspAscII6x8(20, 125, DARKGRAY, "LEYENDA:");
 c005218:	e3a00014 	mov	r0, #20
 c00521c:	e3a0107d 	mov	r1, #125	; 0x7d
 c005220:	e3a0200a 	mov	r2, #10
 c005224:	e59f3080 	ldr	r3, [pc, #128]	; c0052ac <Sudoku_Pantalla_Inicial+0x120>
 c005228:	ebfffe6a 	bl	c004bd8 <Lcd_DspAscII6x8>
	Lcd_DspAscII6x8(10, 140, BLACK, "F = Fila    C = Columna");
 c00522c:	e3a0000a 	mov	r0, #10
 c005230:	e3a0108c 	mov	r1, #140	; 0x8c
 c005234:	e3a0200f 	mov	r2, #15
 c005238:	e59f3070 	ldr	r3, [pc, #112]	; c0052b0 <Sudoku_Pantalla_Inicial+0x124>
 c00523c:	ebfffe65 	bl	c004bd8 <Lcd_DspAscII6x8>
	Lcd_DspAscII6x8(10, 155, BLACK, "E = Error detectado");
 c005240:	e3a0000a 	mov	r0, #10
 c005244:	e3a0109b 	mov	r1, #155	; 0x9b
 c005248:	e3a0200f 	mov	r2, #15
 c00524c:	e59f3060 	ldr	r3, [pc, #96]	; c0052b4 <Sudoku_Pantalla_Inicial+0x128>
 c005250:	ebfffe60 	bl	c004bd8 <Lcd_DspAscII6x8>
	
	/* Mensaje para iniciar */
	Lcd_Draw_Box(40, 190, 280, 220, BLACK);
 c005254:	e3a0300f 	mov	r3, #15
 c005258:	e58d3000 	str	r3, [sp]
 c00525c:	e3a00028 	mov	r0, #40	; 0x28
 c005260:	e3a010be 	mov	r1, #190	; 0xbe
 c005264:	e3a02f46 	mov	r2, #280	; 0x118
 c005268:	e3a030dc 	mov	r3, #220	; 0xdc
 c00526c:	ebfff9fc 	bl	c003a64 <Lcd_Draw_Box>
	Lcd_DspAscII8x16(60, 198, BLACK, "Pulse un boton para jugar");
 c005270:	e3a0003c 	mov	r0, #60	; 0x3c
 c005274:	e3a010c6 	mov	r1, #198	; 0xc6
 c005278:	e3a0200f 	mov	r2, #15
 c00527c:	e59f3034 	ldr	r3, [pc, #52]	; c0052b8 <Sudoku_Pantalla_Inicial+0x12c>
 c005280:	ebfffd8f 	bl	c0048c4 <Lcd_DspAscII8x16>
	
	/* Transferir a pantalla */
	Lcd_Dma_Trans();
 c005284:	ebffff11 	bl	c004ed0 <Lcd_Dma_Trans>
}
 c005288:	e24bd00c 	sub	sp, fp, #12
 c00528c:	e89d6800 	ldm	sp, {fp, sp, lr}
 c005290:	e12fff1e 	bx	lr
 c005294:	0c00e934 	.word	0x0c00e934
 c005298:	0c00e940 	.word	0x0c00e940
 c00529c:	0c00e950 	.word	0x0c00e950
 c0052a0:	0c00e970 	.word	0x0c00e970
 c0052a4:	0c00e990 	.word	0x0c00e990
 c0052a8:	0c00e9b0 	.word	0x0c00e9b0
 c0052ac:	0c00e9cc 	.word	0x0c00e9cc
 c0052b0:	0c00e9d8 	.word	0x0c00e9d8
 c0052b4:	0c00e9f0 	.word	0x0c00e9f0
 c0052b8:	0c00ea04 	.word	0x0c00ea04

0c0052bc <Sudoku_Dibujar_Numero_En_Celda>:
* modify:
* comment:	Las pistas se dibujan en DARKGRAY, los valores del usuario en BLACK
*           Las celdas con error se resaltan con borde grueso
*********************************************************************************************/
void Sudoku_Dibujar_Numero_En_Celda(INT16U fila, INT16U col, INT8U numero, INT8U es_pista, INT8U tiene_error)
{
 c0052bc:	e1a0c00d 	mov	ip, sp
 c0052c0:	e92dd800 	push	{fp, ip, lr, pc}
 c0052c4:	e24cb004 	sub	fp, ip, #4
 c0052c8:	e24dd020 	sub	sp, sp, #32
 c0052cc:	e14b01be 	strh	r0, [fp, #-30]	; 0xffffffe2
 c0052d0:	e14b12b0 	strh	r1, [fp, #-32]	; 0xffffffe0
 c0052d4:	e54b2021 	strb	r2, [fp, #-33]	; 0xffffffdf
 c0052d8:	e54b3022 	strb	r3, [fp, #-34]	; 0xffffffde
	#define MARGEN_IZQ 20
	#define MARGEN_SUP 10
	#define TAM_CELDA 23
	
	INT16U tablero_inicio_x = MARGEN_IZQ + 10;
 c0052dc:	e3a0301e 	mov	r3, #30
 c0052e0:	e14b31b0 	strh	r3, [fp, #-16]
	INT16U tablero_inicio_y = MARGEN_SUP + 10;
 c0052e4:	e3a03014 	mov	r3, #20
 c0052e8:	e14b31b2 	strh	r3, [fp, #-18]	; 0xffffffee
	
	/* Calcular posicin de la celda en pxeles */
	INT16U celda_x = tablero_inicio_x + col * TAM_CELDA;
 c0052ec:	e15b32b0 	ldrh	r3, [fp, #-32]	; 0xffffffe0
 c0052f0:	e1a02003 	mov	r2, r3
 c0052f4:	e1a02082 	lsl	r2, r2, #1
 c0052f8:	e0822003 	add	r2, r2, r3
 c0052fc:	e1a02182 	lsl	r2, r2, #3
 c005300:	e0633002 	rsb	r3, r3, r2
 c005304:	e1a03803 	lsl	r3, r3, #16
 c005308:	e1a02823 	lsr	r2, r3, #16
 c00530c:	e15b31b0 	ldrh	r3, [fp, #-16]
 c005310:	e0823003 	add	r3, r2, r3
 c005314:	e14b31b4 	strh	r3, [fp, #-20]	; 0xffffffec
	INT16U celda_y = tablero_inicio_y + fila * TAM_CELDA;
 c005318:	e15b31be 	ldrh	r3, [fp, #-30]	; 0xffffffe2
 c00531c:	e1a02003 	mov	r2, r3
 c005320:	e1a02082 	lsl	r2, r2, #1
 c005324:	e0822003 	add	r2, r2, r3
 c005328:	e1a02182 	lsl	r2, r2, #3
 c00532c:	e0633002 	rsb	r3, r3, r2
 c005330:	e1a03803 	lsl	r3, r3, #16
 c005334:	e1a02823 	lsr	r2, r3, #16
 c005338:	e15b31b2 	ldrh	r3, [fp, #-18]	; 0xffffffee
 c00533c:	e0823003 	add	r3, r2, r3
 c005340:	e14b31b6 	strh	r3, [fp, #-22]	; 0xffffffea
	
	/* Si tiene error, rellenar la celda con negro */
	if (tiene_error)
 c005344:	e5db3004 	ldrb	r3, [fp, #4]
 c005348:	e3530000 	cmp	r3, #0
 c00534c:	0a000023 	beq	c0053e0 <Sudoku_Dibujar_Numero_En_Celda+0x124>
	{
		/* Rellenar interior de la celda con negro */
		LcdClrRect(celda_x + 2, celda_y + 2, celda_x + TAM_CELDA - 2, celda_y + TAM_CELDA - 2, BLACK);
 c005350:	e15b31b4 	ldrh	r3, [fp, #-20]	; 0xffffffec
 c005354:	e2833002 	add	r3, r3, #2
 c005358:	e1a03803 	lsl	r3, r3, #16
 c00535c:	e1a03823 	lsr	r3, r3, #16
 c005360:	e1a03803 	lsl	r3, r3, #16
 c005364:	e1a00823 	lsr	r0, r3, #16
 c005368:	e15b31b6 	ldrh	r3, [fp, #-22]	; 0xffffffea
 c00536c:	e2833002 	add	r3, r3, #2
 c005370:	e1a03803 	lsl	r3, r3, #16
 c005374:	e1a03823 	lsr	r3, r3, #16
 c005378:	e1a03803 	lsl	r3, r3, #16
 c00537c:	e1a01823 	lsr	r1, r3, #16
 c005380:	e15b31b4 	ldrh	r3, [fp, #-20]	; 0xffffffec
 c005384:	e2833015 	add	r3, r3, #21
 c005388:	e1a03803 	lsl	r3, r3, #16
 c00538c:	e1a03823 	lsr	r3, r3, #16
 c005390:	e1a03803 	lsl	r3, r3, #16
 c005394:	e1a02823 	lsr	r2, r3, #16
 c005398:	e15b31b6 	ldrh	r3, [fp, #-22]	; 0xffffffea
 c00539c:	e2833015 	add	r3, r3, #21
 c0053a0:	e1a03803 	lsl	r3, r3, #16
 c0053a4:	e1a03823 	lsr	r3, r3, #16
 c0053a8:	e1a03803 	lsl	r3, r3, #16
 c0053ac:	e1a03823 	lsr	r3, r3, #16
 c0053b0:	e1a00800 	lsl	r0, r0, #16
 c0053b4:	e1a00840 	asr	r0, r0, #16
 c0053b8:	e1a01801 	lsl	r1, r1, #16
 c0053bc:	e1a01841 	asr	r1, r1, #16
 c0053c0:	e1a02802 	lsl	r2, r2, #16
 c0053c4:	e1a02842 	asr	r2, r2, #16
 c0053c8:	e1a03803 	lsl	r3, r3, #16
 c0053cc:	e1a03843 	asr	r3, r3, #16
 c0053d0:	e3a0c00f 	mov	ip, #15
 c0053d4:	e58dc000 	str	ip, [sp]
 c0053d8:	ebfff80d 	bl	c003414 <LcdClrRect>
 c0053dc:	ea000022 	b	c00546c <Sudoku_Dibujar_Numero_En_Celda+0x1b0>
	}
	else
	{
		/* Limpiar el interior de la celda (dejar mrgenes para las lneas) */
		LcdClrRect(celda_x + 2, celda_y + 2, celda_x + TAM_CELDA - 2, celda_y + TAM_CELDA - 2, WHITE);
 c0053e0:	e15b31b4 	ldrh	r3, [fp, #-20]	; 0xffffffec
 c0053e4:	e2833002 	add	r3, r3, #2
 c0053e8:	e1a03803 	lsl	r3, r3, #16
 c0053ec:	e1a03823 	lsr	r3, r3, #16
 c0053f0:	e1a03803 	lsl	r3, r3, #16
 c0053f4:	e1a00823 	lsr	r0, r3, #16
 c0053f8:	e15b31b6 	ldrh	r3, [fp, #-22]	; 0xffffffea
 c0053fc:	e2833002 	add	r3, r3, #2
 c005400:	e1a03803 	lsl	r3, r3, #16
 c005404:	e1a03823 	lsr	r3, r3, #16
 c005408:	e1a03803 	lsl	r3, r3, #16
 c00540c:	e1a01823 	lsr	r1, r3, #16
 c005410:	e15b31b4 	ldrh	r3, [fp, #-20]	; 0xffffffec
 c005414:	e2833015 	add	r3, r3, #21
 c005418:	e1a03803 	lsl	r3, r3, #16
 c00541c:	e1a03823 	lsr	r3, r3, #16
 c005420:	e1a03803 	lsl	r3, r3, #16
 c005424:	e1a02823 	lsr	r2, r3, #16
 c005428:	e15b31b6 	ldrh	r3, [fp, #-22]	; 0xffffffea
 c00542c:	e2833015 	add	r3, r3, #21
 c005430:	e1a03803 	lsl	r3, r3, #16
 c005434:	e1a03823 	lsr	r3, r3, #16
 c005438:	e1a03803 	lsl	r3, r3, #16
 c00543c:	e1a03823 	lsr	r3, r3, #16
 c005440:	e1a00800 	lsl	r0, r0, #16
 c005444:	e1a00840 	asr	r0, r0, #16
 c005448:	e1a01801 	lsl	r1, r1, #16
 c00544c:	e1a01841 	asr	r1, r1, #16
 c005450:	e1a02802 	lsl	r2, r2, #16
 c005454:	e1a02842 	asr	r2, r2, #16
 c005458:	e1a03803 	lsl	r3, r3, #16
 c00545c:	e1a03843 	asr	r3, r3, #16
 c005460:	e3a0c000 	mov	ip, #0
 c005464:	e58dc000 	str	ip, [sp]
 c005468:	ebfff7e9 	bl	c003414 <LcdClrRect>
	}
	
	/* Si hay un nmero, dibujarlo */
	if (numero >= 1 && numero <= 9)
 c00546c:	e55b3021 	ldrb	r3, [fp, #-33]	; 0xffffffdf
 c005470:	e3530000 	cmp	r3, #0
 c005474:	0a000021 	beq	c005500 <Sudoku_Dibujar_Numero_En_Celda+0x244>
 c005478:	e55b3021 	ldrb	r3, [fp, #-33]	; 0xffffffdf
 c00547c:	e3530009 	cmp	r3, #9
 c005480:	8a00001e 	bhi	c005500 <Sudoku_Dibujar_Numero_En_Celda+0x244>
	{
		INT8U num_str[2];
		num_str[0] = '0' + numero;
 c005484:	e55b3021 	ldrb	r3, [fp, #-33]	; 0xffffffdf
 c005488:	e2833030 	add	r3, r3, #48	; 0x30
 c00548c:	e20330ff 	and	r3, r3, #255	; 0xff
 c005490:	e54b301c 	strb	r3, [fp, #-28]	; 0xffffffe4
		num_str[1] = '\0';
 c005494:	e3a03000 	mov	r3, #0
 c005498:	e54b301b 	strb	r3, [fp, #-27]	; 0xffffffe5
		
		/* Color del nmero */
		INT8U color;
		if (tiene_error)
 c00549c:	e5db3004 	ldrb	r3, [fp, #4]
 c0054a0:	e3530000 	cmp	r3, #0
 c0054a4:	0a000002 	beq	c0054b4 <Sudoku_Dibujar_Numero_En_Celda+0x1f8>
		{
			/* Si hay error, nmero en blanco sobre fondo negro */
			color = WHITE;
 c0054a8:	e3a03000 	mov	r3, #0
 c0054ac:	e54b300d 	strb	r3, [fp, #-13]
 c0054b0:	ea000007 	b	c0054d4 <Sudoku_Dibujar_Numero_En_Celda+0x218>
		}
		else if (es_pista)
 c0054b4:	e55b3022 	ldrb	r3, [fp, #-34]	; 0xffffffde
 c0054b8:	e3530000 	cmp	r3, #0
 c0054bc:	0a000002 	beq	c0054cc <Sudoku_Dibujar_Numero_En_Celda+0x210>
		{
			/* Pista: gris oscuro */
			color = DARKGRAY;
 c0054c0:	e3a0300a 	mov	r3, #10
 c0054c4:	e54b300d 	strb	r3, [fp, #-13]
 c0054c8:	ea000001 	b	c0054d4 <Sudoku_Dibujar_Numero_En_Celda+0x218>
		}
		else
		{
			/* Valor del usuario: negro */
			color = BLACK;
 c0054cc:	e3a0300f 	mov	r3, #15
 c0054d0:	e54b300d 	strb	r3, [fp, #-13]
		}
		
		/* Centrar el nmero en la celda */
		/* La fuente 8x16 ocupa 8 pxeles de ancho */
		INT16U texto_x = celda_x + (TAM_CELDA - 8) / 2;
 c0054d4:	e15b31b4 	ldrh	r3, [fp, #-20]	; 0xffffffec
 c0054d8:	e2833007 	add	r3, r3, #7
 c0054dc:	e14b31b8 	strh	r3, [fp, #-24]	; 0xffffffe8
		INT16U texto_y = celda_y + (TAM_CELDA - 16) / 2;
 c0054e0:	e15b31b6 	ldrh	r3, [fp, #-22]	; 0xffffffea
 c0054e4:	e2833003 	add	r3, r3, #3
 c0054e8:	e14b31ba 	strh	r3, [fp, #-26]	; 0xffffffe6
		
		Lcd_DspAscII8x16(texto_x, texto_y, color, num_str);
 c0054ec:	e15b01b8 	ldrh	r0, [fp, #-24]	; 0xffffffe8
 c0054f0:	e15b11ba 	ldrh	r1, [fp, #-26]	; 0xffffffe6
 c0054f4:	e55b200d 	ldrb	r2, [fp, #-13]
 c0054f8:	e24b301c 	sub	r3, fp, #28
 c0054fc:	ebfffcf0 	bl	c0048c4 <Lcd_DspAscII8x16>
	}
}
 c005500:	e24bd00c 	sub	sp, fp, #12
 c005504:	e89d6800 	ldm	sp, {fp, sp, lr}
 c005508:	e12fff1e 	bx	lr

0c00550c <Sudoku_Dibujar_Candidatos_En_Celda>:
*           1 2 3
*           4 5 6
*           7 8 9
*********************************************************************************************/
void Sudoku_Dibujar_Candidatos_En_Celda(INT16U fila, INT16U col, CELDA celda)
{
 c00550c:	e1a0c00d 	mov	ip, sp
 c005510:	e92dd800 	push	{fp, ip, lr, pc}
 c005514:	e24cb004 	sub	fp, ip, #4
 c005518:	e24dd020 	sub	sp, sp, #32
 c00551c:	e1a03002 	mov	r3, r2
 c005520:	e14b01be 	strh	r0, [fp, #-30]	; 0xffffffe2
 c005524:	e14b12b0 	strh	r1, [fp, #-32]	; 0xffffffe0
 c005528:	e14b32b2 	strh	r3, [fp, #-34]	; 0xffffffde
	#define MARGEN_IZQ 20
	#define MARGEN_SUP 10
	#define TAM_CELDA 23
	
	INT16U tablero_inicio_x = MARGEN_IZQ + 10;
 c00552c:	e3a0301e 	mov	r3, #30
 c005530:	e14b31b0 	strh	r3, [fp, #-16]
	INT16U tablero_inicio_y = MARGEN_SUP + 10;
 c005534:	e3a03014 	mov	r3, #20
 c005538:	e14b31b2 	strh	r3, [fp, #-18]	; 0xffffffee
	
	/* Calcular posicin de la celda en pxeles */
	INT16U celda_x = tablero_inicio_x + col * TAM_CELDA;
 c00553c:	e15b32b0 	ldrh	r3, [fp, #-32]	; 0xffffffe0
 c005540:	e1a02003 	mov	r2, r3
 c005544:	e1a02082 	lsl	r2, r2, #1
 c005548:	e0822003 	add	r2, r2, r3
 c00554c:	e1a02182 	lsl	r2, r2, #3
 c005550:	e0633002 	rsb	r3, r3, r2
 c005554:	e1a03803 	lsl	r3, r3, #16
 c005558:	e1a02823 	lsr	r2, r3, #16
 c00555c:	e15b31b0 	ldrh	r3, [fp, #-16]
 c005560:	e0823003 	add	r3, r2, r3
 c005564:	e14b31b4 	strh	r3, [fp, #-20]	; 0xffffffec
	INT16U celda_y = tablero_inicio_y + fila * TAM_CELDA;
 c005568:	e15b31be 	ldrh	r3, [fp, #-30]	; 0xffffffe2
 c00556c:	e1a02003 	mov	r2, r3
 c005570:	e1a02082 	lsl	r2, r2, #1
 c005574:	e0822003 	add	r2, r2, r3
 c005578:	e1a02182 	lsl	r2, r2, #3
 c00557c:	e0633002 	rsb	r3, r3, r2
 c005580:	e1a03803 	lsl	r3, r3, #16
 c005584:	e1a02823 	lsr	r2, r3, #16
 c005588:	e15b31b2 	ldrh	r3, [fp, #-18]	; 0xffffffee
 c00558c:	e0823003 	add	r3, r2, r3
 c005590:	e14b31b6 	strh	r3, [fp, #-22]	; 0xffffffea
	
	/* Limpiar el interior de la celda */
	LcdClrRect(celda_x + 2, celda_y + 2, celda_x + TAM_CELDA - 2, celda_y + TAM_CELDA - 2, WHITE);
 c005594:	e15b31b4 	ldrh	r3, [fp, #-20]	; 0xffffffec
 c005598:	e2833002 	add	r3, r3, #2
 c00559c:	e1a03803 	lsl	r3, r3, #16
 c0055a0:	e1a03823 	lsr	r3, r3, #16
 c0055a4:	e1a03803 	lsl	r3, r3, #16
 c0055a8:	e1a00823 	lsr	r0, r3, #16
 c0055ac:	e15b31b6 	ldrh	r3, [fp, #-22]	; 0xffffffea
 c0055b0:	e2833002 	add	r3, r3, #2
 c0055b4:	e1a03803 	lsl	r3, r3, #16
 c0055b8:	e1a03823 	lsr	r3, r3, #16
 c0055bc:	e1a03803 	lsl	r3, r3, #16
 c0055c0:	e1a01823 	lsr	r1, r3, #16
 c0055c4:	e15b31b4 	ldrh	r3, [fp, #-20]	; 0xffffffec
 c0055c8:	e2833015 	add	r3, r3, #21
 c0055cc:	e1a03803 	lsl	r3, r3, #16
 c0055d0:	e1a03823 	lsr	r3, r3, #16
 c0055d4:	e1a03803 	lsl	r3, r3, #16
 c0055d8:	e1a02823 	lsr	r2, r3, #16
 c0055dc:	e15b31b6 	ldrh	r3, [fp, #-22]	; 0xffffffea
 c0055e0:	e2833015 	add	r3, r3, #21
 c0055e4:	e1a03803 	lsl	r3, r3, #16
 c0055e8:	e1a03823 	lsr	r3, r3, #16
 c0055ec:	e1a03803 	lsl	r3, r3, #16
 c0055f0:	e1a03823 	lsr	r3, r3, #16
 c0055f4:	e1a00800 	lsl	r0, r0, #16
 c0055f8:	e1a00840 	asr	r0, r0, #16
 c0055fc:	e1a01801 	lsl	r1, r1, #16
 c005600:	e1a01841 	asr	r1, r1, #16
 c005604:	e1a02802 	lsl	r2, r2, #16
 c005608:	e1a02842 	asr	r2, r2, #16
 c00560c:	e1a03803 	lsl	r3, r3, #16
 c005610:	e1a03843 	asr	r3, r3, #16
 c005614:	e3a0c000 	mov	ip, #0
 c005618:	e58dc000 	str	ip, [sp]
 c00561c:	ebfff77c 	bl	c003414 <LcdClrRect>
	/* Dibujar grid de candidatos */
	/* Cada subcelda del grid 3x3 tiene aproximadamente 7 pxeles */
	#define TAM_SUBCELDA 7
	
	INT8U numero;
	for (numero = 1; numero <= 9; numero++)
 c005620:	e3a03001 	mov	r3, #1
 c005624:	e54b300d 	strb	r3, [fp, #-13]
 c005628:	ea000252 	b	c005f78 <Sudoku_Dibujar_Candidatos_En_Celda+0xa6c>
	{
		/* Verificar si este nmero es candidato */
		if (celda_es_candidato(celda, numero))
 c00562c:	e15b22b2 	ldrh	r2, [fp, #-34]	; 0xffffffde
 c005630:	e55b300d 	ldrb	r3, [fp, #-13]
 c005634:	e1a00002 	mov	r0, r2
 c005638:	e1a01003 	mov	r1, r3
 c00563c:	ebfff683 	bl	c003050 <celda_es_candidato>
 c005640:	e1a03000 	mov	r3, r0
 c005644:	e3530000 	cmp	r3, #0
 c005648:	0a000247 	beq	c005f6c <Sudoku_Dibujar_Candidatos_En_Celda+0xa60>
		{
			/* Calcular posicin en el grid 3x3 */
			/* Grid: 1 2 3 / 4 5 6 / 7 8 9 */
			INT8U grid_fila = (numero - 1) / 3;  /* 0, 1, 2 */
 c00564c:	e55b300d 	ldrb	r3, [fp, #-13]
 c005650:	e2433001 	sub	r3, r3, #1
 c005654:	e59f2934 	ldr	r2, [pc, #2356]	; c005f90 <Sudoku_Dibujar_Candidatos_En_Celda+0xa84>
 c005658:	e0c20293 	smull	r0, r2, r3, r2
 c00565c:	e1a03fc3 	asr	r3, r3, #31
 c005660:	e0633002 	rsb	r3, r3, r2
 c005664:	e54b3017 	strb	r3, [fp, #-23]	; 0xffffffe9
			INT8U grid_col = (numero - 1) % 3;   /* 0, 1, 2 */
 c005668:	e55b300d 	ldrb	r3, [fp, #-13]
 c00566c:	e2431001 	sub	r1, r3, #1
 c005670:	e59f3918 	ldr	r3, [pc, #2328]	; c005f90 <Sudoku_Dibujar_Candidatos_En_Celda+0xa84>
 c005674:	e0c20193 	smull	r0, r2, r3, r1
 c005678:	e1a03fc1 	asr	r3, r1, #31
 c00567c:	e0632002 	rsb	r2, r3, r2
 c005680:	e1a03002 	mov	r3, r2
 c005684:	e1a03083 	lsl	r3, r3, #1
 c005688:	e0833002 	add	r3, r3, r2
 c00568c:	e0632001 	rsb	r2, r3, r1
 c005690:	e1a03002 	mov	r3, r2
 c005694:	e54b3018 	strb	r3, [fp, #-24]	; 0xffffffe8
			
			/* Calcular centro de la subcelda */
			INT16U centro_x = celda_x + 3 + grid_col * TAM_SUBCELDA + TAM_SUBCELDA / 2;
 c005698:	e55b3018 	ldrb	r3, [fp, #-24]	; 0xffffffe8
 c00569c:	e1a03803 	lsl	r3, r3, #16
 c0056a0:	e1a03823 	lsr	r3, r3, #16
 c0056a4:	e1a02003 	mov	r2, r3
 c0056a8:	e1a02182 	lsl	r2, r2, #3
 c0056ac:	e0633002 	rsb	r3, r3, r2
 c0056b0:	e1a03803 	lsl	r3, r3, #16
 c0056b4:	e1a02823 	lsr	r2, r3, #16
 c0056b8:	e15b31b4 	ldrh	r3, [fp, #-20]	; 0xffffffec
 c0056bc:	e0823003 	add	r3, r2, r3
 c0056c0:	e1a03803 	lsl	r3, r3, #16
 c0056c4:	e1a03823 	lsr	r3, r3, #16
 c0056c8:	e2833006 	add	r3, r3, #6
 c0056cc:	e14b31ba 	strh	r3, [fp, #-26]	; 0xffffffe6
			INT16U centro_y = celda_y + 3 + grid_fila * TAM_SUBCELDA + TAM_SUBCELDA / 2;
 c0056d0:	e55b3017 	ldrb	r3, [fp, #-23]	; 0xffffffe9
 c0056d4:	e1a03803 	lsl	r3, r3, #16
 c0056d8:	e1a03823 	lsr	r3, r3, #16
 c0056dc:	e1a02003 	mov	r2, r3
 c0056e0:	e1a02182 	lsl	r2, r2, #3
 c0056e4:	e0633002 	rsb	r3, r3, r2
 c0056e8:	e1a03803 	lsl	r3, r3, #16
 c0056ec:	e1a02823 	lsr	r2, r3, #16
 c0056f0:	e15b31b6 	ldrh	r3, [fp, #-22]	; 0xffffffea
 c0056f4:	e0823003 	add	r3, r2, r3
 c0056f8:	e1a03803 	lsl	r3, r3, #16
 c0056fc:	e1a03823 	lsr	r3, r3, #16
 c005700:	e2833006 	add	r3, r3, #6
 c005704:	e14b31bc 	strh	r3, [fp, #-28]	; 0xffffffe4
			
			/* Dibujar un crculo ms grande (3x3 pxeles en forma circular) */
			LCD_PutPixel(centro_x, centro_y, BLACK);           /* Centro */
 c005708:	e15b21bc 	ldrh	r2, [fp, #-28]	; 0xffffffe4
 c00570c:	e1a03002 	mov	r3, r2
 c005710:	e1a03103 	lsl	r3, r3, #2
 c005714:	e0833002 	add	r3, r3, r2
 c005718:	e1a03303 	lsl	r3, r3, #6
 c00571c:	e1a02fa3 	lsr	r2, r3, #31
 c005720:	e0823003 	add	r3, r2, r3
 c005724:	e1a030c3 	asr	r3, r3, #1
 c005728:	e28336c3 	add	r3, r3, #204472320	; 0xc300000
 c00572c:	e2833c96 	add	r3, r3, #38400	; 0x9600
 c005730:	e15b21ba 	ldrh	r2, [fp, #-26]	; 0xffffffe6
 c005734:	e1a021a2 	lsr	r2, r2, #3
 c005738:	e1a02802 	lsl	r2, r2, #16
 c00573c:	e1a02822 	lsr	r2, r2, #16
 c005740:	e1a02102 	lsl	r2, r2, #2
 c005744:	e0833002 	add	r3, r3, r2
 c005748:	e1a01003 	mov	r1, r3
 c00574c:	e15b21bc 	ldrh	r2, [fp, #-28]	; 0xffffffe4
 c005750:	e1a03002 	mov	r3, r2
 c005754:	e1a03103 	lsl	r3, r3, #2
 c005758:	e0833002 	add	r3, r3, r2
 c00575c:	e1a03303 	lsl	r3, r3, #6
 c005760:	e1a02fa3 	lsr	r2, r3, #31
 c005764:	e0823003 	add	r3, r2, r3
 c005768:	e1a030c3 	asr	r3, r3, #1
 c00576c:	e28336c3 	add	r3, r3, #204472320	; 0xc300000
 c005770:	e2833c96 	add	r3, r3, #38400	; 0x9600
 c005774:	e15b21ba 	ldrh	r2, [fp, #-26]	; 0xffffffe6
 c005778:	e1a021a2 	lsr	r2, r2, #3
 c00577c:	e1a02802 	lsl	r2, r2, #16
 c005780:	e1a02822 	lsr	r2, r2, #16
 c005784:	e1a02102 	lsl	r2, r2, #2
 c005788:	e0833002 	add	r3, r3, r2
 c00578c:	e5932000 	ldr	r2, [r3]
 c005790:	e15b31ba 	ldrh	r3, [fp, #-26]	; 0xffffffe6
 c005794:	e2033007 	and	r3, r3, #7
 c005798:	e1a03103 	lsl	r3, r3, #2
 c00579c:	e3a0020f 	mov	r0, #-268435456	; 0xf0000000
 c0057a0:	e1a03330 	lsr	r3, r0, r3
 c0057a4:	e1e03003 	mvn	r3, r3
 c0057a8:	e0022003 	and	r2, r2, r3
 c0057ac:	e15b31ba 	ldrh	r3, [fp, #-26]	; 0xffffffe6
 c0057b0:	e1e03003 	mvn	r3, r3
 c0057b4:	e2033007 	and	r3, r3, #7
 c0057b8:	e1a03103 	lsl	r3, r3, #2
 c0057bc:	e3a0000f 	mov	r0, #15
 c0057c0:	e1a03310 	lsl	r3, r0, r3
 c0057c4:	e1823003 	orr	r3, r2, r3
 c0057c8:	e5813000 	str	r3, [r1]
			LCD_PutPixel(centro_x - 1, centro_y, BLACK);       /* Izquierda */
 c0057cc:	e15b21bc 	ldrh	r2, [fp, #-28]	; 0xffffffe4
 c0057d0:	e1a03002 	mov	r3, r2
 c0057d4:	e1a03103 	lsl	r3, r3, #2
 c0057d8:	e0833002 	add	r3, r3, r2
 c0057dc:	e1a03303 	lsl	r3, r3, #6
 c0057e0:	e1a02fa3 	lsr	r2, r3, #31
 c0057e4:	e0823003 	add	r3, r2, r3
 c0057e8:	e1a030c3 	asr	r3, r3, #1
 c0057ec:	e28326c3 	add	r2, r3, #204472320	; 0xc300000
 c0057f0:	e2822c96 	add	r2, r2, #38400	; 0x9600
 c0057f4:	e15b31ba 	ldrh	r3, [fp, #-26]	; 0xffffffe6
 c0057f8:	e2433001 	sub	r3, r3, #1
 c0057fc:	e2831007 	add	r1, r3, #7
 c005800:	e3530000 	cmp	r3, #0
 c005804:	b1a03001 	movlt	r3, r1
 c005808:	e1a031c3 	asr	r3, r3, #3
 c00580c:	e1a03103 	lsl	r3, r3, #2
 c005810:	e0823003 	add	r3, r2, r3
 c005814:	e1a01003 	mov	r1, r3
 c005818:	e15b21bc 	ldrh	r2, [fp, #-28]	; 0xffffffe4
 c00581c:	e1a03002 	mov	r3, r2
 c005820:	e1a03103 	lsl	r3, r3, #2
 c005824:	e0833002 	add	r3, r3, r2
 c005828:	e1a03303 	lsl	r3, r3, #6
 c00582c:	e1a02fa3 	lsr	r2, r3, #31
 c005830:	e0823003 	add	r3, r2, r3
 c005834:	e1a030c3 	asr	r3, r3, #1
 c005838:	e28326c3 	add	r2, r3, #204472320	; 0xc300000
 c00583c:	e2822c96 	add	r2, r2, #38400	; 0x9600
 c005840:	e15b31ba 	ldrh	r3, [fp, #-26]	; 0xffffffe6
 c005844:	e2433001 	sub	r3, r3, #1
 c005848:	e2830007 	add	r0, r3, #7
 c00584c:	e3530000 	cmp	r3, #0
 c005850:	b1a03000 	movlt	r3, r0
 c005854:	e1a031c3 	asr	r3, r3, #3
 c005858:	e1a03103 	lsl	r3, r3, #2
 c00585c:	e0823003 	add	r3, r2, r3
 c005860:	e5930000 	ldr	r0, [r3]
 c005864:	e15b31ba 	ldrh	r3, [fp, #-26]	; 0xffffffe6
 c005868:	e2432001 	sub	r2, r3, #1
 c00586c:	e1a03fc2 	asr	r3, r2, #31
 c005870:	e1a03ea3 	lsr	r3, r3, #29
 c005874:	e0822003 	add	r2, r2, r3
 c005878:	e2022007 	and	r2, r2, #7
 c00587c:	e0633002 	rsb	r3, r3, r2
 c005880:	e1a03103 	lsl	r3, r3, #2
 c005884:	e3a0220f 	mov	r2, #-268435456	; 0xf0000000
 c005888:	e1a03332 	lsr	r3, r2, r3
 c00588c:	e1e03003 	mvn	r3, r3
 c005890:	e0000003 	and	r0, r0, r3
 c005894:	e15b31ba 	ldrh	r3, [fp, #-26]	; 0xffffffe6
 c005898:	e2432001 	sub	r2, r3, #1
 c00589c:	e1a03fc2 	asr	r3, r2, #31
 c0058a0:	e1a03ea3 	lsr	r3, r3, #29
 c0058a4:	e0822003 	add	r2, r2, r3
 c0058a8:	e2022007 	and	r2, r2, #7
 c0058ac:	e0633002 	rsb	r3, r3, r2
 c0058b0:	e2633007 	rsb	r3, r3, #7
 c0058b4:	e1a03103 	lsl	r3, r3, #2
 c0058b8:	e3a0200f 	mov	r2, #15
 c0058bc:	e1a03312 	lsl	r3, r2, r3
 c0058c0:	e1803003 	orr	r3, r0, r3
 c0058c4:	e5813000 	str	r3, [r1]
			LCD_PutPixel(centro_x + 1, centro_y, BLACK);       /* Derecha */
 c0058c8:	e15b21bc 	ldrh	r2, [fp, #-28]	; 0xffffffe4
 c0058cc:	e1a03002 	mov	r3, r2
 c0058d0:	e1a03103 	lsl	r3, r3, #2
 c0058d4:	e0833002 	add	r3, r3, r2
 c0058d8:	e1a03303 	lsl	r3, r3, #6
 c0058dc:	e1a02fa3 	lsr	r2, r3, #31
 c0058e0:	e0823003 	add	r3, r2, r3
 c0058e4:	e1a030c3 	asr	r3, r3, #1
 c0058e8:	e28326c3 	add	r2, r3, #204472320	; 0xc300000
 c0058ec:	e2822c96 	add	r2, r2, #38400	; 0x9600
 c0058f0:	e15b31ba 	ldrh	r3, [fp, #-26]	; 0xffffffe6
 c0058f4:	e2833001 	add	r3, r3, #1
 c0058f8:	e2831007 	add	r1, r3, #7
 c0058fc:	e3530000 	cmp	r3, #0
 c005900:	b1a03001 	movlt	r3, r1
 c005904:	e1a031c3 	asr	r3, r3, #3
 c005908:	e1a03103 	lsl	r3, r3, #2
 c00590c:	e0823003 	add	r3, r2, r3
 c005910:	e1a01003 	mov	r1, r3
 c005914:	e15b21bc 	ldrh	r2, [fp, #-28]	; 0xffffffe4
 c005918:	e1a03002 	mov	r3, r2
 c00591c:	e1a03103 	lsl	r3, r3, #2
 c005920:	e0833002 	add	r3, r3, r2
 c005924:	e1a03303 	lsl	r3, r3, #6
 c005928:	e1a02fa3 	lsr	r2, r3, #31
 c00592c:	e0823003 	add	r3, r2, r3
 c005930:	e1a030c3 	asr	r3, r3, #1
 c005934:	e28326c3 	add	r2, r3, #204472320	; 0xc300000
 c005938:	e2822c96 	add	r2, r2, #38400	; 0x9600
 c00593c:	e15b31ba 	ldrh	r3, [fp, #-26]	; 0xffffffe6
 c005940:	e2833001 	add	r3, r3, #1
 c005944:	e2830007 	add	r0, r3, #7
 c005948:	e3530000 	cmp	r3, #0
 c00594c:	b1a03000 	movlt	r3, r0
 c005950:	e1a031c3 	asr	r3, r3, #3
 c005954:	e1a03103 	lsl	r3, r3, #2
 c005958:	e0823003 	add	r3, r2, r3
 c00595c:	e5930000 	ldr	r0, [r3]
 c005960:	e15b31ba 	ldrh	r3, [fp, #-26]	; 0xffffffe6
 c005964:	e2832001 	add	r2, r3, #1
 c005968:	e1a03fc2 	asr	r3, r2, #31
 c00596c:	e1a03ea3 	lsr	r3, r3, #29
 c005970:	e0822003 	add	r2, r2, r3
 c005974:	e2022007 	and	r2, r2, #7
 c005978:	e0633002 	rsb	r3, r3, r2
 c00597c:	e1a03103 	lsl	r3, r3, #2
 c005980:	e3a0220f 	mov	r2, #-268435456	; 0xf0000000
 c005984:	e1a03332 	lsr	r3, r2, r3
 c005988:	e1e03003 	mvn	r3, r3
 c00598c:	e0000003 	and	r0, r0, r3
 c005990:	e15b31ba 	ldrh	r3, [fp, #-26]	; 0xffffffe6
 c005994:	e2832001 	add	r2, r3, #1
 c005998:	e1a03fc2 	asr	r3, r2, #31
 c00599c:	e1a03ea3 	lsr	r3, r3, #29
 c0059a0:	e0822003 	add	r2, r2, r3
 c0059a4:	e2022007 	and	r2, r2, #7
 c0059a8:	e0633002 	rsb	r3, r3, r2
 c0059ac:	e2633007 	rsb	r3, r3, #7
 c0059b0:	e1a03103 	lsl	r3, r3, #2
 c0059b4:	e3a0200f 	mov	r2, #15
 c0059b8:	e1a03312 	lsl	r3, r2, r3
 c0059bc:	e1803003 	orr	r3, r0, r3
 c0059c0:	e5813000 	str	r3, [r1]
			LCD_PutPixel(centro_x, centro_y - 1, BLACK);       /* Arriba */
 c0059c4:	e15b31bc 	ldrh	r3, [fp, #-28]	; 0xffffffe4
 c0059c8:	e2432001 	sub	r2, r3, #1
 c0059cc:	e1a03002 	mov	r3, r2
 c0059d0:	e1a03103 	lsl	r3, r3, #2
 c0059d4:	e0833002 	add	r3, r3, r2
 c0059d8:	e1a03303 	lsl	r3, r3, #6
 c0059dc:	e1a02fa3 	lsr	r2, r3, #31
 c0059e0:	e0823003 	add	r3, r2, r3
 c0059e4:	e1a030c3 	asr	r3, r3, #1
 c0059e8:	e28336c3 	add	r3, r3, #204472320	; 0xc300000
 c0059ec:	e2833c96 	add	r3, r3, #38400	; 0x9600
 c0059f0:	e15b21ba 	ldrh	r2, [fp, #-26]	; 0xffffffe6
 c0059f4:	e1a021a2 	lsr	r2, r2, #3
 c0059f8:	e1a02802 	lsl	r2, r2, #16
 c0059fc:	e1a02822 	lsr	r2, r2, #16
 c005a00:	e1a02102 	lsl	r2, r2, #2
 c005a04:	e0833002 	add	r3, r3, r2
 c005a08:	e1a01003 	mov	r1, r3
 c005a0c:	e15b31bc 	ldrh	r3, [fp, #-28]	; 0xffffffe4
 c005a10:	e2432001 	sub	r2, r3, #1
 c005a14:	e1a03002 	mov	r3, r2
 c005a18:	e1a03103 	lsl	r3, r3, #2
 c005a1c:	e0833002 	add	r3, r3, r2
 c005a20:	e1a03303 	lsl	r3, r3, #6
 c005a24:	e1a02fa3 	lsr	r2, r3, #31
 c005a28:	e0823003 	add	r3, r2, r3
 c005a2c:	e1a030c3 	asr	r3, r3, #1
 c005a30:	e28336c3 	add	r3, r3, #204472320	; 0xc300000
 c005a34:	e2833c96 	add	r3, r3, #38400	; 0x9600
 c005a38:	e15b21ba 	ldrh	r2, [fp, #-26]	; 0xffffffe6
 c005a3c:	e1a021a2 	lsr	r2, r2, #3
 c005a40:	e1a02802 	lsl	r2, r2, #16
 c005a44:	e1a02822 	lsr	r2, r2, #16
 c005a48:	e1a02102 	lsl	r2, r2, #2
 c005a4c:	e0833002 	add	r3, r3, r2
 c005a50:	e5932000 	ldr	r2, [r3]
 c005a54:	e15b31ba 	ldrh	r3, [fp, #-26]	; 0xffffffe6
 c005a58:	e2033007 	and	r3, r3, #7
 c005a5c:	e1a03103 	lsl	r3, r3, #2
 c005a60:	e3a0020f 	mov	r0, #-268435456	; 0xf0000000
 c005a64:	e1a03330 	lsr	r3, r0, r3
 c005a68:	e1e03003 	mvn	r3, r3
 c005a6c:	e0022003 	and	r2, r2, r3
 c005a70:	e15b31ba 	ldrh	r3, [fp, #-26]	; 0xffffffe6
 c005a74:	e1e03003 	mvn	r3, r3
 c005a78:	e2033007 	and	r3, r3, #7
 c005a7c:	e1a03103 	lsl	r3, r3, #2
 c005a80:	e3a0000f 	mov	r0, #15
 c005a84:	e1a03310 	lsl	r3, r0, r3
 c005a88:	e1823003 	orr	r3, r2, r3
 c005a8c:	e5813000 	str	r3, [r1]
			LCD_PutPixel(centro_x, centro_y + 1, BLACK);       /* Abajo */
 c005a90:	e15b31bc 	ldrh	r3, [fp, #-28]	; 0xffffffe4
 c005a94:	e2832001 	add	r2, r3, #1
 c005a98:	e1a03002 	mov	r3, r2
 c005a9c:	e1a03103 	lsl	r3, r3, #2
 c005aa0:	e0833002 	add	r3, r3, r2
 c005aa4:	e1a03303 	lsl	r3, r3, #6
 c005aa8:	e1a02fa3 	lsr	r2, r3, #31
 c005aac:	e0823003 	add	r3, r2, r3
 c005ab0:	e1a030c3 	asr	r3, r3, #1
 c005ab4:	e28336c3 	add	r3, r3, #204472320	; 0xc300000
 c005ab8:	e2833c96 	add	r3, r3, #38400	; 0x9600
 c005abc:	e15b21ba 	ldrh	r2, [fp, #-26]	; 0xffffffe6
 c005ac0:	e1a021a2 	lsr	r2, r2, #3
 c005ac4:	e1a02802 	lsl	r2, r2, #16
 c005ac8:	e1a02822 	lsr	r2, r2, #16
 c005acc:	e1a02102 	lsl	r2, r2, #2
 c005ad0:	e0833002 	add	r3, r3, r2
 c005ad4:	e1a01003 	mov	r1, r3
 c005ad8:	e15b31bc 	ldrh	r3, [fp, #-28]	; 0xffffffe4
 c005adc:	e2832001 	add	r2, r3, #1
 c005ae0:	e1a03002 	mov	r3, r2
 c005ae4:	e1a03103 	lsl	r3, r3, #2
 c005ae8:	e0833002 	add	r3, r3, r2
 c005aec:	e1a03303 	lsl	r3, r3, #6
 c005af0:	e1a02fa3 	lsr	r2, r3, #31
 c005af4:	e0823003 	add	r3, r2, r3
 c005af8:	e1a030c3 	asr	r3, r3, #1
 c005afc:	e28336c3 	add	r3, r3, #204472320	; 0xc300000
 c005b00:	e2833c96 	add	r3, r3, #38400	; 0x9600
 c005b04:	e15b21ba 	ldrh	r2, [fp, #-26]	; 0xffffffe6
 c005b08:	e1a021a2 	lsr	r2, r2, #3
 c005b0c:	e1a02802 	lsl	r2, r2, #16
 c005b10:	e1a02822 	lsr	r2, r2, #16
 c005b14:	e1a02102 	lsl	r2, r2, #2
 c005b18:	e0833002 	add	r3, r3, r2
 c005b1c:	e5932000 	ldr	r2, [r3]
 c005b20:	e15b31ba 	ldrh	r3, [fp, #-26]	; 0xffffffe6
 c005b24:	e2033007 	and	r3, r3, #7
 c005b28:	e1a03103 	lsl	r3, r3, #2
 c005b2c:	e3a0020f 	mov	r0, #-268435456	; 0xf0000000
 c005b30:	e1a03330 	lsr	r3, r0, r3
 c005b34:	e1e03003 	mvn	r3, r3
 c005b38:	e0022003 	and	r2, r2, r3
 c005b3c:	e15b31ba 	ldrh	r3, [fp, #-26]	; 0xffffffe6
 c005b40:	e1e03003 	mvn	r3, r3
 c005b44:	e2033007 	and	r3, r3, #7
 c005b48:	e1a03103 	lsl	r3, r3, #2
 c005b4c:	e3a0000f 	mov	r0, #15
 c005b50:	e1a03310 	lsl	r3, r0, r3
 c005b54:	e1823003 	orr	r3, r2, r3
 c005b58:	e5813000 	str	r3, [r1]
			LCD_PutPixel(centro_x - 1, centro_y - 1, BLACK);   /* Diagonal sup-izq */
 c005b5c:	e15b31bc 	ldrh	r3, [fp, #-28]	; 0xffffffe4
 c005b60:	e2432001 	sub	r2, r3, #1
 c005b64:	e1a03002 	mov	r3, r2
 c005b68:	e1a03103 	lsl	r3, r3, #2
 c005b6c:	e0833002 	add	r3, r3, r2
 c005b70:	e1a03303 	lsl	r3, r3, #6
 c005b74:	e1a02fa3 	lsr	r2, r3, #31
 c005b78:	e0823003 	add	r3, r2, r3
 c005b7c:	e1a030c3 	asr	r3, r3, #1
 c005b80:	e28326c3 	add	r2, r3, #204472320	; 0xc300000
 c005b84:	e2822c96 	add	r2, r2, #38400	; 0x9600
 c005b88:	e15b31ba 	ldrh	r3, [fp, #-26]	; 0xffffffe6
 c005b8c:	e2433001 	sub	r3, r3, #1
 c005b90:	e2831007 	add	r1, r3, #7
 c005b94:	e3530000 	cmp	r3, #0
 c005b98:	b1a03001 	movlt	r3, r1
 c005b9c:	e1a031c3 	asr	r3, r3, #3
 c005ba0:	e1a03103 	lsl	r3, r3, #2
 c005ba4:	e0823003 	add	r3, r2, r3
 c005ba8:	e1a01003 	mov	r1, r3
 c005bac:	e15b31bc 	ldrh	r3, [fp, #-28]	; 0xffffffe4
 c005bb0:	e2432001 	sub	r2, r3, #1
 c005bb4:	e1a03002 	mov	r3, r2
 c005bb8:	e1a03103 	lsl	r3, r3, #2
 c005bbc:	e0833002 	add	r3, r3, r2
 c005bc0:	e1a03303 	lsl	r3, r3, #6
 c005bc4:	e1a02fa3 	lsr	r2, r3, #31
 c005bc8:	e0823003 	add	r3, r2, r3
 c005bcc:	e1a030c3 	asr	r3, r3, #1
 c005bd0:	e28326c3 	add	r2, r3, #204472320	; 0xc300000
 c005bd4:	e2822c96 	add	r2, r2, #38400	; 0x9600
 c005bd8:	e15b31ba 	ldrh	r3, [fp, #-26]	; 0xffffffe6
 c005bdc:	e2433001 	sub	r3, r3, #1
 c005be0:	e2830007 	add	r0, r3, #7
 c005be4:	e3530000 	cmp	r3, #0
 c005be8:	b1a03000 	movlt	r3, r0
 c005bec:	e1a031c3 	asr	r3, r3, #3
 c005bf0:	e1a03103 	lsl	r3, r3, #2
 c005bf4:	e0823003 	add	r3, r2, r3
 c005bf8:	e5930000 	ldr	r0, [r3]
 c005bfc:	e15b31ba 	ldrh	r3, [fp, #-26]	; 0xffffffe6
 c005c00:	e2432001 	sub	r2, r3, #1
 c005c04:	e1a03fc2 	asr	r3, r2, #31
 c005c08:	e1a03ea3 	lsr	r3, r3, #29
 c005c0c:	e0822003 	add	r2, r2, r3
 c005c10:	e2022007 	and	r2, r2, #7
 c005c14:	e0633002 	rsb	r3, r3, r2
 c005c18:	e1a03103 	lsl	r3, r3, #2
 c005c1c:	e3a0220f 	mov	r2, #-268435456	; 0xf0000000
 c005c20:	e1a03332 	lsr	r3, r2, r3
 c005c24:	e1e03003 	mvn	r3, r3
 c005c28:	e0000003 	and	r0, r0, r3
 c005c2c:	e15b31ba 	ldrh	r3, [fp, #-26]	; 0xffffffe6
 c005c30:	e2432001 	sub	r2, r3, #1
 c005c34:	e1a03fc2 	asr	r3, r2, #31
 c005c38:	e1a03ea3 	lsr	r3, r3, #29
 c005c3c:	e0822003 	add	r2, r2, r3
 c005c40:	e2022007 	and	r2, r2, #7
 c005c44:	e0633002 	rsb	r3, r3, r2
 c005c48:	e2633007 	rsb	r3, r3, #7
 c005c4c:	e1a03103 	lsl	r3, r3, #2
 c005c50:	e3a0200f 	mov	r2, #15
 c005c54:	e1a03312 	lsl	r3, r2, r3
 c005c58:	e1803003 	orr	r3, r0, r3
 c005c5c:	e5813000 	str	r3, [r1]
			LCD_PutPixel(centro_x + 1, centro_y - 1, BLACK);   /* Diagonal sup-der */
 c005c60:	e15b31bc 	ldrh	r3, [fp, #-28]	; 0xffffffe4
 c005c64:	e2432001 	sub	r2, r3, #1
 c005c68:	e1a03002 	mov	r3, r2
 c005c6c:	e1a03103 	lsl	r3, r3, #2
 c005c70:	e0833002 	add	r3, r3, r2
 c005c74:	e1a03303 	lsl	r3, r3, #6
 c005c78:	e1a02fa3 	lsr	r2, r3, #31
 c005c7c:	e0823003 	add	r3, r2, r3
 c005c80:	e1a030c3 	asr	r3, r3, #1
 c005c84:	e28326c3 	add	r2, r3, #204472320	; 0xc300000
 c005c88:	e2822c96 	add	r2, r2, #38400	; 0x9600
 c005c8c:	e15b31ba 	ldrh	r3, [fp, #-26]	; 0xffffffe6
 c005c90:	e2833001 	add	r3, r3, #1
 c005c94:	e2831007 	add	r1, r3, #7
 c005c98:	e3530000 	cmp	r3, #0
 c005c9c:	b1a03001 	movlt	r3, r1
 c005ca0:	e1a031c3 	asr	r3, r3, #3
 c005ca4:	e1a03103 	lsl	r3, r3, #2
 c005ca8:	e0823003 	add	r3, r2, r3
 c005cac:	e1a01003 	mov	r1, r3
 c005cb0:	e15b31bc 	ldrh	r3, [fp, #-28]	; 0xffffffe4
 c005cb4:	e2432001 	sub	r2, r3, #1
 c005cb8:	e1a03002 	mov	r3, r2
 c005cbc:	e1a03103 	lsl	r3, r3, #2
 c005cc0:	e0833002 	add	r3, r3, r2
 c005cc4:	e1a03303 	lsl	r3, r3, #6
 c005cc8:	e1a02fa3 	lsr	r2, r3, #31
 c005ccc:	e0823003 	add	r3, r2, r3
 c005cd0:	e1a030c3 	asr	r3, r3, #1
 c005cd4:	e28326c3 	add	r2, r3, #204472320	; 0xc300000
 c005cd8:	e2822c96 	add	r2, r2, #38400	; 0x9600
 c005cdc:	e15b31ba 	ldrh	r3, [fp, #-26]	; 0xffffffe6
 c005ce0:	e2833001 	add	r3, r3, #1
 c005ce4:	e2830007 	add	r0, r3, #7
 c005ce8:	e3530000 	cmp	r3, #0
 c005cec:	b1a03000 	movlt	r3, r0
 c005cf0:	e1a031c3 	asr	r3, r3, #3
 c005cf4:	e1a03103 	lsl	r3, r3, #2
 c005cf8:	e0823003 	add	r3, r2, r3
 c005cfc:	e5930000 	ldr	r0, [r3]
 c005d00:	e15b31ba 	ldrh	r3, [fp, #-26]	; 0xffffffe6
 c005d04:	e2832001 	add	r2, r3, #1
 c005d08:	e1a03fc2 	asr	r3, r2, #31
 c005d0c:	e1a03ea3 	lsr	r3, r3, #29
 c005d10:	e0822003 	add	r2, r2, r3
 c005d14:	e2022007 	and	r2, r2, #7
 c005d18:	e0633002 	rsb	r3, r3, r2
 c005d1c:	e1a03103 	lsl	r3, r3, #2
 c005d20:	e3a0220f 	mov	r2, #-268435456	; 0xf0000000
 c005d24:	e1a03332 	lsr	r3, r2, r3
 c005d28:	e1e03003 	mvn	r3, r3
 c005d2c:	e0000003 	and	r0, r0, r3
 c005d30:	e15b31ba 	ldrh	r3, [fp, #-26]	; 0xffffffe6
 c005d34:	e2832001 	add	r2, r3, #1
 c005d38:	e1a03fc2 	asr	r3, r2, #31
 c005d3c:	e1a03ea3 	lsr	r3, r3, #29
 c005d40:	e0822003 	add	r2, r2, r3
 c005d44:	e2022007 	and	r2, r2, #7
 c005d48:	e0633002 	rsb	r3, r3, r2
 c005d4c:	e2633007 	rsb	r3, r3, #7
 c005d50:	e1a03103 	lsl	r3, r3, #2
 c005d54:	e3a0200f 	mov	r2, #15
 c005d58:	e1a03312 	lsl	r3, r2, r3
 c005d5c:	e1803003 	orr	r3, r0, r3
 c005d60:	e5813000 	str	r3, [r1]
			LCD_PutPixel(centro_x - 1, centro_y + 1, BLACK);   /* Diagonal inf-izq */
 c005d64:	e15b31bc 	ldrh	r3, [fp, #-28]	; 0xffffffe4
 c005d68:	e2832001 	add	r2, r3, #1
 c005d6c:	e1a03002 	mov	r3, r2
 c005d70:	e1a03103 	lsl	r3, r3, #2
 c005d74:	e0833002 	add	r3, r3, r2
 c005d78:	e1a03303 	lsl	r3, r3, #6
 c005d7c:	e1a02fa3 	lsr	r2, r3, #31
 c005d80:	e0823003 	add	r3, r2, r3
 c005d84:	e1a030c3 	asr	r3, r3, #1
 c005d88:	e28326c3 	add	r2, r3, #204472320	; 0xc300000
 c005d8c:	e2822c96 	add	r2, r2, #38400	; 0x9600
 c005d90:	e15b31ba 	ldrh	r3, [fp, #-26]	; 0xffffffe6
 c005d94:	e2433001 	sub	r3, r3, #1
 c005d98:	e2831007 	add	r1, r3, #7
 c005d9c:	e3530000 	cmp	r3, #0
 c005da0:	b1a03001 	movlt	r3, r1
 c005da4:	e1a031c3 	asr	r3, r3, #3
 c005da8:	e1a03103 	lsl	r3, r3, #2
 c005dac:	e0823003 	add	r3, r2, r3
 c005db0:	e1a01003 	mov	r1, r3
 c005db4:	e15b31bc 	ldrh	r3, [fp, #-28]	; 0xffffffe4
 c005db8:	e2832001 	add	r2, r3, #1
 c005dbc:	e1a03002 	mov	r3, r2
 c005dc0:	e1a03103 	lsl	r3, r3, #2
 c005dc4:	e0833002 	add	r3, r3, r2
 c005dc8:	e1a03303 	lsl	r3, r3, #6
 c005dcc:	e1a02fa3 	lsr	r2, r3, #31
 c005dd0:	e0823003 	add	r3, r2, r3
 c005dd4:	e1a030c3 	asr	r3, r3, #1
 c005dd8:	e28326c3 	add	r2, r3, #204472320	; 0xc300000
 c005ddc:	e2822c96 	add	r2, r2, #38400	; 0x9600
 c005de0:	e15b31ba 	ldrh	r3, [fp, #-26]	; 0xffffffe6
 c005de4:	e2433001 	sub	r3, r3, #1
 c005de8:	e2830007 	add	r0, r3, #7
 c005dec:	e3530000 	cmp	r3, #0
 c005df0:	b1a03000 	movlt	r3, r0
 c005df4:	e1a031c3 	asr	r3, r3, #3
 c005df8:	e1a03103 	lsl	r3, r3, #2
 c005dfc:	e0823003 	add	r3, r2, r3
 c005e00:	e5930000 	ldr	r0, [r3]
 c005e04:	e15b31ba 	ldrh	r3, [fp, #-26]	; 0xffffffe6
 c005e08:	e2432001 	sub	r2, r3, #1
 c005e0c:	e1a03fc2 	asr	r3, r2, #31
 c005e10:	e1a03ea3 	lsr	r3, r3, #29
 c005e14:	e0822003 	add	r2, r2, r3
 c005e18:	e2022007 	and	r2, r2, #7
 c005e1c:	e0633002 	rsb	r3, r3, r2
 c005e20:	e1a03103 	lsl	r3, r3, #2
 c005e24:	e3a0220f 	mov	r2, #-268435456	; 0xf0000000
 c005e28:	e1a03332 	lsr	r3, r2, r3
 c005e2c:	e1e03003 	mvn	r3, r3
 c005e30:	e0000003 	and	r0, r0, r3
 c005e34:	e15b31ba 	ldrh	r3, [fp, #-26]	; 0xffffffe6
 c005e38:	e2432001 	sub	r2, r3, #1
 c005e3c:	e1a03fc2 	asr	r3, r2, #31
 c005e40:	e1a03ea3 	lsr	r3, r3, #29
 c005e44:	e0822003 	add	r2, r2, r3
 c005e48:	e2022007 	and	r2, r2, #7
 c005e4c:	e0633002 	rsb	r3, r3, r2
 c005e50:	e2633007 	rsb	r3, r3, #7
 c005e54:	e1a03103 	lsl	r3, r3, #2
 c005e58:	e3a0200f 	mov	r2, #15
 c005e5c:	e1a03312 	lsl	r3, r2, r3
 c005e60:	e1803003 	orr	r3, r0, r3
 c005e64:	e5813000 	str	r3, [r1]
			LCD_PutPixel(centro_x + 1, centro_y + 1, BLACK);   /* Diagonal inf-der */
 c005e68:	e15b31bc 	ldrh	r3, [fp, #-28]	; 0xffffffe4
 c005e6c:	e2832001 	add	r2, r3, #1
 c005e70:	e1a03002 	mov	r3, r2
 c005e74:	e1a03103 	lsl	r3, r3, #2
 c005e78:	e0833002 	add	r3, r3, r2
 c005e7c:	e1a03303 	lsl	r3, r3, #6
 c005e80:	e1a02fa3 	lsr	r2, r3, #31
 c005e84:	e0823003 	add	r3, r2, r3
 c005e88:	e1a030c3 	asr	r3, r3, #1
 c005e8c:	e28326c3 	add	r2, r3, #204472320	; 0xc300000
 c005e90:	e2822c96 	add	r2, r2, #38400	; 0x9600
 c005e94:	e15b31ba 	ldrh	r3, [fp, #-26]	; 0xffffffe6
 c005e98:	e2833001 	add	r3, r3, #1
 c005e9c:	e2831007 	add	r1, r3, #7
 c005ea0:	e3530000 	cmp	r3, #0
 c005ea4:	b1a03001 	movlt	r3, r1
 c005ea8:	e1a031c3 	asr	r3, r3, #3
 c005eac:	e1a03103 	lsl	r3, r3, #2
 c005eb0:	e0823003 	add	r3, r2, r3
 c005eb4:	e1a01003 	mov	r1, r3
 c005eb8:	e15b31bc 	ldrh	r3, [fp, #-28]	; 0xffffffe4
 c005ebc:	e2832001 	add	r2, r3, #1
 c005ec0:	e1a03002 	mov	r3, r2
 c005ec4:	e1a03103 	lsl	r3, r3, #2
 c005ec8:	e0833002 	add	r3, r3, r2
 c005ecc:	e1a03303 	lsl	r3, r3, #6
 c005ed0:	e1a02fa3 	lsr	r2, r3, #31
 c005ed4:	e0823003 	add	r3, r2, r3
 c005ed8:	e1a030c3 	asr	r3, r3, #1
 c005edc:	e28326c3 	add	r2, r3, #204472320	; 0xc300000
 c005ee0:	e2822c96 	add	r2, r2, #38400	; 0x9600
 c005ee4:	e15b31ba 	ldrh	r3, [fp, #-26]	; 0xffffffe6
 c005ee8:	e2833001 	add	r3, r3, #1
 c005eec:	e2830007 	add	r0, r3, #7
 c005ef0:	e3530000 	cmp	r3, #0
 c005ef4:	b1a03000 	movlt	r3, r0
 c005ef8:	e1a031c3 	asr	r3, r3, #3
 c005efc:	e1a03103 	lsl	r3, r3, #2
 c005f00:	e0823003 	add	r3, r2, r3
 c005f04:	e5930000 	ldr	r0, [r3]
 c005f08:	e15b31ba 	ldrh	r3, [fp, #-26]	; 0xffffffe6
 c005f0c:	e2832001 	add	r2, r3, #1
 c005f10:	e1a03fc2 	asr	r3, r2, #31
 c005f14:	e1a03ea3 	lsr	r3, r3, #29
 c005f18:	e0822003 	add	r2, r2, r3
 c005f1c:	e2022007 	and	r2, r2, #7
 c005f20:	e0633002 	rsb	r3, r3, r2
 c005f24:	e1a03103 	lsl	r3, r3, #2
 c005f28:	e3a0220f 	mov	r2, #-268435456	; 0xf0000000
 c005f2c:	e1a03332 	lsr	r3, r2, r3
 c005f30:	e1e03003 	mvn	r3, r3
 c005f34:	e0000003 	and	r0, r0, r3
 c005f38:	e15b31ba 	ldrh	r3, [fp, #-26]	; 0xffffffe6
 c005f3c:	e2832001 	add	r2, r3, #1
 c005f40:	e1a03fc2 	asr	r3, r2, #31
 c005f44:	e1a03ea3 	lsr	r3, r3, #29
 c005f48:	e0822003 	add	r2, r2, r3
 c005f4c:	e2022007 	and	r2, r2, #7
 c005f50:	e0633002 	rsb	r3, r3, r2
 c005f54:	e2633007 	rsb	r3, r3, #7
 c005f58:	e1a03103 	lsl	r3, r3, #2
 c005f5c:	e3a0200f 	mov	r2, #15
 c005f60:	e1a03312 	lsl	r3, r2, r3
 c005f64:	e1803003 	orr	r3, r0, r3
 c005f68:	e5813000 	str	r3, [r1]
	/* Dibujar grid de candidatos */
	/* Cada subcelda del grid 3x3 tiene aproximadamente 7 pxeles */
	#define TAM_SUBCELDA 7
	
	INT8U numero;
	for (numero = 1; numero <= 9; numero++)
 c005f6c:	e55b300d 	ldrb	r3, [fp, #-13]
 c005f70:	e2833001 	add	r3, r3, #1
 c005f74:	e54b300d 	strb	r3, [fp, #-13]
 c005f78:	e55b300d 	ldrb	r3, [fp, #-13]
 c005f7c:	e3530009 	cmp	r3, #9
 c005f80:	9afffda9 	bls	c00562c <Sudoku_Dibujar_Candidatos_En_Celda+0x120>
			LCD_PutPixel(centro_x + 1, centro_y - 1, BLACK);   /* Diagonal sup-der */
			LCD_PutPixel(centro_x - 1, centro_y + 1, BLACK);   /* Diagonal inf-izq */
			LCD_PutPixel(centro_x + 1, centro_y + 1, BLACK);   /* Diagonal inf-der */
		}
	}
}
 c005f84:	e24bd00c 	sub	sp, fp, #12
 c005f88:	e89d6800 	ldm	sp, {fp, sp, lr}
 c005f8c:	e12fff1e 	bx	lr
 c005f90:	55555556 	.word	0x55555556

0c005f94 <Sudoku_Actualizar_Tablero_Completo>:
* ret:		none
* modify:
* comment:	Recorre toda la cuadrcula y dibuja cada celda segn su contenido
*********************************************************************************************/
void Sudoku_Actualizar_Tablero_Completo(void* cuadricula_ptr)
{
 c005f94:	e1a0c00d 	mov	ip, sp
 c005f98:	e92dd800 	push	{fp, ip, lr, pc}
 c005f9c:	e24cb004 	sub	fp, ip, #4
 c005fa0:	e24dd020 	sub	sp, sp, #32
 c005fa4:	e50b0020 	str	r0, [fp, #-32]	; 0xffffffe0
	CELDA (*cuadricula)[NUM_COLUMNAS] = (CELDA (*)[NUM_COLUMNAS])cuadricula_ptr;
 c005fa8:	e51b3020 	ldr	r3, [fp, #-32]	; 0xffffffe0
 c005fac:	e50b3014 	str	r3, [fp, #-20]	; 0xffffffec
	INT16U fila, col;
	
	/* Recorrer todas las celdas del tablero */
	for (fila = 0; fila < NUM_FILAS; fila++)
 c005fb0:	e3a03000 	mov	r3, #0
 c005fb4:	e14b30be 	strh	r3, [fp, #-14]
 c005fb8:	ea000036 	b	c006098 <Sudoku_Actualizar_Tablero_Completo+0x104>
	{
		for (col = 0; col < NUM_FILAS; col++)
 c005fbc:	e3a03000 	mov	r3, #0
 c005fc0:	e14b31b0 	strh	r3, [fp, #-16]
 c005fc4:	ea00002d 	b	c006080 <Sudoku_Actualizar_Tablero_Completo+0xec>
		{
			CELDA celda_actual = cuadricula[fila][col];
 c005fc8:	e15b30be 	ldrh	r3, [fp, #-14]
 c005fcc:	e1a03283 	lsl	r3, r3, #5
 c005fd0:	e51b2014 	ldr	r2, [fp, #-20]	; 0xffffffec
 c005fd4:	e0822003 	add	r2, r2, r3
 c005fd8:	e15b31b0 	ldrh	r3, [fp, #-16]
 c005fdc:	e1a03083 	lsl	r3, r3, #1
 c005fe0:	e0823003 	add	r3, r2, r3
 c005fe4:	e1d330b0 	ldrh	r3, [r3]
 c005fe8:	e14b31b6 	strh	r3, [fp, #-22]	; 0xffffffea
			INT8U valor = celda_leer_valor(celda_actual);
 c005fec:	e15b31b6 	ldrh	r3, [fp, #-22]	; 0xffffffea
 c005ff0:	e1a00003 	mov	r0, r3
 c005ff4:	ebfff407 	bl	c003018 <celda_leer_valor>
 c005ff8:	e1a03000 	mov	r3, r0
 c005ffc:	e54b3017 	strb	r3, [fp, #-23]	; 0xffffffe9
			INT8U es_pista = celda_es_pista(celda_actual);
 c006000:	e15b31b6 	ldrh	r3, [fp, #-22]	; 0xffffffea
 c006004:	e1a00003 	mov	r0, r3
 c006008:	ebfff424 	bl	c0030a0 <celda_es_pista>
 c00600c:	e1a03000 	mov	r3, r0
 c006010:	e54b3018 	strb	r3, [fp, #-24]	; 0xffffffe8
			INT8U tiene_error = (celda_actual & (1 << BIT_ERROR)) != 0;
 c006014:	e15b31b6 	ldrh	r3, [fp, #-22]	; 0xffffffea
 c006018:	e2033020 	and	r3, r3, #32
 c00601c:	e3530000 	cmp	r3, #0
 c006020:	03a03000 	moveq	r3, #0
 c006024:	13a03001 	movne	r3, #1
 c006028:	e54b3019 	strb	r3, [fp, #-25]	; 0xffffffe7
			
			if (valor != 0)
 c00602c:	e55b3017 	ldrb	r3, [fp, #-23]	; 0xffffffe9
 c006030:	e3530000 	cmp	r3, #0
 c006034:	0a000007 	beq	c006058 <Sudoku_Actualizar_Tablero_Completo+0xc4>
			{
				/* Hay un valor: dibujarlo */
				Sudoku_Dibujar_Numero_En_Celda(fila, col, valor, es_pista, tiene_error);
 c006038:	e15b00be 	ldrh	r0, [fp, #-14]
 c00603c:	e15b11b0 	ldrh	r1, [fp, #-16]
 c006040:	e55b2017 	ldrb	r2, [fp, #-23]	; 0xffffffe9
 c006044:	e55b3018 	ldrb	r3, [fp, #-24]	; 0xffffffe8
 c006048:	e55bc019 	ldrb	ip, [fp, #-25]	; 0xffffffe7
 c00604c:	e58dc000 	str	ip, [sp]
 c006050:	ebfffc99 	bl	c0052bc <Sudoku_Dibujar_Numero_En_Celda>
 c006054:	ea000006 	b	c006074 <Sudoku_Actualizar_Tablero_Completo+0xe0>
			}
			else
			{
				/* Celda vaca: dibujar candidatos */
				Sudoku_Dibujar_Candidatos_En_Celda(fila, col, celda_actual);
 c006058:	e15b10be 	ldrh	r1, [fp, #-14]
 c00605c:	e15b21b0 	ldrh	r2, [fp, #-16]
 c006060:	e15b31b6 	ldrh	r3, [fp, #-22]	; 0xffffffea
 c006064:	e1a00001 	mov	r0, r1
 c006068:	e1a01002 	mov	r1, r2
 c00606c:	e1a02003 	mov	r2, r3
 c006070:	ebfffd25 	bl	c00550c <Sudoku_Dibujar_Candidatos_En_Celda>
	INT16U fila, col;
	
	/* Recorrer todas las celdas del tablero */
	for (fila = 0; fila < NUM_FILAS; fila++)
	{
		for (col = 0; col < NUM_FILAS; col++)
 c006074:	e15b31b0 	ldrh	r3, [fp, #-16]
 c006078:	e2833001 	add	r3, r3, #1
 c00607c:	e14b31b0 	strh	r3, [fp, #-16]
 c006080:	e15b31b0 	ldrh	r3, [fp, #-16]
 c006084:	e3530008 	cmp	r3, #8
 c006088:	9affffce 	bls	c005fc8 <Sudoku_Actualizar_Tablero_Completo+0x34>
{
	CELDA (*cuadricula)[NUM_COLUMNAS] = (CELDA (*)[NUM_COLUMNAS])cuadricula_ptr;
	INT16U fila, col;
	
	/* Recorrer todas las celdas del tablero */
	for (fila = 0; fila < NUM_FILAS; fila++)
 c00608c:	e15b30be 	ldrh	r3, [fp, #-14]
 c006090:	e2833001 	add	r3, r3, #1
 c006094:	e14b30be 	strh	r3, [fp, #-14]
 c006098:	e15b30be 	ldrh	r3, [fp, #-14]
 c00609c:	e3530008 	cmp	r3, #8
 c0060a0:	9affffc5 	bls	c005fbc <Sudoku_Actualizar_Tablero_Completo+0x28>
			}
		}
	}
	
	/* Transferir todo a la pantalla */
	Lcd_Dma_Trans();
 c0060a4:	ebfffb89 	bl	c004ed0 <Lcd_Dma_Trans>
}
 c0060a8:	e24bd00c 	sub	sp, fp, #12
 c0060ac:	e89d6800 	ldm	sp, {fp, sp, lr}
 c0060b0:	e12fff1e 	bx	lr

0c0060b4 <Sudoku_Actualizar_Tiempo>:
* ret:		none
* modify:
* comment:	Convierte microsegundos a formato MM:SS y actualiza solo esa rea
*********************************************************************************************/
void Sudoku_Actualizar_Tiempo(INT32U tiempo_us)
{
 c0060b4:	e1a0c00d 	mov	ip, sp
 c0060b8:	e92dd800 	push	{fp, ip, lr, pc}
 c0060bc:	e24cb004 	sub	fp, ip, #4
 c0060c0:	e24dd030 	sub	sp, sp, #48	; 0x30
 c0060c4:	e50b0030 	str	r0, [fp, #-48]	; 0xffffffd0
	#define MARGEN_IZQ 20
	#define MARGEN_SUP 10
	#define TAM_CELDA 23
	
	INT16U tablero_inicio_y = MARGEN_SUP + 10;
 c0060c8:	e3a03014 	mov	r3, #20
 c0060cc:	e14b30be 	strh	r3, [fp, #-14]
	INT16U tablero_tam = TAM_CELDA * 9;
 c0060d0:	e3a030cf 	mov	r3, #207	; 0xcf
 c0060d4:	e14b31b0 	strh	r3, [fp, #-16]
	
	/* Convertir microsegundos a segundos */
	INT32U segundos_totales = tiempo_us / 1000000;
 c0060d8:	e51b2030 	ldr	r2, [fp, #-48]	; 0xffffffd0
 c0060dc:	e59f3218 	ldr	r3, [pc, #536]	; c0062fc <Sudoku_Actualizar_Tiempo+0x248>
 c0060e0:	e0831392 	umull	r1, r3, r2, r3
 c0060e4:	e1a03923 	lsr	r3, r3, #18
 c0060e8:	e50b3014 	str	r3, [fp, #-20]	; 0xffffffec
	
	/* Calcular minutos y segundos */
	INT16U minutos = segundos_totales / 60;
 c0060ec:	e51b2014 	ldr	r2, [fp, #-20]	; 0xffffffec
 c0060f0:	e59f3208 	ldr	r3, [pc, #520]	; c006300 <Sudoku_Actualizar_Tiempo+0x24c>
 c0060f4:	e0831392 	umull	r1, r3, r2, r3
 c0060f8:	e1a032a3 	lsr	r3, r3, #5
 c0060fc:	e14b31b6 	strh	r3, [fp, #-22]	; 0xffffffea
	INT16U segundos = segundos_totales % 60;
 c006100:	e51b1014 	ldr	r1, [fp, #-20]	; 0xffffffec
 c006104:	e59f31f4 	ldr	r3, [pc, #500]	; c006300 <Sudoku_Actualizar_Tiempo+0x24c>
 c006108:	e0832391 	umull	r2, r3, r1, r3
 c00610c:	e1a022a3 	lsr	r2, r3, #5
 c006110:	e1a03002 	mov	r3, r2
 c006114:	e1a03203 	lsl	r3, r3, #4
 c006118:	e0623003 	rsb	r3, r2, r3
 c00611c:	e1a03103 	lsl	r3, r3, #2
 c006120:	e0632001 	rsb	r2, r3, r1
 c006124:	e14b21b8 	strh	r2, [fp, #-24]	; 0xffffffe8
	
	/* Crear string en formato MM:SS */
	INT8U tiempo_str[15];
	tiempo_str[0] = 'T';
 c006128:	e3a03054 	mov	r3, #84	; 0x54
 c00612c:	e54b3028 	strb	r3, [fp, #-40]	; 0xffffffd8
	tiempo_str[1] = 'i';
 c006130:	e3a03069 	mov	r3, #105	; 0x69
 c006134:	e54b3027 	strb	r3, [fp, #-39]	; 0xffffffd9
	tiempo_str[2] = 'e';
 c006138:	e3a03065 	mov	r3, #101	; 0x65
 c00613c:	e54b3026 	strb	r3, [fp, #-38]	; 0xffffffda
	tiempo_str[3] = 'm';
 c006140:	e3a0306d 	mov	r3, #109	; 0x6d
 c006144:	e54b3025 	strb	r3, [fp, #-37]	; 0xffffffdb
	tiempo_str[4] = 'p';
 c006148:	e3a03070 	mov	r3, #112	; 0x70
 c00614c:	e54b3024 	strb	r3, [fp, #-36]	; 0xffffffdc
	tiempo_str[5] = 'o';
 c006150:	e3a0306f 	mov	r3, #111	; 0x6f
 c006154:	e54b3023 	strb	r3, [fp, #-35]	; 0xffffffdd
	tiempo_str[6] = ':';
 c006158:	e3a0303a 	mov	r3, #58	; 0x3a
 c00615c:	e54b3022 	strb	r3, [fp, #-34]	; 0xffffffde
	tiempo_str[7] = ' ';
 c006160:	e3a03020 	mov	r3, #32
 c006164:	e54b3021 	strb	r3, [fp, #-33]	; 0xffffffdf
	tiempo_str[8] = '0' + (minutos / 10);    /* Decenas de minutos */
 c006168:	e15b21b6 	ldrh	r2, [fp, #-22]	; 0xffffffea
 c00616c:	e59f3190 	ldr	r3, [pc, #400]	; c006304 <Sudoku_Actualizar_Tiempo+0x250>
 c006170:	e0831392 	umull	r1, r3, r2, r3
 c006174:	e1a031a3 	lsr	r3, r3, #3
 c006178:	e1a03803 	lsl	r3, r3, #16
 c00617c:	e1a03823 	lsr	r3, r3, #16
 c006180:	e20330ff 	and	r3, r3, #255	; 0xff
 c006184:	e2833030 	add	r3, r3, #48	; 0x30
 c006188:	e20330ff 	and	r3, r3, #255	; 0xff
 c00618c:	e54b3020 	strb	r3, [fp, #-32]	; 0xffffffe0
	tiempo_str[9] = '0' + (minutos % 10);    /* Unidades de minutos */
 c006190:	e15b21b6 	ldrh	r2, [fp, #-22]	; 0xffffffea
 c006194:	e59f3168 	ldr	r3, [pc, #360]	; c006304 <Sudoku_Actualizar_Tiempo+0x250>
 c006198:	e0831392 	umull	r1, r3, r2, r3
 c00619c:	e1a011a3 	lsr	r1, r3, #3
 c0061a0:	e1a03001 	mov	r3, r1
 c0061a4:	e1a03103 	lsl	r3, r3, #2
 c0061a8:	e0833001 	add	r3, r3, r1
 c0061ac:	e1a03083 	lsl	r3, r3, #1
 c0061b0:	e0633002 	rsb	r3, r3, r2
 c0061b4:	e1a03803 	lsl	r3, r3, #16
 c0061b8:	e1a03823 	lsr	r3, r3, #16
 c0061bc:	e20330ff 	and	r3, r3, #255	; 0xff
 c0061c0:	e2833030 	add	r3, r3, #48	; 0x30
 c0061c4:	e20330ff 	and	r3, r3, #255	; 0xff
 c0061c8:	e54b301f 	strb	r3, [fp, #-31]	; 0xffffffe1
	tiempo_str[10] = ':';
 c0061cc:	e3a0303a 	mov	r3, #58	; 0x3a
 c0061d0:	e54b301e 	strb	r3, [fp, #-30]	; 0xffffffe2
	tiempo_str[11] = '0' + (segundos / 10);  /* Decenas de segundos */
 c0061d4:	e15b21b8 	ldrh	r2, [fp, #-24]	; 0xffffffe8
 c0061d8:	e59f3124 	ldr	r3, [pc, #292]	; c006304 <Sudoku_Actualizar_Tiempo+0x250>
 c0061dc:	e0831392 	umull	r1, r3, r2, r3
 c0061e0:	e1a031a3 	lsr	r3, r3, #3
 c0061e4:	e1a03803 	lsl	r3, r3, #16
 c0061e8:	e1a03823 	lsr	r3, r3, #16
 c0061ec:	e20330ff 	and	r3, r3, #255	; 0xff
 c0061f0:	e2833030 	add	r3, r3, #48	; 0x30
 c0061f4:	e20330ff 	and	r3, r3, #255	; 0xff
 c0061f8:	e54b301d 	strb	r3, [fp, #-29]	; 0xffffffe3
	tiempo_str[12] = '0' + (segundos % 10);  /* Unidades de segundos */
 c0061fc:	e15b21b8 	ldrh	r2, [fp, #-24]	; 0xffffffe8
 c006200:	e59f30fc 	ldr	r3, [pc, #252]	; c006304 <Sudoku_Actualizar_Tiempo+0x250>
 c006204:	e0831392 	umull	r1, r3, r2, r3
 c006208:	e1a011a3 	lsr	r1, r3, #3
 c00620c:	e1a03001 	mov	r3, r1
 c006210:	e1a03103 	lsl	r3, r3, #2
 c006214:	e0833001 	add	r3, r3, r1
 c006218:	e1a03083 	lsl	r3, r3, #1
 c00621c:	e0633002 	rsb	r3, r3, r2
 c006220:	e1a03803 	lsl	r3, r3, #16
 c006224:	e1a03823 	lsr	r3, r3, #16
 c006228:	e20330ff 	and	r3, r3, #255	; 0xff
 c00622c:	e2833030 	add	r3, r3, #48	; 0x30
 c006230:	e20330ff 	and	r3, r3, #255	; 0xff
 c006234:	e54b301c 	strb	r3, [fp, #-28]	; 0xffffffe4
	tiempo_str[13] = '\0';
 c006238:	e3a03000 	mov	r3, #0
 c00623c:	e54b301b 	strb	r3, [fp, #-27]	; 0xffffffe5
	
	/* Limpiar el rea del tiempo (aproximadamente 90 pxeles de ancho) */
	LcdClrRect(MARGEN_IZQ, tablero_inicio_y + tablero_tam + 5, 
 c006240:	e15b20be 	ldrh	r2, [fp, #-14]
 c006244:	e15b31b0 	ldrh	r3, [fp, #-16]
 c006248:	e0823003 	add	r3, r2, r3
 c00624c:	e1a03803 	lsl	r3, r3, #16
 c006250:	e1a03823 	lsr	r3, r3, #16
 c006254:	e2833005 	add	r3, r3, #5
 c006258:	e1a03803 	lsl	r3, r3, #16
 c00625c:	e1a03823 	lsr	r3, r3, #16
 c006260:	e1a03803 	lsl	r3, r3, #16
 c006264:	e1a02823 	lsr	r2, r3, #16
 c006268:	e15b10be 	ldrh	r1, [fp, #-14]
 c00626c:	e15b31b0 	ldrh	r3, [fp, #-16]
 c006270:	e0813003 	add	r3, r1, r3
 c006274:	e1a03803 	lsl	r3, r3, #16
 c006278:	e1a03823 	lsr	r3, r3, #16
 c00627c:	e283300f 	add	r3, r3, #15
 c006280:	e1a03803 	lsl	r3, r3, #16
 c006284:	e1a03823 	lsr	r3, r3, #16
 c006288:	e1a03803 	lsl	r3, r3, #16
 c00628c:	e1a03823 	lsr	r3, r3, #16
 c006290:	e1a02802 	lsl	r2, r2, #16
 c006294:	e1a02842 	asr	r2, r2, #16
 c006298:	e1a03803 	lsl	r3, r3, #16
 c00629c:	e1a03843 	asr	r3, r3, #16
 c0062a0:	e3a01000 	mov	r1, #0
 c0062a4:	e58d1000 	str	r1, [sp]
 c0062a8:	e3a00014 	mov	r0, #20
 c0062ac:	e1a01002 	mov	r1, r2
 c0062b0:	e3a0206e 	mov	r2, #110	; 0x6e
 c0062b4:	ebfff456 	bl	c003414 <LcdClrRect>
	           MARGEN_IZQ + 90, tablero_inicio_y + tablero_tam + 15, WHITE);
	
	/* Dibujar el nuevo tiempo */
	Lcd_DspAscII6x8(MARGEN_IZQ, tablero_inicio_y + tablero_tam + 5, BLACK, tiempo_str);
 c0062b8:	e15b20be 	ldrh	r2, [fp, #-14]
 c0062bc:	e15b31b0 	ldrh	r3, [fp, #-16]
 c0062c0:	e0823003 	add	r3, r2, r3
 c0062c4:	e1a03803 	lsl	r3, r3, #16
 c0062c8:	e1a03823 	lsr	r3, r3, #16
 c0062cc:	e2833005 	add	r3, r3, #5
 c0062d0:	e1a03803 	lsl	r3, r3, #16
 c0062d4:	e1a02823 	lsr	r2, r3, #16
 c0062d8:	e24b3028 	sub	r3, fp, #40	; 0x28
 c0062dc:	e3a00014 	mov	r0, #20
 c0062e0:	e1a01002 	mov	r1, r2
 c0062e4:	e3a0200f 	mov	r2, #15
 c0062e8:	ebfffa3a 	bl	c004bd8 <Lcd_DspAscII6x8>
	
	/* Transferir solo esta actualizacin a pantalla */
	Lcd_Dma_Trans();
 c0062ec:	ebfffaf7 	bl	c004ed0 <Lcd_Dma_Trans>
}
 c0062f0:	e24bd00c 	sub	sp, fp, #12
 c0062f4:	e89d6800 	ldm	sp, {fp, sp, lr}
 c0062f8:	e12fff1e 	bx	lr
 c0062fc:	431bde83 	.word	0x431bde83
 c006300:	88888889 	.word	0x88888889
 c006304:	cccccccd 	.word	0xcccccccd

0c006308 <Sudoku_Pantalla_Final>:
* ret:		none
* modify:
* comment:	Muestra el tiempo final y un mensaje para reiniciar
*********************************************************************************************/
void Sudoku_Pantalla_Final(INT32U tiempo_us)
{
 c006308:	e1a0c00d 	mov	ip, sp
 c00630c:	e92dd800 	push	{fp, ip, lr, pc}
 c006310:	e24cb004 	sub	fp, ip, #4
 c006314:	e24dd020 	sub	sp, sp, #32
 c006318:	e50b0028 	str	r0, [fp, #-40]	; 0xffffffd8
	/* Convertir microsegundos a segundos */
	INT32U segundos_totales = tiempo_us / 1000000;
 c00631c:	e51b2028 	ldr	r2, [fp, #-40]	; 0xffffffd8
 c006320:	e59f3180 	ldr	r3, [pc, #384]	; c0064a8 <Sudoku_Pantalla_Final+0x1a0>
 c006324:	e0831392 	umull	r1, r3, r2, r3
 c006328:	e1a03923 	lsr	r3, r3, #18
 c00632c:	e50b3010 	str	r3, [fp, #-16]
	
	/* Calcular minutos y segundos */
	INT16U minutos = segundos_totales / 60;
 c006330:	e51b2010 	ldr	r2, [fp, #-16]
 c006334:	e59f3170 	ldr	r3, [pc, #368]	; c0064ac <Sudoku_Pantalla_Final+0x1a4>
 c006338:	e0831392 	umull	r1, r3, r2, r3
 c00633c:	e1a032a3 	lsr	r3, r3, #5
 c006340:	e14b31b2 	strh	r3, [fp, #-18]	; 0xffffffee
	INT16U segundos = segundos_totales % 60;
 c006344:	e51b1010 	ldr	r1, [fp, #-16]
 c006348:	e59f315c 	ldr	r3, [pc, #348]	; c0064ac <Sudoku_Pantalla_Final+0x1a4>
 c00634c:	e0832391 	umull	r2, r3, r1, r3
 c006350:	e1a022a3 	lsr	r2, r3, #5
 c006354:	e1a03002 	mov	r3, r2
 c006358:	e1a03203 	lsl	r3, r3, #4
 c00635c:	e0623003 	rsb	r3, r2, r3
 c006360:	e1a03103 	lsl	r3, r3, #2
 c006364:	e0632001 	rsb	r2, r3, r1
 c006368:	e14b21b4 	strh	r2, [fp, #-20]	; 0xffffffec
	
	/* Crear string en formato MM:SS */
	INT8U tiempo_str[10];
	tiempo_str[0] = '0' + (minutos / 10);    /* Decenas de minutos */
 c00636c:	e15b21b2 	ldrh	r2, [fp, #-18]	; 0xffffffee
 c006370:	e59f3138 	ldr	r3, [pc, #312]	; c0064b0 <Sudoku_Pantalla_Final+0x1a8>
 c006374:	e0831392 	umull	r1, r3, r2, r3
 c006378:	e1a031a3 	lsr	r3, r3, #3
 c00637c:	e1a03803 	lsl	r3, r3, #16
 c006380:	e1a03823 	lsr	r3, r3, #16
 c006384:	e20330ff 	and	r3, r3, #255	; 0xff
 c006388:	e2833030 	add	r3, r3, #48	; 0x30
 c00638c:	e20330ff 	and	r3, r3, #255	; 0xff
 c006390:	e54b3020 	strb	r3, [fp, #-32]	; 0xffffffe0
	tiempo_str[1] = '0' + (minutos % 10);    /* Unidades de minutos */
 c006394:	e15b21b2 	ldrh	r2, [fp, #-18]	; 0xffffffee
 c006398:	e59f3110 	ldr	r3, [pc, #272]	; c0064b0 <Sudoku_Pantalla_Final+0x1a8>
 c00639c:	e0831392 	umull	r1, r3, r2, r3
 c0063a0:	e1a011a3 	lsr	r1, r3, #3
 c0063a4:	e1a03001 	mov	r3, r1
 c0063a8:	e1a03103 	lsl	r3, r3, #2
 c0063ac:	e0833001 	add	r3, r3, r1
 c0063b0:	e1a03083 	lsl	r3, r3, #1
 c0063b4:	e0633002 	rsb	r3, r3, r2
 c0063b8:	e1a03803 	lsl	r3, r3, #16
 c0063bc:	e1a03823 	lsr	r3, r3, #16
 c0063c0:	e20330ff 	and	r3, r3, #255	; 0xff
 c0063c4:	e2833030 	add	r3, r3, #48	; 0x30
 c0063c8:	e20330ff 	and	r3, r3, #255	; 0xff
 c0063cc:	e54b301f 	strb	r3, [fp, #-31]	; 0xffffffe1
	tiempo_str[2] = ':';
 c0063d0:	e3a0303a 	mov	r3, #58	; 0x3a
 c0063d4:	e54b301e 	strb	r3, [fp, #-30]	; 0xffffffe2
	tiempo_str[3] = '0' + (segundos / 10);  /* Decenas de segundos */
 c0063d8:	e15b21b4 	ldrh	r2, [fp, #-20]	; 0xffffffec
 c0063dc:	e59f30cc 	ldr	r3, [pc, #204]	; c0064b0 <Sudoku_Pantalla_Final+0x1a8>
 c0063e0:	e0831392 	umull	r1, r3, r2, r3
 c0063e4:	e1a031a3 	lsr	r3, r3, #3
 c0063e8:	e1a03803 	lsl	r3, r3, #16
 c0063ec:	e1a03823 	lsr	r3, r3, #16
 c0063f0:	e20330ff 	and	r3, r3, #255	; 0xff
 c0063f4:	e2833030 	add	r3, r3, #48	; 0x30
 c0063f8:	e20330ff 	and	r3, r3, #255	; 0xff
 c0063fc:	e54b301d 	strb	r3, [fp, #-29]	; 0xffffffe3
	tiempo_str[4] = '0' + (segundos % 10);  /* Unidades de segundos */
 c006400:	e15b21b4 	ldrh	r2, [fp, #-20]	; 0xffffffec
 c006404:	e59f30a4 	ldr	r3, [pc, #164]	; c0064b0 <Sudoku_Pantalla_Final+0x1a8>
 c006408:	e0831392 	umull	r1, r3, r2, r3
 c00640c:	e1a011a3 	lsr	r1, r3, #3
 c006410:	e1a03001 	mov	r3, r1
 c006414:	e1a03103 	lsl	r3, r3, #2
 c006418:	e0833001 	add	r3, r3, r1
 c00641c:	e1a03083 	lsl	r3, r3, #1
 c006420:	e0633002 	rsb	r3, r3, r2
 c006424:	e1a03803 	lsl	r3, r3, #16
 c006428:	e1a03823 	lsr	r3, r3, #16
 c00642c:	e20330ff 	and	r3, r3, #255	; 0xff
 c006430:	e2833030 	add	r3, r3, #48	; 0x30
 c006434:	e20330ff 	and	r3, r3, #255	; 0xff
 c006438:	e54b301c 	strb	r3, [fp, #-28]	; 0xffffffe4
	tiempo_str[5] = '\0';
 c00643c:	e3a03000 	mov	r3, #0
 c006440:	e54b301b 	strb	r3, [fp, #-27]	; 0xffffffe5
	
	/* Limpiar pantalla */
	Lcd_Clr();
 c006444:	ebfff3d7 	bl	c0033a8 <Lcd_Clr>
	
	/* Ttulo */
	Lcd_DspAscII8x16(80, 40, BLACK, "PARTIDA TERMINADA");
 c006448:	e3a00050 	mov	r0, #80	; 0x50
 c00644c:	e3a01028 	mov	r1, #40	; 0x28
 c006450:	e3a0200f 	mov	r2, #15
 c006454:	e59f3058 	ldr	r3, [pc, #88]	; c0064b4 <Sudoku_Pantalla_Final+0x1ac>
 c006458:	ebfff919 	bl	c0048c4 <Lcd_DspAscII8x16>
	
	/* Mostrar tiempo final */
	Lcd_DspAscII8x16(90, 80, BLACK, "Tiempo final:");
 c00645c:	e3a0005a 	mov	r0, #90	; 0x5a
 c006460:	e3a01050 	mov	r1, #80	; 0x50
 c006464:	e3a0200f 	mov	r2, #15
 c006468:	e59f3048 	ldr	r3, [pc, #72]	; c0064b8 <Sudoku_Pantalla_Final+0x1b0>
 c00646c:	ebfff914 	bl	c0048c4 <Lcd_DspAscII8x16>
	Lcd_DspAscII8x16(130, 100, BLACK, tiempo_str);
 c006470:	e24b3020 	sub	r3, fp, #32
 c006474:	e3a00082 	mov	r0, #130	; 0x82
 c006478:	e3a01064 	mov	r1, #100	; 0x64
 c00647c:	e3a0200f 	mov	r2, #15
 c006480:	ebfff90f 	bl	c0048c4 <Lcd_DspAscII8x16>
	
	/* Mensaje para reiniciar */
	Lcd_DspAscII8x16(30, 158, BLACK, "Pulse un boton para reiniciar");
 c006484:	e3a0001e 	mov	r0, #30
 c006488:	e3a0109e 	mov	r1, #158	; 0x9e
 c00648c:	e3a0200f 	mov	r2, #15
 c006490:	e59f3024 	ldr	r3, [pc, #36]	; c0064bc <Sudoku_Pantalla_Final+0x1b4>
 c006494:	ebfff90a 	bl	c0048c4 <Lcd_DspAscII8x16>
	
	/* Transferir a pantalla */
	Lcd_Dma_Trans();
 c006498:	ebfffa8c 	bl	c004ed0 <Lcd_Dma_Trans>
}
 c00649c:	e24bd00c 	sub	sp, fp, #12
 c0064a0:	e89d6800 	ldm	sp, {fp, sp, lr}
 c0064a4:	e12fff1e 	bx	lr
 c0064a8:	431bde83 	.word	0x431bde83
 c0064ac:	88888889 	.word	0x88888889
 c0064b0:	cccccccd 	.word	0xcccccccd
 c0064b4:	0c00ea20 	.word	0x0c00ea20
 c0064b8:	0c00ea34 	.word	0x0c00ea34
 c0064bc:	0c00ea44 	.word	0x0c00ea44

0c0064c0 <Sudoku_Dibujar_Tablero>:
* ret:		none
* modify:
* comment:	Tamao de celda: 23x23 pxeles, tablero total: 207x207
*********************************************************************************************/
void Sudoku_Dibujar_Tablero(void)
{
 c0064c0:	e1a0c00d 	mov	ip, sp
 c0064c4:	e92dd800 	push	{fp, ip, lr, pc}
 c0064c8:	e24cb004 	sub	fp, ip, #4
 c0064cc:	e24dd020 	sub	sp, sp, #32
	INT16U i, j;
	INT8U fila_str[2] = "1";
 c0064d0:	e3a03031 	mov	r3, #49	; 0x31
 c0064d4:	e14b32b0 	strh	r3, [fp, #-32]	; 0xffffffe0
	INT8U col_str[2] = "1";
 c0064d8:	e3a03031 	mov	r3, #49	; 0x31
 c0064dc:	e14b32b4 	strh	r3, [fp, #-36]	; 0xffffffdc
	#define MARGEN_SUP 10
	#define TAM_CELDA 23
	#define GROSOR_FINO 1
	#define GROSOR_GRUESO 2
	
	INT16U tablero_inicio_x = MARGEN_IZQ + 10;  /* Espacio para nmeros de fila */
 c0064e0:	e3a0301e 	mov	r3, #30
 c0064e4:	e14b31b0 	strh	r3, [fp, #-16]
	INT16U tablero_inicio_y = MARGEN_SUP + 10;  /* Espacio para nmeros de columna */
 c0064e8:	e3a03014 	mov	r3, #20
 c0064ec:	e14b31b2 	strh	r3, [fp, #-18]	; 0xffffffee
	INT16U tablero_tam = TAM_CELDA * 9;         /* 207 pxeles */
 c0064f0:	e3a030cf 	mov	r3, #207	; 0xcf
 c0064f4:	e14b31b4 	strh	r3, [fp, #-20]	; 0xffffffec
	
	/* Limpiar pantalla */
	Lcd_Clr();
 c0064f8:	ebfff3aa 	bl	c0033a8 <Lcd_Clr>
	
	/* Dibujar nmeros de columnas (1-9) en la parte superior */
	for (i = 0; i < 9; i++)
 c0064fc:	e3a03000 	mov	r3, #0
 c006500:	e14b30be 	strh	r3, [fp, #-14]
 c006504:	ea00001b 	b	c006578 <Sudoku_Dibujar_Tablero+0xb8>
	{
		col_str[0] = '1' + i;
 c006508:	e15b30be 	ldrh	r3, [fp, #-14]
 c00650c:	e20330ff 	and	r3, r3, #255	; 0xff
 c006510:	e2833031 	add	r3, r3, #49	; 0x31
 c006514:	e20330ff 	and	r3, r3, #255	; 0xff
 c006518:	e54b3024 	strb	r3, [fp, #-36]	; 0xffffffdc
		Lcd_DspAscII6x8(tablero_inicio_x + i * TAM_CELDA + TAM_CELDA/2 - 3, 
 c00651c:	e15b30be 	ldrh	r3, [fp, #-14]
 c006520:	e1a02003 	mov	r2, r3
 c006524:	e1a02082 	lsl	r2, r2, #1
 c006528:	e0822003 	add	r2, r2, r3
 c00652c:	e1a02182 	lsl	r2, r2, #3
 c006530:	e0633002 	rsb	r3, r3, r2
 c006534:	e1a03803 	lsl	r3, r3, #16
 c006538:	e1a02823 	lsr	r2, r3, #16
 c00653c:	e15b31b0 	ldrh	r3, [fp, #-16]
 c006540:	e0823003 	add	r3, r2, r3
 c006544:	e1a03803 	lsl	r3, r3, #16
 c006548:	e1a03823 	lsr	r3, r3, #16
 c00654c:	e2833008 	add	r3, r3, #8
 c006550:	e1a03803 	lsl	r3, r3, #16
 c006554:	e1a02823 	lsr	r2, r3, #16
 c006558:	e24b3024 	sub	r3, fp, #36	; 0x24
 c00655c:	e1a00002 	mov	r0, r2
 c006560:	e3a0100c 	mov	r1, #12
 c006564:	e3a0200f 	mov	r2, #15
 c006568:	ebfff99a 	bl	c004bd8 <Lcd_DspAscII6x8>
	
	/* Limpiar pantalla */
	Lcd_Clr();
	
	/* Dibujar nmeros de columnas (1-9) en la parte superior */
	for (i = 0; i < 9; i++)
 c00656c:	e15b30be 	ldrh	r3, [fp, #-14]
 c006570:	e2833001 	add	r3, r3, #1
 c006574:	e14b30be 	strh	r3, [fp, #-14]
 c006578:	e15b30be 	ldrh	r3, [fp, #-14]
 c00657c:	e3530008 	cmp	r3, #8
 c006580:	9affffe0 	bls	c006508 <Sudoku_Dibujar_Tablero+0x48>
		Lcd_DspAscII6x8(tablero_inicio_x + i * TAM_CELDA + TAM_CELDA/2 - 3, 
		                MARGEN_SUP + 2, BLACK, col_str);
	}
	
	/* Dibujar nmeros de filas (1-9) en el lado izquierdo */
	for (i = 0; i < 9; i++)
 c006584:	e3a03000 	mov	r3, #0
 c006588:	e14b30be 	strh	r3, [fp, #-14]
 c00658c:	ea00001b 	b	c006600 <Sudoku_Dibujar_Tablero+0x140>
	{
		fila_str[0] = '1' + i;
 c006590:	e15b30be 	ldrh	r3, [fp, #-14]
 c006594:	e20330ff 	and	r3, r3, #255	; 0xff
 c006598:	e2833031 	add	r3, r3, #49	; 0x31
 c00659c:	e20330ff 	and	r3, r3, #255	; 0xff
 c0065a0:	e54b3020 	strb	r3, [fp, #-32]	; 0xffffffe0
		Lcd_DspAscII6x8(MARGEN_IZQ + 2, 
 c0065a4:	e15b30be 	ldrh	r3, [fp, #-14]
 c0065a8:	e1a02003 	mov	r2, r3
 c0065ac:	e1a02082 	lsl	r2, r2, #1
 c0065b0:	e0822003 	add	r2, r2, r3
 c0065b4:	e1a02182 	lsl	r2, r2, #3
 c0065b8:	e0633002 	rsb	r3, r3, r2
 c0065bc:	e1a03803 	lsl	r3, r3, #16
 c0065c0:	e1a02823 	lsr	r2, r3, #16
 c0065c4:	e15b31b2 	ldrh	r3, [fp, #-18]	; 0xffffffee
 c0065c8:	e0823003 	add	r3, r2, r3
 c0065cc:	e1a03803 	lsl	r3, r3, #16
 c0065d0:	e1a03823 	lsr	r3, r3, #16
 c0065d4:	e2833007 	add	r3, r3, #7
 c0065d8:	e1a03803 	lsl	r3, r3, #16
 c0065dc:	e1a02823 	lsr	r2, r3, #16
 c0065e0:	e24b3020 	sub	r3, fp, #32
 c0065e4:	e3a00016 	mov	r0, #22
 c0065e8:	e1a01002 	mov	r1, r2
 c0065ec:	e3a0200f 	mov	r2, #15
 c0065f0:	ebfff978 	bl	c004bd8 <Lcd_DspAscII6x8>
		Lcd_DspAscII6x8(tablero_inicio_x + i * TAM_CELDA + TAM_CELDA/2 - 3, 
		                MARGEN_SUP + 2, BLACK, col_str);
	}
	
	/* Dibujar nmeros de filas (1-9) en el lado izquierdo */
	for (i = 0; i < 9; i++)
 c0065f4:	e15b30be 	ldrh	r3, [fp, #-14]
 c0065f8:	e2833001 	add	r3, r3, #1
 c0065fc:	e14b30be 	strh	r3, [fp, #-14]
 c006600:	e15b30be 	ldrh	r3, [fp, #-14]
 c006604:	e3530008 	cmp	r3, #8
 c006608:	9affffe0 	bls	c006590 <Sudoku_Dibujar_Tablero+0xd0>
		                tablero_inicio_y + i * TAM_CELDA + TAM_CELDA/2 - 4, 
		                BLACK, fila_str);
	}
	
	/* Dibujar lneas horizontales */
	for (i = 0; i <= 9; i++)
 c00660c:	e3a03000 	mov	r3, #0
 c006610:	e14b30be 	strh	r3, [fp, #-14]
 c006614:	ea000033 	b	c0066e8 <Sudoku_Dibujar_Tablero+0x228>
	{
		INT16U grosor = (i % 3 == 0) ? GROSOR_GRUESO : GROSOR_FINO;
 c006618:	e15b20be 	ldrh	r2, [fp, #-14]
 c00661c:	e59f3230 	ldr	r3, [pc, #560]	; c006854 <Sudoku_Dibujar_Tablero+0x394>
 c006620:	e0831392 	umull	r1, r3, r2, r3
 c006624:	e1a010a3 	lsr	r1, r3, #1
 c006628:	e1a03001 	mov	r3, r1
 c00662c:	e1a03083 	lsl	r3, r3, #1
 c006630:	e0833001 	add	r3, r3, r1
 c006634:	e0633002 	rsb	r3, r3, r2
 c006638:	e1a03803 	lsl	r3, r3, #16
 c00663c:	e1a03823 	lsr	r3, r3, #16
 c006640:	e3530000 	cmp	r3, #0
 c006644:	1a000001 	bne	c006650 <Sudoku_Dibujar_Tablero+0x190>
 c006648:	e3a03002 	mov	r3, #2
 c00664c:	ea000000 	b	c006654 <Sudoku_Dibujar_Tablero+0x194>
 c006650:	e3a03001 	mov	r3, #1
 c006654:	e14b31b6 	strh	r3, [fp, #-22]	; 0xffffffea
		INT16U y = tablero_inicio_y + i * TAM_CELDA;
 c006658:	e15b30be 	ldrh	r3, [fp, #-14]
 c00665c:	e1a02003 	mov	r2, r3
 c006660:	e1a02082 	lsl	r2, r2, #1
 c006664:	e0822003 	add	r2, r2, r3
 c006668:	e1a02182 	lsl	r2, r2, #3
 c00666c:	e0633002 	rsb	r3, r3, r2
 c006670:	e1a03803 	lsl	r3, r3, #16
 c006674:	e1a02823 	lsr	r2, r3, #16
 c006678:	e15b31b2 	ldrh	r3, [fp, #-18]	; 0xffffffee
 c00667c:	e0823003 	add	r3, r2, r3
 c006680:	e14b31b8 	strh	r3, [fp, #-24]	; 0xffffffe8
		Lcd_Draw_HLine(tablero_inicio_x, tablero_inicio_x + tablero_tam, y, BLACK, grosor);
 c006684:	e15b11b0 	ldrh	r1, [fp, #-16]
 c006688:	e15b21b0 	ldrh	r2, [fp, #-16]
 c00668c:	e15b31b4 	ldrh	r3, [fp, #-20]	; 0xffffffec
 c006690:	e0823003 	add	r3, r2, r3
 c006694:	e1a03803 	lsl	r3, r3, #16
 c006698:	e1a03823 	lsr	r3, r3, #16
 c00669c:	e1a03803 	lsl	r3, r3, #16
 c0066a0:	e1a02823 	lsr	r2, r3, #16
 c0066a4:	e15b31b8 	ldrh	r3, [fp, #-24]	; 0xffffffe8
 c0066a8:	e1a01801 	lsl	r1, r1, #16
 c0066ac:	e1a01841 	asr	r1, r1, #16
 c0066b0:	e1a02802 	lsl	r2, r2, #16
 c0066b4:	e1a02842 	asr	r2, r2, #16
 c0066b8:	e1a03803 	lsl	r3, r3, #16
 c0066bc:	e1a03843 	asr	r3, r3, #16
 c0066c0:	e15b01b6 	ldrh	r0, [fp, #-22]	; 0xffffffea
 c0066c4:	e58d0000 	str	r0, [sp]
 c0066c8:	e1a00001 	mov	r0, r1
 c0066cc:	e1a01002 	mov	r1, r2
 c0066d0:	e1a02003 	mov	r2, r3
 c0066d4:	e3a0300f 	mov	r3, #15
 c0066d8:	ebfff75e 	bl	c004458 <Lcd_Draw_HLine>
		                tablero_inicio_y + i * TAM_CELDA + TAM_CELDA/2 - 4, 
		                BLACK, fila_str);
	}
	
	/* Dibujar lneas horizontales */
	for (i = 0; i <= 9; i++)
 c0066dc:	e15b30be 	ldrh	r3, [fp, #-14]
 c0066e0:	e2833001 	add	r3, r3, #1
 c0066e4:	e14b30be 	strh	r3, [fp, #-14]
 c0066e8:	e15b30be 	ldrh	r3, [fp, #-14]
 c0066ec:	e3530009 	cmp	r3, #9
 c0066f0:	9affffc8 	bls	c006618 <Sudoku_Dibujar_Tablero+0x158>
		INT16U y = tablero_inicio_y + i * TAM_CELDA;
		Lcd_Draw_HLine(tablero_inicio_x, tablero_inicio_x + tablero_tam, y, BLACK, grosor);
	}
	
	/* Dibujar lneas verticales */
	for (i = 0; i <= 9; i++)
 c0066f4:	e3a03000 	mov	r3, #0
 c0066f8:	e14b30be 	strh	r3, [fp, #-14]
 c0066fc:	ea000033 	b	c0067d0 <Sudoku_Dibujar_Tablero+0x310>
	{
		INT16U grosor = (i % 3 == 0) ? GROSOR_GRUESO : GROSOR_FINO;
 c006700:	e15b20be 	ldrh	r2, [fp, #-14]
 c006704:	e59f3148 	ldr	r3, [pc, #328]	; c006854 <Sudoku_Dibujar_Tablero+0x394>
 c006708:	e0831392 	umull	r1, r3, r2, r3
 c00670c:	e1a010a3 	lsr	r1, r3, #1
 c006710:	e1a03001 	mov	r3, r1
 c006714:	e1a03083 	lsl	r3, r3, #1
 c006718:	e0833001 	add	r3, r3, r1
 c00671c:	e0633002 	rsb	r3, r3, r2
 c006720:	e1a03803 	lsl	r3, r3, #16
 c006724:	e1a03823 	lsr	r3, r3, #16
 c006728:	e3530000 	cmp	r3, #0
 c00672c:	1a000001 	bne	c006738 <Sudoku_Dibujar_Tablero+0x278>
 c006730:	e3a03002 	mov	r3, #2
 c006734:	ea000000 	b	c00673c <Sudoku_Dibujar_Tablero+0x27c>
 c006738:	e3a03001 	mov	r3, #1
 c00673c:	e14b31ba 	strh	r3, [fp, #-26]	; 0xffffffe6
		INT16U x = tablero_inicio_x + i * TAM_CELDA;
 c006740:	e15b30be 	ldrh	r3, [fp, #-14]
 c006744:	e1a02003 	mov	r2, r3
 c006748:	e1a02082 	lsl	r2, r2, #1
 c00674c:	e0822003 	add	r2, r2, r3
 c006750:	e1a02182 	lsl	r2, r2, #3
 c006754:	e0633002 	rsb	r3, r3, r2
 c006758:	e1a03803 	lsl	r3, r3, #16
 c00675c:	e1a02823 	lsr	r2, r3, #16
 c006760:	e15b31b0 	ldrh	r3, [fp, #-16]
 c006764:	e0823003 	add	r3, r2, r3
 c006768:	e14b31bc 	strh	r3, [fp, #-28]	; 0xffffffe4
		Lcd_Draw_VLine(tablero_inicio_y, tablero_inicio_y + tablero_tam, x, BLACK, grosor);
 c00676c:	e15b11b2 	ldrh	r1, [fp, #-18]	; 0xffffffee
 c006770:	e15b21b2 	ldrh	r2, [fp, #-18]	; 0xffffffee
 c006774:	e15b31b4 	ldrh	r3, [fp, #-20]	; 0xffffffec
 c006778:	e0823003 	add	r3, r2, r3
 c00677c:	e1a03803 	lsl	r3, r3, #16
 c006780:	e1a03823 	lsr	r3, r3, #16
 c006784:	e1a03803 	lsl	r3, r3, #16
 c006788:	e1a02823 	lsr	r2, r3, #16
 c00678c:	e15b31bc 	ldrh	r3, [fp, #-28]	; 0xffffffe4
 c006790:	e1a01801 	lsl	r1, r1, #16
 c006794:	e1a01841 	asr	r1, r1, #16
 c006798:	e1a02802 	lsl	r2, r2, #16
 c00679c:	e1a02842 	asr	r2, r2, #16
 c0067a0:	e1a03803 	lsl	r3, r3, #16
 c0067a4:	e1a03843 	asr	r3, r3, #16
 c0067a8:	e15b01ba 	ldrh	r0, [fp, #-26]	; 0xffffffe6
 c0067ac:	e58d0000 	str	r0, [sp]
 c0067b0:	e1a00001 	mov	r0, r1
 c0067b4:	e1a01002 	mov	r1, r2
 c0067b8:	e1a02003 	mov	r2, r3
 c0067bc:	e3a0300f 	mov	r3, #15
 c0067c0:	ebfff7a6 	bl	c004660 <Lcd_Draw_VLine>
		INT16U y = tablero_inicio_y + i * TAM_CELDA;
		Lcd_Draw_HLine(tablero_inicio_x, tablero_inicio_x + tablero_tam, y, BLACK, grosor);
	}
	
	/* Dibujar lneas verticales */
	for (i = 0; i <= 9; i++)
 c0067c4:	e15b30be 	ldrh	r3, [fp, #-14]
 c0067c8:	e2833001 	add	r3, r3, #1
 c0067cc:	e14b30be 	strh	r3, [fp, #-14]
 c0067d0:	e15b30be 	ldrh	r3, [fp, #-14]
 c0067d4:	e3530009 	cmp	r3, #9
 c0067d8:	9affffc8 	bls	c006700 <Sudoku_Dibujar_Tablero+0x240>
		INT16U x = tablero_inicio_x + i * TAM_CELDA;
		Lcd_Draw_VLine(tablero_inicio_y, tablero_inicio_y + tablero_tam, x, BLACK, grosor);
	}
	
	/* Mostrar tiempo en la parte inferior */
	Lcd_DspAscII6x8(MARGEN_IZQ, tablero_inicio_y + tablero_tam + 5, 
 c0067dc:	e15b21b2 	ldrh	r2, [fp, #-18]	; 0xffffffee
 c0067e0:	e15b31b4 	ldrh	r3, [fp, #-20]	; 0xffffffec
 c0067e4:	e0823003 	add	r3, r2, r3
 c0067e8:	e1a03803 	lsl	r3, r3, #16
 c0067ec:	e1a03823 	lsr	r3, r3, #16
 c0067f0:	e2833005 	add	r3, r3, #5
 c0067f4:	e1a03803 	lsl	r3, r3, #16
 c0067f8:	e1a03823 	lsr	r3, r3, #16
 c0067fc:	e3a00014 	mov	r0, #20
 c006800:	e1a01003 	mov	r1, r3
 c006804:	e3a0200f 	mov	r2, #15
 c006808:	e59f3048 	ldr	r3, [pc, #72]	; c006858 <Sudoku_Dibujar_Tablero+0x398>
 c00680c:	ebfff8f1 	bl	c004bd8 <Lcd_DspAscII6x8>
	                BLACK, "Tiempo: 00:00");
	
	/* Mensaje de ayuda */
	Lcd_DspAscII6x8(MARGEN_IZQ + 100, tablero_inicio_y + tablero_tam + 5, 
 c006810:	e15b21b2 	ldrh	r2, [fp, #-18]	; 0xffffffee
 c006814:	e15b31b4 	ldrh	r3, [fp, #-20]	; 0xffffffec
 c006818:	e0823003 	add	r3, r2, r3
 c00681c:	e1a03803 	lsl	r3, r3, #16
 c006820:	e1a03823 	lsr	r3, r3, #16
 c006824:	e2833005 	add	r3, r3, #5
 c006828:	e1a03803 	lsl	r3, r3, #16
 c00682c:	e1a03823 	lsr	r3, r3, #16
 c006830:	e3a00078 	mov	r0, #120	; 0x78
 c006834:	e1a01003 	mov	r1, r3
 c006838:	e3a0200a 	mov	r2, #10
 c00683c:	e59f3018 	ldr	r3, [pc, #24]	; c00685c <Sudoku_Dibujar_Tablero+0x39c>
 c006840:	ebfff8e4 	bl	c004bd8 <Lcd_DspAscII6x8>
	                DARKGRAY, "Fila 0: Salir");
	
	/* Transferir a pantalla */
	Lcd_Dma_Trans();
 c006844:	ebfff9a1 	bl	c004ed0 <Lcd_Dma_Trans>
}
 c006848:	e24bd00c 	sub	sp, fp, #12
 c00684c:	e89d6800 	ldm	sp, {fp, sp, lr}
 c006850:	e12fff1e 	bx	lr
 c006854:	aaaaaaab 	.word	0xaaaaaaab
 c006858:	0c00ea64 	.word	0x0c00ea64
 c00685c:	0c00ea74 	.word	0x0c00ea74

0c006860 <Sudoku_Procesar_Touch>:
* func:		Detecta regin 3x3 tocada y la muestra expandida
* para:		x, y - coordenadas del toque
* ret:		none
*********************************************************************************************/
void Sudoku_Procesar_Touch(int x, int y)
{
 c006860:	e1a0c00d 	mov	ip, sp
 c006864:	e92dd800 	push	{fp, ip, lr, pc}
 c006868:	e24cb004 	sub	fp, ip, #4
 c00686c:	e24dd020 	sub	sp, sp, #32
 c006870:	e50b0028 	str	r0, [fp, #-40]	; 0xffffffd8
 c006874:	e50b102c 	str	r1, [fp, #-44]	; 0xffffffd4
	#define TAM_CELDA 23
	#define REGION_TAM 3
	
	/* Solo procesar toques si el juego est en progreso */
	extern int Sudoku_Juego_En_Progreso(void);
	if (!Sudoku_Juego_En_Progreso())
 c006878:	ebffefcc 	bl	c0027b0 <Sudoku_Juego_En_Progreso>
 c00687c:	e1a03000 	mov	r3, r0
 c006880:	e3530000 	cmp	r3, #0
 c006884:	0a00003d 	beq	c006980 <Sudoku_Procesar_Touch+0x120>
	{
		return;
	}
	
	INT16U tablero_inicio_x = MARGEN_IZQ + 10;
 c006888:	e3a0301e 	mov	r3, #30
 c00688c:	e14b30be 	strh	r3, [fp, #-14]
	INT16U tablero_inicio_y = MARGEN_SUP + 10;
 c006890:	e3a03014 	mov	r3, #20
 c006894:	e14b31b0 	strh	r3, [fp, #-16]
	INT16U tablero_fin_x = tablero_inicio_x + TAM_CELDA * 9;
 c006898:	e15b30be 	ldrh	r3, [fp, #-14]
 c00689c:	e28330cf 	add	r3, r3, #207	; 0xcf
 c0068a0:	e14b31b2 	strh	r3, [fp, #-18]	; 0xffffffee
	INT16U tablero_fin_y = tablero_inicio_y + TAM_CELDA * 9;
 c0068a4:	e15b31b0 	ldrh	r3, [fp, #-16]
 c0068a8:	e28330cf 	add	r3, r3, #207	; 0xcf
 c0068ac:	e14b31b4 	strh	r3, [fp, #-20]	; 0xffffffec
	
	/* Verificar si el toque est dentro del tablero */
	if (x < tablero_inicio_x || x > tablero_fin_x || 
 c0068b0:	e15b20be 	ldrh	r2, [fp, #-14]
 c0068b4:	e51b3028 	ldr	r3, [fp, #-40]	; 0xffffffd8
 c0068b8:	e1520003 	cmp	r2, r3
 c0068bc:	ca000031 	bgt	c006988 <Sudoku_Procesar_Touch+0x128>
 c0068c0:	e15b21b2 	ldrh	r2, [fp, #-18]	; 0xffffffee
 c0068c4:	e51b3028 	ldr	r3, [fp, #-40]	; 0xffffffd8
 c0068c8:	e1520003 	cmp	r2, r3
 c0068cc:	ba00002f 	blt	c006990 <Sudoku_Procesar_Touch+0x130>
	    y < tablero_inicio_y || y > tablero_fin_y)
 c0068d0:	e15b21b0 	ldrh	r2, [fp, #-16]
	INT16U tablero_inicio_y = MARGEN_SUP + 10;
	INT16U tablero_fin_x = tablero_inicio_x + TAM_CELDA * 9;
	INT16U tablero_fin_y = tablero_inicio_y + TAM_CELDA * 9;
	
	/* Verificar si el toque est dentro del tablero */
	if (x < tablero_inicio_x || x > tablero_fin_x || 
 c0068d4:	e51b302c 	ldr	r3, [fp, #-44]	; 0xffffffd4
 c0068d8:	e1520003 	cmp	r2, r3
 c0068dc:	ca00002d 	bgt	c006998 <Sudoku_Procesar_Touch+0x138>
	    y < tablero_inicio_y || y > tablero_fin_y)
 c0068e0:	e15b21b4 	ldrh	r2, [fp, #-20]	; 0xffffffec
 c0068e4:	e51b302c 	ldr	r3, [fp, #-44]	; 0xffffffd4
 c0068e8:	e1520003 	cmp	r2, r3
 c0068ec:	ba00002b 	blt	c0069a0 <Sudoku_Procesar_Touch+0x140>
		return;
	
	/* Calcular celda tocada */
	int celda_col = (x - tablero_inicio_x) / TAM_CELDA;
 c0068f0:	e15b30be 	ldrh	r3, [fp, #-14]
 c0068f4:	e51b2028 	ldr	r2, [fp, #-40]	; 0xffffffd8
 c0068f8:	e0633002 	rsb	r3, r3, r2
 c0068fc:	e59f20ac 	ldr	r2, [pc, #172]	; c0069b0 <Sudoku_Procesar_Touch+0x150>
 c006900:	e0c21293 	smull	r1, r2, r3, r2
 c006904:	e0822003 	add	r2, r2, r3
 c006908:	e1a02242 	asr	r2, r2, #4
 c00690c:	e1a03fc3 	asr	r3, r3, #31
 c006910:	e0633002 	rsb	r3, r3, r2
 c006914:	e50b3018 	str	r3, [fp, #-24]	; 0xffffffe8
	int celda_fila = (y - tablero_inicio_y) / TAM_CELDA;
 c006918:	e15b31b0 	ldrh	r3, [fp, #-16]
 c00691c:	e51b202c 	ldr	r2, [fp, #-44]	; 0xffffffd4
 c006920:	e0633002 	rsb	r3, r3, r2
 c006924:	e59f2084 	ldr	r2, [pc, #132]	; c0069b0 <Sudoku_Procesar_Touch+0x150>
 c006928:	e0c21293 	smull	r1, r2, r3, r2
 c00692c:	e0822003 	add	r2, r2, r3
 c006930:	e1a02242 	asr	r2, r2, #4
 c006934:	e1a03fc3 	asr	r3, r3, #31
 c006938:	e0633002 	rsb	r3, r3, r2
 c00693c:	e50b301c 	str	r3, [fp, #-28]	; 0xffffffe4
	
	/* Calcular regin 3x3 */
	int region_col = celda_col / REGION_TAM;
 c006940:	e51b3018 	ldr	r3, [fp, #-24]	; 0xffffffe8
 c006944:	e59f2068 	ldr	r2, [pc, #104]	; c0069b4 <Sudoku_Procesar_Touch+0x154>
 c006948:	e0c21293 	smull	r1, r2, r3, r2
 c00694c:	e1a03fc3 	asr	r3, r3, #31
 c006950:	e0633002 	rsb	r3, r3, r2
 c006954:	e50b3020 	str	r3, [fp, #-32]	; 0xffffffe0
	int region_fila = celda_fila / REGION_TAM;
 c006958:	e51b301c 	ldr	r3, [fp, #-28]	; 0xffffffe4
 c00695c:	e59f2050 	ldr	r2, [pc, #80]	; c0069b4 <Sudoku_Procesar_Touch+0x154>
 c006960:	e0c21293 	smull	r1, r2, r3, r2
 c006964:	e1a03fc3 	asr	r3, r3, #31
 c006968:	e0633002 	rsb	r3, r3, r2
 c00696c:	e50b3024 	str	r3, [fp, #-36]	; 0xffffffdc
	
	/* Expandir regin en pantalla completa */
	Sudoku_Mostrar_Region_Expandida(region_fila, region_col);
 c006970:	e51b0024 	ldr	r0, [fp, #-36]	; 0xffffffdc
 c006974:	e51b1020 	ldr	r1, [fp, #-32]	; 0xffffffe0
 c006978:	eb00000e 	bl	c0069b8 <Sudoku_Mostrar_Region_Expandida>
 c00697c:	ea000008 	b	c0069a4 <Sudoku_Procesar_Touch+0x144>
	
	/* Solo procesar toques si el juego est en progreso */
	extern int Sudoku_Juego_En_Progreso(void);
	if (!Sudoku_Juego_En_Progreso())
	{
		return;
 c006980:	e1a00000 	nop			; (mov r0, r0)
 c006984:	ea000006 	b	c0069a4 <Sudoku_Procesar_Touch+0x144>
	INT16U tablero_fin_y = tablero_inicio_y + TAM_CELDA * 9;
	
	/* Verificar si el toque est dentro del tablero */
	if (x < tablero_inicio_x || x > tablero_fin_x || 
	    y < tablero_inicio_y || y > tablero_fin_y)
		return;
 c006988:	e1a00000 	nop			; (mov r0, r0)
 c00698c:	ea000004 	b	c0069a4 <Sudoku_Procesar_Touch+0x144>
 c006990:	e1a00000 	nop			; (mov r0, r0)
 c006994:	ea000002 	b	c0069a4 <Sudoku_Procesar_Touch+0x144>
 c006998:	e1a00000 	nop			; (mov r0, r0)
 c00699c:	ea000000 	b	c0069a4 <Sudoku_Procesar_Touch+0x144>
 c0069a0:	e1a00000 	nop			; (mov r0, r0)
	int region_col = celda_col / REGION_TAM;
	int region_fila = celda_fila / REGION_TAM;
	
	/* Expandir regin en pantalla completa */
	Sudoku_Mostrar_Region_Expandida(region_fila, region_col);
}
 c0069a4:	e24bd00c 	sub	sp, fp, #12
 c0069a8:	e89d6800 	ldm	sp, {fp, sp, lr}
 c0069ac:	e12fff1e 	bx	lr
 c0069b0:	b21642c9 	.word	0xb21642c9
 c0069b4:	55555556 	.word	0x55555556

0c0069b8 <Sudoku_Mostrar_Region_Expandida>:
* func:		Muestra una regin 3x3 expandida en toda la pantalla
* para:		region_fila, region_col - regin 3x3 (0-2)
* ret:		none
*********************************************************************************************/
void Sudoku_Mostrar_Region_Expandida(int region_fila, int region_col)
{
 c0069b8:	e1a0c00d 	mov	ip, sp
 c0069bc:	e92dd800 	push	{fp, ip, lr, pc}
 c0069c0:	e24cb004 	sub	fp, ip, #4
 c0069c4:	e24dd040 	sub	sp, sp, #64	; 0x40
 c0069c8:	e50b0040 	str	r0, [fp, #-64]	; 0xffffffc0
 c0069cc:	e50b1044 	str	r1, [fp, #-68]	; 0xffffffbc
	extern CELDA (*cuadricula)[NUM_COLUMNAS];
	int i, j;
	int fila_inicio = region_fila * 3;
 c0069d0:	e51b2040 	ldr	r2, [fp, #-64]	; 0xffffffc0
 c0069d4:	e1a03002 	mov	r3, r2
 c0069d8:	e1a03083 	lsl	r3, r3, #1
 c0069dc:	e0833002 	add	r3, r3, r2
 c0069e0:	e50b3018 	str	r3, [fp, #-24]	; 0xffffffe8
	int col_inicio = region_col * 3;
 c0069e4:	e51b2044 	ldr	r2, [fp, #-68]	; 0xffffffbc
 c0069e8:	e1a03002 	mov	r3, r2
 c0069ec:	e1a03083 	lsl	r3, r3, #1
 c0069f0:	e0833002 	add	r3, r3, r2
 c0069f4:	e50b301c 	str	r3, [fp, #-28]	; 0xffffffe4
	
	#define CELDA_GRANDE 70  /* Tamao de celda expandida */
	#define MARGEN_EXPANDIDO 30
	
	/* Limpiar pantalla */
	Lcd_Clr();
 c0069f8:	ebfff26a 	bl	c0033a8 <Lcd_Clr>
	
	/* Ttulo */
	Lcd_DspAscII8x16(80, 5, BLACK, (unsigned char *)"Region ");
 c0069fc:	e3a00050 	mov	r0, #80	; 0x50
 c006a00:	e3a01005 	mov	r1, #5
 c006a04:	e3a0200f 	mov	r2, #15
 c006a08:	e59f3260 	ldr	r3, [pc, #608]	; c006c70 <Sudoku_Mostrar_Region_Expandida+0x2b8>
 c006a0c:	ebfff7ac 	bl	c0048c4 <Lcd_DspAscII8x16>
	Lcd_DspAscII8x16(145, 5, BLACK, (unsigned char *)"1");  /* Se puede calcular */
 c006a10:	e3a00091 	mov	r0, #145	; 0x91
 c006a14:	e3a01005 	mov	r1, #5
 c006a18:	e3a0200f 	mov	r2, #15
 c006a1c:	e59f3250 	ldr	r3, [pc, #592]	; c006c74 <Sudoku_Mostrar_Region_Expandida+0x2bc>
 c006a20:	ebfff7a7 	bl	c0048c4 <Lcd_DspAscII8x16>
	
	/* Dibujar cuadrcula expandida */
	for (i = 0; i < 3; i++)
 c006a24:	e3a03000 	mov	r3, #0
 c006a28:	e50b3010 	str	r3, [fp, #-16]
 c006a2c:	ea000073 	b	c006c00 <Sudoku_Mostrar_Region_Expandida+0x248>
	{
		for (j = 0; j < 3; j++)
 c006a30:	e3a03000 	mov	r3, #0
 c006a34:	e50b3014 	str	r3, [fp, #-20]	; 0xffffffec
 c006a38:	ea00006a 	b	c006be8 <Sudoku_Mostrar_Region_Expandida+0x230>
		{
			int x = MARGEN_EXPANDIDO + j * CELDA_GRANDE;
 c006a3c:	e51b2014 	ldr	r2, [fp, #-20]	; 0xffffffec
 c006a40:	e1a03002 	mov	r3, r2
 c006a44:	e1a03103 	lsl	r3, r3, #2
 c006a48:	e0833002 	add	r3, r3, r2
 c006a4c:	e1a02183 	lsl	r2, r3, #3
 c006a50:	e0632002 	rsb	r2, r3, r2
 c006a54:	e1a03082 	lsl	r3, r2, #1
 c006a58:	e1a02003 	mov	r2, r3
 c006a5c:	e1a03002 	mov	r3, r2
 c006a60:	e283301e 	add	r3, r3, #30
 c006a64:	e50b3020 	str	r3, [fp, #-32]	; 0xffffffe0
			int y = MARGEN_EXPANDIDO + i * CELDA_GRANDE + 20;
 c006a68:	e51b2010 	ldr	r2, [fp, #-16]
 c006a6c:	e1a03002 	mov	r3, r2
 c006a70:	e1a03103 	lsl	r3, r3, #2
 c006a74:	e0833002 	add	r3, r3, r2
 c006a78:	e1a02183 	lsl	r2, r3, #3
 c006a7c:	e0632002 	rsb	r2, r3, r2
 c006a80:	e1a03082 	lsl	r3, r2, #1
 c006a84:	e1a02003 	mov	r2, r3
 c006a88:	e1a03002 	mov	r3, r2
 c006a8c:	e2833032 	add	r3, r3, #50	; 0x32
 c006a90:	e50b3024 	str	r3, [fp, #-36]	; 0xffffffdc
			int fila = fila_inicio + i;
 c006a94:	e51b2018 	ldr	r2, [fp, #-24]	; 0xffffffe8
 c006a98:	e51b3010 	ldr	r3, [fp, #-16]
 c006a9c:	e0823003 	add	r3, r2, r3
 c006aa0:	e50b3028 	str	r3, [fp, #-40]	; 0xffffffd8
			int col = col_inicio + j;
 c006aa4:	e51b201c 	ldr	r2, [fp, #-28]	; 0xffffffe4
 c006aa8:	e51b3014 	ldr	r3, [fp, #-20]	; 0xffffffec
 c006aac:	e0823003 	add	r3, r2, r3
 c006ab0:	e50b302c 	str	r3, [fp, #-44]	; 0xffffffd4
			
			/* Dibujar borde de celda */
			Lcd_Draw_Box(x, y, x + CELDA_GRANDE, y + CELDA_GRANDE, BLACK);
 c006ab4:	e51b3020 	ldr	r3, [fp, #-32]	; 0xffffffe0
 c006ab8:	e1a03803 	lsl	r3, r3, #16
 c006abc:	e1a00823 	lsr	r0, r3, #16
 c006ac0:	e51b3024 	ldr	r3, [fp, #-36]	; 0xffffffdc
 c006ac4:	e1a03803 	lsl	r3, r3, #16
 c006ac8:	e1a01823 	lsr	r1, r3, #16
 c006acc:	e51b3020 	ldr	r3, [fp, #-32]	; 0xffffffe0
 c006ad0:	e1a03803 	lsl	r3, r3, #16
 c006ad4:	e1a03823 	lsr	r3, r3, #16
 c006ad8:	e2833046 	add	r3, r3, #70	; 0x46
 c006adc:	e1a03803 	lsl	r3, r3, #16
 c006ae0:	e1a03823 	lsr	r3, r3, #16
 c006ae4:	e1a03803 	lsl	r3, r3, #16
 c006ae8:	e1a02823 	lsr	r2, r3, #16
 c006aec:	e51b3024 	ldr	r3, [fp, #-36]	; 0xffffffdc
 c006af0:	e1a03803 	lsl	r3, r3, #16
 c006af4:	e1a03823 	lsr	r3, r3, #16
 c006af8:	e2833046 	add	r3, r3, #70	; 0x46
 c006afc:	e1a03803 	lsl	r3, r3, #16
 c006b00:	e1a03823 	lsr	r3, r3, #16
 c006b04:	e1a03803 	lsl	r3, r3, #16
 c006b08:	e1a03823 	lsr	r3, r3, #16
 c006b0c:	e1a00800 	lsl	r0, r0, #16
 c006b10:	e1a00840 	asr	r0, r0, #16
 c006b14:	e1a01801 	lsl	r1, r1, #16
 c006b18:	e1a01841 	asr	r1, r1, #16
 c006b1c:	e1a02802 	lsl	r2, r2, #16
 c006b20:	e1a02842 	asr	r2, r2, #16
 c006b24:	e1a03803 	lsl	r3, r3, #16
 c006b28:	e1a03843 	asr	r3, r3, #16
 c006b2c:	e3a0c00f 	mov	ip, #15
 c006b30:	e58dc000 	str	ip, [sp]
 c006b34:	ebfff3ca 	bl	c003a64 <Lcd_Draw_Box>
			
			/* Obtener celda */
			CELDA celda = cuadricula[fila][col];
 c006b38:	e59f3138 	ldr	r3, [pc, #312]	; c006c78 <Sudoku_Mostrar_Region_Expandida+0x2c0>
 c006b3c:	e5932000 	ldr	r2, [r3]
 c006b40:	e51b3028 	ldr	r3, [fp, #-40]	; 0xffffffd8
 c006b44:	e1a03283 	lsl	r3, r3, #5
 c006b48:	e0822003 	add	r2, r2, r3
 c006b4c:	e51b302c 	ldr	r3, [fp, #-44]	; 0xffffffd4
 c006b50:	e1a03083 	lsl	r3, r3, #1
 c006b54:	e0823003 	add	r3, r2, r3
 c006b58:	e1d330b0 	ldrh	r3, [r3]
 c006b5c:	e14b32be 	strh	r3, [fp, #-46]	; 0xffffffd2
			INT8U valor = celda_leer_valor(celda);
 c006b60:	e15b32be 	ldrh	r3, [fp, #-46]	; 0xffffffd2
 c006b64:	e1a00003 	mov	r0, r3
 c006b68:	ebfff12a 	bl	c003018 <celda_leer_valor>
 c006b6c:	e1a03000 	mov	r3, r0
 c006b70:	e54b302f 	strb	r3, [fp, #-47]	; 0xffffffd1
			
			if (valor != 0)
 c006b74:	e55b302f 	ldrb	r3, [fp, #-47]	; 0xffffffd1
 c006b78:	e3530000 	cmp	r3, #0
 c006b7c:	0a000016 	beq	c006bdc <Sudoku_Mostrar_Region_Expandida+0x224>
			{
				/* Dibujar nmero grande */
				INT8U num_str[2];
				num_str[0] = '0' + valor;
 c006b80:	e55b302f 	ldrb	r3, [fp, #-47]	; 0xffffffd1
 c006b84:	e2833030 	add	r3, r3, #48	; 0x30
 c006b88:	e20330ff 	and	r3, r3, #255	; 0xff
 c006b8c:	e54b303c 	strb	r3, [fp, #-60]	; 0xffffffc4
				num_str[1] = '\0';
 c006b90:	e3a03000 	mov	r3, #0
 c006b94:	e54b303b 	strb	r3, [fp, #-59]	; 0xffffffc5
				
				/* Nmero centrado en celda */
				Lcd_DspAscII8x16(x + CELDA_GRANDE/2 - 4, y + CELDA_GRANDE/2 - 8, 
 c006b98:	e51b3020 	ldr	r3, [fp, #-32]	; 0xffffffe0
 c006b9c:	e1a03803 	lsl	r3, r3, #16
 c006ba0:	e1a03823 	lsr	r3, r3, #16
 c006ba4:	e283301f 	add	r3, r3, #31
 c006ba8:	e1a03803 	lsl	r3, r3, #16
 c006bac:	e1a01823 	lsr	r1, r3, #16
 c006bb0:	e51b3024 	ldr	r3, [fp, #-36]	; 0xffffffdc
 c006bb4:	e1a03803 	lsl	r3, r3, #16
 c006bb8:	e1a03823 	lsr	r3, r3, #16
 c006bbc:	e283301b 	add	r3, r3, #27
 c006bc0:	e1a03803 	lsl	r3, r3, #16
 c006bc4:	e1a02823 	lsr	r2, r3, #16
 c006bc8:	e24b303c 	sub	r3, fp, #60	; 0x3c
 c006bcc:	e1a00001 	mov	r0, r1
 c006bd0:	e1a01002 	mov	r1, r2
 c006bd4:	e3a0200f 	mov	r2, #15
 c006bd8:	ebfff739 	bl	c0048c4 <Lcd_DspAscII8x16>
	Lcd_DspAscII8x16(145, 5, BLACK, (unsigned char *)"1");  /* Se puede calcular */
	
	/* Dibujar cuadrcula expandida */
	for (i = 0; i < 3; i++)
	{
		for (j = 0; j < 3; j++)
 c006bdc:	e51b3014 	ldr	r3, [fp, #-20]	; 0xffffffec
 c006be0:	e2833001 	add	r3, r3, #1
 c006be4:	e50b3014 	str	r3, [fp, #-20]	; 0xffffffec
 c006be8:	e51b3014 	ldr	r3, [fp, #-20]	; 0xffffffec
 c006bec:	e3530002 	cmp	r3, #2
 c006bf0:	daffff91 	ble	c006a3c <Sudoku_Mostrar_Region_Expandida+0x84>
	/* Ttulo */
	Lcd_DspAscII8x16(80, 5, BLACK, (unsigned char *)"Region ");
	Lcd_DspAscII8x16(145, 5, BLACK, (unsigned char *)"1");  /* Se puede calcular */
	
	/* Dibujar cuadrcula expandida */
	for (i = 0; i < 3; i++)
 c006bf4:	e51b3010 	ldr	r3, [fp, #-16]
 c006bf8:	e2833001 	add	r3, r3, #1
 c006bfc:	e50b3010 	str	r3, [fp, #-16]
 c006c00:	e51b3010 	ldr	r3, [fp, #-16]
 c006c04:	e3530002 	cmp	r3, #2
 c006c08:	daffff88 	ble	c006a30 <Sudoku_Mostrar_Region_Expandida+0x78>
			}
		}
	}
	
	/* Mensaje para salir */
	Lcd_DspAscII6x8(80, 220, DARKGRAY, (unsigned char *)"Toca para volver");
 c006c0c:	e3a00050 	mov	r0, #80	; 0x50
 c006c10:	e3a010dc 	mov	r1, #220	; 0xdc
 c006c14:	e3a0200a 	mov	r2, #10
 c006c18:	e59f305c 	ldr	r3, [pc, #92]	; c006c7c <Sudoku_Mostrar_Region_Expandida+0x2c4>
 c006c1c:	ebfff7ed 	bl	c004bd8 <Lcd_DspAscII6x8>
	
	/* Transferir a pantalla */
	Lcd_Dma_Trans();
 c006c20:	ebfff8aa 	bl	c004ed0 <Lcd_Dma_Trans>
	
	/* Esperar toque para volver */
	extern int ts_read_calibrated(int *x, int *y);
	int touch_x, touch_y;
	while (ts_read_calibrated(&touch_x, &touch_y) != 0)
 c006c24:	e1a00000 	nop			; (mov r0, r0)
 c006c28:	e24b2034 	sub	r2, fp, #52	; 0x34
 c006c2c:	e24b3038 	sub	r3, fp, #56	; 0x38
 c006c30:	e1a00002 	mov	r0, r2
 c006c34:	e1a01003 	mov	r1, r3
 c006c38:	eb000cde 	bl	c009fb8 <ts_read_calibrated>
 c006c3c:	e1a03000 	mov	r3, r0
 c006c40:	e3530000 	cmp	r3, #0
 c006c44:	1afffff7 	bne	c006c28 <Sudoku_Mostrar_Region_Expandida+0x270>
	{
		/* Esperar toque */
	}
	
	Delay(50);  /* Anti-rebote */
 c006c48:	e3a00032 	mov	r0, #50	; 0x32
 c006c4c:	ebffe6ae 	bl	c00070c <Delay>
	
	/* Redibujar tablero completo */
	extern void Sudoku_Dibujar_Tablero(void);
	extern void Sudoku_Actualizar_Tablero_Completo(void* cuadricula);
	Sudoku_Dibujar_Tablero();
 c006c50:	ebfffe1a 	bl	c0064c0 <Sudoku_Dibujar_Tablero>
	Sudoku_Actualizar_Tablero_Completo(cuadricula);
 c006c54:	e59f301c 	ldr	r3, [pc, #28]	; c006c78 <Sudoku_Mostrar_Region_Expandida+0x2c0>
 c006c58:	e5933000 	ldr	r3, [r3]
 c006c5c:	e1a00003 	mov	r0, r3
 c006c60:	ebfffccb 	bl	c005f94 <Sudoku_Actualizar_Tablero_Completo>
 c006c64:	e24bd00c 	sub	sp, fp, #12
 c006c68:	e89d6800 	ldm	sp, {fp, sp, lr}
 c006c6c:	e12fff1e 	bx	lr
 c006c70:	0c00ea84 	.word	0x0c00ea84
 c006c74:	0c00ea8c 	.word	0x0c00ea8c
 c006c78:	0c00cc20 	.word	0x0c00cc20
 c006c7c:	0c00ea90 	.word	0x0c00ea90

0c006c80 <leds_on>:
/*--- variables globales del mdulo ---*/
static int led_state = 0;		/* estado del LED */

/*--- cdigo de las funciones pblicas ---*/
void leds_on()
{
 c006c80:	e1a0c00d 	mov	ip, sp
 c006c84:	e92dd800 	push	{fp, ip, lr, pc}
 c006c88:	e24cb004 	sub	fp, ip, #4
	Led_Display(0x3);
 c006c8c:	e3a00003 	mov	r0, #3
 c006c90:	eb00005a 	bl	c006e00 <Led_Display>
}
 c006c94:	e24bd00c 	sub	sp, fp, #12
 c006c98:	e89d6800 	ldm	sp, {fp, sp, lr}
 c006c9c:	e12fff1e 	bx	lr

0c006ca0 <leds_off>:

void leds_off()
{
 c006ca0:	e1a0c00d 	mov	ip, sp
 c006ca4:	e92dd800 	push	{fp, ip, lr, pc}
 c006ca8:	e24cb004 	sub	fp, ip, #4
	Led_Display(0x0);
 c006cac:	e3a00000 	mov	r0, #0
 c006cb0:	eb000052 	bl	c006e00 <Led_Display>
}
 c006cb4:	e24bd00c 	sub	sp, fp, #12
 c006cb8:	e89d6800 	ldm	sp, {fp, sp, lr}
 c006cbc:	e12fff1e 	bx	lr

0c006cc0 <led1_on>:

void led1_on()
{
 c006cc0:	e1a0c00d 	mov	ip, sp
 c006cc4:	e92dd800 	push	{fp, ip, lr, pc}
 c006cc8:	e24cb004 	sub	fp, ip, #4
	led_state = led_state | 0x1;
 c006ccc:	e59f3028 	ldr	r3, [pc, #40]	; c006cfc <led1_on+0x3c>
 c006cd0:	e5933000 	ldr	r3, [r3]
 c006cd4:	e3832001 	orr	r2, r3, #1
 c006cd8:	e59f301c 	ldr	r3, [pc, #28]	; c006cfc <led1_on+0x3c>
 c006cdc:	e5832000 	str	r2, [r3]
	Led_Display(led_state);
 c006ce0:	e59f3014 	ldr	r3, [pc, #20]	; c006cfc <led1_on+0x3c>
 c006ce4:	e5933000 	ldr	r3, [r3]
 c006ce8:	e1a00003 	mov	r0, r3
 c006cec:	eb000043 	bl	c006e00 <Led_Display>
}
 c006cf0:	e24bd00c 	sub	sp, fp, #12
 c006cf4:	e89d6800 	ldm	sp, {fp, sp, lr}
 c006cf8:	e12fff1e 	bx	lr
 c006cfc:	0c00ef00 	.word	0x0c00ef00

0c006d00 <led1_off>:

void led1_off()
{
 c006d00:	e1a0c00d 	mov	ip, sp
 c006d04:	e92dd800 	push	{fp, ip, lr, pc}
 c006d08:	e24cb004 	sub	fp, ip, #4
	led_state = led_state & 0xfe;
 c006d0c:	e59f3028 	ldr	r3, [pc, #40]	; c006d3c <led1_off+0x3c>
 c006d10:	e5933000 	ldr	r3, [r3]
 c006d14:	e20320fe 	and	r2, r3, #254	; 0xfe
 c006d18:	e59f301c 	ldr	r3, [pc, #28]	; c006d3c <led1_off+0x3c>
 c006d1c:	e5832000 	str	r2, [r3]
	Led_Display(led_state);
 c006d20:	e59f3014 	ldr	r3, [pc, #20]	; c006d3c <led1_off+0x3c>
 c006d24:	e5933000 	ldr	r3, [r3]
 c006d28:	e1a00003 	mov	r0, r3
 c006d2c:	eb000033 	bl	c006e00 <Led_Display>
}
 c006d30:	e24bd00c 	sub	sp, fp, #12
 c006d34:	e89d6800 	ldm	sp, {fp, sp, lr}
 c006d38:	e12fff1e 	bx	lr
 c006d3c:	0c00ef00 	.word	0x0c00ef00

0c006d40 <led2_on>:

void led2_on()
{
 c006d40:	e1a0c00d 	mov	ip, sp
 c006d44:	e92dd800 	push	{fp, ip, lr, pc}
 c006d48:	e24cb004 	sub	fp, ip, #4
	led_state = led_state | 0x2;
 c006d4c:	e59f3028 	ldr	r3, [pc, #40]	; c006d7c <led2_on+0x3c>
 c006d50:	e5933000 	ldr	r3, [r3]
 c006d54:	e3832002 	orr	r2, r3, #2
 c006d58:	e59f301c 	ldr	r3, [pc, #28]	; c006d7c <led2_on+0x3c>
 c006d5c:	e5832000 	str	r2, [r3]
	Led_Display(led_state);
 c006d60:	e59f3014 	ldr	r3, [pc, #20]	; c006d7c <led2_on+0x3c>
 c006d64:	e5933000 	ldr	r3, [r3]
 c006d68:	e1a00003 	mov	r0, r3
 c006d6c:	eb000023 	bl	c006e00 <Led_Display>
}
 c006d70:	e24bd00c 	sub	sp, fp, #12
 c006d74:	e89d6800 	ldm	sp, {fp, sp, lr}
 c006d78:	e12fff1e 	bx	lr
 c006d7c:	0c00ef00 	.word	0x0c00ef00

0c006d80 <led2_off>:

void led2_off()
{
 c006d80:	e1a0c00d 	mov	ip, sp
 c006d84:	e92dd800 	push	{fp, ip, lr, pc}
 c006d88:	e24cb004 	sub	fp, ip, #4
	led_state = led_state & 0xfd;
 c006d8c:	e59f3028 	ldr	r3, [pc, #40]	; c006dbc <led2_off+0x3c>
 c006d90:	e5933000 	ldr	r3, [r3]
 c006d94:	e20320fd 	and	r2, r3, #253	; 0xfd
 c006d98:	e59f301c 	ldr	r3, [pc, #28]	; c006dbc <led2_off+0x3c>
 c006d9c:	e5832000 	str	r2, [r3]
	Led_Display(led_state);
 c006da0:	e59f3014 	ldr	r3, [pc, #20]	; c006dbc <led2_off+0x3c>
 c006da4:	e5933000 	ldr	r3, [r3]
 c006da8:	e1a00003 	mov	r0, r3
 c006dac:	eb000013 	bl	c006e00 <Led_Display>
}
 c006db0:	e24bd00c 	sub	sp, fp, #12
 c006db4:	e89d6800 	ldm	sp, {fp, sp, lr}
 c006db8:	e12fff1e 	bx	lr
 c006dbc:	0c00ef00 	.word	0x0c00ef00

0c006dc0 <leds_switch>:

void leds_switch()
{
 c006dc0:	e1a0c00d 	mov	ip, sp
 c006dc4:	e92dd800 	push	{fp, ip, lr, pc}
 c006dc8:	e24cb004 	sub	fp, ip, #4
	led_state ^= 0x03;
 c006dcc:	e59f3028 	ldr	r3, [pc, #40]	; c006dfc <leds_switch+0x3c>
 c006dd0:	e5933000 	ldr	r3, [r3]
 c006dd4:	e2232003 	eor	r2, r3, #3
 c006dd8:	e59f301c 	ldr	r3, [pc, #28]	; c006dfc <leds_switch+0x3c>
 c006ddc:	e5832000 	str	r2, [r3]
	Led_Display(led_state);
 c006de0:	e59f3014 	ldr	r3, [pc, #20]	; c006dfc <leds_switch+0x3c>
 c006de4:	e5933000 	ldr	r3, [r3]
 c006de8:	e1a00003 	mov	r0, r3
 c006dec:	eb000003 	bl	c006e00 <Led_Display>

}
 c006df0:	e24bd00c 	sub	sp, fp, #12
 c006df4:	e89d6800 	ldm	sp, {fp, sp, lr}
 c006df8:	e12fff1e 	bx	lr
 c006dfc:	0c00ef00 	.word	0x0c00ef00

0c006e00 <Led_Display>:

void Led_Display(int LedStatus)
{
 c006e00:	e1a0c00d 	mov	ip, sp
 c006e04:	e92dd800 	push	{fp, ip, lr, pc}
 c006e08:	e24cb004 	sub	fp, ip, #4
 c006e0c:	e24dd008 	sub	sp, sp, #8
 c006e10:	e50b0010 	str	r0, [fp, #-16]
	led_state = LedStatus;
 c006e14:	e59f3094 	ldr	r3, [pc, #148]	; c006eb0 <Led_Display+0xb0>
 c006e18:	e51b2010 	ldr	r2, [fp, #-16]
 c006e1c:	e5832000 	str	r2, [r3]

	if ((LedStatus & 0x01) == 0x01)
 c006e20:	e51b3010 	ldr	r3, [fp, #-16]
 c006e24:	e2033001 	and	r3, r3, #1
 c006e28:	e20330ff 	and	r3, r3, #255	; 0xff
 c006e2c:	e3530000 	cmp	r3, #0
 c006e30:	0a000006 	beq	c006e50 <Led_Display+0x50>
		rPDATB = rPDATB & 0x5ff; /* poner a 0 el bit 9 del puerto B */
 c006e34:	e59f2078 	ldr	r2, [pc, #120]	; c006eb4 <Led_Display+0xb4>
 c006e38:	e59f3074 	ldr	r3, [pc, #116]	; c006eb4 <Led_Display+0xb4>
 c006e3c:	e5931000 	ldr	r1, [r3]
 c006e40:	e59f3070 	ldr	r3, [pc, #112]	; c006eb8 <Led_Display+0xb8>
 c006e44:	e0013003 	and	r3, r1, r3
 c006e48:	e5823000 	str	r3, [r2]
 c006e4c:	ea000004 	b	c006e64 <Led_Display+0x64>
	else
		rPDATB = rPDATB | 0x200; /* poner a 1 el bit 9 del puerto B */
 c006e50:	e59f305c 	ldr	r3, [pc, #92]	; c006eb4 <Led_Display+0xb4>
 c006e54:	e59f2058 	ldr	r2, [pc, #88]	; c006eb4 <Led_Display+0xb4>
 c006e58:	e5922000 	ldr	r2, [r2]
 c006e5c:	e3822c02 	orr	r2, r2, #512	; 0x200
 c006e60:	e5832000 	str	r2, [r3]

	if ((LedStatus & 0x02) == 0x02)
 c006e64:	e51b3010 	ldr	r3, [fp, #-16]
 c006e68:	e2033002 	and	r3, r3, #2
 c006e6c:	e3530000 	cmp	r3, #0
 c006e70:	0a000006 	beq	c006e90 <Led_Display+0x90>
		rPDATB = rPDATB & 0x3ff; /* poner a 0 el bit 10 del puerto B */
 c006e74:	e59f2038 	ldr	r2, [pc, #56]	; c006eb4 <Led_Display+0xb4>
 c006e78:	e59f3034 	ldr	r3, [pc, #52]	; c006eb4 <Led_Display+0xb4>
 c006e7c:	e5933000 	ldr	r3, [r3]
 c006e80:	e1a03b03 	lsl	r3, r3, #22
 c006e84:	e1a03b23 	lsr	r3, r3, #22
 c006e88:	e5823000 	str	r3, [r2]
 c006e8c:	ea000004 	b	c006ea4 <Led_Display+0xa4>
	else
		rPDATB = rPDATB | 0x400; /* poner a 1 el bit 10 del puerto B */
 c006e90:	e59f301c 	ldr	r3, [pc, #28]	; c006eb4 <Led_Display+0xb4>
 c006e94:	e59f2018 	ldr	r2, [pc, #24]	; c006eb4 <Led_Display+0xb4>
 c006e98:	e5922000 	ldr	r2, [r2]
 c006e9c:	e3822b01 	orr	r2, r2, #1024	; 0x400
 c006ea0:	e5832000 	str	r2, [r3]
 c006ea4:	e24bd00c 	sub	sp, fp, #12
 c006ea8:	e89d6800 	ldm	sp, {fp, sp, lr}
 c006eac:	e12fff1e 	bx	lr
 c006eb0:	0c00ef00 	.word	0x0c00ef00
 c006eb4:	01d2000c 	.word	0x01d2000c
 c006eb8:	000005ff 	.word	0x000005ff

0c006ebc <Main>:
* ret:		none
* modify:
* comment:	Descomenta el bloque que quieras ejecutar (TOUCHSCREEN o SUDOKU)
*********************************************************************************************/
void Main(void)
{
 c006ebc:	e1a0c00d 	mov	ip, sp
 c006ec0:	e92dd800 	push	{fp, ip, lr, pc}
 c006ec4:	e24cb004 	sub	fp, ip, #4
 c006ec8:	e24dd018 	sub	sp, sp, #24
    sys_init();        /* Initial 44B0X's Interrupt, Port and UART */
 c006ecc:	ebffe821 	bl	c000f58 <sys_init>
    
    /* Variables para observar la cola durante la depuracin */
    ColaDebug* p_cola;              // Puntador a la estructura completa de la cola
    
    /* Inicializa controladores del Sudoku */
    timer2_init();      // Inicializacion del timer2 para medicion de tiempo
 c006ed0:	eb000322 	bl	c007b60 <timer2_init>
    timer1_init();      // Inicializacion del timer1 para latido (heartbeat) - Paso 6
 c006ed4:	eb0002cb 	bl	c007a08 <timer1_init>
    cola_init();        // Inicializacion de la cola de depuracion (Paso 4)
 c006ed8:	ebffee8f 	bl	c00291c <cola_init>
    Eint4567_init();    // inicializamos los pulsadores. Cada vez que se pulse se ver reflejado en el 8led
 c006edc:	ebffee52 	bl	c00282c <Eint4567_init>
    D8Led_init();       // inicializamos el 8led
 c006ee0:	ebffe838 	bl	c000fc8 <D8Led_init>

    /* Inicializar LCD y mostrar pantalla inicial */
    Lcd_Init();
 c006ee4:	ebfff07c 	bl	c0030dc <Lcd_Init>
    TS_init();
 c006ee8:	eb0006e7 	bl	c008a8c <TS_init>
    
    /* Calibrar touchscreen */
    ts_calibrate_5pt(SCR_XSIZE, SCR_YSIZE, 30);
 c006eec:	e3a00d05 	mov	r0, #320	; 0x140
 c006ef0:	e3a010f0 	mov	r1, #240	; 0xf0
 c006ef4:	e3a0201e 	mov	r2, #30
 c006ef8:	eb000aa7 	bl	c00999c <ts_calibrate_5pt>
    
    Sudoku_Pantalla_Inicial();
 c006efc:	ebfff8a2 	bl	c00518c <Sudoku_Pantalla_Inicial>

    /* Valor inicial de los leds */
    leds_off();
 c006f00:	ebffff66 	bl	c006ca0 <leds_off>
    
    /* Apuntar a la cola para poder observarla en el depurador */
    p_cola = cola_global;
 c006f04:	e59f30b0 	ldr	r3, [pc, #176]	; c006fbc <Main+0x100>
 c006f08:	e5933000 	ldr	r3, [r3]
 c006f0c:	e50b3014 	str	r3, [fp, #-20]	; 0xffffffec
    
    /* Variable para controlar actualizacin del tiempo */
    unsigned int tiempo_anterior = 0;
 c006f10:	e3a03000 	mov	r3, #0
 c006f14:	e50b3010 	str	r3, [fp, #-16]
    unsigned int tiempo_actual = 0;
 c006f18:	e3a03000 	mov	r3, #0
 c006f1c:	e50b3018 	str	r3, [fp, #-24]	; 0xffffffe8
 c006f20:	ea000000 	b	c006f28 <Main+0x6c>
                unsigned int tiempo_transcurrido = tiempo_actual - Sudoku_Obtener_Tiempo_Inicio();
                Sudoku_Actualizar_Tiempo(tiempo_transcurrido);
            }
            tiempo_anterior = tiempo_actual;
        }
    }
 c006f24:	e1a00000 	nop			; (mov r0, r0)
    {
        /* El latido (LED2 parpadeando) se gestiona automticamente por timer1 */
        /* El programa est vivo mientras el LED2 parpadee a 6 Hz */
        
        /* Comprobar si hay toque en la pantalla */
        if (ts_read_calibrated(&touch_x, &touch_y) == 0)
 c006f28:	e24b2020 	sub	r2, fp, #32
 c006f2c:	e24b3024 	sub	r3, fp, #36	; 0x24
 c006f30:	e1a00002 	mov	r0, r2
 c006f34:	e1a01003 	mov	r1, r3
 c006f38:	eb000c1e 	bl	c009fb8 <ts_read_calibrated>
 c006f3c:	e1a03000 	mov	r3, r0
 c006f40:	e3530000 	cmp	r3, #0
 c006f44:	1a000006 	bne	c006f64 <Main+0xa8>
        {
            /* Procesar toque en el Sudoku */
            Sudoku_Procesar_Touch(touch_x, touch_y);
 c006f48:	e51b2020 	ldr	r2, [fp, #-32]	; 0xffffffe0
 c006f4c:	e51b3024 	ldr	r3, [fp, #-36]	; 0xffffffdc
 c006f50:	e1a00002 	mov	r0, r2
 c006f54:	e1a01003 	mov	r1, r3
 c006f58:	ebfffe40 	bl	c006860 <Sudoku_Procesar_Touch>
            Delay(30);  // Evitar mltiples detecciones
 c006f5c:	e3a0001e 	mov	r0, #30
 c006f60:	ebffe5e9 	bl	c00070c <Delay>
        }
        
        /* Actualizar el tiempo en pantalla cada segundo */
        tiempo_actual = timer2_count();
 c006f64:	eb00036b 	bl	c007d18 <timer2_count>
 c006f68:	e50b0018 	str	r0, [fp, #-24]	; 0xffffffe8
        
        /* Actualizar cada 1 segundo (1000000 microsegundos) */
        if ((tiempo_actual - tiempo_anterior) >= 1000000)
 c006f6c:	e51b2018 	ldr	r2, [fp, #-24]	; 0xffffffe8
 c006f70:	e51b3010 	ldr	r3, [fp, #-16]
 c006f74:	e0632002 	rsb	r2, r3, r2
 c006f78:	e59f3040 	ldr	r3, [pc, #64]	; c006fc0 <Main+0x104>
 c006f7c:	e1520003 	cmp	r2, r3
 c006f80:	9affffe7 	bls	c006f24 <Main+0x68>
        {
            /* Solo actualizar si el juego est en progreso (no en pantalla inicial ni terminado) */
            if (Sudoku_Juego_En_Progreso())
 c006f84:	ebffee09 	bl	c0027b0 <Sudoku_Juego_En_Progreso>
 c006f88:	e1a03000 	mov	r3, r0
 c006f8c:	e3530000 	cmp	r3, #0
 c006f90:	0a000006 	beq	c006fb0 <Main+0xf4>
            {
                /* Calcular tiempo transcurrido desde el inicio de la partida */
                unsigned int tiempo_transcurrido = tiempo_actual - Sudoku_Obtener_Tiempo_Inicio();
 c006f94:	ebffee1a 	bl	c002804 <Sudoku_Obtener_Tiempo_Inicio>
 c006f98:	e1a03000 	mov	r3, r0
 c006f9c:	e51b2018 	ldr	r2, [fp, #-24]	; 0xffffffe8
 c006fa0:	e0633002 	rsb	r3, r3, r2
 c006fa4:	e50b301c 	str	r3, [fp, #-28]	; 0xffffffe4
                Sudoku_Actualizar_Tiempo(tiempo_transcurrido);
 c006fa8:	e51b001c 	ldr	r0, [fp, #-28]	; 0xffffffe4
 c006fac:	ebfffc40 	bl	c0060b4 <Sudoku_Actualizar_Tiempo>
            }
            tiempo_anterior = tiempo_actual;
 c006fb0:	e51b3018 	ldr	r3, [fp, #-24]	; 0xffffffe8
 c006fb4:	e50b3010 	str	r3, [fp, #-16]
        }
    }
 c006fb8:	eaffffda 	b	c006f28 <Main+0x6c>
 c006fbc:	0c00c540 	.word	0x0c00c540
 c006fc0:	000f423f 	.word	0x000f423f

0c006fc4 <celda_eliminar_candidato>:
	
	/* *****************************************************************************
	 * elimina el candidato del valor almacenado en la celda indicada */
	__inline static void
	celda_eliminar_candidato(CELDA *celdaptr, uint8_t valor)
	{
 c006fc4:	e1a0c00d 	mov	ip, sp
 c006fc8:	e92dd800 	push	{fp, ip, lr, pc}
 c006fcc:	e24cb004 	sub	fp, ip, #4
 c006fd0:	e24dd008 	sub	sp, sp, #8
 c006fd4:	e50b0010 	str	r0, [fp, #-16]
 c006fd8:	e1a03001 	mov	r3, r1
 c006fdc:	e54b3011 	strb	r3, [fp, #-17]	; 0xffffffef
		*celdaptr = *celdaptr | (0x0001 << (BIT_CANDIDATOS + valor - 1));
 c006fe0:	e51b3010 	ldr	r3, [fp, #-16]
 c006fe4:	e1d330b0 	ldrh	r3, [r3]
 c006fe8:	e1a03803 	lsl	r3, r3, #16
 c006fec:	e1a02823 	lsr	r2, r3, #16
 c006ff0:	e55b3011 	ldrb	r3, [fp, #-17]	; 0xffffffef
 c006ff4:	e2833006 	add	r3, r3, #6
 c006ff8:	e3a01001 	mov	r1, #1
 c006ffc:	e1a03311 	lsl	r3, r1, r3
 c007000:	e1a03803 	lsl	r3, r3, #16
 c007004:	e1a03823 	lsr	r3, r3, #16
 c007008:	e1823003 	orr	r3, r2, r3
 c00700c:	e1a03803 	lsl	r3, r3, #16
 c007010:	e1a03823 	lsr	r3, r3, #16
 c007014:	e1a03803 	lsl	r3, r3, #16
 c007018:	e1a02823 	lsr	r2, r3, #16
 c00701c:	e51b3010 	ldr	r3, [fp, #-16]
 c007020:	e1c320b0 	strh	r2, [r3]
	}
 c007024:	e24bd00c 	sub	sp, fp, #12
 c007028:	e89d6800 	ldm	sp, {fp, sp, lr}
 c00702c:	e12fff1e 	bx	lr

0c007030 <celda_leer_valor>:
	
	/* *****************************************************************************
	 * extrae el valor almacenado en los 16 bits de una celda */
        __inline static uint8_t
        celda_leer_valor(CELDA celda)
        {
 c007030:	e1a0c00d 	mov	ip, sp
 c007034:	e92dd800 	push	{fp, ip, lr, pc}
 c007038:	e24cb004 	sub	fp, ip, #4
 c00703c:	e24dd008 	sub	sp, sp, #8
 c007040:	e1a03000 	mov	r3, r0
 c007044:	e14b30be 	strh	r3, [fp, #-14]
                return (celda & 0x000F);
 c007048:	e15b30be 	ldrh	r3, [fp, #-14]
 c00704c:	e20330ff 	and	r3, r3, #255	; 0xff
 c007050:	e203300f 	and	r3, r3, #15
 c007054:	e20330ff 	and	r3, r3, #255	; 0xff
        }
 c007058:	e1a00003 	mov	r0, r3
 c00705c:	e24bd00c 	sub	sp, fp, #12
 c007060:	e89d6800 	ldm	sp, {fp, sp, lr}
 c007064:	e12fff1e 	bx	lr

0c007068 <candidatos_propagar_c>:
/* Recibe como parmetro la cuadrcula, y la fila y columna de
 * la celda a propagar; no devuelve nada
 */
void candidatos_propagar_c(CELDA cuadricula[NUM_FILAS][NUM_COLUMNAS],
                             uint8_t fila, uint8_t columna)
{
 c007068:	e1a0c00d 	mov	ip, sp
 c00706c:	e92dd800 	push	{fp, ip, lr, pc}
 c007070:	e24cb004 	sub	fp, ip, #4
 c007074:	e24dd018 	sub	sp, sp, #24
 c007078:	e50b0020 	str	r0, [fp, #-32]	; 0xffffffe0
 c00707c:	e1a03002 	mov	r3, r2
 c007080:	e1a02001 	mov	r2, r1
 c007084:	e54b2021 	strb	r2, [fp, #-33]	; 0xffffffdf
 c007088:	e54b3022 	strb	r3, [fp, #-34]	; 0xffffffde
	uint8_t j, i , init_i, init_j;
    /* puede ayudar esta "look up table" a mejorar el rendimiento */
    const uint8_t init_region[NUM_FILAS] = {0, 0, 0, 3, 3, 3, 6, 6, 6};
 c00708c:	e59f21a4 	ldr	r2, [pc, #420]	; c007238 <candidatos_propagar_c+0x1d0>
 c007090:	e24b301c 	sub	r3, fp, #28
 c007094:	e8920007 	ldm	r2, {r0, r1, r2}
 c007098:	e8a30003 	stmia	r3!, {r0, r1}
 c00709c:	e5c32000 	strb	r2, [r3]

    /* valor que se propaga */
    uint8_t valor = celda_leer_valor(cuadricula[fila][columna]);
 c0070a0:	e55b3021 	ldrb	r3, [fp, #-33]	; 0xffffffdf
 c0070a4:	e1a03283 	lsl	r3, r3, #5
 c0070a8:	e51b2020 	ldr	r2, [fp, #-32]	; 0xffffffe0
 c0070ac:	e0822003 	add	r2, r2, r3
 c0070b0:	e55b3022 	ldrb	r3, [fp, #-34]	; 0xffffffde
 c0070b4:	e1a03083 	lsl	r3, r3, #1
 c0070b8:	e0823003 	add	r3, r2, r3
 c0070bc:	e1d330b0 	ldrh	r3, [r3]
 c0070c0:	e1a00003 	mov	r0, r3
 c0070c4:	ebffffd9 	bl	c007030 <celda_leer_valor>
 c0070c8:	e1a03000 	mov	r3, r0
 c0070cc:	e54b300f 	strb	r3, [fp, #-15]

    /* recorrer fila descartando valor de listas candidatos (incluyendo la celda origen) */
    for (j = 0; j < NUM_FILAS; j++) {
 c0070d0:	e3a03000 	mov	r3, #0
 c0070d4:	e54b300d 	strb	r3, [fp, #-13]
 c0070d8:	ea00000d 	b	c007114 <candidatos_propagar_c+0xac>
        celda_eliminar_candidato(&cuadricula[fila][j], valor);
 c0070dc:	e51b2020 	ldr	r2, [fp, #-32]	; 0xffffffe0
 c0070e0:	e55b3021 	ldrb	r3, [fp, #-33]	; 0xffffffdf
 c0070e4:	e1a01203 	lsl	r1, r3, #4
 c0070e8:	e55b300d 	ldrb	r3, [fp, #-13]
 c0070ec:	e0813003 	add	r3, r1, r3
 c0070f0:	e1a03083 	lsl	r3, r3, #1
 c0070f4:	e0822003 	add	r2, r2, r3
 c0070f8:	e55b300f 	ldrb	r3, [fp, #-15]
 c0070fc:	e1a00002 	mov	r0, r2
 c007100:	e1a01003 	mov	r1, r3
 c007104:	ebffffae 	bl	c006fc4 <celda_eliminar_candidato>

    /* valor que se propaga */
    uint8_t valor = celda_leer_valor(cuadricula[fila][columna]);

    /* recorrer fila descartando valor de listas candidatos (incluyendo la celda origen) */
    for (j = 0; j < NUM_FILAS; j++) {
 c007108:	e55b300d 	ldrb	r3, [fp, #-13]
 c00710c:	e2833001 	add	r3, r3, #1
 c007110:	e54b300d 	strb	r3, [fp, #-13]
 c007114:	e55b300d 	ldrb	r3, [fp, #-13]
 c007118:	e3530008 	cmp	r3, #8
 c00711c:	9affffee 	bls	c0070dc <candidatos_propagar_c+0x74>
        celda_eliminar_candidato(&cuadricula[fila][j], valor);
    }

    /* recorrer columna descartando valor de listas candidatos (incluyendo la celda origen) */
    for (i = 0; i < NUM_FILAS; i++) {
 c007120:	e3a03000 	mov	r3, #0
 c007124:	e54b300e 	strb	r3, [fp, #-14]
 c007128:	ea00000d 	b	c007164 <candidatos_propagar_c+0xfc>
        celda_eliminar_candidato(&cuadricula[i][columna], valor);
 c00712c:	e51b2020 	ldr	r2, [fp, #-32]	; 0xffffffe0
 c007130:	e55b300e 	ldrb	r3, [fp, #-14]
 c007134:	e1a01203 	lsl	r1, r3, #4
 c007138:	e55b3022 	ldrb	r3, [fp, #-34]	; 0xffffffde
 c00713c:	e0813003 	add	r3, r1, r3
 c007140:	e1a03083 	lsl	r3, r3, #1
 c007144:	e0822003 	add	r2, r2, r3
 c007148:	e55b300f 	ldrb	r3, [fp, #-15]
 c00714c:	e1a00002 	mov	r0, r2
 c007150:	e1a01003 	mov	r1, r3
 c007154:	ebffff9a 	bl	c006fc4 <celda_eliminar_candidato>
    for (j = 0; j < NUM_FILAS; j++) {
        celda_eliminar_candidato(&cuadricula[fila][j], valor);
    }

    /* recorrer columna descartando valor de listas candidatos (incluyendo la celda origen) */
    for (i = 0; i < NUM_FILAS; i++) {
 c007158:	e55b300e 	ldrb	r3, [fp, #-14]
 c00715c:	e2833001 	add	r3, r3, #1
 c007160:	e54b300e 	strb	r3, [fp, #-14]
 c007164:	e55b300e 	ldrb	r3, [fp, #-14]
 c007168:	e3530008 	cmp	r3, #8
 c00716c:	9affffee 	bls	c00712c <candidatos_propagar_c+0xc4>
        celda_eliminar_candidato(&cuadricula[i][columna], valor);
    }

    /* recorrer regin descartando valor de listas candidatos */
    init_i = init_region[fila];
 c007170:	e55b2021 	ldrb	r2, [fp, #-33]	; 0xffffffdf
 c007174:	e3e0300f 	mvn	r3, #15
 c007178:	e24b100c 	sub	r1, fp, #12
 c00717c:	e0812002 	add	r2, r1, r2
 c007180:	e0823003 	add	r3, r2, r3
 c007184:	e5d33000 	ldrb	r3, [r3]
 c007188:	e54b3010 	strb	r3, [fp, #-16]
    init_j = init_region[columna];
 c00718c:	e55b2022 	ldrb	r2, [fp, #-34]	; 0xffffffde
 c007190:	e3e0300f 	mvn	r3, #15
 c007194:	e24b100c 	sub	r1, fp, #12
 c007198:	e0812002 	add	r2, r1, r2
 c00719c:	e0823003 	add	r3, r2, r3
 c0071a0:	e5d33000 	ldrb	r3, [r3]
 c0071a4:	e54b3011 	strb	r3, [fp, #-17]	; 0xffffffef
    
    for (i = init_i; i < init_i + 3; i++) {
 c0071a8:	e55b3010 	ldrb	r3, [fp, #-16]
 c0071ac:	e54b300e 	strb	r3, [fp, #-14]
 c0071b0:	ea000018 	b	c007218 <candidatos_propagar_c+0x1b0>
        for (j = init_j; j < init_j + 3; j++) {
 c0071b4:	e55b3011 	ldrb	r3, [fp, #-17]	; 0xffffffef
 c0071b8:	e54b300d 	strb	r3, [fp, #-13]
 c0071bc:	ea00000d 	b	c0071f8 <candidatos_propagar_c+0x190>
            celda_eliminar_candidato(&cuadricula[i][j], valor);
 c0071c0:	e51b2020 	ldr	r2, [fp, #-32]	; 0xffffffe0
 c0071c4:	e55b300e 	ldrb	r3, [fp, #-14]
 c0071c8:	e1a01203 	lsl	r1, r3, #4
 c0071cc:	e55b300d 	ldrb	r3, [fp, #-13]
 c0071d0:	e0813003 	add	r3, r1, r3
 c0071d4:	e1a03083 	lsl	r3, r3, #1
 c0071d8:	e0822003 	add	r2, r2, r3
 c0071dc:	e55b300f 	ldrb	r3, [fp, #-15]
 c0071e0:	e1a00002 	mov	r0, r2
 c0071e4:	e1a01003 	mov	r1, r3
 c0071e8:	ebffff75 	bl	c006fc4 <celda_eliminar_candidato>
    /* recorrer regin descartando valor de listas candidatos */
    init_i = init_region[fila];
    init_j = init_region[columna];
    
    for (i = init_i; i < init_i + 3; i++) {
        for (j = init_j; j < init_j + 3; j++) {
 c0071ec:	e55b300d 	ldrb	r3, [fp, #-13]
 c0071f0:	e2833001 	add	r3, r3, #1
 c0071f4:	e54b300d 	strb	r3, [fp, #-13]
 c0071f8:	e55b200d 	ldrb	r2, [fp, #-13]
 c0071fc:	e55b3011 	ldrb	r3, [fp, #-17]	; 0xffffffef
 c007200:	e2833003 	add	r3, r3, #3
 c007204:	e1520003 	cmp	r2, r3
 c007208:	baffffec 	blt	c0071c0 <candidatos_propagar_c+0x158>

    /* recorrer regin descartando valor de listas candidatos */
    init_i = init_region[fila];
    init_j = init_region[columna];
    
    for (i = init_i; i < init_i + 3; i++) {
 c00720c:	e55b300e 	ldrb	r3, [fp, #-14]
 c007210:	e2833001 	add	r3, r3, #1
 c007214:	e54b300e 	strb	r3, [fp, #-14]
 c007218:	e55b200e 	ldrb	r2, [fp, #-14]
 c00721c:	e55b3010 	ldrb	r3, [fp, #-16]
 c007220:	e2833003 	add	r3, r3, #3
 c007224:	e1520003 	cmp	r2, r3
 c007228:	baffffe1 	blt	c0071b4 <candidatos_propagar_c+0x14c>
        for (j = init_j; j < init_j + 3; j++) {
            celda_eliminar_candidato(&cuadricula[i][j], valor);
        }
    }
}
 c00722c:	e24bd00c 	sub	sp, fp, #12
 c007230:	e89d6800 	ldm	sp, {fp, sp, lr}
 c007234:	e12fff1e 	bx	lr
 c007238:	0c00ed00 	.word	0x0c00ed00

0c00723c <candidatos_actualizar_c>:
 * necesario tras borrar o cambiar un valor (listas corrompidas)
 * retorna el numero de celdas vacas
 */

int candidatos_actualizar_c(CELDA cuadricula[NUM_FILAS][NUM_COLUMNAS])
{
 c00723c:	e1a0c00d 	mov	ip, sp
 c007240:	e92dd800 	push	{fp, ip, lr, pc}
 c007244:	e24cb004 	sub	fp, ip, #4
 c007248:	e24dd010 	sub	sp, sp, #16
 c00724c:	e50b0018 	str	r0, [fp, #-24]	; 0xffffffe8
    int celdas_vacias = 0;
 c007250:	e3a03000 	mov	r3, #0
 c007254:	e50b3010 	str	r3, [fp, #-16]
    uint8_t i, j;

    //borrar todos los candidatos de TODAS las celdas y contar las vacas
    for (i = 0; i < NUM_FILAS; i++) {
 c007258:	e3a03000 	mov	r3, #0
 c00725c:	e54b3011 	strb	r3, [fp, #-17]	; 0xffffffef
 c007260:	ea00002e 	b	c007320 <candidatos_actualizar_c+0xe4>
        for (j = 0; j < NUM_FILAS; j++) {
 c007264:	e3a03000 	mov	r3, #0
 c007268:	e54b3012 	strb	r3, [fp, #-18]	; 0xffffffee
 c00726c:	ea000025 	b	c007308 <candidatos_actualizar_c+0xcc>
            // Resetear candidatos para TODAS las celdas (poner todos a 0, es decir, todos son candidatos)
            cuadricula[i][j] = cuadricula[i][j] & 0x007F; // Limpiar bits de candidatos [15,7]
 c007270:	e55b3011 	ldrb	r3, [fp, #-17]	; 0xffffffef
 c007274:	e1a03283 	lsl	r3, r3, #5
 c007278:	e51b2018 	ldr	r2, [fp, #-24]	; 0xffffffe8
 c00727c:	e0821003 	add	r1, r2, r3
 c007280:	e55b3012 	ldrb	r3, [fp, #-18]	; 0xffffffee
 c007284:	e55b2011 	ldrb	r2, [fp, #-17]	; 0xffffffef
 c007288:	e1a02282 	lsl	r2, r2, #5
 c00728c:	e51b0018 	ldr	r0, [fp, #-24]	; 0xffffffe8
 c007290:	e0800002 	add	r0, r0, r2
 c007294:	e55b2012 	ldrb	r2, [fp, #-18]	; 0xffffffee
 c007298:	e1a02082 	lsl	r2, r2, #1
 c00729c:	e0802002 	add	r2, r0, r2
 c0072a0:	e1d220b0 	ldrh	r2, [r2]
 c0072a4:	e202207f 	and	r2, r2, #127	; 0x7f
 c0072a8:	e1a02802 	lsl	r2, r2, #16
 c0072ac:	e1a02822 	lsr	r2, r2, #16
 c0072b0:	e1a03083 	lsl	r3, r3, #1
 c0072b4:	e0813003 	add	r3, r1, r3
 c0072b8:	e1c320b0 	strh	r2, [r3]
            
            if (celda_leer_valor(cuadricula[i][j]) == 0) {
 c0072bc:	e55b3011 	ldrb	r3, [fp, #-17]	; 0xffffffef
 c0072c0:	e1a03283 	lsl	r3, r3, #5
 c0072c4:	e51b2018 	ldr	r2, [fp, #-24]	; 0xffffffe8
 c0072c8:	e0822003 	add	r2, r2, r3
 c0072cc:	e55b3012 	ldrb	r3, [fp, #-18]	; 0xffffffee
 c0072d0:	e1a03083 	lsl	r3, r3, #1
 c0072d4:	e0823003 	add	r3, r2, r3
 c0072d8:	e1d330b0 	ldrh	r3, [r3]
 c0072dc:	e1a00003 	mov	r0, r3
 c0072e0:	ebffff52 	bl	c007030 <celda_leer_valor>
 c0072e4:	e1a03000 	mov	r3, r0
 c0072e8:	e3530000 	cmp	r3, #0
 c0072ec:	1a000002 	bne	c0072fc <candidatos_actualizar_c+0xc0>
                celdas_vacias++;
 c0072f0:	e51b3010 	ldr	r3, [fp, #-16]
 c0072f4:	e2833001 	add	r3, r3, #1
 c0072f8:	e50b3010 	str	r3, [fp, #-16]
    int celdas_vacias = 0;
    uint8_t i, j;

    //borrar todos los candidatos de TODAS las celdas y contar las vacas
    for (i = 0; i < NUM_FILAS; i++) {
        for (j = 0; j < NUM_FILAS; j++) {
 c0072fc:	e55b3012 	ldrb	r3, [fp, #-18]	; 0xffffffee
 c007300:	e2833001 	add	r3, r3, #1
 c007304:	e54b3012 	strb	r3, [fp, #-18]	; 0xffffffee
 c007308:	e55b3012 	ldrb	r3, [fp, #-18]	; 0xffffffee
 c00730c:	e3530008 	cmp	r3, #8
 c007310:	9affffd6 	bls	c007270 <candidatos_actualizar_c+0x34>
{
    int celdas_vacias = 0;
    uint8_t i, j;

    //borrar todos los candidatos de TODAS las celdas y contar las vacas
    for (i = 0; i < NUM_FILAS; i++) {
 c007314:	e55b3011 	ldrb	r3, [fp, #-17]	; 0xffffffef
 c007318:	e2833001 	add	r3, r3, #1
 c00731c:	e54b3011 	strb	r3, [fp, #-17]	; 0xffffffef
 c007320:	e55b3011 	ldrb	r3, [fp, #-17]	; 0xffffffef
 c007324:	e3530008 	cmp	r3, #8
 c007328:	9affffcd 	bls	c007264 <candidatos_actualizar_c+0x28>
        }
    }
    

    //recalcular candidatos usando candidatos_propagar_c
    for (i = 0; i < NUM_FILAS; i++) {
 c00732c:	e3a03000 	mov	r3, #0
 c007330:	e54b3011 	strb	r3, [fp, #-17]	; 0xffffffef
 c007334:	ea00001e 	b	c0073b4 <candidatos_actualizar_c+0x178>
        for (j = 0; j < NUM_FILAS; j++) {
 c007338:	e3a03000 	mov	r3, #0
 c00733c:	e54b3012 	strb	r3, [fp, #-18]	; 0xffffffee
 c007340:	ea000015 	b	c00739c <candidatos_actualizar_c+0x160>
            if (celda_leer_valor(cuadricula[i][j]) != 0) {
 c007344:	e55b3011 	ldrb	r3, [fp, #-17]	; 0xffffffef
 c007348:	e1a03283 	lsl	r3, r3, #5
 c00734c:	e51b2018 	ldr	r2, [fp, #-24]	; 0xffffffe8
 c007350:	e0822003 	add	r2, r2, r3
 c007354:	e55b3012 	ldrb	r3, [fp, #-18]	; 0xffffffee
 c007358:	e1a03083 	lsl	r3, r3, #1
 c00735c:	e0823003 	add	r3, r2, r3
 c007360:	e1d330b0 	ldrh	r3, [r3]
 c007364:	e1a00003 	mov	r0, r3
 c007368:	ebffff30 	bl	c007030 <celda_leer_valor>
 c00736c:	e1a03000 	mov	r3, r0
 c007370:	e3530000 	cmp	r3, #0
 c007374:	0a000005 	beq	c007390 <candidatos_actualizar_c+0x154>
                // Celda con valor - propagar su valor para eliminar candidatos
                candidatos_propagar_c(cuadricula, i, j);
 c007378:	e55b2011 	ldrb	r2, [fp, #-17]	; 0xffffffef
 c00737c:	e55b3012 	ldrb	r3, [fp, #-18]	; 0xffffffee
 c007380:	e51b0018 	ldr	r0, [fp, #-24]	; 0xffffffe8
 c007384:	e1a01002 	mov	r1, r2
 c007388:	e1a02003 	mov	r2, r3
 c00738c:	ebffff35 	bl	c007068 <candidatos_propagar_c>
    }
    

    //recalcular candidatos usando candidatos_propagar_c
    for (i = 0; i < NUM_FILAS; i++) {
        for (j = 0; j < NUM_FILAS; j++) {
 c007390:	e55b3012 	ldrb	r3, [fp, #-18]	; 0xffffffee
 c007394:	e2833001 	add	r3, r3, #1
 c007398:	e54b3012 	strb	r3, [fp, #-18]	; 0xffffffee
 c00739c:	e55b3012 	ldrb	r3, [fp, #-18]	; 0xffffffee
 c0073a0:	e3530008 	cmp	r3, #8
 c0073a4:	9affffe6 	bls	c007344 <candidatos_actualizar_c+0x108>
        }
    }
    

    //recalcular candidatos usando candidatos_propagar_c
    for (i = 0; i < NUM_FILAS; i++) {
 c0073a8:	e55b3011 	ldrb	r3, [fp, #-17]	; 0xffffffef
 c0073ac:	e2833001 	add	r3, r3, #1
 c0073b0:	e54b3011 	strb	r3, [fp, #-17]	; 0xffffffef
 c0073b4:	e55b3011 	ldrb	r3, [fp, #-17]	; 0xffffffef
 c0073b8:	e3530008 	cmp	r3, #8
 c0073bc:	9affffdd 	bls	c007338 <candidatos_actualizar_c+0xfc>
            }
        }
    }
    
    //retornar el numero de celdas vacas
    return celdas_vacias;
 c0073c0:	e51b3010 	ldr	r3, [fp, #-16]
}
 c0073c4:	e1a00003 	mov	r0, r3
 c0073c8:	e24bd00c 	sub	sp, fp, #12
 c0073cc:	e89d6800 	ldm	sp, {fp, sp, lr}
 c0073d0:	e12fff1e 	bx	lr

0c0073d4 <candidatos_actualizar_c_arm>:
 * Recibe la cuadrcula como primer parmetro
 * y devuelve en celdas_vacias el nmero de celdas vacas
 */

int candidatos_actualizar_c_arm(CELDA cuadricula[NUM_FILAS][NUM_COLUMNAS])
{
 c0073d4:	e1a0c00d 	mov	ip, sp
 c0073d8:	e92dd800 	push	{fp, ip, lr, pc}
 c0073dc:	e24cb004 	sub	fp, ip, #4
 c0073e0:	e24dd010 	sub	sp, sp, #16
 c0073e4:	e50b0018 	str	r0, [fp, #-24]	; 0xffffffe8
	int celdas_vacias = 0;
 c0073e8:	e3a03000 	mov	r3, #0
 c0073ec:	e50b3010 	str	r3, [fp, #-16]
	uint8_t i, j;

	//borrar todos los candidatos de TODAS las celdas y contar las vacas
	for (i = 0; i < NUM_FILAS; i++) {
 c0073f0:	e3a03000 	mov	r3, #0
 c0073f4:	e54b3011 	strb	r3, [fp, #-17]	; 0xffffffef
 c0073f8:	ea00002e 	b	c0074b8 <candidatos_actualizar_c_arm+0xe4>
		for (j = 0; j < NUM_FILAS; j++) {
 c0073fc:	e3a03000 	mov	r3, #0
 c007400:	e54b3012 	strb	r3, [fp, #-18]	; 0xffffffee
 c007404:	ea000025 	b	c0074a0 <candidatos_actualizar_c_arm+0xcc>
			// Resetear candidatos para TODAS las celdas (poner todos a 0, es decir, todos son candidatos)
			cuadricula[i][j] = cuadricula[i][j] & 0x007F; // Limpiar bits de candidatos [15,7]
 c007408:	e55b3011 	ldrb	r3, [fp, #-17]	; 0xffffffef
 c00740c:	e1a03283 	lsl	r3, r3, #5
 c007410:	e51b2018 	ldr	r2, [fp, #-24]	; 0xffffffe8
 c007414:	e0821003 	add	r1, r2, r3
 c007418:	e55b3012 	ldrb	r3, [fp, #-18]	; 0xffffffee
 c00741c:	e55b2011 	ldrb	r2, [fp, #-17]	; 0xffffffef
 c007420:	e1a02282 	lsl	r2, r2, #5
 c007424:	e51b0018 	ldr	r0, [fp, #-24]	; 0xffffffe8
 c007428:	e0800002 	add	r0, r0, r2
 c00742c:	e55b2012 	ldrb	r2, [fp, #-18]	; 0xffffffee
 c007430:	e1a02082 	lsl	r2, r2, #1
 c007434:	e0802002 	add	r2, r0, r2
 c007438:	e1d220b0 	ldrh	r2, [r2]
 c00743c:	e202207f 	and	r2, r2, #127	; 0x7f
 c007440:	e1a02802 	lsl	r2, r2, #16
 c007444:	e1a02822 	lsr	r2, r2, #16
 c007448:	e1a03083 	lsl	r3, r3, #1
 c00744c:	e0813003 	add	r3, r1, r3
 c007450:	e1c320b0 	strh	r2, [r3]
			
			if (celda_leer_valor(cuadricula[i][j]) == 0) {
 c007454:	e55b3011 	ldrb	r3, [fp, #-17]	; 0xffffffef
 c007458:	e1a03283 	lsl	r3, r3, #5
 c00745c:	e51b2018 	ldr	r2, [fp, #-24]	; 0xffffffe8
 c007460:	e0822003 	add	r2, r2, r3
 c007464:	e55b3012 	ldrb	r3, [fp, #-18]	; 0xffffffee
 c007468:	e1a03083 	lsl	r3, r3, #1
 c00746c:	e0823003 	add	r3, r2, r3
 c007470:	e1d330b0 	ldrh	r3, [r3]
 c007474:	e1a00003 	mov	r0, r3
 c007478:	ebfffeec 	bl	c007030 <celda_leer_valor>
 c00747c:	e1a03000 	mov	r3, r0
 c007480:	e3530000 	cmp	r3, #0
 c007484:	1a000002 	bne	c007494 <candidatos_actualizar_c_arm+0xc0>
				celdas_vacias++;
 c007488:	e51b3010 	ldr	r3, [fp, #-16]
 c00748c:	e2833001 	add	r3, r3, #1
 c007490:	e50b3010 	str	r3, [fp, #-16]
	int celdas_vacias = 0;
	uint8_t i, j;

	//borrar todos los candidatos de TODAS las celdas y contar las vacas
	for (i = 0; i < NUM_FILAS; i++) {
		for (j = 0; j < NUM_FILAS; j++) {
 c007494:	e55b3012 	ldrb	r3, [fp, #-18]	; 0xffffffee
 c007498:	e2833001 	add	r3, r3, #1
 c00749c:	e54b3012 	strb	r3, [fp, #-18]	; 0xffffffee
 c0074a0:	e55b3012 	ldrb	r3, [fp, #-18]	; 0xffffffee
 c0074a4:	e3530008 	cmp	r3, #8
 c0074a8:	9affffd6 	bls	c007408 <candidatos_actualizar_c_arm+0x34>
{
	int celdas_vacias = 0;
	uint8_t i, j;

	//borrar todos los candidatos de TODAS las celdas y contar las vacas
	for (i = 0; i < NUM_FILAS; i++) {
 c0074ac:	e55b3011 	ldrb	r3, [fp, #-17]	; 0xffffffef
 c0074b0:	e2833001 	add	r3, r3, #1
 c0074b4:	e54b3011 	strb	r3, [fp, #-17]	; 0xffffffef
 c0074b8:	e55b3011 	ldrb	r3, [fp, #-17]	; 0xffffffef
 c0074bc:	e3530008 	cmp	r3, #8
 c0074c0:	9affffcd 	bls	c0073fc <candidatos_actualizar_c_arm+0x28>
			}
		}
	}

	//recalcular candidatos usando la funcin ARM
	for (i = 0; i < NUM_FILAS; i++) {
 c0074c4:	e3a03000 	mov	r3, #0
 c0074c8:	e54b3011 	strb	r3, [fp, #-17]	; 0xffffffef
 c0074cc:	ea00001e 	b	c00754c <candidatos_actualizar_c_arm+0x178>
		for (j = 0; j < NUM_FILAS; j++) {
 c0074d0:	e3a03000 	mov	r3, #0
 c0074d4:	e54b3012 	strb	r3, [fp, #-18]	; 0xffffffee
 c0074d8:	ea000015 	b	c007534 <candidatos_actualizar_c_arm+0x160>
			if (celda_leer_valor(cuadricula[i][j]) != 0) {
 c0074dc:	e55b3011 	ldrb	r3, [fp, #-17]	; 0xffffffef
 c0074e0:	e1a03283 	lsl	r3, r3, #5
 c0074e4:	e51b2018 	ldr	r2, [fp, #-24]	; 0xffffffe8
 c0074e8:	e0822003 	add	r2, r2, r3
 c0074ec:	e55b3012 	ldrb	r3, [fp, #-18]	; 0xffffffee
 c0074f0:	e1a03083 	lsl	r3, r3, #1
 c0074f4:	e0823003 	add	r3, r2, r3
 c0074f8:	e1d330b0 	ldrh	r3, [r3]
 c0074fc:	e1a00003 	mov	r0, r3
 c007500:	ebfffeca 	bl	c007030 <celda_leer_valor>
 c007504:	e1a03000 	mov	r3, r0
 c007508:	e3530000 	cmp	r3, #0
 c00750c:	0a000005 	beq	c007528 <candidatos_actualizar_c_arm+0x154>
				// Celda con valor - propagar usando funcin ARM optimizada
				candidatos_propagar_arm(cuadricula, i, j);
 c007510:	e55b2011 	ldrb	r2, [fp, #-17]	; 0xffffffef
 c007514:	e55b3012 	ldrb	r3, [fp, #-18]	; 0xffffffee
 c007518:	e51b0018 	ldr	r0, [fp, #-24]	; 0xffffffe8
 c00751c:	e1a01002 	mov	r1, r2
 c007520:	e1a02003 	mov	r2, r3
 c007524:	ebffed98 	bl	c002b8c <candidatos_propagar_arm>
		}
	}

	//recalcular candidatos usando la funcin ARM
	for (i = 0; i < NUM_FILAS; i++) {
		for (j = 0; j < NUM_FILAS; j++) {
 c007528:	e55b3012 	ldrb	r3, [fp, #-18]	; 0xffffffee
 c00752c:	e2833001 	add	r3, r3, #1
 c007530:	e54b3012 	strb	r3, [fp, #-18]	; 0xffffffee
 c007534:	e55b3012 	ldrb	r3, [fp, #-18]	; 0xffffffee
 c007538:	e3530008 	cmp	r3, #8
 c00753c:	9affffe6 	bls	c0074dc <candidatos_actualizar_c_arm+0x108>
			}
		}
	}

	//recalcular candidatos usando la funcin ARM
	for (i = 0; i < NUM_FILAS; i++) {
 c007540:	e55b3011 	ldrb	r3, [fp, #-17]	; 0xffffffef
 c007544:	e2833001 	add	r3, r3, #1
 c007548:	e54b3011 	strb	r3, [fp, #-17]	; 0xffffffef
 c00754c:	e55b3011 	ldrb	r3, [fp, #-17]	; 0xffffffef
 c007550:	e3530008 	cmp	r3, #8
 c007554:	9affffdd 	bls	c0074d0 <candidatos_actualizar_c_arm+0xfc>
			}
		}
	}

	//retornar el numero de celdas vacas
	return celdas_vacias;
 c007558:	e51b3010 	ldr	r3, [fp, #-16]
}
 c00755c:	e1a00003 	mov	r0, r3
 c007560:	e24bd00c 	sub	sp, fp, #12
 c007564:	e89d6800 	ldm	sp, {fp, sp, lr}
 c007568:	e12fff1e 	bx	lr

0c00756c <cuadricula_candidatos_verificar>:

static int
cuadricula_candidatos_verificar(CELDA cuadricula[NUM_FILAS][NUM_COLUMNAS],
	 CELDA solucion[NUM_FILAS][NUM_COLUMNAS])
{
 c00756c:	e1a0c00d 	mov	ip, sp
 c007570:	e92dd800 	push	{fp, ip, lr, pc}
 c007574:	e24cb004 	sub	fp, ip, #4
 c007578:	e24dd018 	sub	sp, sp, #24
 c00757c:	e50b0020 	str	r0, [fp, #-32]	; 0xffffffe0
 c007580:	e50b1024 	str	r1, [fp, #-36]	; 0xffffffdc
    int correcto = TRUE;
 c007584:	e3a03001 	mov	r3, #1
 c007588:	e50b3010 	str	r3, [fp, #-16]
    uint8_t i;
    uint8_t j;

    // Verificar que los candidatos coincidan con la solucin
    for (i = 0; i < NUM_FILAS && correcto; i++) {
 c00758c:	e3a03000 	mov	r3, #0
 c007590:	e54b3011 	strb	r3, [fp, #-17]	; 0xffffffef
 c007594:	ea000026 	b	c007634 <cuadricula_candidatos_verificar+0xc8>

    	for (j = 0; j < NUM_COLUMNAS && correcto; j++) {
 c007598:	e3a03000 	mov	r3, #0
 c00759c:	e54b3012 	strb	r3, [fp, #-18]	; 0xffffffee
 c0075a0:	ea00001a 	b	c007610 <cuadricula_candidatos_verificar+0xa4>
            // Compara candidatos con solucin
			// Extraer bits de candidatos [15,7] de ambas celdas
			uint16_t valor_cuadricula = cuadricula[i][j];
 c0075a4:	e55b3011 	ldrb	r3, [fp, #-17]	; 0xffffffef
 c0075a8:	e1a03283 	lsl	r3, r3, #5
 c0075ac:	e51b2020 	ldr	r2, [fp, #-32]	; 0xffffffe0
 c0075b0:	e0822003 	add	r2, r2, r3
 c0075b4:	e55b3012 	ldrb	r3, [fp, #-18]	; 0xffffffee
 c0075b8:	e1a03083 	lsl	r3, r3, #1
 c0075bc:	e0823003 	add	r3, r2, r3
 c0075c0:	e1d330b0 	ldrh	r3, [r3]
 c0075c4:	e14b31b4 	strh	r3, [fp, #-20]	; 0xffffffec
			uint16_t valor_solucion = solucion[i][j];
 c0075c8:	e55b3011 	ldrb	r3, [fp, #-17]	; 0xffffffef
 c0075cc:	e1a03283 	lsl	r3, r3, #5
 c0075d0:	e51b2024 	ldr	r2, [fp, #-36]	; 0xffffffdc
 c0075d4:	e0822003 	add	r2, r2, r3
 c0075d8:	e55b3012 	ldrb	r3, [fp, #-18]	; 0xffffffee
 c0075dc:	e1a03083 	lsl	r3, r3, #1
 c0075e0:	e0823003 	add	r3, r2, r3
 c0075e4:	e1d330b0 	ldrh	r3, [r3]
 c0075e8:	e14b31b6 	strh	r3, [fp, #-22]	; 0xffffffea
                
			// Los candidatos deben coincidir exactamente
			if (valor_cuadricula != valor_solucion) {
 c0075ec:	e15b21b4 	ldrh	r2, [fp, #-20]	; 0xffffffec
 c0075f0:	e15b31b6 	ldrh	r3, [fp, #-22]	; 0xffffffea
 c0075f4:	e1520003 	cmp	r2, r3
 c0075f8:	0a000001 	beq	c007604 <cuadricula_candidatos_verificar+0x98>
				correcto = FALSE;
 c0075fc:	e3a03000 	mov	r3, #0
 c007600:	e50b3010 	str	r3, [fp, #-16]
    uint8_t j;

    // Verificar que los candidatos coincidan con la solucin
    for (i = 0; i < NUM_FILAS && correcto; i++) {

    	for (j = 0; j < NUM_COLUMNAS && correcto; j++) {
 c007604:	e55b3012 	ldrb	r3, [fp, #-18]	; 0xffffffee
 c007608:	e2833001 	add	r3, r3, #1
 c00760c:	e54b3012 	strb	r3, [fp, #-18]	; 0xffffffee
 c007610:	e55b3012 	ldrb	r3, [fp, #-18]	; 0xffffffee
 c007614:	e353000f 	cmp	r3, #15
 c007618:	8a000002 	bhi	c007628 <cuadricula_candidatos_verificar+0xbc>
 c00761c:	e51b3010 	ldr	r3, [fp, #-16]
 c007620:	e3530000 	cmp	r3, #0
 c007624:	1affffde 	bne	c0075a4 <cuadricula_candidatos_verificar+0x38>
    int correcto = TRUE;
    uint8_t i;
    uint8_t j;

    // Verificar que los candidatos coincidan con la solucin
    for (i = 0; i < NUM_FILAS && correcto; i++) {
 c007628:	e55b3011 	ldrb	r3, [fp, #-17]	; 0xffffffef
 c00762c:	e2833001 	add	r3, r3, #1
 c007630:	e54b3011 	strb	r3, [fp, #-17]	; 0xffffffef
 c007634:	e55b3011 	ldrb	r3, [fp, #-17]	; 0xffffffef
 c007638:	e3530008 	cmp	r3, #8
 c00763c:	8a000002 	bhi	c00764c <cuadricula_candidatos_verificar+0xe0>
 c007640:	e51b3010 	ldr	r3, [fp, #-16]
 c007644:	e3530000 	cmp	r3, #0
 c007648:	1affffd2 	bne	c007598 <cuadricula_candidatos_verificar+0x2c>
				correcto = FALSE;
			}
        }
    }

    return correcto;
 c00764c:	e51b3010 	ldr	r3, [fp, #-16]
}
 c007650:	e1a00003 	mov	r0, r3
 c007654:	e24bd00c 	sub	sp, fp, #12
 c007658:	e89d6800 	ldm	sp, {fp, sp, lr}
 c00765c:	e12fff1e 	bx	lr

0c007660 <sudoku9x9>:
	CELDA cuadricula_C_ARM[NUM_FILAS][NUM_COLUMNAS],
	CELDA cuadricula_ARM_ARM[NUM_FILAS][NUM_COLUMNAS],
	CELDA cuadricula_ARM_ARM_ALL[NUM_FILAS][NUM_COLUMNAS],
	CELDA cuadricula_ARM_C[NUM_FILAS][NUM_COLUMNAS],
	CELDA solucion[NUM_FILAS][NUM_COLUMNAS])
{
 c007660:	e1a0c00d 	mov	ip, sp
 c007664:	e92dd800 	push	{fp, ip, lr, pc}
 c007668:	e24cb004 	sub	fp, ip, #4
 c00766c:	e24dd030 	sub	sp, sp, #48	; 0x30
 c007670:	e50b0030 	str	r0, [fp, #-48]	; 0xffffffd0
 c007674:	e50b1034 	str	r1, [fp, #-52]	; 0xffffffcc
 c007678:	e50b2038 	str	r2, [fp, #-56]	; 0xffffffc8
 c00767c:	e50b303c 	str	r3, [fp, #-60]	; 0xffffffc4
    int celdas_vacias[5];    //numero de celdas aun vacas
    int correcto = 0;
 c007680:	e3a03000 	mov	r3, #0
 c007684:	e50b3014 	str	r3, [fp, #-20]	; 0xffffffec
    size_t i;

    /* calcula lista de candidatos, versin C */
    celdas_vacias[0] = candidatos_actualizar_c(cuadricula_C_C);
 c007688:	e51b0030 	ldr	r0, [fp, #-48]	; 0xffffffd0
 c00768c:	ebfffeea 	bl	c00723c <candidatos_actualizar_c>
 c007690:	e1a03000 	mov	r3, r0
 c007694:	e50b3028 	str	r3, [fp, #-40]	; 0xffffffd8

    /* Calcular candidatos para las otras versiones */
    celdas_vacias[1] = candidatos_actualizar_c_arm(cuadricula_C_ARM);
 c007698:	e51b0034 	ldr	r0, [fp, #-52]	; 0xffffffcc
 c00769c:	ebffff4c 	bl	c0073d4 <candidatos_actualizar_c_arm>
 c0076a0:	e1a03000 	mov	r3, r0
 c0076a4:	e50b3024 	str	r3, [fp, #-36]	; 0xffffffdc
    celdas_vacias[2] = candidatos_actualizar_arm_arm(cuadricula_ARM_ARM);
 c0076a8:	e51b0038 	ldr	r0, [fp, #-56]	; 0xffffffc8
 c0076ac:	ebffed7c 	bl	c002ca4 <candidatos_actualizar_arm_arm>
 c0076b0:	e1a03000 	mov	r3, r0
 c0076b4:	e50b3020 	str	r3, [fp, #-32]	; 0xffffffe0
    celdas_vacias[3] = candidatos_actualizar_all(cuadricula_ARM_ARM_ALL);
 c0076b8:	e51b003c 	ldr	r0, [fp, #-60]	; 0xffffffc4
 c0076bc:	ebffede8 	bl	c002e64 <candidatos_actualizar_all>
 c0076c0:	e1a03000 	mov	r3, r0
 c0076c4:	e50b301c 	str	r3, [fp, #-28]	; 0xffffffe4
    celdas_vacias[4] = candidatos_actualizar_arm_c(cuadricula_ARM_C);
 c0076c8:	e59b0004 	ldr	r0, [fp, #4]
 c0076cc:	ebffedac 	bl	c002d84 <candidatos_actualizar_arm_c>
 c0076d0:	e1a03000 	mov	r3, r0
 c0076d4:	e50b3018 	str	r3, [fp, #-24]	; 0xffffffe8

 	for (i=1; i < 5; ++i) {
 c0076d8:	e3a03001 	mov	r3, #1
 c0076dc:	e50b3010 	str	r3, [fp, #-16]
 c0076e0:	ea00000e 	b	c007720 <sudoku9x9+0xc0>
		if (celdas_vacias[i] != celdas_vacias[0]) {
 c0076e4:	e51b2010 	ldr	r2, [fp, #-16]
 c0076e8:	e3e0301b 	mvn	r3, #27
 c0076ec:	e1a02102 	lsl	r2, r2, #2
 c0076f0:	e24b100c 	sub	r1, fp, #12
 c0076f4:	e0812002 	add	r2, r1, r2
 c0076f8:	e0823003 	add	r3, r2, r3
 c0076fc:	e5932000 	ldr	r2, [r3]
 c007700:	e51b3028 	ldr	r3, [fp, #-40]	; 0xffffffd8
 c007704:	e1520003 	cmp	r2, r3
 c007708:	0a000001 	beq	c007714 <sudoku9x9+0xb4>
		return -1;
 c00770c:	e3e03000 	mvn	r3, #0
 c007710:	ea000033 	b	c0077e4 <sudoku9x9+0x184>
    celdas_vacias[1] = candidatos_actualizar_c_arm(cuadricula_C_ARM);
    celdas_vacias[2] = candidatos_actualizar_arm_arm(cuadricula_ARM_ARM);
    celdas_vacias[3] = candidatos_actualizar_all(cuadricula_ARM_ARM_ALL);
    celdas_vacias[4] = candidatos_actualizar_arm_c(cuadricula_ARM_C);

 	for (i=1; i < 5; ++i) {
 c007714:	e51b3010 	ldr	r3, [fp, #-16]
 c007718:	e2833001 	add	r3, r3, #1
 c00771c:	e50b3010 	str	r3, [fp, #-16]
 c007720:	e51b3010 	ldr	r3, [fp, #-16]
 c007724:	e3530004 	cmp	r3, #4
 c007728:	9affffed 	bls	c0076e4 <sudoku9x9+0x84>
		}
	}

    /* verificar que la lista de candidatos calculada es correcta */
 	// cuadricula_C_C
    correcto = cuadricula_candidatos_verificar(cuadricula_C_C, solucion);
 c00772c:	e51b0030 	ldr	r0, [fp, #-48]	; 0xffffffd0
 c007730:	e59b1008 	ldr	r1, [fp, #8]
 c007734:	ebffff8c 	bl	c00756c <cuadricula_candidatos_verificar>
 c007738:	e50b0014 	str	r0, [fp, #-20]	; 0xffffffec
    if (correcto == FALSE) {
 c00773c:	e51b3014 	ldr	r3, [fp, #-20]	; 0xffffffec
 c007740:	e3530000 	cmp	r3, #0
 c007744:	1a000001 	bne	c007750 <sudoku9x9+0xf0>
        return -2;
 c007748:	e3e03001 	mvn	r3, #1
 c00774c:	ea000024 	b	c0077e4 <sudoku9x9+0x184>
    }

    // cuadricula_C_ARM
    correcto = cuadricula_candidatos_verificar(cuadricula_C_ARM, solucion);
 c007750:	e51b0034 	ldr	r0, [fp, #-52]	; 0xffffffcc
 c007754:	e59b1008 	ldr	r1, [fp, #8]
 c007758:	ebffff83 	bl	c00756c <cuadricula_candidatos_verificar>
 c00775c:	e50b0014 	str	r0, [fp, #-20]	; 0xffffffec
    if (correcto == FALSE) {
 c007760:	e51b3014 	ldr	r3, [fp, #-20]	; 0xffffffec
 c007764:	e3530000 	cmp	r3, #0
 c007768:	1a000001 	bne	c007774 <sudoku9x9+0x114>
    	return -3;
 c00776c:	e3e03002 	mvn	r3, #2
 c007770:	ea00001b 	b	c0077e4 <sudoku9x9+0x184>
    }

    // cuadricula_ARM_ARM
    correcto = cuadricula_candidatos_verificar(cuadricula_ARM_ARM, solucion);
 c007774:	e51b0038 	ldr	r0, [fp, #-56]	; 0xffffffc8
 c007778:	e59b1008 	ldr	r1, [fp, #8]
 c00777c:	ebffff7a 	bl	c00756c <cuadricula_candidatos_verificar>
 c007780:	e50b0014 	str	r0, [fp, #-20]	; 0xffffffec
	if (correcto == FALSE) {
 c007784:	e51b3014 	ldr	r3, [fp, #-20]	; 0xffffffec
 c007788:	e3530000 	cmp	r3, #0
 c00778c:	1a000001 	bne	c007798 <sudoku9x9+0x138>
		return -4;
 c007790:	e3e03003 	mvn	r3, #3
 c007794:	ea000012 	b	c0077e4 <sudoku9x9+0x184>
	}

	// cuadricula_ARM_ARM_ALL
    correcto = cuadricula_candidatos_verificar(cuadricula_ARM_ARM_ALL, solucion);
 c007798:	e51b003c 	ldr	r0, [fp, #-60]	; 0xffffffc4
 c00779c:	e59b1008 	ldr	r1, [fp, #8]
 c0077a0:	ebffff71 	bl	c00756c <cuadricula_candidatos_verificar>
 c0077a4:	e50b0014 	str	r0, [fp, #-20]	; 0xffffffec
	if (correcto == FALSE) {
 c0077a8:	e51b3014 	ldr	r3, [fp, #-20]	; 0xffffffec
 c0077ac:	e3530000 	cmp	r3, #0
 c0077b0:	1a000001 	bne	c0077bc <sudoku9x9+0x15c>
		return -5;
 c0077b4:	e3e03004 	mvn	r3, #4
 c0077b8:	ea000009 	b	c0077e4 <sudoku9x9+0x184>
	}

	// cuadricula_ARM_C
    correcto = cuadricula_candidatos_verificar(cuadricula_ARM_C, solucion);
 c0077bc:	e59b0004 	ldr	r0, [fp, #4]
 c0077c0:	e59b1008 	ldr	r1, [fp, #8]
 c0077c4:	ebffff68 	bl	c00756c <cuadricula_candidatos_verificar>
 c0077c8:	e50b0014 	str	r0, [fp, #-20]	; 0xffffffec
	if (correcto == FALSE) {
 c0077cc:	e51b3014 	ldr	r3, [fp, #-20]	; 0xffffffec
 c0077d0:	e3530000 	cmp	r3, #0
 c0077d4:	1a000001 	bne	c0077e0 <sudoku9x9+0x180>
		return -6;
 c0077d8:	e3e03005 	mvn	r3, #5
 c0077dc:	ea000000 	b	c0077e4 <sudoku9x9+0x184>
	}

	return 0; // Todo correcto
 c0077e0:	e3a03000 	mov	r3, #0
}
 c0077e4:	e1a00003 	mov	r0, r3
 c0077e8:	e24bd00c 	sub	sp, fp, #12
 c0077ec:	e89d6800 	ldm	sp, {fp, sp, lr}
 c0077f0:	e12fff1e 	bx	lr

0c0077f4 <main>:

int main(int argc, char const *argv[])
{
 c0077f4:	e1a0c00d 	mov	ip, sp
 c0077f8:	e92dd800 	push	{fp, ip, lr, pc}
 c0077fc:	e24cb004 	sub	fp, ip, #4
 c007800:	e24dd010 	sub	sp, sp, #16
 c007804:	e50b0010 	str	r0, [fp, #-16]
 c007808:	e50b1014 	str	r1, [fp, #-20]	; 0xffffffec
    sudoku9x9(cuadricula_C_C, cuadricula_C_ARM, cuadricula_ARM_ARM, cuadricula_ARM_ARM_ALL, cuadricula_ARM_C, solucion);
 c00780c:	e59f3030 	ldr	r3, [pc, #48]	; c007844 <main+0x50>
 c007810:	e58d3000 	str	r3, [sp]
 c007814:	e59f302c 	ldr	r3, [pc, #44]	; c007848 <main+0x54>
 c007818:	e58d3004 	str	r3, [sp, #4]
 c00781c:	e59f0028 	ldr	r0, [pc, #40]	; c00784c <main+0x58>
 c007820:	e59f1028 	ldr	r1, [pc, #40]	; c007850 <main+0x5c>
 c007824:	e59f2028 	ldr	r2, [pc, #40]	; c007854 <main+0x60>
 c007828:	e59f3028 	ldr	r3, [pc, #40]	; c007858 <main+0x64>
 c00782c:	ebffff8b 	bl	c007660 <sudoku9x9>
    return 0;
 c007830:	e3a03000 	mov	r3, #0
}
 c007834:	e1a00003 	mov	r0, r3
 c007838:	e24bd00c 	sub	sp, fp, #12
 c00783c:	e89d6800 	ldm	sp, {fp, sp, lr}
 c007840:	e12fff1e 	bx	lr
 c007844:	0c00ce80 	.word	0x0c00ce80
 c007848:	0c00d1e0 	.word	0x0c00d1e0
 c00784c:	0c00cc40 	.word	0x0c00cc40
 c007850:	0c00cd60 	.word	0x0c00cd60
 c007854:	0c00cfa0 	.word	0x0c00cfa0
 c007858:	0c00d0c0 	.word	0x0c00d0c0

0c00785c <timer_ISR>:
 * https://gcc.gnu.org/onlinedocs/gcc/ARM-Function-Attributes.html */
void timer_ISR(void) __attribute__((interrupt("IRQ")));

/*--- codigo de las funciones ---*/
void timer_ISR(void)
{
 c00785c:	e52dc004 	push	{ip}		; (str ip, [sp, #-4]!)
 c007860:	e1a0c00d 	mov	ip, sp
 c007864:	e92dd80c 	push	{r2, r3, fp, ip, lr, pc}
 c007868:	e24cb004 	sub	fp, ip, #4
	switch_leds = 1;
 c00786c:	e59f3028 	ldr	r3, [pc, #40]	; c00789c <timer_ISR+0x40>
 c007870:	e3a02001 	mov	r2, #1
 c007874:	e5832000 	str	r2, [r3]

	/* borrar bit en I_ISPC para desactivar la solicitud de interrupcin*/
	rI_ISPC |= BIT_TIMER0; // BIT_TIMER0 est definido en 44b.h y pone un uno en el bit 13 que corresponde al Timer0
 c007878:	e59f3020 	ldr	r3, [pc, #32]	; c0078a0 <timer_ISR+0x44>
 c00787c:	e59f201c 	ldr	r2, [pc, #28]	; c0078a0 <timer_ISR+0x44>
 c007880:	e5922000 	ldr	r2, [r2]
 c007884:	e3822a02 	orr	r2, r2, #8192	; 0x2000
 c007888:	e5832000 	str	r2, [r3]
}
 c00788c:	e24bd014 	sub	sp, fp, #20
 c007890:	e89d680c 	ldm	sp, {r2, r3, fp, sp, lr}
 c007894:	e49dc004 	pop	{ip}		; (ldr ip, [sp], #4)
 c007898:	e25ef004 	subs	pc, lr, #4
 c00789c:	0c00ef08 	.word	0x0c00ef08
 c0078a0:	01e00024 	.word	0x01e00024

0c0078a4 <timer_init>:

void timer_init(void)
{
 c0078a4:	e1a0c00d 	mov	ip, sp
 c0078a8:	e92dd800 	push	{fp, ip, lr, pc}
 c0078ac:	e24cb004 	sub	fp, ip, #4
	/* Configuracion controlador de interrupciones */
	rINTMOD = 0x0; // Configura las lineas como de tipo IRQ
 c0078b0:	e59f3084 	ldr	r3, [pc, #132]	; c00793c <timer_init+0x98>
 c0078b4:	e3a02000 	mov	r2, #0
 c0078b8:	e5832000 	str	r2, [r3]
	rINTCON = 0x1; // Habilita int. vectorizadas y la linea IRQ (FIQ no)
 c0078bc:	e3a0361e 	mov	r3, #31457280	; 0x1e00000
 c0078c0:	e3a02001 	mov	r2, #1
 c0078c4:	e5832000 	str	r2, [r3]
	rINTMSK &= ~(BIT_TIMER0); // habilitamos en vector de mascaras de interrupcion el Timer0 (bits 26 y 13, BIT_GLOBAL y BIT_TIMER0 estn definidos en 44b.h)
 c0078c8:	e59f3070 	ldr	r3, [pc, #112]	; c007940 <timer_init+0x9c>
 c0078cc:	e59f206c 	ldr	r2, [pc, #108]	; c007940 <timer_init+0x9c>
 c0078d0:	e5922000 	ldr	r2, [r2]
 c0078d4:	e3c22a02 	bic	r2, r2, #8192	; 0x2000
 c0078d8:	e5832000 	str	r2, [r3]

	/* Establece la rutina de servicio para TIMER0 */
	pISR_TIMER0 = (unsigned) timer_ISR;
 c0078dc:	e59f3060 	ldr	r3, [pc, #96]	; c007944 <timer_init+0xa0>
 c0078e0:	e59f2060 	ldr	r2, [pc, #96]	; c007948 <timer_init+0xa4>
 c0078e4:	e5832000 	str	r2, [r3]

	/* Configura el Timer0 */
	rTCFG0 = 255; // ajusta el preescalado
 c0078e8:	e59f305c 	ldr	r3, [pc, #92]	; c00794c <timer_init+0xa8>
 c0078ec:	e3a020ff 	mov	r2, #255	; 0xff
 c0078f0:	e5832000 	str	r2, [r3]
	rTCFG1 = 0x0; // selecciona la entrada del mux que proporciona el reloj. La 00 corresponde a un divisor de 1/2.
 c0078f4:	e59f3054 	ldr	r3, [pc, #84]	; c007950 <timer_init+0xac>
 c0078f8:	e3a02000 	mov	r2, #0
 c0078fc:	e5832000 	str	r2, [r3]
	rTCNTB0 = 65535;// valor inicial de cuenta (la cuenta es descendente)
 c007900:	e59f304c 	ldr	r3, [pc, #76]	; c007954 <timer_init+0xb0>
 c007904:	e59f204c 	ldr	r2, [pc, #76]	; c007958 <timer_init+0xb4>
 c007908:	e5832000 	str	r2, [r3]
	rTCMPB0 = 12800;// valor de comparacin
 c00790c:	e59f3048 	ldr	r3, [pc, #72]	; c00795c <timer_init+0xb8>
 c007910:	e3a02c32 	mov	r2, #12800	; 0x3200
 c007914:	e5832000 	str	r2, [r3]
	/* establecer update=manual (bit 1) + inverter=on (? ser inverter off un cero en el bit 2 pone el inverter en off)*/
	rTCON = 0x2;
 c007918:	e59f3040 	ldr	r3, [pc, #64]	; c007960 <timer_init+0xbc>
 c00791c:	e3a02002 	mov	r2, #2
 c007920:	e5832000 	str	r2, [r3]
	/* iniciar timer (bit 0) con auto-reload (bit 3)*/
	rTCON = 0x09;
 c007924:	e59f3034 	ldr	r3, [pc, #52]	; c007960 <timer_init+0xbc>
 c007928:	e3a02009 	mov	r2, #9
 c00792c:	e5832000 	str	r2, [r3]
 c007930:	e24bd00c 	sub	sp, fp, #12
 c007934:	e89d6800 	ldm	sp, {fp, sp, lr}
 c007938:	e12fff1e 	bx	lr
 c00793c:	01e00008 	.word	0x01e00008
 c007940:	01e0000c 	.word	0x01e0000c
 c007944:	0c7fff54 	.word	0x0c7fff54
 c007948:	0c00785c 	.word	0x0c00785c
 c00794c:	01d50000 	.word	0x01d50000
 c007950:	01d50004 	.word	0x01d50004
 c007954:	01d5000c 	.word	0x01d5000c
 c007958:	0000ffff 	.word	0x0000ffff
 c00795c:	01d50010 	.word	0x01d50010
 c007960:	01d50008 	.word	0x01d50008

0c007964 <timer1_ISR>:
 * Interrupciones por segundo: 60
 * Interrupciones por ciclo de parpadeo: 60 / 6 = 10
 * Por tanto, alternamos el LED cada 10 interrupciones.
 */
void timer1_ISR(void)
{
 c007964:	e52dc004 	push	{ip}		; (str ip, [sp, #-4]!)
 c007968:	e1a0c00d 	mov	ip, sp
 c00796c:	e92dd80f 	push	{r0, r1, r2, r3, fp, ip, lr, pc}
 c007970:	e24cb004 	sub	fp, ip, #4
	timer1_contador++;
 c007974:	e59f3080 	ldr	r3, [pc, #128]	; c0079fc <timer1_ISR+0x98>
 c007978:	e5933000 	ldr	r3, [r3]
 c00797c:	e2832001 	add	r2, r3, #1
 c007980:	e59f3074 	ldr	r3, [pc, #116]	; c0079fc <timer1_ISR+0x98>
 c007984:	e5832000 	str	r2, [r3]
	
	/* Cambiar estado del LED cada 10 interrupciones */
	/* 60 interrupciones/seg  6 Hz = 10 interrupciones por ciclo completo */
	if (timer1_contador >= 10)
 c007988:	e59f306c 	ldr	r3, [pc, #108]	; c0079fc <timer1_ISR+0x98>
 c00798c:	e5933000 	ldr	r3, [r3]
 c007990:	e3530009 	cmp	r3, #9
 c007994:	9a00000f 	bls	c0079d8 <timer1_ISR+0x74>
	{
		if (led2_encendido)
 c007998:	e59f3060 	ldr	r3, [pc, #96]	; c007a00 <timer1_ISR+0x9c>
 c00799c:	e5933000 	ldr	r3, [r3]
 c0079a0:	e3530000 	cmp	r3, #0
 c0079a4:	0a000004 	beq	c0079bc <timer1_ISR+0x58>
		{
			led2_off();  // Apaga el LED de la derecha
 c0079a8:	ebfffcf4 	bl	c006d80 <led2_off>
			led2_encendido = 0;
 c0079ac:	e59f304c 	ldr	r3, [pc, #76]	; c007a00 <timer1_ISR+0x9c>
 c0079b0:	e3a02000 	mov	r2, #0
 c0079b4:	e5832000 	str	r2, [r3]
 c0079b8:	ea000003 	b	c0079cc <timer1_ISR+0x68>
		}
		else
		{
			led2_on();   // Enciende el LED de la derecha
 c0079bc:	ebfffcdf 	bl	c006d40 <led2_on>
			led2_encendido = 1;
 c0079c0:	e59f3038 	ldr	r3, [pc, #56]	; c007a00 <timer1_ISR+0x9c>
 c0079c4:	e3a02001 	mov	r2, #1
 c0079c8:	e5832000 	str	r2, [r3]
		}
		timer1_contador = 0;
 c0079cc:	e59f3028 	ldr	r3, [pc, #40]	; c0079fc <timer1_ISR+0x98>
 c0079d0:	e3a02000 	mov	r2, #0
 c0079d4:	e5832000 	str	r2, [r3]
	}
	
	/* Borrar bit en I_ISPC para desactivar la solicitud de interrupcin */
	rI_ISPC |= BIT_TIMER1;
 c0079d8:	e59f3024 	ldr	r3, [pc, #36]	; c007a04 <timer1_ISR+0xa0>
 c0079dc:	e59f2020 	ldr	r2, [pc, #32]	; c007a04 <timer1_ISR+0xa0>
 c0079e0:	e5922000 	ldr	r2, [r2]
 c0079e4:	e3822a01 	orr	r2, r2, #4096	; 0x1000
 c0079e8:	e5832000 	str	r2, [r3]
}
 c0079ec:	e24bd01c 	sub	sp, fp, #28
 c0079f0:	e89d680f 	ldm	sp, {r0, r1, r2, r3, fp, sp, lr}
 c0079f4:	e49dc004 	pop	{ip}		; (ldr ip, [sp], #4)
 c0079f8:	e25ef004 	subs	pc, lr, #4
 c0079fc:	0c00ef0c 	.word	0x0c00ef0c
 c007a00:	0c00ef10 	.word	0x0c00ef10
 c007a04:	01e00024 	.word	0x01e00024

0c007a08 <timer1_init>:
 * - Cuenta: 260 ticks para obtener 60 interrupciones/segundo
 * - Resolucin: 1/15625 Hz = 64 s por tick
 * - Rango: 260 ticks  64 s  16.64 ms por interrupcin
 */
void timer1_init(void)
{
 c007a08:	e1a0c00d 	mov	ip, sp
 c007a0c:	e92dd800 	push	{fp, ip, lr, pc}
 c007a10:	e24cb004 	sub	fp, ip, #4
	/* Configuracin del controlador de interrupciones */
	rINTMOD = 0x0;				// Configura las lneas como de tipo IRQ
 c007a14:	e59f30c8 	ldr	r3, [pc, #200]	; c007ae4 <timer1_init+0xdc>
 c007a18:	e3a02000 	mov	r2, #0
 c007a1c:	e5832000 	str	r2, [r3]
	rINTCON = 0x1;				// Habilita int. vectorizadas y la lnea IRQ
 c007a20:	e3a0361e 	mov	r3, #31457280	; 0x1e00000
 c007a24:	e3a02001 	mov	r2, #1
 c007a28:	e5832000 	str	r2, [r3]
	rINTMSK &= ~(BIT_TIMER1);	// Habilita interrupcin del Timer1
 c007a2c:	e59f30b4 	ldr	r3, [pc, #180]	; c007ae8 <timer1_init+0xe0>
 c007a30:	e59f20b0 	ldr	r2, [pc, #176]	; c007ae8 <timer1_init+0xe0>
 c007a34:	e5922000 	ldr	r2, [r2]
 c007a38:	e3c22a01 	bic	r2, r2, #4096	; 0x1000
 c007a3c:	e5832000 	str	r2, [r3]
	
	/* Establece la rutina de servicio para TIMER1 */
	pISR_TIMER1 = (unsigned) timer1_ISR;
 c007a40:	e59f30a4 	ldr	r3, [pc, #164]	; c007aec <timer1_init+0xe4>
 c007a44:	e59f20a4 	ldr	r2, [pc, #164]	; c007af0 <timer1_init+0xe8>
 c007a48:	e5832000 	str	r2, [r3]
	
	/* Configura el Timer1 */
	/* TCFG0[7:0] controla el prescaler del timer1 (compartido con timer0) */
	rTCFG0 = (rTCFG0 & ~(0xFF << 0)) | (TIMER1_PRESCALER << 0);
 c007a4c:	e59f30a0 	ldr	r3, [pc, #160]	; c007af4 <timer1_init+0xec>
 c007a50:	e59f209c 	ldr	r2, [pc, #156]	; c007af4 <timer1_init+0xec>
 c007a54:	e5922000 	ldr	r2, [r2]
 c007a58:	e38220ff 	orr	r2, r2, #255	; 0xff
 c007a5c:	e5832000 	str	r2, [r3]
	
	/* TCFG1[7:4] controla el divisor MUX del timer1 */
	rTCFG1 = (rTCFG1 & ~(0xF << 4)) | (TIMER1_MUX_DIV << 4);
 c007a60:	e59f3090 	ldr	r3, [pc, #144]	; c007af8 <timer1_init+0xf0>
 c007a64:	e59f208c 	ldr	r2, [pc, #140]	; c007af8 <timer1_init+0xf0>
 c007a68:	e5922000 	ldr	r2, [r2]
 c007a6c:	e3c220f0 	bic	r2, r2, #240	; 0xf0
 c007a70:	e3822030 	orr	r2, r2, #48	; 0x30
 c007a74:	e5832000 	str	r2, [r3]
	
	/* Configura el valor de cuenta inicial */
	rTCNTB1 = TIMER1_COUNT;
 c007a78:	e59f307c 	ldr	r3, [pc, #124]	; c007afc <timer1_init+0xf4>
 c007a7c:	e3a02f41 	mov	r2, #260	; 0x104
 c007a80:	e5832000 	str	r2, [r3]
	
	/* Valor de comparacin (no se usa para generar seal, solo interrupcin) */
	rTCMPB1 = 0;
 c007a84:	e59f3074 	ldr	r3, [pc, #116]	; c007b00 <timer1_init+0xf8>
 c007a88:	e3a02000 	mov	r2, #0
 c007a8c:	e5832000 	str	r2, [r3]
	
	/* Manual update (bit 9) para cargar TCNTB1 en TCNT1 */
	rTCON |= (1 << 9);
 c007a90:	e59f306c 	ldr	r3, [pc, #108]	; c007b04 <timer1_init+0xfc>
 c007a94:	e59f2068 	ldr	r2, [pc, #104]	; c007b04 <timer1_init+0xfc>
 c007a98:	e5922000 	ldr	r2, [r2]
 c007a9c:	e3822c02 	orr	r2, r2, #512	; 0x200
 c007aa0:	e5832000 	str	r2, [r3]
	
	/* Iniciar timer1 (bit 8) con auto-reload (bit 11), quitar manual update (bit 9) */
	rTCON = (rTCON & ~(0xF << 8)) | (1 << 11) | (1 << 8);
 c007aa4:	e59f3058 	ldr	r3, [pc, #88]	; c007b04 <timer1_init+0xfc>
 c007aa8:	e59f2054 	ldr	r2, [pc, #84]	; c007b04 <timer1_init+0xfc>
 c007aac:	e5922000 	ldr	r2, [r2]
 c007ab0:	e3c22c0f 	bic	r2, r2, #3840	; 0xf00
 c007ab4:	e3822c09 	orr	r2, r2, #2304	; 0x900
 c007ab8:	e5832000 	str	r2, [r3]
	
	/* Inicializar contadores y estado del LED */
	timer1_contador = 0;
 c007abc:	e59f3044 	ldr	r3, [pc, #68]	; c007b08 <timer1_init+0x100>
 c007ac0:	e3a02000 	mov	r2, #0
 c007ac4:	e5832000 	str	r2, [r3]
	led2_encendido = 0;
 c007ac8:	e59f303c 	ldr	r3, [pc, #60]	; c007b0c <timer1_init+0x104>
 c007acc:	e3a02000 	mov	r2, #0
 c007ad0:	e5832000 	str	r2, [r3]
	led2_off();  // Asegurar que el LED empieza apagado
 c007ad4:	ebfffca9 	bl	c006d80 <led2_off>
 c007ad8:	e24bd00c 	sub	sp, fp, #12
 c007adc:	e89d6800 	ldm	sp, {fp, sp, lr}
 c007ae0:	e12fff1e 	bx	lr
 c007ae4:	01e00008 	.word	0x01e00008
 c007ae8:	01e0000c 	.word	0x01e0000c
 c007aec:	0c7fff50 	.word	0x0c7fff50
 c007af0:	0c007964 	.word	0x0c007964
 c007af4:	01d50000 	.word	0x01d50000
 c007af8:	01d50004 	.word	0x01d50004
 c007afc:	01d50018 	.word	0x01d50018
 c007b00:	01d5001c 	.word	0x01d5001c
 c007b04:	01d50008 	.word	0x01d50008
 c007b08:	0c00ef0c 	.word	0x0c00ef0c
 c007b0c:	0c00ef10 	.word	0x0c00ef10

0c007b10 <timer2_ISR>:
 * NOTA: No registramos cada interrupcin en la cola para no sobrecargarla,
 * ya que el timer2 genera muchas interrupciones por segundo (~488 Hz).
 * Solo registramos si es necesario para depuracin especfica.
 */
void timer2_ISR(void)
{
 c007b10:	e52dc004 	push	{ip}		; (str ip, [sp, #-4]!)
 c007b14:	e1a0c00d 	mov	ip, sp
 c007b18:	e92dd80c 	push	{r2, r3, fp, ip, lr, pc}
 c007b1c:	e24cb004 	sub	fp, ip, #4
	/* Incrementar el contador de periodos completos */
	timer2_numero_int++;
 c007b20:	e59f3030 	ldr	r3, [pc, #48]	; c007b58 <timer2_ISR+0x48>
 c007b24:	e5933000 	ldr	r3, [r3]
 c007b28:	e2832001 	add	r2, r3, #1
 c007b2c:	e59f3024 	ldr	r3, [pc, #36]	; c007b58 <timer2_ISR+0x48>
 c007b30:	e5832000 	str	r2, [r3]
	
	/* Borrar bit en I_ISPC para desactivar la solicitud de interrupcin */
	rI_ISPC |= BIT_TIMER2; // BIT_TIMER2 pone un uno en el bit 11 que corresponde al Timer2
 c007b34:	e59f3020 	ldr	r3, [pc, #32]	; c007b5c <timer2_ISR+0x4c>
 c007b38:	e59f201c 	ldr	r2, [pc, #28]	; c007b5c <timer2_ISR+0x4c>
 c007b3c:	e5922000 	ldr	r2, [r2]
 c007b40:	e3822b02 	orr	r2, r2, #2048	; 0x800
 c007b44:	e5832000 	str	r2, [r3]
}
 c007b48:	e24bd014 	sub	sp, fp, #20
 c007b4c:	e89d680c 	ldm	sp, {r2, r3, fp, sp, lr}
 c007b50:	e49dc004 	pop	{ip}		; (ldr ip, [sp], #4)
 c007b54:	e25ef004 	subs	pc, lr, #4
 c007b58:	0c00ef14 	.word	0x0c00ef14
 c007b5c:	01e00024 	.word	0x01e00024

0c007b60 <timer2_init>:
 * - Periodo del timer: 1/32 MHz = 0.03125 microsegundos
 * - Valor de cuenta mximo: 65535 (16 bits)
 * - Tiempo por ciclo completo: 65535 * 0.03125 = 2047.96875 microsegundos (~2.048 ms)
 */
void timer2_init(void)
{
 c007b60:	e1a0c00d 	mov	ip, sp
 c007b64:	e92dd800 	push	{fp, ip, lr, pc}
 c007b68:	e24cb004 	sub	fp, ip, #4
	/* Configuracin del controlador de interrupciones */
	rINTMOD = 0x0;              // Configura las lneas como de tipo IRQ
 c007b6c:	e59f30ec 	ldr	r3, [pc, #236]	; c007c60 <timer2_init+0x100>
 c007b70:	e3a02000 	mov	r2, #0
 c007b74:	e5832000 	str	r2, [r3]
	rINTCON = 0x1;              // Habilita int. vectorizadas y la lnea IRQ (FIQ no)
 c007b78:	e3a0361e 	mov	r3, #31457280	; 0x1e00000
 c007b7c:	e3a02001 	mov	r2, #1
 c007b80:	e5832000 	str	r2, [r3]
	rINTMSK &= ~(BIT_TIMER2);   // Habilita en vector de mscaras de interrupcin el Timer2
 c007b84:	e59f30d8 	ldr	r3, [pc, #216]	; c007c64 <timer2_init+0x104>
 c007b88:	e59f20d4 	ldr	r2, [pc, #212]	; c007c64 <timer2_init+0x104>
 c007b8c:	e5922000 	ldr	r2, [r2]
 c007b90:	e3c22b02 	bic	r2, r2, #2048	; 0x800
 c007b94:	e5832000 	str	r2, [r3]
	
	/* Establece la rutina de servicio para TIMER2 */
	pISR_TIMER2 = (unsigned) timer2_ISR;
 c007b98:	e59f30c8 	ldr	r3, [pc, #200]	; c007c68 <timer2_init+0x108>
 c007b9c:	e59f20c8 	ldr	r2, [pc, #200]	; c007c6c <timer2_init+0x10c>
 c007ba0:	e5832000 	str	r2, [r3]
	
	/* Configura el Timer2 para mxima precisin */
	/* TCFG0: registro de preescalado
	 * Timer2 y Timer3 comparten los bits [15:8]
	 * Preescalado = 0 para mxima precisin (divide por 1) */
	rTCFG0 &= ~(0xFF << 8);     // Limpia los bits [15:8]
 c007ba4:	e59f30c4 	ldr	r3, [pc, #196]	; c007c70 <timer2_init+0x110>
 c007ba8:	e59f20c0 	ldr	r2, [pc, #192]	; c007c70 <timer2_init+0x110>
 c007bac:	e5922000 	ldr	r2, [r2]
 c007bb0:	e3c22cff 	bic	r2, r2, #65280	; 0xff00
 c007bb4:	e5832000 	str	r2, [r3]
	rTCFG0 |= (0 << 8);         // Establece preescalado = 0 (divide por 0+1 = 1)
 c007bb8:	e59f30b0 	ldr	r3, [pc, #176]	; c007c70 <timer2_init+0x110>
 c007bbc:	e59f20ac 	ldr	r2, [pc, #172]	; c007c70 <timer2_init+0x110>
 c007bc0:	e5922000 	ldr	r2, [r2]
 c007bc4:	e5832000 	str	r2, [r3]
	
	/* TCFG1: registro de seleccin de divisor
	 * Timer2 usa los bits [11:8]
	 * Valor 0000 = divisor 1/2 */
	rTCFG1 &= ~(0xF << 8);      // Limpia los bits [11:8]
 c007bc8:	e59f30a4 	ldr	r3, [pc, #164]	; c007c74 <timer2_init+0x114>
 c007bcc:	e59f20a0 	ldr	r2, [pc, #160]	; c007c74 <timer2_init+0x114>
 c007bd0:	e5922000 	ldr	r2, [r2]
 c007bd4:	e3c22c0f 	bic	r2, r2, #3840	; 0xf00
 c007bd8:	e5832000 	str	r2, [r3]
	rTCFG1 |= (0x0 << 8);       // Establece divisor = 1/2
 c007bdc:	e59f3090 	ldr	r3, [pc, #144]	; c007c74 <timer2_init+0x114>
 c007be0:	e59f208c 	ldr	r2, [pc, #140]	; c007c74 <timer2_init+0x114>
 c007be4:	e5922000 	ldr	r2, [r2]
 c007be8:	e5832000 	str	r2, [r3]
	
	/* TCNTB2: valor inicial de cuenta (cuenta descendente) 
	 * Usamos el valor mximo de 16 bits para maximizar el rango */
	rTCNTB2 = 65535;
 c007bec:	e59f3084 	ldr	r3, [pc, #132]	; c007c78 <timer2_init+0x118>
 c007bf0:	e59f2084 	ldr	r2, [pc, #132]	; c007c7c <timer2_init+0x11c>
 c007bf4:	e5832000 	str	r2, [r3]
	
	/* TCMPB2: valor de comparacin (no se usa para medicin de tiempo) */
	rTCMPB2 = 0;
 c007bf8:	e59f3080 	ldr	r3, [pc, #128]	; c007c80 <timer2_init+0x120>
 c007bfc:	e3a02000 	mov	r2, #0
 c007c00:	e5832000 	str	r2, [r3]
	 * Bit 14: Timer2 manual update (1=update TCNTB2 y TCMPB2)
	 * Bit 13: Timer2 output inverter on/off
	 * Bit 12: Timer2 auto reload on/off (1=auto-reload) */
	
	/* Primero establecer manual update para cargar los valores */
	rTCON &= ~(0xF << 12);      // Limpia los bits del Timer2
 c007c04:	e59f3078 	ldr	r3, [pc, #120]	; c007c84 <timer2_init+0x124>
 c007c08:	e59f2074 	ldr	r2, [pc, #116]	; c007c84 <timer2_init+0x124>
 c007c0c:	e5922000 	ldr	r2, [r2]
 c007c10:	e3c22a0f 	bic	r2, r2, #61440	; 0xf000
 c007c14:	e5832000 	str	r2, [r3]
	rTCON |= (1 << 13);         // Establece manual update
 c007c18:	e59f3064 	ldr	r3, [pc, #100]	; c007c84 <timer2_init+0x124>
 c007c1c:	e59f2060 	ldr	r2, [pc, #96]	; c007c84 <timer2_init+0x124>
 c007c20:	e5922000 	ldr	r2, [r2]
 c007c24:	e3822a02 	orr	r2, r2, #8192	; 0x2000
 c007c28:	e5832000 	str	r2, [r3]
	
	/* Luego iniciar el timer con auto-reload (sin manual update) */
	rTCON &= ~(0xF << 12);      // Limpia los bits del Timer2
 c007c2c:	e59f3050 	ldr	r3, [pc, #80]	; c007c84 <timer2_init+0x124>
 c007c30:	e59f204c 	ldr	r2, [pc, #76]	; c007c84 <timer2_init+0x124>
 c007c34:	e5922000 	ldr	r2, [r2]
 c007c38:	e3c22a0f 	bic	r2, r2, #61440	; 0xf000
 c007c3c:	e5832000 	str	r2, [r3]
	rTCON |= (1 << 15) | (1 << 12);  // Start + auto-reload
 c007c40:	e59f303c 	ldr	r3, [pc, #60]	; c007c84 <timer2_init+0x124>
 c007c44:	e59f2038 	ldr	r2, [pc, #56]	; c007c84 <timer2_init+0x124>
 c007c48:	e5922000 	ldr	r2, [r2]
 c007c4c:	e3822a09 	orr	r2, r2, #36864	; 0x9000
 c007c50:	e5832000 	str	r2, [r3]
}
 c007c54:	e24bd00c 	sub	sp, fp, #12
 c007c58:	e89d6800 	ldm	sp, {fp, sp, lr}
 c007c5c:	e12fff1e 	bx	lr
 c007c60:	01e00008 	.word	0x01e00008
 c007c64:	01e0000c 	.word	0x01e0000c
 c007c68:	0c7fff4c 	.word	0x0c7fff4c
 c007c6c:	0c007b10 	.word	0x0c007b10
 c007c70:	01d50000 	.word	0x01d50000
 c007c74:	01d50004 	.word	0x01d50004
 c007c78:	01d50024 	.word	0x01d50024
 c007c7c:	0000ffff 	.word	0x0000ffff
 c007c80:	01d50028 	.word	0x01d50028
 c007c84:	01d50008 	.word	0x01d50008

0c007c88 <timer2_start>:
/**
 * Reinicia la cuenta de tiempo y comienza a medir.
 * Resetea tanto el contador de interrupciones como el valor del timer.
 */
void timer2_start(void)
{
 c007c88:	e1a0c00d 	mov	ip, sp
 c007c8c:	e92dd800 	push	{fp, ip, lr, pc}
 c007c90:	e24cb004 	sub	fp, ip, #4
	/* Reiniciar el contador de interrupciones */
	timer2_numero_int = 0;
 c007c94:	e59f306c 	ldr	r3, [pc, #108]	; c007d08 <timer2_start+0x80>
 c007c98:	e3a02000 	mov	r2, #0
 c007c9c:	e5832000 	str	r2, [r3]
	
	/* Detener el timer */
	rTCON &= ~(1 << 15);        // Clear bit 15 (stop timer2)
 c007ca0:	e59f3064 	ldr	r3, [pc, #100]	; c007d0c <timer2_start+0x84>
 c007ca4:	e59f2060 	ldr	r2, [pc, #96]	; c007d0c <timer2_start+0x84>
 c007ca8:	e5922000 	ldr	r2, [r2]
 c007cac:	e3c22902 	bic	r2, r2, #32768	; 0x8000
 c007cb0:	e5832000 	str	r2, [r3]
	
	/* Recargar el valor inicial del contador */
	rTCNTB2 = 65535;
 c007cb4:	e59f3054 	ldr	r3, [pc, #84]	; c007d10 <timer2_start+0x88>
 c007cb8:	e59f2054 	ldr	r2, [pc, #84]	; c007d14 <timer2_start+0x8c>
 c007cbc:	e5832000 	str	r2, [r3]
	
	/* Establecer manual update para recargar el valor */
	rTCON |= (1 << 13);         // Set manual update
 c007cc0:	e59f3044 	ldr	r3, [pc, #68]	; c007d0c <timer2_start+0x84>
 c007cc4:	e59f2040 	ldr	r2, [pc, #64]	; c007d0c <timer2_start+0x84>
 c007cc8:	e5922000 	ldr	r2, [r2]
 c007ccc:	e3822a02 	orr	r2, r2, #8192	; 0x2000
 c007cd0:	e5832000 	str	r2, [r3]
	
	/* Iniciar el timer con auto-reload */
	rTCON &= ~(0xF << 12);      // Limpia los bits del Timer2
 c007cd4:	e59f3030 	ldr	r3, [pc, #48]	; c007d0c <timer2_start+0x84>
 c007cd8:	e59f202c 	ldr	r2, [pc, #44]	; c007d0c <timer2_start+0x84>
 c007cdc:	e5922000 	ldr	r2, [r2]
 c007ce0:	e3c22a0f 	bic	r2, r2, #61440	; 0xf000
 c007ce4:	e5832000 	str	r2, [r3]
	rTCON |= (1 << 15) | (1 << 12);  // Start + auto-reload
 c007ce8:	e59f301c 	ldr	r3, [pc, #28]	; c007d0c <timer2_start+0x84>
 c007cec:	e59f2018 	ldr	r2, [pc, #24]	; c007d0c <timer2_start+0x84>
 c007cf0:	e5922000 	ldr	r2, [r2]
 c007cf4:	e3822a09 	orr	r2, r2, #36864	; 0x9000
 c007cf8:	e5832000 	str	r2, [r3]
}
 c007cfc:	e24bd00c 	sub	sp, fp, #12
 c007d00:	e89d6800 	ldm	sp, {fp, sp, lr}
 c007d04:	e12fff1e 	bx	lr
 c007d08:	0c00ef14 	.word	0x0c00ef14
 c007d0c:	01d50008 	.word	0x01d50008
 c007d10:	01d50024 	.word	0x01d50024
 c007d14:	0000ffff 	.word	0x0000ffff

0c007d18 <timer2_count>:
 * - Cada tick del timer: 0.03125 microsegundos (1/32 MHz)
 * - Ticks transcurridos = (65535 - TCNTO2) + (65536 * timer2_numero_int)
 * - Tiempo (s) = ticks * 0.03125 = ticks / 32
 */
unsigned int timer2_count(void)
{
 c007d18:	e1a0c00d 	mov	ip, sp
 c007d1c:	e92dd800 	push	{fp, ip, lr, pc}
 c007d20:	e24cb004 	sub	fp, ip, #4
 c007d24:	e24dd018 	sub	sp, sp, #24
	unsigned int contador_actual;
	unsigned int ticks_totales;
	unsigned int tiempo_us;
	
	/* Leer el nmero de interrupciones de forma atmica */
	interrupciones = timer2_numero_int;
 c007d28:	e59f3054 	ldr	r3, [pc, #84]	; c007d84 <timer2_count+0x6c>
 c007d2c:	e5933000 	ldr	r3, [r3]
 c007d30:	e50b3010 	str	r3, [fp, #-16]
	
	/* Leer el valor actual del contador (cuenta descendente desde 65535) */
	contador_actual = rTCNTO2;
 c007d34:	e59f304c 	ldr	r3, [pc, #76]	; c007d88 <timer2_count+0x70>
 c007d38:	e5933000 	ldr	r3, [r3]
 c007d3c:	e50b3014 	str	r3, [fp, #-20]	; 0xffffffec
	
	/* Calcular los ticks transcurridos en el periodo actual */
	/* Como cuenta descendente: ticks = valor_inicial - valor_actual */
	unsigned int ticks_periodo_actual = 65535 - contador_actual;
 c007d40:	e51b3014 	ldr	r3, [fp, #-20]	; 0xffffffec
 c007d44:	e2633cff 	rsb	r3, r3, #65280	; 0xff00
 c007d48:	e28330ff 	add	r3, r3, #255	; 0xff
 c007d4c:	e50b3018 	str	r3, [fp, #-24]	; 0xffffffe8
	
	/* Calcular el total de ticks:
	 * ticks totales = ticks de periodos completos + ticks del periodo actual */
	ticks_totales = (interrupciones * 65536) + ticks_periodo_actual;
 c007d50:	e51b3010 	ldr	r3, [fp, #-16]
 c007d54:	e1a02803 	lsl	r2, r3, #16
 c007d58:	e51b3018 	ldr	r3, [fp, #-24]	; 0xffffffe8
 c007d5c:	e0823003 	add	r3, r2, r3
 c007d60:	e50b301c 	str	r3, [fp, #-28]	; 0xffffffe4
	
	/* Convertir ticks a microsegundos:
	 * Cada tick = 1/(32 MHz) = 0.03125 s
	 * Tiempo (s) = ticks / 32
	 * Para evitar usar divisin en punto flotante: ticks * 1000000 / 32000000 = ticks / 32 */
	tiempo_us = ticks_totales / 32;
 c007d64:	e51b301c 	ldr	r3, [fp, #-28]	; 0xffffffe4
 c007d68:	e1a032a3 	lsr	r3, r3, #5
 c007d6c:	e50b3020 	str	r3, [fp, #-32]	; 0xffffffe0
	
	return tiempo_us;
 c007d70:	e51b3020 	ldr	r3, [fp, #-32]	; 0xffffffe0
}
 c007d74:	e1a00003 	mov	r0, r3
 c007d78:	e24bd00c 	sub	sp, fp, #12
 c007d7c:	e89d6800 	ldm	sp, {fp, sp, lr}
 c007d80:	e12fff1e 	bx	lr
 c007d84:	0c00ef14 	.word	0x0c00ef14
 c007d88:	01d5002c 	.word	0x01d5002c

0c007d8c <boton_sigue_pulsado>:
/* Declaracin de la ISR del timer3 */
void timer3_ISR(void) __attribute__((interrupt("IRQ")));

/*--- Funciones auxiliares internas ---*/
static inline int boton_sigue_pulsado(void)
{
 c007d8c:	e1a0c00d 	mov	ip, sp
 c007d90:	e92dd800 	push	{fp, ip, lr, pc}
 c007d94:	e24cb004 	sub	fp, ip, #4
 c007d98:	e24dd008 	sub	sp, sp, #8
        unsigned int estado = (~rPDATG) & mascara_boton;
 c007d9c:	e59f3034 	ldr	r3, [pc, #52]	; c007dd8 <boton_sigue_pulsado+0x4c>
 c007da0:	e5933000 	ldr	r3, [r3]
 c007da4:	e1e02003 	mvn	r2, r3
 c007da8:	e59f302c 	ldr	r3, [pc, #44]	; c007ddc <boton_sigue_pulsado+0x50>
 c007dac:	e5933000 	ldr	r3, [r3]
 c007db0:	e0023003 	and	r3, r2, r3
 c007db4:	e50b3010 	str	r3, [fp, #-16]
        return (estado != 0);
 c007db8:	e51b3010 	ldr	r3, [fp, #-16]
 c007dbc:	e3530000 	cmp	r3, #0
 c007dc0:	03a03000 	moveq	r3, #0
 c007dc4:	13a03001 	movne	r3, #1
}
 c007dc8:	e1a00003 	mov	r0, r3
 c007dcc:	e24bd00c 	sub	sp, fp, #12
 c007dd0:	e89d6800 	ldm	sp, {fp, sp, lr}
 c007dd4:	e12fff1e 	bx	lr
 c007dd8:	01d20044 	.word	0x01d20044
 c007ddc:	0c00ef2c 	.word	0x0c00ef2c

0c007de0 <timer3_detener>:

static void timer3_detener(void)
{
 c007de0:	e1a0c00d 	mov	ip, sp
 c007de4:	e92dd800 	push	{fp, ip, lr, pc}
 c007de8:	e24cb004 	sub	fp, ip, #4
        /* Parar el timer y enmascarar la interrupcin */
        rTCON &= ~(1 << 16);             /* Bit 16 controla start/stop del timer3 */
 c007dec:	e59f302c 	ldr	r3, [pc, #44]	; c007e20 <timer3_detener+0x40>
 c007df0:	e59f2028 	ldr	r2, [pc, #40]	; c007e20 <timer3_detener+0x40>
 c007df4:	e5922000 	ldr	r2, [r2]
 c007df8:	e3c22801 	bic	r2, r2, #65536	; 0x10000
 c007dfc:	e5832000 	str	r2, [r3]
        rINTMSK |= BIT_TIMER3;
 c007e00:	e59f301c 	ldr	r3, [pc, #28]	; c007e24 <timer3_detener+0x44>
 c007e04:	e59f2018 	ldr	r2, [pc, #24]	; c007e24 <timer3_detener+0x44>
 c007e08:	e5922000 	ldr	r2, [r2]
 c007e0c:	e3822b01 	orr	r2, r2, #1024	; 0x400
 c007e10:	e5832000 	str	r2, [r3]
}
 c007e14:	e24bd00c 	sub	sp, fp, #12
 c007e18:	e89d6800 	ldm	sp, {fp, sp, lr}
 c007e1c:	e12fff1e 	bx	lr
 c007e20:	01d50008 	.word	0x01d50008
 c007e24:	01e0000c 	.word	0x01e0000c

0c007e28 <timer3_preparar_tick>:

static void timer3_preparar_tick(void)
{
 c007e28:	e1a0c00d 	mov	ip, sp
 c007e2c:	e92dd800 	push	{fp, ip, lr, pc}
 c007e30:	e24cb004 	sub	fp, ip, #4
        /* Configurar el valor de cuenta para 1 ms */
        rTCNTB3 = TIMER3_1MS_COUNT;
 c007e34:	e59f304c 	ldr	r3, [pc, #76]	; c007e88 <timer3_preparar_tick+0x60>
 c007e38:	e3a02c7d 	mov	r2, #32000	; 0x7d00
 c007e3c:	e5832000 	str	r2, [r3]
        rTCMPB3 = 0;
 c007e40:	e59f3044 	ldr	r3, [pc, #68]	; c007e8c <timer3_preparar_tick+0x64>
 c007e44:	e3a02000 	mov	r2, #0
 c007e48:	e5832000 	str	r2, [r3]

        /* Cargar los nuevos valores (manual update) */
        rTCON = (rTCON & ~(0xF << 16)) | (1 << 17);
 c007e4c:	e59f303c 	ldr	r3, [pc, #60]	; c007e90 <timer3_preparar_tick+0x68>
 c007e50:	e59f2038 	ldr	r2, [pc, #56]	; c007e90 <timer3_preparar_tick+0x68>
 c007e54:	e5922000 	ldr	r2, [r2]
 c007e58:	e3c2280f 	bic	r2, r2, #983040	; 0xf0000
 c007e5c:	e3822802 	orr	r2, r2, #131072	; 0x20000
 c007e60:	e5832000 	str	r2, [r3]
        /* Activar auto-reload y arrancar el timer */
        rTCON = (rTCON & ~(0xF << 16)) | (1 << 19) | (1 << 16);
 c007e64:	e59f3024 	ldr	r3, [pc, #36]	; c007e90 <timer3_preparar_tick+0x68>
 c007e68:	e59f2020 	ldr	r2, [pc, #32]	; c007e90 <timer3_preparar_tick+0x68>
 c007e6c:	e5922000 	ldr	r2, [r2]
 c007e70:	e3c2280f 	bic	r2, r2, #983040	; 0xf0000
 c007e74:	e3822809 	orr	r2, r2, #589824	; 0x90000
 c007e78:	e5832000 	str	r2, [r3]
}
 c007e7c:	e24bd00c 	sub	sp, fp, #12
 c007e80:	e89d6800 	ldm	sp, {fp, sp, lr}
 c007e84:	e12fff1e 	bx	lr
 c007e88:	01d50030 	.word	0x01d50030
 c007e8c:	01d50034 	.word	0x01d50034
 c007e90:	01d50008 	.word	0x01d50008

0c007e94 <finalizar_antirrebote>:

static void finalizar_antirrebote(void)
{
 c007e94:	e1a0c00d 	mov	ip, sp
 c007e98:	e92dd800 	push	{fp, ip, lr, pc}
 c007e9c:	e24cb004 	sub	fp, ip, #4
        /* Rehabilitar las interrupciones de los botones */
        rEXTINTPND = 0xf;
 c007ea0:	e59f3080 	ldr	r3, [pc, #128]	; c007f28 <finalizar_antirrebote+0x94>
 c007ea4:	e3a0200f 	mov	r2, #15
 c007ea8:	e5832000 	str	r2, [r3]
        rINTMSK &= ~(BIT_EINT4567);
 c007eac:	e59f3078 	ldr	r3, [pc, #120]	; c007f2c <finalizar_antirrebote+0x98>
 c007eb0:	e59f2074 	ldr	r2, [pc, #116]	; c007f2c <finalizar_antirrebote+0x98>
 c007eb4:	e5922000 	ldr	r2, [r2]
 c007eb8:	e3c22602 	bic	r2, r2, #2097152	; 0x200000
 c007ebc:	e5832000 	str	r2, [r3]
        rI_ISPC |= BIT_EINT4567;
 c007ec0:	e59f3068 	ldr	r3, [pc, #104]	; c007f30 <finalizar_antirrebote+0x9c>
 c007ec4:	e59f2064 	ldr	r2, [pc, #100]	; c007f30 <finalizar_antirrebote+0x9c>
 c007ec8:	e5922000 	ldr	r2, [r2]
 c007ecc:	e3822602 	orr	r2, r2, #2097152	; 0x200000
 c007ed0:	e5832000 	str	r2, [r3]

        /* Resetear el estado interno */
        estado_actual = ESPERANDO_PULSACION;
 c007ed4:	e59f3058 	ldr	r3, [pc, #88]	; c007f34 <finalizar_antirrebote+0xa0>
 c007ed8:	e3a02000 	mov	r2, #0
 c007edc:	e5c32000 	strb	r2, [r3]
        contador_ms = 0;
 c007ee0:	e59f3050 	ldr	r3, [pc, #80]	; c007f38 <finalizar_antirrebote+0xa4>
 c007ee4:	e3a02000 	mov	r2, #0
 c007ee8:	e5832000 	str	r2, [r3]
        monitor_ms = 0;
 c007eec:	e59f3048 	ldr	r3, [pc, #72]	; c007f3c <finalizar_antirrebote+0xa8>
 c007ef0:	e3a02000 	mov	r2, #0
 c007ef4:	e5832000 	str	r2, [r3]
        tiempo_pulsacion_ms = 0;
 c007ef8:	e59f3040 	ldr	r3, [pc, #64]	; c007f40 <finalizar_antirrebote+0xac>
 c007efc:	e3a02000 	mov	r2, #0
 c007f00:	e5832000 	str	r2, [r3]
        boton_en_proceso = 0;
 c007f04:	e59f3038 	ldr	r3, [pc, #56]	; c007f44 <finalizar_antirrebote+0xb0>
 c007f08:	e3a02000 	mov	r2, #0
 c007f0c:	e5c32000 	strb	r2, [r3]
        mascara_boton = 0;
 c007f10:	e59f3030 	ldr	r3, [pc, #48]	; c007f48 <finalizar_antirrebote+0xb4>
 c007f14:	e3a02000 	mov	r2, #0
 c007f18:	e5832000 	str	r2, [r3]
}
 c007f1c:	e24bd00c 	sub	sp, fp, #12
 c007f20:	e89d6800 	ldm	sp, {fp, sp, lr}
 c007f24:	e12fff1e 	bx	lr
 c007f28:	01d20054 	.word	0x01d20054
 c007f2c:	01e0000c 	.word	0x01e0000c
 c007f30:	01e00024 	.word	0x01e00024
 c007f34:	0c00ef18 	.word	0x0c00ef18
 c007f38:	0c00ef1c 	.word	0x0c00ef1c
 c007f3c:	0c00ef20 	.word	0x0c00ef20
 c007f40:	0c00ef24 	.word	0x0c00ef24
 c007f44:	0c00ef28 	.word	0x0c00ef28
 c007f48:	0c00ef2c 	.word	0x0c00ef2c

0c007f4c <timer3_init>:

/*--- Cdigo de las funciones pblicas ---*/
void timer3_init(timer3_callback_t callback)
{
 c007f4c:	e1a0c00d 	mov	ip, sp
 c007f50:	e92dd800 	push	{fp, ip, lr, pc}
 c007f54:	e24cb004 	sub	fp, ip, #4
 c007f58:	e24dd008 	sub	sp, sp, #8
 c007f5c:	e50b0010 	str	r0, [fp, #-16]
        callback_validacion = callback;
 c007f60:	e59f30d8 	ldr	r3, [pc, #216]	; c008040 <timer3_init+0xf4>
 c007f64:	e51b2010 	ldr	r2, [fp, #-16]
 c007f68:	e5832000 	str	r2, [r3]
        estado_actual = ESPERANDO_PULSACION;
 c007f6c:	e59f30d0 	ldr	r3, [pc, #208]	; c008044 <timer3_init+0xf8>
 c007f70:	e3a02000 	mov	r2, #0
 c007f74:	e5c32000 	strb	r2, [r3]
        contador_ms = 0;
 c007f78:	e59f30c8 	ldr	r3, [pc, #200]	; c008048 <timer3_init+0xfc>
 c007f7c:	e3a02000 	mov	r2, #0
 c007f80:	e5832000 	str	r2, [r3]
        monitor_ms = 0;
 c007f84:	e59f30c0 	ldr	r3, [pc, #192]	; c00804c <timer3_init+0x100>
 c007f88:	e3a02000 	mov	r2, #0
 c007f8c:	e5832000 	str	r2, [r3]
        boton_en_proceso = 0;
 c007f90:	e59f30b8 	ldr	r3, [pc, #184]	; c008050 <timer3_init+0x104>
 c007f94:	e3a02000 	mov	r2, #0
 c007f98:	e5c32000 	strb	r2, [r3]
        mascara_boton = 0;
 c007f9c:	e59f30b0 	ldr	r3, [pc, #176]	; c008054 <timer3_init+0x108>
 c007fa0:	e3a02000 	mov	r2, #0
 c007fa4:	e5832000 	str	r2, [r3]

        /* Enmascarar la interrupcin del timer3 inicialmente */
        rINTMSK |= BIT_TIMER3;
 c007fa8:	e59f30a8 	ldr	r3, [pc, #168]	; c008058 <timer3_init+0x10c>
 c007fac:	e59f20a4 	ldr	r2, [pc, #164]	; c008058 <timer3_init+0x10c>
 c007fb0:	e5922000 	ldr	r2, [r2]
 c007fb4:	e3822b01 	orr	r2, r2, #1024	; 0x400
 c007fb8:	e5832000 	str	r2, [r3]

        /* Configurar el vector de interrupcin */
        pISR_TIMER3 = (unsigned) timer3_ISR;
 c007fbc:	e59f3098 	ldr	r3, [pc, #152]	; c00805c <timer3_init+0x110>
 c007fc0:	e59f2098 	ldr	r2, [pc, #152]	; c008060 <timer3_init+0x114>
 c007fc4:	e5832000 	str	r2, [r3]

        /* Configurar divisor (1/2) compartido con el timer2 */
        rTCFG1 = (rTCFG1 & ~(0xF << 12)) | (0x0 << 12);
 c007fc8:	e59f3094 	ldr	r3, [pc, #148]	; c008064 <timer3_init+0x118>
 c007fcc:	e59f2090 	ldr	r2, [pc, #144]	; c008064 <timer3_init+0x118>
 c007fd0:	e5922000 	ldr	r2, [r2]
 c007fd4:	e3c22a0f 	bic	r2, r2, #61440	; 0xf000
 c007fd8:	e5832000 	str	r2, [r3]

        /* Cargar el valor inicial y dejar el timer parado */
        rTCNTB3 = TIMER3_1MS_COUNT;
 c007fdc:	e59f3084 	ldr	r3, [pc, #132]	; c008068 <timer3_init+0x11c>
 c007fe0:	e3a02c7d 	mov	r2, #32000	; 0x7d00
 c007fe4:	e5832000 	str	r2, [r3]
        rTCMPB3 = 0;
 c007fe8:	e59f307c 	ldr	r3, [pc, #124]	; c00806c <timer3_init+0x120>
 c007fec:	e3a02000 	mov	r2, #0
 c007ff0:	e5832000 	str	r2, [r3]
        rTCON = (rTCON & ~(0xF << 16)) | (1 << 17);
 c007ff4:	e59f3074 	ldr	r3, [pc, #116]	; c008070 <timer3_init+0x124>
 c007ff8:	e59f2070 	ldr	r2, [pc, #112]	; c008070 <timer3_init+0x124>
 c007ffc:	e5922000 	ldr	r2, [r2]
 c008000:	e3c2280f 	bic	r2, r2, #983040	; 0xf0000
 c008004:	e3822802 	orr	r2, r2, #131072	; 0x20000
 c008008:	e5832000 	str	r2, [r3]
        rTCON &= ~(0xF << 16);
 c00800c:	e59f305c 	ldr	r3, [pc, #92]	; c008070 <timer3_init+0x124>
 c008010:	e59f2058 	ldr	r2, [pc, #88]	; c008070 <timer3_init+0x124>
 c008014:	e5922000 	ldr	r2, [r2]
 c008018:	e3c2280f 	bic	r2, r2, #983040	; 0xf0000
 c00801c:	e5832000 	str	r2, [r3]

        /* Limpiar posibles peticiones pendientes */
        rI_ISPC |= BIT_TIMER3;
 c008020:	e59f304c 	ldr	r3, [pc, #76]	; c008074 <timer3_init+0x128>
 c008024:	e59f2048 	ldr	r2, [pc, #72]	; c008074 <timer3_init+0x128>
 c008028:	e5922000 	ldr	r2, [r2]
 c00802c:	e3822b01 	orr	r2, r2, #1024	; 0x400
 c008030:	e5832000 	str	r2, [r3]
}
 c008034:	e24bd00c 	sub	sp, fp, #12
 c008038:	e89d6800 	ldm	sp, {fp, sp, lr}
 c00803c:	e12fff1e 	bx	lr
 c008040:	0c00ef30 	.word	0x0c00ef30
 c008044:	0c00ef18 	.word	0x0c00ef18
 c008048:	0c00ef1c 	.word	0x0c00ef1c
 c00804c:	0c00ef20 	.word	0x0c00ef20
 c008050:	0c00ef28 	.word	0x0c00ef28
 c008054:	0c00ef2c 	.word	0x0c00ef2c
 c008058:	01e0000c 	.word	0x01e0000c
 c00805c:	0c7fff48 	.word	0x0c7fff48
 c008060:	0c0081bc 	.word	0x0c0081bc
 c008064:	01d50004 	.word	0x01d50004
 c008068:	01d50030 	.word	0x01d50030
 c00806c:	01d50034 	.word	0x01d50034
 c008070:	01d50008 	.word	0x01d50008
 c008074:	01e00024 	.word	0x01e00024

0c008078 <timer3_start_antirrebote>:

int timer3_start_antirrebote(uint8_t boton_id)
{
 c008078:	e1a0c00d 	mov	ip, sp
 c00807c:	e92dd800 	push	{fp, ip, lr, pc}
 c008080:	e24cb004 	sub	fp, ip, #4
 c008084:	e24dd008 	sub	sp, sp, #8
 c008088:	e1a03000 	mov	r3, r0
 c00808c:	e54b300d 	strb	r3, [fp, #-13]
        if (estado_actual != ESPERANDO_PULSACION)
 c008090:	e59f30d0 	ldr	r3, [pc, #208]	; c008168 <timer3_start_antirrebote+0xf0>
 c008094:	e5d33000 	ldrb	r3, [r3]
 c008098:	e20330ff 	and	r3, r3, #255	; 0xff
 c00809c:	e3530000 	cmp	r3, #0
 c0080a0:	0a000001 	beq	c0080ac <timer3_start_antirrebote+0x34>
        {
                return 0;
 c0080a4:	e3a03000 	mov	r3, #0
 c0080a8:	ea00002a 	b	c008158 <timer3_start_antirrebote+0xe0>
        }

        /* Seleccionar la mscara del puerto correspondiente */
        switch (boton_id)
 c0080ac:	e55b300d 	ldrb	r3, [fp, #-13]
 c0080b0:	e3530004 	cmp	r3, #4
 c0080b4:	0a000002 	beq	c0080c4 <timer3_start_antirrebote+0x4c>
 c0080b8:	e3530008 	cmp	r3, #8
 c0080bc:	0a000004 	beq	c0080d4 <timer3_start_antirrebote+0x5c>
 c0080c0:	ea000007 	b	c0080e4 <timer3_start_antirrebote+0x6c>
        {
                case EVENTO_BOTON_IZQUIERDO:
                        mascara_boton = BOTON_MASK_EINT6;
 c0080c4:	e59f30a0 	ldr	r3, [pc, #160]	; c00816c <timer3_start_antirrebote+0xf4>
 c0080c8:	e3a02040 	mov	r2, #64	; 0x40
 c0080cc:	e5832000 	str	r2, [r3]
                        break;
 c0080d0:	ea000005 	b	c0080ec <timer3_start_antirrebote+0x74>
                case EVENTO_BOTON_DERECHO:
                        mascara_boton = BOTON_MASK_EINT7;
 c0080d4:	e59f3090 	ldr	r3, [pc, #144]	; c00816c <timer3_start_antirrebote+0xf4>
 c0080d8:	e3a02080 	mov	r2, #128	; 0x80
 c0080dc:	e5832000 	str	r2, [r3]
                        break;
 c0080e0:	ea000001 	b	c0080ec <timer3_start_antirrebote+0x74>
                default:
                        return 0;
 c0080e4:	e3a03000 	mov	r3, #0
 c0080e8:	ea00001a 	b	c008158 <timer3_start_antirrebote+0xe0>
        }

        boton_en_proceso = boton_id;
 c0080ec:	e59f307c 	ldr	r3, [pc, #124]	; c008170 <timer3_start_antirrebote+0xf8>
 c0080f0:	e55b200d 	ldrb	r2, [fp, #-13]
 c0080f4:	e5c32000 	strb	r2, [r3]
        estado_actual = REBOTE_PRESION;
 c0080f8:	e59f3068 	ldr	r3, [pc, #104]	; c008168 <timer3_start_antirrebote+0xf0>
 c0080fc:	e3a02001 	mov	r2, #1
 c008100:	e5c32000 	strb	r2, [r3]
        contador_ms = TIMER3_TRP_MS;
 c008104:	e59f3068 	ldr	r3, [pc, #104]	; c008174 <timer3_start_antirrebote+0xfc>
 c008108:	e3a0201e 	mov	r2, #30
 c00810c:	e5832000 	str	r2, [r3]
        monitor_ms = TIMER3_MONITOR_MS;
 c008110:	e59f3060 	ldr	r3, [pc, #96]	; c008178 <timer3_start_antirrebote+0x100>
 c008114:	e3a02064 	mov	r2, #100	; 0x64
 c008118:	e5832000 	str	r2, [r3]
        tiempo_pulsacion_ms = 0;
 c00811c:	e59f3058 	ldr	r3, [pc, #88]	; c00817c <timer3_start_antirrebote+0x104>
 c008120:	e3a02000 	mov	r2, #0
 c008124:	e5832000 	str	r2, [r3]

        /* Deshabilitar las interrupciones de los botones */
        rINTMSK |= BIT_EINT4567;
 c008128:	e59f3050 	ldr	r3, [pc, #80]	; c008180 <timer3_start_antirrebote+0x108>
 c00812c:	e59f204c 	ldr	r2, [pc, #76]	; c008180 <timer3_start_antirrebote+0x108>
 c008130:	e5922000 	ldr	r2, [r2]
 c008134:	e3822602 	orr	r2, r2, #2097152	; 0x200000
 c008138:	e5832000 	str	r2, [r3]

        /* Preparar y arrancar el temporizador */
        timer3_preparar_tick();
 c00813c:	ebffff39 	bl	c007e28 <timer3_preparar_tick>

        /* Habilitar la interrupcin del timer3 */
        rINTMSK &= ~(BIT_TIMER3);
 c008140:	e59f3038 	ldr	r3, [pc, #56]	; c008180 <timer3_start_antirrebote+0x108>
 c008144:	e59f2034 	ldr	r2, [pc, #52]	; c008180 <timer3_start_antirrebote+0x108>
 c008148:	e5922000 	ldr	r2, [r2]
 c00814c:	e3c22b01 	bic	r2, r2, #1024	; 0x400
 c008150:	e5832000 	str	r2, [r3]

        return 1;
 c008154:	e3a03001 	mov	r3, #1
}
 c008158:	e1a00003 	mov	r0, r3
 c00815c:	e24bd00c 	sub	sp, fp, #12
 c008160:	e89d6800 	ldm	sp, {fp, sp, lr}
 c008164:	e12fff1e 	bx	lr
 c008168:	0c00ef18 	.word	0x0c00ef18
 c00816c:	0c00ef2c 	.word	0x0c00ef2c
 c008170:	0c00ef28 	.word	0x0c00ef28
 c008174:	0c00ef1c 	.word	0x0c00ef1c
 c008178:	0c00ef20 	.word	0x0c00ef20
 c00817c:	0c00ef24 	.word	0x0c00ef24
 c008180:	01e0000c 	.word	0x01e0000c

0c008184 <timer3_esta_ocupado>:

int timer3_esta_ocupado(void)
{
 c008184:	e1a0c00d 	mov	ip, sp
 c008188:	e92dd800 	push	{fp, ip, lr, pc}
 c00818c:	e24cb004 	sub	fp, ip, #4
        return (estado_actual != ESPERANDO_PULSACION);
 c008190:	e59f3020 	ldr	r3, [pc, #32]	; c0081b8 <timer3_esta_ocupado+0x34>
 c008194:	e5d33000 	ldrb	r3, [r3]
 c008198:	e20330ff 	and	r3, r3, #255	; 0xff
 c00819c:	e3530000 	cmp	r3, #0
 c0081a0:	03a03000 	moveq	r3, #0
 c0081a4:	13a03001 	movne	r3, #1
}
 c0081a8:	e1a00003 	mov	r0, r3
 c0081ac:	e24bd00c 	sub	sp, fp, #12
 c0081b0:	e89d6800 	ldm	sp, {fp, sp, lr}
 c0081b4:	e12fff1e 	bx	lr
 c0081b8:	0c00ef18 	.word	0x0c00ef18

0c0081bc <timer3_ISR>:

/*--- Cdigo de la ISR ---*/
void timer3_ISR(void)
{
 c0081bc:	e52dc004 	push	{ip}		; (str ip, [sp, #-4]!)
 c0081c0:	e1a0c00d 	mov	ip, sp
 c0081c4:	e92dd80f 	push	{r0, r1, r2, r3, fp, ip, lr, pc}
 c0081c8:	e24cb004 	sub	fp, ip, #4
        switch (estado_actual)
 c0081cc:	e59f32b4 	ldr	r3, [pc, #692]	; c008488 <timer3_ISR+0x2cc>
 c0081d0:	e5d33000 	ldrb	r3, [r3]
 c0081d4:	e20330ff 	and	r3, r3, #255	; 0xff
 c0081d8:	e2433001 	sub	r3, r3, #1
 c0081dc:	e3530003 	cmp	r3, #3
 c0081e0:	979ff103 	ldrls	pc, [pc, r3, lsl #2]
 c0081e4:	ea000091 	b	c008430 <timer3_ISR+0x274>
 c0081e8:	0c0081f8 	.word	0x0c0081f8
 c0081ec:	0c008278 	.word	0x0c008278
 c0081f0:	0c00833c 	.word	0x0c00833c
 c0081f4:	0c0083f0 	.word	0x0c0083f0
        {
                case REBOTE_PRESION:
                        if (contador_ms > 0)
 c0081f8:	e59f328c 	ldr	r3, [pc, #652]	; c00848c <timer3_ISR+0x2d0>
 c0081fc:	e5933000 	ldr	r3, [r3]
 c008200:	e3530000 	cmp	r3, #0
 c008204:	0a000004 	beq	c00821c <timer3_ISR+0x60>
                        {
                                contador_ms -= TIMER3_TICK_MS;
 c008208:	e59f327c 	ldr	r3, [pc, #636]	; c00848c <timer3_ISR+0x2d0>
 c00820c:	e5933000 	ldr	r3, [r3]
 c008210:	e2432001 	sub	r2, r3, #1
 c008214:	e59f3270 	ldr	r3, [pc, #624]	; c00848c <timer3_ISR+0x2d0>
 c008218:	e5832000 	str	r2, [r3]
                        }
                        if (contador_ms == 0)
 c00821c:	e59f3268 	ldr	r3, [pc, #616]	; c00848c <timer3_ISR+0x2d0>
 c008220:	e5933000 	ldr	r3, [r3]
 c008224:	e3530000 	cmp	r3, #0
 c008228:	1a000082 	bne	c008438 <timer3_ISR+0x27c>
                        {
                                /* Notificar la pulsacin validada (cuando se confirma que est pulsado) */
                                if (callback_validacion)
 c00822c:	e59f325c 	ldr	r3, [pc, #604]	; c008490 <timer3_ISR+0x2d4>
 c008230:	e5933000 	ldr	r3, [r3]
 c008234:	e3530000 	cmp	r3, #0
 c008238:	0a000007 	beq	c00825c <timer3_ISR+0xa0>
                                {
                                        callback_validacion(boton_en_proceso);
 c00823c:	e59f324c 	ldr	r3, [pc, #588]	; c008490 <timer3_ISR+0x2d4>
 c008240:	e5933000 	ldr	r3, [r3]
 c008244:	e59f2248 	ldr	r2, [pc, #584]	; c008494 <timer3_ISR+0x2d8>
 c008248:	e5d22000 	ldrb	r2, [r2]
 c00824c:	e20220ff 	and	r2, r2, #255	; 0xff
 c008250:	e1a00002 	mov	r0, r2
 c008254:	e1a0e00f 	mov	lr, pc
 c008258:	e12fff13 	bx	r3
                                }
                                
                                estado_actual = MONITORIZANDO;
 c00825c:	e59f3224 	ldr	r3, [pc, #548]	; c008488 <timer3_ISR+0x2cc>
 c008260:	e3a02002 	mov	r2, #2
 c008264:	e5c32000 	strb	r2, [r3]
                                monitor_ms = TIMER3_MONITOR_MS;
 c008268:	e59f3228 	ldr	r3, [pc, #552]	; c008498 <timer3_ISR+0x2dc>
 c00826c:	e3a02064 	mov	r2, #100	; 0x64
 c008270:	e5832000 	str	r2, [r3]
                        }
                        break;
 c008274:	ea00007a 	b	c008464 <timer3_ISR+0x2a8>

                case MONITORIZANDO:
                        /* Incrementar el tiempo total de pulsacin */
                        tiempo_pulsacion_ms += TIMER3_TICK_MS;
 c008278:	e59f321c 	ldr	r3, [pc, #540]	; c00849c <timer3_ISR+0x2e0>
 c00827c:	e5933000 	ldr	r3, [r3]
 c008280:	e2832001 	add	r2, r3, #1
 c008284:	e59f3210 	ldr	r3, [pc, #528]	; c00849c <timer3_ISR+0x2e0>
 c008288:	e5832000 	str	r2, [r3]
                        
                        if (monitor_ms > 0)
 c00828c:	e59f3204 	ldr	r3, [pc, #516]	; c008498 <timer3_ISR+0x2dc>
 c008290:	e5933000 	ldr	r3, [r3]
 c008294:	e3530000 	cmp	r3, #0
 c008298:	0a000004 	beq	c0082b0 <timer3_ISR+0xf4>
                        {
                                monitor_ms -= TIMER3_TICK_MS;
 c00829c:	e59f31f4 	ldr	r3, [pc, #500]	; c008498 <timer3_ISR+0x2dc>
 c0082a0:	e5933000 	ldr	r3, [r3]
 c0082a4:	e2432001 	sub	r2, r3, #1
 c0082a8:	e59f31e8 	ldr	r3, [pc, #488]	; c008498 <timer3_ISR+0x2dc>
 c0082ac:	e5832000 	str	r2, [r3]
                        }
                        if (monitor_ms == 0)
 c0082b0:	e59f31e0 	ldr	r3, [pc, #480]	; c008498 <timer3_ISR+0x2dc>
 c0082b4:	e5933000 	ldr	r3, [r3]
 c0082b8:	e3530000 	cmp	r3, #0
 c0082bc:	1a00005f 	bne	c008440 <timer3_ISR+0x284>
                        {
                                if (boton_sigue_pulsado())
 c0082c0:	ebfffeb1 	bl	c007d8c <boton_sigue_pulsado>
 c0082c4:	e1a03000 	mov	r3, r0
 c0082c8:	e3530000 	cmp	r3, #0
 c0082cc:	0a000013 	beq	c008320 <timer3_ISR+0x164>
                                {
                                        monitor_ms = TIMER3_MONITOR_MS;
 c0082d0:	e59f31c0 	ldr	r3, [pc, #448]	; c008498 <timer3_ISR+0x2dc>
 c0082d4:	e3a02064 	mov	r2, #100	; 0x64
 c0082d8:	e5832000 	str	r2, [r3]
                                        
                                        /* Comprobar si se debe activar auto-repeticin */
                                        if (tiempo_pulsacion_ms >= TIMER3_TIEMPO_AUTOREPETICION_MS)
 c0082dc:	e59f31b8 	ldr	r3, [pc, #440]	; c00849c <timer3_ISR+0x2e0>
 c0082e0:	e5932000 	ldr	r2, [r3]
 c0082e4:	e59f31b4 	ldr	r3, [pc, #436]	; c0084a0 <timer3_ISR+0x2e4>
 c0082e8:	e1520003 	cmp	r2, r3
 c0082ec:	9a000055 	bls	c008448 <timer3_ISR+0x28c>
                                        {
                                                /* Activar auto-repeticin solo para botn derecho */
                                                if (boton_en_proceso == EVENTO_BOTON_DERECHO)
 c0082f0:	e59f319c 	ldr	r3, [pc, #412]	; c008494 <timer3_ISR+0x2d8>
 c0082f4:	e5d33000 	ldrb	r3, [r3]
 c0082f8:	e20330ff 	and	r3, r3, #255	; 0xff
 c0082fc:	e3530008 	cmp	r3, #8
 c008300:	1a000052 	bne	c008450 <timer3_ISR+0x294>
                                                {
                                                        estado_actual = AUTOREPETICION;
 c008304:	e59f317c 	ldr	r3, [pc, #380]	; c008488 <timer3_ISR+0x2cc>
 c008308:	e3a02003 	mov	r2, #3
 c00830c:	e5c32000 	strb	r2, [r3]
                                                        contador_ms = TIMER3_PERIODO_AUTOREPETICION_MS;
 c008310:	e59f3174 	ldr	r3, [pc, #372]	; c00848c <timer3_ISR+0x2d0>
 c008314:	e3a02f4b 	mov	r2, #300	; 0x12c
 c008318:	e5832000 	str	r2, [r3]
                                {
                                        estado_actual = REBOTE_DEPRESION;
                                        contador_ms = TIMER3_TRD_MS;
                                }
                        }
                        break;
 c00831c:	ea000050 	b	c008464 <timer3_ISR+0x2a8>
                                                }
                                        }
                                }
                                else
                                {
                                        estado_actual = REBOTE_DEPRESION;
 c008320:	e59f3160 	ldr	r3, [pc, #352]	; c008488 <timer3_ISR+0x2cc>
 c008324:	e3a02004 	mov	r2, #4
 c008328:	e5c32000 	strb	r2, [r3]
                                        contador_ms = TIMER3_TRD_MS;
 c00832c:	e59f3158 	ldr	r3, [pc, #344]	; c00848c <timer3_ISR+0x2d0>
 c008330:	e3a0201e 	mov	r2, #30
 c008334:	e5832000 	str	r2, [r3]
                                }
                        }
                        break;
 c008338:	ea000049 	b	c008464 <timer3_ISR+0x2a8>

                case AUTOREPETICION:
                        /* Incrementar el tiempo total de pulsacin */
                        tiempo_pulsacion_ms += TIMER3_TICK_MS;
 c00833c:	e59f3158 	ldr	r3, [pc, #344]	; c00849c <timer3_ISR+0x2e0>
 c008340:	e5933000 	ldr	r3, [r3]
 c008344:	e2832001 	add	r2, r3, #1
 c008348:	e59f314c 	ldr	r3, [pc, #332]	; c00849c <timer3_ISR+0x2e0>
 c00834c:	e5832000 	str	r2, [r3]
                        
                        if (contador_ms > 0)
 c008350:	e59f3134 	ldr	r3, [pc, #308]	; c00848c <timer3_ISR+0x2d0>
 c008354:	e5933000 	ldr	r3, [r3]
 c008358:	e3530000 	cmp	r3, #0
 c00835c:	0a000004 	beq	c008374 <timer3_ISR+0x1b8>
                        {
                                contador_ms -= TIMER3_TICK_MS;
 c008360:	e59f3124 	ldr	r3, [pc, #292]	; c00848c <timer3_ISR+0x2d0>
 c008364:	e5933000 	ldr	r3, [r3]
 c008368:	e2432001 	sub	r2, r3, #1
 c00836c:	e59f3118 	ldr	r3, [pc, #280]	; c00848c <timer3_ISR+0x2d0>
 c008370:	e5832000 	str	r2, [r3]
                        }
                        if (contador_ms == 0)
 c008374:	e59f3110 	ldr	r3, [pc, #272]	; c00848c <timer3_ISR+0x2d0>
 c008378:	e5933000 	ldr	r3, [r3]
 c00837c:	e3530000 	cmp	r3, #0
 c008380:	1a000034 	bne	c008458 <timer3_ISR+0x29c>
                        {
                                if (boton_sigue_pulsado())
 c008384:	ebfffe80 	bl	c007d8c <boton_sigue_pulsado>
 c008388:	e1a03000 	mov	r3, r0
 c00838c:	e3530000 	cmp	r3, #0
 c008390:	0a00000f 	beq	c0083d4 <timer3_ISR+0x218>
                                {
                                        /* Generar evento de auto-incremento */
                                        if (callback_validacion)
 c008394:	e59f30f4 	ldr	r3, [pc, #244]	; c008490 <timer3_ISR+0x2d4>
 c008398:	e5933000 	ldr	r3, [r3]
 c00839c:	e3530000 	cmp	r3, #0
 c0083a0:	0a000007 	beq	c0083c4 <timer3_ISR+0x208>
                                        {
                                                callback_validacion(boton_en_proceso);
 c0083a4:	e59f30e4 	ldr	r3, [pc, #228]	; c008490 <timer3_ISR+0x2d4>
 c0083a8:	e5933000 	ldr	r3, [r3]
 c0083ac:	e59f20e0 	ldr	r2, [pc, #224]	; c008494 <timer3_ISR+0x2d8>
 c0083b0:	e5d22000 	ldrb	r2, [r2]
 c0083b4:	e20220ff 	and	r2, r2, #255	; 0xff
 c0083b8:	e1a00002 	mov	r0, r2
 c0083bc:	e1a0e00f 	mov	lr, pc
 c0083c0:	e12fff13 	bx	r3
                                        }
                                        
                                        /* Reiniciar contador para siguiente auto-incremento */
                                        contador_ms = TIMER3_PERIODO_AUTOREPETICION_MS;
 c0083c4:	e59f30c0 	ldr	r3, [pc, #192]	; c00848c <timer3_ISR+0x2d0>
 c0083c8:	e3a02f4b 	mov	r2, #300	; 0x12c
 c0083cc:	e5832000 	str	r2, [r3]
                                {
                                        estado_actual = REBOTE_DEPRESION;
                                        contador_ms = TIMER3_TRD_MS;
                                }
                        }
                        break;
 c0083d0:	ea000023 	b	c008464 <timer3_ISR+0x2a8>
                                        /* Reiniciar contador para siguiente auto-incremento */
                                        contador_ms = TIMER3_PERIODO_AUTOREPETICION_MS;
                                }
                                else
                                {
                                        estado_actual = REBOTE_DEPRESION;
 c0083d4:	e59f30ac 	ldr	r3, [pc, #172]	; c008488 <timer3_ISR+0x2cc>
 c0083d8:	e3a02004 	mov	r2, #4
 c0083dc:	e5c32000 	strb	r2, [r3]
                                        contador_ms = TIMER3_TRD_MS;
 c0083e0:	e59f30a4 	ldr	r3, [pc, #164]	; c00848c <timer3_ISR+0x2d0>
 c0083e4:	e3a0201e 	mov	r2, #30
 c0083e8:	e5832000 	str	r2, [r3]
                                }
                        }
                        break;
 c0083ec:	ea00001c 	b	c008464 <timer3_ISR+0x2a8>

                case REBOTE_DEPRESION:
                        if (contador_ms > 0)
 c0083f0:	e59f3094 	ldr	r3, [pc, #148]	; c00848c <timer3_ISR+0x2d0>
 c0083f4:	e5933000 	ldr	r3, [r3]
 c0083f8:	e3530000 	cmp	r3, #0
 c0083fc:	0a000004 	beq	c008414 <timer3_ISR+0x258>
                        {
                                contador_ms -= TIMER3_TICK_MS;
 c008400:	e59f3084 	ldr	r3, [pc, #132]	; c00848c <timer3_ISR+0x2d0>
 c008404:	e5933000 	ldr	r3, [r3]
 c008408:	e2432001 	sub	r2, r3, #1
 c00840c:	e59f3078 	ldr	r3, [pc, #120]	; c00848c <timer3_ISR+0x2d0>
 c008410:	e5832000 	str	r2, [r3]
                        }
                        if (contador_ms == 0)
 c008414:	e59f3070 	ldr	r3, [pc, #112]	; c00848c <timer3_ISR+0x2d0>
 c008418:	e5933000 	ldr	r3, [r3]
 c00841c:	e3530000 	cmp	r3, #0
 c008420:	1a00000e 	bne	c008460 <timer3_ISR+0x2a4>
                        {
                                /* Detener el temporizador */
                                timer3_detener();
 c008424:	ebfffe6d 	bl	c007de0 <timer3_detener>
                                
                                /* Finalizar el proceso de antirrebote */
                                finalizar_antirrebote();
 c008428:	ebfffe99 	bl	c007e94 <finalizar_antirrebote>
                        }
                        break;
 c00842c:	ea00000c 	b	c008464 <timer3_ISR+0x2a8>

                default:
                        break;
 c008430:	e1a00000 	nop			; (mov r0, r0)
 c008434:	ea00000a 	b	c008464 <timer3_ISR+0x2a8>
                                }
                                
                                estado_actual = MONITORIZANDO;
                                monitor_ms = TIMER3_MONITOR_MS;
                        }
                        break;
 c008438:	e1a00000 	nop			; (mov r0, r0)
 c00843c:	ea000008 	b	c008464 <timer3_ISR+0x2a8>
                                {
                                        estado_actual = REBOTE_DEPRESION;
                                        contador_ms = TIMER3_TRD_MS;
                                }
                        }
                        break;
 c008440:	e1a00000 	nop			; (mov r0, r0)
 c008444:	ea000006 	b	c008464 <timer3_ISR+0x2a8>
 c008448:	e1a00000 	nop			; (mov r0, r0)
 c00844c:	ea000004 	b	c008464 <timer3_ISR+0x2a8>
 c008450:	e1a00000 	nop			; (mov r0, r0)
 c008454:	ea000002 	b	c008464 <timer3_ISR+0x2a8>
                                {
                                        estado_actual = REBOTE_DEPRESION;
                                        contador_ms = TIMER3_TRD_MS;
                                }
                        }
                        break;
 c008458:	e1a00000 	nop			; (mov r0, r0)
 c00845c:	ea000000 	b	c008464 <timer3_ISR+0x2a8>
                                timer3_detener();
                                
                                /* Finalizar el proceso de antirrebote */
                                finalizar_antirrebote();
                        }
                        break;
 c008460:	e1a00000 	nop			; (mov r0, r0)
                default:
                        break;
        }

        /* Limpiar la peticin de interrupcin */
        rI_ISPC |= BIT_TIMER3;
 c008464:	e59f3038 	ldr	r3, [pc, #56]	; c0084a4 <timer3_ISR+0x2e8>
 c008468:	e59f2034 	ldr	r2, [pc, #52]	; c0084a4 <timer3_ISR+0x2e8>
 c00846c:	e5922000 	ldr	r2, [r2]
 c008470:	e3822b01 	orr	r2, r2, #1024	; 0x400
 c008474:	e5832000 	str	r2, [r3]
}
 c008478:	e24bd01c 	sub	sp, fp, #28
 c00847c:	e89d680f 	ldm	sp, {r0, r1, r2, r3, fp, sp, lr}
 c008480:	e49dc004 	pop	{ip}		; (ldr ip, [sp], #4)
 c008484:	e25ef004 	subs	pc, lr, #4
 c008488:	0c00ef18 	.word	0x0c00ef18
 c00848c:	0c00ef1c 	.word	0x0c00ef1c
 c008490:	0c00ef30 	.word	0x0c00ef30
 c008494:	0c00ef28 	.word	0x0c00ef28
 c008498:	0c00ef20 	.word	0x0c00ef20
 c00849c:	0c00ef24 	.word	0x0c00ef24
 c0084a0:	000001f3 	.word	0x000001f3
 c0084a4:	01e00024 	.word	0x01e00024

0c0084a8 <TS_Test>:
static int g_ts_raw_y;              // ltima lectura Y cruda
static unsigned int g_last_touch_time = 0;  // ltimo tiempo de toque vlido (microsegundos)
#define TOUCH_DEBOUNCE_TIME 300000  // Tiempo mnimo entre toques: 300ms = 300000us

void TS_Test(void)
{
 c0084a8:	e1a0c00d 	mov	ip, sp
 c0084ac:	e92dd800 	push	{fp, ip, lr, pc}
 c0084b0:	e24cb004 	sub	fp, ip, #4
		Lcd_TC();
 c0084b4:	eb0001bf 	bl	c008bb8 <Lcd_TC>
		TS_init();
 c0084b8:	eb000173 	bl	c008a8c <TS_init>
		Check_Sel();
 c0084bc:	eb0002e8 	bl	c009064 <Check_Sel>
			
//		Uart_Printf("\n Pixel: 320 X 240. Coordinate Rang in: (0,0) - (320,240)\n");
//		Uart_Printf("\nLCD TouchScreen Test Example(please touch LCD screen)\n");
}
 c0084c0:	e24bd00c 	sub	sp, fp, #12
 c0084c4:	e89d6800 	ldm	sp, {fp, sp, lr}
 c0084c8:	e12fff1e 	bx	lr

0c0084cc <TSInt>:
* ret:		none
* modify:
* comment:		
********************************************************************************************/
void TSInt(void)
{
 c0084cc:	e52dc004 	push	{ip}		; (str ip, [sp, #-4]!)
 c0084d0:	e1a0c00d 	mov	ip, sp
 c0084d4:	e92dd80f 	push	{r0, r1, r2, r3, fp, ip, lr, pc}
 c0084d8:	e24cb004 	sub	fp, ip, #4
 c0084dc:	e24dd040 	sub	sp, sp, #64	; 0x40
    ULONG swap;    /* Variable para ordenamiento */

	// <X-Position Read>
	// TSPX(GPE4_Q4(+)) TSPY(GPE5_Q3(-)) TSMY(GPE6_Q2(+)) TSMX(GPE7_Q1(-))
    //       0               1                 1                0
	rPDATE=0x68;
 c0084e0:	e59f357c 	ldr	r3, [pc, #1404]	; c008a64 <TSInt+0x598>
 c0084e4:	e3a02068 	mov	r2, #104	; 0x68
 c0084e8:	e5832000 	str	r2, [r3]
	rADCCON=0x1<<2;			// AIN1
 c0084ec:	e3a03775 	mov	r3, #30670848	; 0x1d40000
 c0084f0:	e3a02004 	mov	r2, #4
 c0084f4:	e5832000 	str	r2, [r3]
	
	DelayTime(2000);                // delay ms largo para mejor estabilizacin
 c0084f8:	e3a00e7d 	mov	r0, #2000	; 0x7d0
 c0084fc:	ebffe0e9 	bl	c0008a8 <DelayTime>
	for( i=0; i<10; i++ )
 c008500:	e3a03000 	mov	r3, #0
 c008504:	e50b3020 	str	r3, [fp, #-32]	; 0xffffffe0
 c008508:	ea000021 	b	c008594 <TSInt+0xc8>
	{
		rADCCON |= 0x1;				// Start X-position A/D conversion
 c00850c:	e3a03775 	mov	r3, #30670848	; 0x1d40000
 c008510:	e3a02775 	mov	r2, #30670848	; 0x1d40000
 c008514:	e5922000 	ldr	r2, [r2]
 c008518:	e3822001 	orr	r2, r2, #1
 c00851c:	e5832000 	str	r2, [r3]
	    while( rADCCON & 0x1 );		// Check if Enable_start is low
 c008520:	e1a00000 	nop			; (mov r0, r0)
 c008524:	e3a03775 	mov	r3, #30670848	; 0x1d40000
 c008528:	e5933000 	ldr	r3, [r3]
 c00852c:	e2033001 	and	r3, r3, #1
 c008530:	e20330ff 	and	r3, r3, #255	; 0xff
 c008534:	e3530000 	cmp	r3, #0
 c008538:	1afffff9 	bne	c008524 <TSInt+0x58>
    	while( !(rADCCON & 0x40) );	// Check ECFLG
 c00853c:	e1a00000 	nop			; (mov r0, r0)
 c008540:	e3a03775 	mov	r3, #30670848	; 0x1d40000
 c008544:	e5933000 	ldr	r3, [r3]
 c008548:	e2033040 	and	r3, r3, #64	; 0x40
 c00854c:	e3530000 	cmp	r3, #0
 c008550:	0afffffa 	beq	c008540 <TSInt+0x74>
	    Pt[i] = (0x3ff&rADCDAT);
 c008554:	e59f350c 	ldr	r3, [pc, #1292]	; c008a68 <TSInt+0x59c>
 c008558:	e5933000 	ldr	r3, [r3]
 c00855c:	e1a03b03 	lsl	r3, r3, #22
 c008560:	e1a03b23 	lsr	r3, r3, #22
 c008564:	e51b1020 	ldr	r1, [fp, #-32]	; 0xffffffe0
 c008568:	e3e0203b 	mvn	r2, #59	; 0x3b
 c00856c:	e1a01101 	lsl	r1, r1, #2
 c008570:	e24b001c 	sub	r0, fp, #28
 c008574:	e0801001 	add	r1, r0, r1
 c008578:	e0812002 	add	r2, r1, r2
 c00857c:	e5823000 	str	r3, [r2]
	    DelayTime(100);             // Pequeo delay entre lecturas
 c008580:	e3a00064 	mov	r0, #100	; 0x64
 c008584:	ebffe0c7 	bl	c0008a8 <DelayTime>
    //       0               1                 1                0
	rPDATE=0x68;
	rADCCON=0x1<<2;			// AIN1
	
	DelayTime(2000);                // delay ms largo para mejor estabilizacin
	for( i=0; i<10; i++ )
 c008588:	e51b3020 	ldr	r3, [fp, #-32]	; 0xffffffe0
 c00858c:	e2833001 	add	r3, r3, #1
 c008590:	e50b3020 	str	r3, [fp, #-32]	; 0xffffffe0
 c008594:	e51b3020 	ldr	r3, [fp, #-32]	; 0xffffffe0
 c008598:	e3530009 	cmp	r3, #9
 c00859c:	daffffda 	ble	c00850c <TSInt+0x40>
	    Pt[i] = (0x3ff&rADCDAT);
	    DelayTime(100);             // Pequeo delay entre lecturas
	}
	
	// Ordenar muestras para eliminar extremos (bubble sort simple)
	for (i = 0; i < 9; i++) {
 c0085a0:	e3a03000 	mov	r3, #0
 c0085a4:	e50b3020 	str	r3, [fp, #-32]	; 0xffffffe0
 c0085a8:	ea00003e 	b	c0086a8 <TSInt+0x1dc>
	    for (j = 0; j < 9 - i; j++) {
 c0085ac:	e3a03000 	mov	r3, #0
 c0085b0:	e50b3024 	str	r3, [fp, #-36]	; 0xffffffdc
 c0085b4:	ea000033 	b	c008688 <TSInt+0x1bc>
	        if (Pt[j] > Pt[j + 1]) {
 c0085b8:	e51b2024 	ldr	r2, [fp, #-36]	; 0xffffffdc
 c0085bc:	e3e0303b 	mvn	r3, #59	; 0x3b
 c0085c0:	e1a02102 	lsl	r2, r2, #2
 c0085c4:	e24b101c 	sub	r1, fp, #28
 c0085c8:	e0812002 	add	r2, r1, r2
 c0085cc:	e0823003 	add	r3, r2, r3
 c0085d0:	e5932000 	ldr	r2, [r3]
 c0085d4:	e51b3024 	ldr	r3, [fp, #-36]	; 0xffffffdc
 c0085d8:	e2831001 	add	r1, r3, #1
 c0085dc:	e3e0303b 	mvn	r3, #59	; 0x3b
 c0085e0:	e1a01101 	lsl	r1, r1, #2
 c0085e4:	e24b001c 	sub	r0, fp, #28
 c0085e8:	e0801001 	add	r1, r0, r1
 c0085ec:	e0813003 	add	r3, r1, r3
 c0085f0:	e5933000 	ldr	r3, [r3]
 c0085f4:	e1520003 	cmp	r2, r3
 c0085f8:	9a00001f 	bls	c00867c <TSInt+0x1b0>
	            swap = Pt[j];
 c0085fc:	e51b2024 	ldr	r2, [fp, #-36]	; 0xffffffdc
 c008600:	e3e0303b 	mvn	r3, #59	; 0x3b
 c008604:	e1a02102 	lsl	r2, r2, #2
 c008608:	e24b101c 	sub	r1, fp, #28
 c00860c:	e0812002 	add	r2, r1, r2
 c008610:	e0823003 	add	r3, r2, r3
 c008614:	e5933000 	ldr	r3, [r3]
 c008618:	e50b302c 	str	r3, [fp, #-44]	; 0xffffffd4
	            Pt[j] = Pt[j + 1];
 c00861c:	e51b3024 	ldr	r3, [fp, #-36]	; 0xffffffdc
 c008620:	e2832001 	add	r2, r3, #1
 c008624:	e3e0303b 	mvn	r3, #59	; 0x3b
 c008628:	e1a02102 	lsl	r2, r2, #2
 c00862c:	e24b001c 	sub	r0, fp, #28
 c008630:	e0802002 	add	r2, r0, r2
 c008634:	e0823003 	add	r3, r2, r3
 c008638:	e5932000 	ldr	r2, [r3]
 c00863c:	e51b1024 	ldr	r1, [fp, #-36]	; 0xffffffdc
 c008640:	e3e0303b 	mvn	r3, #59	; 0x3b
 c008644:	e1a01101 	lsl	r1, r1, #2
 c008648:	e24b001c 	sub	r0, fp, #28
 c00864c:	e0801001 	add	r1, r0, r1
 c008650:	e0813003 	add	r3, r1, r3
 c008654:	e5832000 	str	r2, [r3]
	            Pt[j + 1] = swap;
 c008658:	e51b3024 	ldr	r3, [fp, #-36]	; 0xffffffdc
 c00865c:	e2832001 	add	r2, r3, #1
 c008660:	e3e0303b 	mvn	r3, #59	; 0x3b
 c008664:	e1a02102 	lsl	r2, r2, #2
 c008668:	e24b101c 	sub	r1, fp, #28
 c00866c:	e0812002 	add	r2, r1, r2
 c008670:	e0823003 	add	r3, r2, r3
 c008674:	e51b202c 	ldr	r2, [fp, #-44]	; 0xffffffd4
 c008678:	e5832000 	str	r2, [r3]
	    DelayTime(100);             // Pequeo delay entre lecturas
	}
	
	// Ordenar muestras para eliminar extremos (bubble sort simple)
	for (i = 0; i < 9; i++) {
	    for (j = 0; j < 9 - i; j++) {
 c00867c:	e51b3024 	ldr	r3, [fp, #-36]	; 0xffffffdc
 c008680:	e2833001 	add	r3, r3, #1
 c008684:	e50b3024 	str	r3, [fp, #-36]	; 0xffffffdc
 c008688:	e51b3020 	ldr	r3, [fp, #-32]	; 0xffffffe0
 c00868c:	e2632009 	rsb	r2, r3, #9
 c008690:	e51b3024 	ldr	r3, [fp, #-36]	; 0xffffffdc
 c008694:	e1520003 	cmp	r2, r3
 c008698:	caffffc6 	bgt	c0085b8 <TSInt+0xec>
	    Pt[i] = (0x3ff&rADCDAT);
	    DelayTime(100);             // Pequeo delay entre lecturas
	}
	
	// Ordenar muestras para eliminar extremos (bubble sort simple)
	for (i = 0; i < 9; i++) {
 c00869c:	e51b3020 	ldr	r3, [fp, #-32]	; 0xffffffe0
 c0086a0:	e2833001 	add	r3, r3, #1
 c0086a4:	e50b3020 	str	r3, [fp, #-32]	; 0xffffffe0
 c0086a8:	e51b3020 	ldr	r3, [fp, #-32]	; 0xffffffe0
 c0086ac:	e3530008 	cmp	r3, #8
 c0086b0:	daffffbd 	ble	c0085ac <TSInt+0xe0>
	            Pt[j + 1] = swap;
	        }
	    }
	}
	// Promedio de las 6 muestras centrales (descartando 2 mximas y 2 mnimas)
	Pt[10] = (Pt[2] + Pt[3] + Pt[4] + Pt[5] + Pt[6] + Pt[7]) / 6;
 c0086b4:	e51b2050 	ldr	r2, [fp, #-80]	; 0xffffffb0
 c0086b8:	e51b304c 	ldr	r3, [fp, #-76]	; 0xffffffb4
 c0086bc:	e0822003 	add	r2, r2, r3
 c0086c0:	e51b3048 	ldr	r3, [fp, #-72]	; 0xffffffb8
 c0086c4:	e0822003 	add	r2, r2, r3
 c0086c8:	e51b3044 	ldr	r3, [fp, #-68]	; 0xffffffbc
 c0086cc:	e0822003 	add	r2, r2, r3
 c0086d0:	e51b3040 	ldr	r3, [fp, #-64]	; 0xffffffc0
 c0086d4:	e0822003 	add	r2, r2, r3
 c0086d8:	e51b303c 	ldr	r3, [fp, #-60]	; 0xffffffc4
 c0086dc:	e0822003 	add	r2, r2, r3
 c0086e0:	e59f3384 	ldr	r3, [pc, #900]	; c008a6c <TSInt+0x5a0>
 c0086e4:	e0830392 	umull	r0, r3, r2, r3
 c0086e8:	e1a03123 	lsr	r3, r3, #2
 c0086ec:	e50b3030 	str	r3, [fp, #-48]	; 0xffffffd0
	
	tmp = Pt[10];	
 c0086f0:	e51b3030 	ldr	r3, [fp, #-48]	; 0xffffffd0
 c0086f4:	e50b3028 	str	r3, [fp, #-40]	; 0xffffffd8
	
    // <Y-Position Read>
	// TSPX(GPE4_Q4(-)) TSPY(GPE5_Q3(+)) TSMY(GPE6_Q2(-)) TSMX(GPE7_Q1(+))
    //       1               0                 0                1
	rPDATE=0x98;
 c0086f8:	e59f3364 	ldr	r3, [pc, #868]	; c008a64 <TSInt+0x598>
 c0086fc:	e3a02098 	mov	r2, #152	; 0x98
 c008700:	e5832000 	str	r2, [r3]
	rADCCON=0x0<<2;		        	// AIN0
 c008704:	e3a03775 	mov	r3, #30670848	; 0x1d40000
 c008708:	e3a02000 	mov	r2, #0
 c00870c:	e5832000 	str	r2, [r3]
	
	DelayTime(2000);                // delay ms largo para mejor estabilizacin
 c008710:	e3a00e7d 	mov	r0, #2000	; 0x7d0
 c008714:	ebffe063 	bl	c0008a8 <DelayTime>
	for( i=0; i<10; i++ )
 c008718:	e3a03000 	mov	r3, #0
 c00871c:	e50b3020 	str	r3, [fp, #-32]	; 0xffffffe0
 c008720:	ea000021 	b	c0087ac <TSInt+0x2e0>
	{
    	rADCCON |= 0x1;             // Start Y-position conversion
 c008724:	e3a03775 	mov	r3, #30670848	; 0x1d40000
 c008728:	e3a02775 	mov	r2, #30670848	; 0x1d40000
 c00872c:	e5922000 	ldr	r2, [r2]
 c008730:	e3822001 	orr	r2, r2, #1
 c008734:	e5832000 	str	r2, [r3]
	    while( rADCCON & 0x1 );     // Check if Enable_start is low
 c008738:	e1a00000 	nop			; (mov r0, r0)
 c00873c:	e3a03775 	mov	r3, #30670848	; 0x1d40000
 c008740:	e5933000 	ldr	r3, [r3]
 c008744:	e2033001 	and	r3, r3, #1
 c008748:	e20330ff 	and	r3, r3, #255	; 0xff
 c00874c:	e3530000 	cmp	r3, #0
 c008750:	1afffff9 	bne	c00873c <TSInt+0x270>
    	while( !(rADCCON & 0x40) ); // Check ECFLG
 c008754:	e1a00000 	nop			; (mov r0, r0)
 c008758:	e3a03775 	mov	r3, #30670848	; 0x1d40000
 c00875c:	e5933000 	ldr	r3, [r3]
 c008760:	e2033040 	and	r3, r3, #64	; 0x40
 c008764:	e3530000 	cmp	r3, #0
 c008768:	0afffffa 	beq	c008758 <TSInt+0x28c>
	    Pt[i] = (0x3ff&rADCDAT);
 c00876c:	e59f32f4 	ldr	r3, [pc, #756]	; c008a68 <TSInt+0x59c>
 c008770:	e5933000 	ldr	r3, [r3]
 c008774:	e1a03b03 	lsl	r3, r3, #22
 c008778:	e1a03b23 	lsr	r3, r3, #22
 c00877c:	e51b1020 	ldr	r1, [fp, #-32]	; 0xffffffe0
 c008780:	e3e0203b 	mvn	r2, #59	; 0x3b
 c008784:	e1a01101 	lsl	r1, r1, #2
 c008788:	e24b001c 	sub	r0, fp, #28
 c00878c:	e0801001 	add	r1, r0, r1
 c008790:	e0812002 	add	r2, r1, r2
 c008794:	e5823000 	str	r3, [r2]
	    DelayTime(100);             // Pequeo delay entre lecturas
 c008798:	e3a00064 	mov	r0, #100	; 0x64
 c00879c:	ebffe041 	bl	c0008a8 <DelayTime>
    //       1               0                 0                1
	rPDATE=0x98;
	rADCCON=0x0<<2;		        	// AIN0
	
	DelayTime(2000);                // delay ms largo para mejor estabilizacin
	for( i=0; i<10; i++ )
 c0087a0:	e51b3020 	ldr	r3, [fp, #-32]	; 0xffffffe0
 c0087a4:	e2833001 	add	r3, r3, #1
 c0087a8:	e50b3020 	str	r3, [fp, #-32]	; 0xffffffe0
 c0087ac:	e51b3020 	ldr	r3, [fp, #-32]	; 0xffffffe0
 c0087b0:	e3530009 	cmp	r3, #9
 c0087b4:	daffffda 	ble	c008724 <TSInt+0x258>
	    Pt[i] = (0x3ff&rADCDAT);
	    DelayTime(100);             // Pequeo delay entre lecturas
	}
	
	// Ordenar muestras para eliminar extremos
	for (i = 0; i < 9; i++) {
 c0087b8:	e3a03000 	mov	r3, #0
 c0087bc:	e50b3020 	str	r3, [fp, #-32]	; 0xffffffe0
 c0087c0:	ea00003e 	b	c0088c0 <TSInt+0x3f4>
	    for (j = 0; j < 9 - i; j++) {
 c0087c4:	e3a03000 	mov	r3, #0
 c0087c8:	e50b3024 	str	r3, [fp, #-36]	; 0xffffffdc
 c0087cc:	ea000033 	b	c0088a0 <TSInt+0x3d4>
	        if (Pt[j] > Pt[j + 1]) {
 c0087d0:	e51b2024 	ldr	r2, [fp, #-36]	; 0xffffffdc
 c0087d4:	e3e0303b 	mvn	r3, #59	; 0x3b
 c0087d8:	e1a02102 	lsl	r2, r2, #2
 c0087dc:	e24b101c 	sub	r1, fp, #28
 c0087e0:	e0812002 	add	r2, r1, r2
 c0087e4:	e0823003 	add	r3, r2, r3
 c0087e8:	e5932000 	ldr	r2, [r3]
 c0087ec:	e51b3024 	ldr	r3, [fp, #-36]	; 0xffffffdc
 c0087f0:	e2831001 	add	r1, r3, #1
 c0087f4:	e3e0303b 	mvn	r3, #59	; 0x3b
 c0087f8:	e1a01101 	lsl	r1, r1, #2
 c0087fc:	e24b001c 	sub	r0, fp, #28
 c008800:	e0801001 	add	r1, r0, r1
 c008804:	e0813003 	add	r3, r1, r3
 c008808:	e5933000 	ldr	r3, [r3]
 c00880c:	e1520003 	cmp	r2, r3
 c008810:	9a00001f 	bls	c008894 <TSInt+0x3c8>
	            swap = Pt[j];
 c008814:	e51b2024 	ldr	r2, [fp, #-36]	; 0xffffffdc
 c008818:	e3e0303b 	mvn	r3, #59	; 0x3b
 c00881c:	e1a02102 	lsl	r2, r2, #2
 c008820:	e24b101c 	sub	r1, fp, #28
 c008824:	e0812002 	add	r2, r1, r2
 c008828:	e0823003 	add	r3, r2, r3
 c00882c:	e5933000 	ldr	r3, [r3]
 c008830:	e50b302c 	str	r3, [fp, #-44]	; 0xffffffd4
	            Pt[j] = Pt[j + 1];
 c008834:	e51b3024 	ldr	r3, [fp, #-36]	; 0xffffffdc
 c008838:	e2832001 	add	r2, r3, #1
 c00883c:	e3e0303b 	mvn	r3, #59	; 0x3b
 c008840:	e1a02102 	lsl	r2, r2, #2
 c008844:	e24b001c 	sub	r0, fp, #28
 c008848:	e0802002 	add	r2, r0, r2
 c00884c:	e0823003 	add	r3, r2, r3
 c008850:	e5932000 	ldr	r2, [r3]
 c008854:	e51b1024 	ldr	r1, [fp, #-36]	; 0xffffffdc
 c008858:	e3e0303b 	mvn	r3, #59	; 0x3b
 c00885c:	e1a01101 	lsl	r1, r1, #2
 c008860:	e24b001c 	sub	r0, fp, #28
 c008864:	e0801001 	add	r1, r0, r1
 c008868:	e0813003 	add	r3, r1, r3
 c00886c:	e5832000 	str	r2, [r3]
	            Pt[j + 1] = swap;
 c008870:	e51b3024 	ldr	r3, [fp, #-36]	; 0xffffffdc
 c008874:	e2832001 	add	r2, r3, #1
 c008878:	e3e0303b 	mvn	r3, #59	; 0x3b
 c00887c:	e1a02102 	lsl	r2, r2, #2
 c008880:	e24b101c 	sub	r1, fp, #28
 c008884:	e0812002 	add	r2, r1, r2
 c008888:	e0823003 	add	r3, r2, r3
 c00888c:	e51b202c 	ldr	r2, [fp, #-44]	; 0xffffffd4
 c008890:	e5832000 	str	r2, [r3]
	    DelayTime(100);             // Pequeo delay entre lecturas
	}
	
	// Ordenar muestras para eliminar extremos
	for (i = 0; i < 9; i++) {
	    for (j = 0; j < 9 - i; j++) {
 c008894:	e51b3024 	ldr	r3, [fp, #-36]	; 0xffffffdc
 c008898:	e2833001 	add	r3, r3, #1
 c00889c:	e50b3024 	str	r3, [fp, #-36]	; 0xffffffdc
 c0088a0:	e51b3020 	ldr	r3, [fp, #-32]	; 0xffffffe0
 c0088a4:	e2632009 	rsb	r2, r3, #9
 c0088a8:	e51b3024 	ldr	r3, [fp, #-36]	; 0xffffffdc
 c0088ac:	e1520003 	cmp	r2, r3
 c0088b0:	caffffc6 	bgt	c0087d0 <TSInt+0x304>
	    Pt[i] = (0x3ff&rADCDAT);
	    DelayTime(100);             // Pequeo delay entre lecturas
	}
	
	// Ordenar muestras para eliminar extremos
	for (i = 0; i < 9; i++) {
 c0088b4:	e51b3020 	ldr	r3, [fp, #-32]	; 0xffffffe0
 c0088b8:	e2833001 	add	r3, r3, #1
 c0088bc:	e50b3020 	str	r3, [fp, #-32]	; 0xffffffe0
 c0088c0:	e51b3020 	ldr	r3, [fp, #-32]	; 0xffffffe0
 c0088c4:	e3530008 	cmp	r3, #8
 c0088c8:	daffffbd 	ble	c0087c4 <TSInt+0x2f8>
	            Pt[j + 1] = swap;
	        }
	    }
	}
	// Promedio de las 6 muestras centrales (descartando 2 mximas y 2 mnimas)
	Pt[10] = (Pt[2] + Pt[3] + Pt[4] + Pt[5] + Pt[6] + Pt[7]) / 6;
 c0088cc:	e51b2050 	ldr	r2, [fp, #-80]	; 0xffffffb0
 c0088d0:	e51b304c 	ldr	r3, [fp, #-76]	; 0xffffffb4
 c0088d4:	e0822003 	add	r2, r2, r3
 c0088d8:	e51b3048 	ldr	r3, [fp, #-72]	; 0xffffffb8
 c0088dc:	e0822003 	add	r2, r2, r3
 c0088e0:	e51b3044 	ldr	r3, [fp, #-68]	; 0xffffffbc
 c0088e4:	e0822003 	add	r2, r2, r3
 c0088e8:	e51b3040 	ldr	r3, [fp, #-64]	; 0xffffffc0
 c0088ec:	e0822003 	add	r2, r2, r3
 c0088f0:	e51b303c 	ldr	r3, [fp, #-60]	; 0xffffffc4
 c0088f4:	e0822003 	add	r2, r2, r3
 c0088f8:	e59f316c 	ldr	r3, [pc, #364]	; c008a6c <TSInt+0x5a0>
 c0088fc:	e0830392 	umull	r0, r3, r2, r3
 c008900:	e1a03123 	lsr	r3, r3, #2
 c008904:	e50b3030 	str	r3, [fp, #-48]	; 0xffffffd0
	
	// Reportar coordenadas crudas para calibracin
	report_touch_data(tmp, Pt[10]);
 c008908:	e51b2028 	ldr	r2, [fp, #-40]	; 0xffffffd8
 c00890c:	e51b3030 	ldr	r3, [fp, #-48]	; 0xffffffd0
 c008910:	e1a00002 	mov	r0, r2
 c008914:	e1a01003 	mov	r1, r3
 c008918:	eb0002de 	bl	c009498 <report_touch_data>
     
	if(!(CheckTSP || (tmp < Xmin) || (tmp > Xmax) || (Pt[10] < Ymin) || (Pt[10] > Ymax)))   // Is valid value?
 c00891c:	e59f314c 	ldr	r3, [pc, #332]	; c008a70 <TSInt+0x5a4>
 c008920:	e5933000 	ldr	r3, [r3]
 c008924:	e3530000 	cmp	r3, #0
 c008928:	1a000039 	bne	c008a14 <TSInt+0x548>
 c00892c:	e59f3140 	ldr	r3, [pc, #320]	; c008a74 <TSInt+0x5a8>
 c008930:	e5933000 	ldr	r3, [r3]
 c008934:	e51b2028 	ldr	r2, [fp, #-40]	; 0xffffffd8
 c008938:	e1520003 	cmp	r2, r3
 c00893c:	3a000034 	bcc	c008a14 <TSInt+0x548>
 c008940:	e59f3130 	ldr	r3, [pc, #304]	; c008a78 <TSInt+0x5ac>
 c008944:	e5933000 	ldr	r3, [r3]
 c008948:	e51b2028 	ldr	r2, [fp, #-40]	; 0xffffffd8
 c00894c:	e1520003 	cmp	r2, r3
 c008950:	8a00002f 	bhi	c008a14 <TSInt+0x548>
 c008954:	e51b2030 	ldr	r2, [fp, #-48]	; 0xffffffd0
 c008958:	e59f311c 	ldr	r3, [pc, #284]	; c008a7c <TSInt+0x5b0>
 c00895c:	e5933000 	ldr	r3, [r3]
 c008960:	e1520003 	cmp	r2, r3
 c008964:	3a00002a 	bcc	c008a14 <TSInt+0x548>
 c008968:	e51b2030 	ldr	r2, [fp, #-48]	; 0xffffffd0
 c00896c:	e59f310c 	ldr	r3, [pc, #268]	; c008a80 <TSInt+0x5b4>
 c008970:	e5933000 	ldr	r3, [r3]
 c008974:	e1520003 	cmp	r2, r3
 c008978:	8a000025 	bhi	c008a14 <TSInt+0x548>
	  {
		tmp = 320*(tmp - Xmin)/(Xmax - Xmin);   // X - position
 c00897c:	e59f30f0 	ldr	r3, [pc, #240]	; c008a74 <TSInt+0x5a8>
 c008980:	e5933000 	ldr	r3, [r3]
 c008984:	e51b2028 	ldr	r2, [fp, #-40]	; 0xffffffd8
 c008988:	e0632002 	rsb	r2, r3, r2
 c00898c:	e1a03002 	mov	r3, r2
 c008990:	e1a03103 	lsl	r3, r3, #2
 c008994:	e0833002 	add	r3, r3, r2
 c008998:	e1a03303 	lsl	r3, r3, #6
 c00899c:	e1a02003 	mov	r2, r3
 c0089a0:	e59f30d0 	ldr	r3, [pc, #208]	; c008a78 <TSInt+0x5ac>
 c0089a4:	e5931000 	ldr	r1, [r3]
 c0089a8:	e59f30c4 	ldr	r3, [pc, #196]	; c008a74 <TSInt+0x5a8>
 c0089ac:	e5933000 	ldr	r3, [r3]
 c0089b0:	e0633001 	rsb	r3, r3, r1
 c0089b4:	e1a00002 	mov	r0, r2
 c0089b8:	e1a01003 	mov	r1, r3
 c0089bc:	eb000799 	bl	c00a828 <__aeabi_uidiv>
 c0089c0:	e1a03000 	mov	r3, r0
 c0089c4:	e50b3028 	str	r3, [fp, #-40]	; 0xffffffd8
//		Uart_Printf("X-Posion[AIN1] is %04d   ", tmp);
			
		Pt[10] = 240*(Pt[10] - Xmin)/(Ymax - Ymin);
 c0089c8:	e51b2030 	ldr	r2, [fp, #-48]	; 0xffffffd0
 c0089cc:	e59f30a0 	ldr	r3, [pc, #160]	; c008a74 <TSInt+0x5a8>
 c0089d0:	e5933000 	ldr	r3, [r3]
 c0089d4:	e0632002 	rsb	r2, r3, r2
 c0089d8:	e1a03002 	mov	r3, r2
 c0089dc:	e1a03203 	lsl	r3, r3, #4
 c0089e0:	e0623003 	rsb	r3, r2, r3
 c0089e4:	e1a03203 	lsl	r3, r3, #4
 c0089e8:	e1a02003 	mov	r2, r3
 c0089ec:	e59f308c 	ldr	r3, [pc, #140]	; c008a80 <TSInt+0x5b4>
 c0089f0:	e5931000 	ldr	r1, [r3]
 c0089f4:	e59f3080 	ldr	r3, [pc, #128]	; c008a7c <TSInt+0x5b0>
 c0089f8:	e5933000 	ldr	r3, [r3]
 c0089fc:	e0633001 	rsb	r3, r3, r1
 c008a00:	e1a00002 	mov	r0, r2
 c008a04:	e1a01003 	mov	r1, r3
 c008a08:	eb000786 	bl	c00a828 <__aeabi_uidiv>
 c008a0c:	e1a03000 	mov	r3, r0
 c008a10:	e50b3030 	str	r3, [fp, #-48]	; 0xffffffd0
//		Uart_Printf("  Y-Posion[AIN0] is %04d\n", Pt[10]);
      }

    if(CheckTSP)
 c008a14:	e59f3054 	ldr	r3, [pc, #84]	; c008a70 <TSInt+0x5a4>
 c008a18:	e5933000 	ldr	r3, [r3]
 c008a1c:	e3530000 	cmp	r3, #0
 c008a20:	0a000003 	beq	c008a34 <TSInt+0x568>
 	/*----------- check to ensure Xmax Ymax Xmin Ymin ------------*/
 	    DesignREC(tmp,Pt[5]);
 c008a24:	e51b3044 	ldr	r3, [fp, #-68]	; 0xffffffbc
 c008a28:	e51b0028 	ldr	r0, [fp, #-40]	; 0xffffffd8
 c008a2c:	e1a01003 	mov	r1, r3
 c008a30:	eb00013e 	bl	c008f30 <DesignREC>

	rPDATE = 0xb8;                  // should be enabled	
 c008a34:	e59f3028 	ldr	r3, [pc, #40]	; c008a64 <TSInt+0x598>
 c008a38:	e3a020b8 	mov	r2, #184	; 0xb8
 c008a3c:	e5832000 	str	r2, [r3]
	DelayTime(3000);                // delay to set up the next channel	
 c008a40:	e59f003c 	ldr	r0, [pc, #60]	; c008a84 <TSInt+0x5b8>
 c008a44:	ebffdf97 	bl	c0008a8 <DelayTime>

    rI_ISPC = BIT_EINT2;            // clear pending_bit
 c008a48:	e59f3038 	ldr	r3, [pc, #56]	; c008a88 <TSInt+0x5bc>
 c008a4c:	e3a02502 	mov	r2, #8388608	; 0x800000
 c008a50:	e5832000 	str	r2, [r3]
}
 c008a54:	e24bd01c 	sub	sp, fp, #28
 c008a58:	e89d680f 	ldm	sp, {r0, r1, r2, r3, fp, sp, lr}
 c008a5c:	e49dc004 	pop	{ip}		; (ldr ip, [sp], #4)
 c008a60:	e25ef004 	subs	pc, lr, #4
 c008a64:	01d2002c 	.word	0x01d2002c
 c008a68:	01d40008 	.word	0x01d40008
 c008a6c:	aaaaaaab 	.word	0xaaaaaaab
 c008a70:	0c00f008 	.word	0x0c00f008
 c008a74:	0c00f004 	.word	0x0c00f004
 c008a78:	0c00efec 	.word	0x0c00efec
 c008a7c:	0c00efe8 	.word	0x0c00efe8
 c008a80:	0c00eff8 	.word	0x0c00eff8
 c008a84:	00000bb8 	.word	0x00000bb8
 c008a88:	01e00024 	.word	0x01e00024

0c008a8c <TS_init>:
* ret:		none
* modify:
* comment:		
*********************************************************************************************/
void TS_init(void)
{
 c008a8c:	e1a0c00d 	mov	ip, sp
 c008a90:	e92dd800 	push	{fp, ip, lr, pc}
 c008a94:	e24cb004 	sub	fp, ip, #4
    /* enable interrupt */
	rINTMOD=0x0;
 c008a98:	e59f30a8 	ldr	r3, [pc, #168]	; c008b48 <TS_init+0xbc>
 c008a9c:	e3a02000 	mov	r2, #0
 c008aa0:	e5832000 	str	r2, [r3]
	rINTCON=0x1;
 c008aa4:	e3a0361e 	mov	r3, #31457280	; 0x1e00000
 c008aa8:	e3a02001 	mov	r2, #1
 c008aac:	e5832000 	str	r2, [r3]
    rI_ISPC |= BIT_EINT2;            // clear pending_bit
 c008ab0:	e59f3094 	ldr	r3, [pc, #148]	; c008b4c <TS_init+0xc0>
 c008ab4:	e59f2090 	ldr	r2, [pc, #144]	; c008b4c <TS_init+0xc0>
 c008ab8:	e5922000 	ldr	r2, [r2]
 c008abc:	e3822502 	orr	r2, r2, #8388608	; 0x800000
 c008ac0:	e5832000 	str	r2, [r3]
	
	// TSPX(GPE4_Q4(-)) TSPY(GPE5_Q3(-)) TSMY(GPE6_Q2(-)) TSMX(GPE7_Q1(+)) 
	//          1               1                0                 1
    rPUPE  = 0x0;	                 // Pull up
 c008ac4:	e59f3084 	ldr	r3, [pc, #132]	; c008b50 <TS_init+0xc4>
 c008ac8:	e3a02000 	mov	r2, #0
 c008acc:	e5832000 	str	r2, [r3]
    rPDATE = 0xb8;                   // should be enabled	
 c008ad0:	e59f307c 	ldr	r3, [pc, #124]	; c008b54 <TS_init+0xc8>
 c008ad4:	e3a020b8 	mov	r2, #184	; 0xb8
 c008ad8:	e5832000 	str	r2, [r3]
    DelayTime(100); 
 c008adc:	e3a00064 	mov	r0, #100	; 0x64
 c008ae0:	ebffdf70 	bl	c0008a8 <DelayTime>
    
    rEXTINT |= 0x200;                // falling edge trigger
 c008ae4:	e59f306c 	ldr	r3, [pc, #108]	; c008b58 <TS_init+0xcc>
 c008ae8:	e59f2068 	ldr	r2, [pc, #104]	; c008b58 <TS_init+0xcc>
 c008aec:	e5922000 	ldr	r2, [r2]
 c008af0:	e3822c02 	orr	r2, r2, #512	; 0x200
 c008af4:	e5832000 	str	r2, [r3]
    pISR_EINT2=(unsigned)TSInt;       // set interrupt handler
 c008af8:	e59f305c 	ldr	r3, [pc, #92]	; c008b5c <TS_init+0xd0>
 c008afc:	e59f205c 	ldr	r2, [pc, #92]	; c008b60 <TS_init+0xd4>
 c008b00:	e5832000 	str	r2, [r3]
    
    rCLKCON = 0x7ff8;                // enable clock
 c008b04:	e59f3058 	ldr	r3, [pc, #88]	; c008b64 <TS_init+0xd8>
 c008b08:	e59f2058 	ldr	r2, [pc, #88]	; c008b68 <TS_init+0xdc>
 c008b0c:	e5832000 	str	r2, [r3]
    rADCPSR = 0x1;//0x4;             // A/D prescaler
 c008b10:	e59f3054 	ldr	r3, [pc, #84]	; c008b6c <TS_init+0xe0>
 c008b14:	e3a02001 	mov	r2, #1
 c008b18:	e5832000 	str	r2, [r3]
    rINTMSK &= ~(BIT_EINT2);
 c008b1c:	e59f304c 	ldr	r3, [pc, #76]	; c008b70 <TS_init+0xe4>
 c008b20:	e59f2048 	ldr	r2, [pc, #72]	; c008b70 <TS_init+0xe4>
 c008b24:	e5922000 	ldr	r2, [r2]
 c008b28:	e3c22502 	bic	r2, r2, #8388608	; 0x800000
 c008b2c:	e5832000 	str	r2, [r3]

    oneTouch = 0;
 c008b30:	e59f303c 	ldr	r3, [pc, #60]	; c008b74 <TS_init+0xe8>
 c008b34:	e3a02000 	mov	r2, #0
 c008b38:	e5832000 	str	r2, [r3]
}
 c008b3c:	e24bd00c 	sub	sp, fp, #12
 c008b40:	e89d6800 	ldm	sp, {fp, sp, lr}
 c008b44:	e12fff1e 	bx	lr
 c008b48:	01e00008 	.word	0x01e00008
 c008b4c:	01e00024 	.word	0x01e00024
 c008b50:	01d20030 	.word	0x01d20030
 c008b54:	01d2002c 	.word	0x01d2002c
 c008b58:	01d20050 	.word	0x01d20050
 c008b5c:	0c7fff7c 	.word	0x0c7fff7c
 c008b60:	0c0084cc 	.word	0x0c0084cc
 c008b64:	01d80004 	.word	0x01d80004
 c008b68:	00007ff8 	.word	0x00007ff8
 c008b6c:	01d40004 	.word	0x01d40004
 c008b70:	01e0000c 	.word	0x01e0000c
 c008b74:	0c00effc 	.word	0x0c00effc

0c008b78 <TS_close>:
* ret:		none
* modify:
* comment:		
*********************************************************************************************/
void TS_close(void)
{
 c008b78:	e1a0c00d 	mov	ip, sp
 c008b7c:	e92dd800 	push	{fp, ip, lr, pc}
 c008b80:	e24cb004 	sub	fp, ip, #4
	/* Mask interrupt */
	rINTMSK |=BIT_GLOBAL|BIT_EINT2;
 c008b84:	e59f3024 	ldr	r3, [pc, #36]	; c008bb0 <TS_close+0x38>
 c008b88:	e59f2020 	ldr	r2, [pc, #32]	; c008bb0 <TS_close+0x38>
 c008b8c:	e5922000 	ldr	r2, [r2]
 c008b90:	e3822512 	orr	r2, r2, #75497472	; 0x4800000
 c008b94:	e5832000 	str	r2, [r3]
	pISR_EINT2 = (int)NULL;
 c008b98:	e59f3014 	ldr	r3, [pc, #20]	; c008bb4 <TS_close+0x3c>
 c008b9c:	e3a02000 	mov	r2, #0
 c008ba0:	e5832000 	str	r2, [r3]
}
 c008ba4:	e24bd00c 	sub	sp, fp, #12
 c008ba8:	e89d6800 	ldm	sp, {fp, sp, lr}
 c008bac:	e12fff1e 	bx	lr
 c008bb0:	01e0000c 	.word	0x01e0000c
 c008bb4:	0c7fff7c 	.word	0x0c7fff7c

0c008bb8 <Lcd_TC>:

void Lcd_TC(void)
{
 c008bb8:	e1a0c00d 	mov	ip, sp
 c008bbc:	e92dd800 	push	{fp, ip, lr, pc}
 c008bc0:	e24cb004 	sub	fp, ip, #4
 c008bc4:	e24dd008 	sub	sp, sp, #8
	/* initial LCD controller */
	Lcd_Init();
 c008bc8:	ebffe943 	bl	c0030dc <Lcd_Init>
	/* clear screen */
	Lcd_Clr();
 c008bcc:	ebffe9f5 	bl	c0033a8 <Lcd_Clr>
	Lcd_Active_Clr();
 c008bd0:	ebffe9a6 	bl	c003270 <Lcd_Active_Clr>
	/* draw rectangle pattern */ 
	Lcd_Draw_Box(0,0,80,60,15);
 c008bd4:	e3a0300f 	mov	r3, #15
 c008bd8:	e58d3000 	str	r3, [sp]
 c008bdc:	e3a00000 	mov	r0, #0
 c008be0:	e3a01000 	mov	r1, #0
 c008be4:	e3a02050 	mov	r2, #80	; 0x50
 c008be8:	e3a0303c 	mov	r3, #60	; 0x3c
 c008bec:	ebffeb9c 	bl	c003a64 <Lcd_Draw_Box>
	Lcd_Draw_Box(80,0,160,60,15);
 c008bf0:	e3a0300f 	mov	r3, #15
 c008bf4:	e58d3000 	str	r3, [sp]
 c008bf8:	e3a00050 	mov	r0, #80	; 0x50
 c008bfc:	e3a01000 	mov	r1, #0
 c008c00:	e3a020a0 	mov	r2, #160	; 0xa0
 c008c04:	e3a0303c 	mov	r3, #60	; 0x3c
 c008c08:	ebffeb95 	bl	c003a64 <Lcd_Draw_Box>
	Lcd_Draw_Box(160,0,240,60,15);
 c008c0c:	e3a0300f 	mov	r3, #15
 c008c10:	e58d3000 	str	r3, [sp]
 c008c14:	e3a000a0 	mov	r0, #160	; 0xa0
 c008c18:	e3a01000 	mov	r1, #0
 c008c1c:	e3a020f0 	mov	r2, #240	; 0xf0
 c008c20:	e3a0303c 	mov	r3, #60	; 0x3c
 c008c24:	ebffeb8e 	bl	c003a64 <Lcd_Draw_Box>
	Lcd_Draw_Box(240,0,320,60,15);
 c008c28:	e3a0300f 	mov	r3, #15
 c008c2c:	e58d3000 	str	r3, [sp]
 c008c30:	e3a000f0 	mov	r0, #240	; 0xf0
 c008c34:	e3a01000 	mov	r1, #0
 c008c38:	e3a02d05 	mov	r2, #320	; 0x140
 c008c3c:	e3a0303c 	mov	r3, #60	; 0x3c
 c008c40:	ebffeb87 	bl	c003a64 <Lcd_Draw_Box>
	Lcd_Draw_Box(0,60,80,120,15);
 c008c44:	e3a0300f 	mov	r3, #15
 c008c48:	e58d3000 	str	r3, [sp]
 c008c4c:	e3a00000 	mov	r0, #0
 c008c50:	e3a0103c 	mov	r1, #60	; 0x3c
 c008c54:	e3a02050 	mov	r2, #80	; 0x50
 c008c58:	e3a03078 	mov	r3, #120	; 0x78
 c008c5c:	ebffeb80 	bl	c003a64 <Lcd_Draw_Box>
	Lcd_Draw_Box(80,60,160,120,15);
 c008c60:	e3a0300f 	mov	r3, #15
 c008c64:	e58d3000 	str	r3, [sp]
 c008c68:	e3a00050 	mov	r0, #80	; 0x50
 c008c6c:	e3a0103c 	mov	r1, #60	; 0x3c
 c008c70:	e3a020a0 	mov	r2, #160	; 0xa0
 c008c74:	e3a03078 	mov	r3, #120	; 0x78
 c008c78:	ebffeb79 	bl	c003a64 <Lcd_Draw_Box>
	Lcd_Draw_Box(160,60,240,120,15);
 c008c7c:	e3a0300f 	mov	r3, #15
 c008c80:	e58d3000 	str	r3, [sp]
 c008c84:	e3a000a0 	mov	r0, #160	; 0xa0
 c008c88:	e3a0103c 	mov	r1, #60	; 0x3c
 c008c8c:	e3a020f0 	mov	r2, #240	; 0xf0
 c008c90:	e3a03078 	mov	r3, #120	; 0x78
 c008c94:	ebffeb72 	bl	c003a64 <Lcd_Draw_Box>
	Lcd_Draw_Box(240,60,320,120,15);
 c008c98:	e3a0300f 	mov	r3, #15
 c008c9c:	e58d3000 	str	r3, [sp]
 c008ca0:	e3a000f0 	mov	r0, #240	; 0xf0
 c008ca4:	e3a0103c 	mov	r1, #60	; 0x3c
 c008ca8:	e3a02d05 	mov	r2, #320	; 0x140
 c008cac:	e3a03078 	mov	r3, #120	; 0x78
 c008cb0:	ebffeb6b 	bl	c003a64 <Lcd_Draw_Box>
	Lcd_Draw_Box(0,120,80,180,15);
 c008cb4:	e3a0300f 	mov	r3, #15
 c008cb8:	e58d3000 	str	r3, [sp]
 c008cbc:	e3a00000 	mov	r0, #0
 c008cc0:	e3a01078 	mov	r1, #120	; 0x78
 c008cc4:	e3a02050 	mov	r2, #80	; 0x50
 c008cc8:	e3a030b4 	mov	r3, #180	; 0xb4
 c008ccc:	ebffeb64 	bl	c003a64 <Lcd_Draw_Box>
	Lcd_Draw_Box(80,120,160,180,15);
 c008cd0:	e3a0300f 	mov	r3, #15
 c008cd4:	e58d3000 	str	r3, [sp]
 c008cd8:	e3a00050 	mov	r0, #80	; 0x50
 c008cdc:	e3a01078 	mov	r1, #120	; 0x78
 c008ce0:	e3a020a0 	mov	r2, #160	; 0xa0
 c008ce4:	e3a030b4 	mov	r3, #180	; 0xb4
 c008ce8:	ebffeb5d 	bl	c003a64 <Lcd_Draw_Box>
	Lcd_Draw_Box(160,120,240,180,15);
 c008cec:	e3a0300f 	mov	r3, #15
 c008cf0:	e58d3000 	str	r3, [sp]
 c008cf4:	e3a000a0 	mov	r0, #160	; 0xa0
 c008cf8:	e3a01078 	mov	r1, #120	; 0x78
 c008cfc:	e3a020f0 	mov	r2, #240	; 0xf0
 c008d00:	e3a030b4 	mov	r3, #180	; 0xb4
 c008d04:	ebffeb56 	bl	c003a64 <Lcd_Draw_Box>
	Lcd_Draw_Box(240,120,320,180,15);
 c008d08:	e3a0300f 	mov	r3, #15
 c008d0c:	e58d3000 	str	r3, [sp]
 c008d10:	e3a000f0 	mov	r0, #240	; 0xf0
 c008d14:	e3a01078 	mov	r1, #120	; 0x78
 c008d18:	e3a02d05 	mov	r2, #320	; 0x140
 c008d1c:	e3a030b4 	mov	r3, #180	; 0xb4
 c008d20:	ebffeb4f 	bl	c003a64 <Lcd_Draw_Box>
	Lcd_Draw_Box(0,180,80,240,15);
 c008d24:	e3a0300f 	mov	r3, #15
 c008d28:	e58d3000 	str	r3, [sp]
 c008d2c:	e3a00000 	mov	r0, #0
 c008d30:	e3a010b4 	mov	r1, #180	; 0xb4
 c008d34:	e3a02050 	mov	r2, #80	; 0x50
 c008d38:	e3a030f0 	mov	r3, #240	; 0xf0
 c008d3c:	ebffeb48 	bl	c003a64 <Lcd_Draw_Box>
	Lcd_Draw_Box(80,180,160,240,15);
 c008d40:	e3a0300f 	mov	r3, #15
 c008d44:	e58d3000 	str	r3, [sp]
 c008d48:	e3a00050 	mov	r0, #80	; 0x50
 c008d4c:	e3a010b4 	mov	r1, #180	; 0xb4
 c008d50:	e3a020a0 	mov	r2, #160	; 0xa0
 c008d54:	e3a030f0 	mov	r3, #240	; 0xf0
 c008d58:	ebffeb41 	bl	c003a64 <Lcd_Draw_Box>
	Lcd_Draw_Box(160,180,240,240,15);
 c008d5c:	e3a0300f 	mov	r3, #15
 c008d60:	e58d3000 	str	r3, [sp]
 c008d64:	e3a000a0 	mov	r0, #160	; 0xa0
 c008d68:	e3a010b4 	mov	r1, #180	; 0xb4
 c008d6c:	e3a020f0 	mov	r2, #240	; 0xf0
 c008d70:	e3a030f0 	mov	r3, #240	; 0xf0
 c008d74:	ebffeb3a 	bl	c003a64 <Lcd_Draw_Box>
	Lcd_Draw_Box(240,180,320,240,15);
 c008d78:	e3a0300f 	mov	r3, #15
 c008d7c:	e58d3000 	str	r3, [sp]
 c008d80:	e3a000f0 	mov	r0, #240	; 0xf0
 c008d84:	e3a010b4 	mov	r1, #180	; 0xb4
 c008d88:	e3a02d05 	mov	r2, #320	; 0x140
 c008d8c:	e3a030f0 	mov	r3, #240	; 0xf0
 c008d90:	ebffeb33 	bl	c003a64 <Lcd_Draw_Box>
	/* output ASCII symbol */
	Lcd_DspAscII6x8(37,26,BLACK,(INT8U*)"0");
 c008d94:	e3a00025 	mov	r0, #37	; 0x25
 c008d98:	e3a0101a 	mov	r1, #26
 c008d9c:	e3a0200f 	mov	r2, #15
 c008da0:	e59f3144 	ldr	r3, [pc, #324]	; c008eec <Lcd_TC+0x334>
 c008da4:	ebffef8b 	bl	c004bd8 <Lcd_DspAscII6x8>
	Lcd_DspAscII6x8(117,26,BLACK,(INT8U*)"1");
 c008da8:	e3a00075 	mov	r0, #117	; 0x75
 c008dac:	e3a0101a 	mov	r1, #26
 c008db0:	e3a0200f 	mov	r2, #15
 c008db4:	e59f3134 	ldr	r3, [pc, #308]	; c008ef0 <Lcd_TC+0x338>
 c008db8:	ebffef86 	bl	c004bd8 <Lcd_DspAscII6x8>
	Lcd_DspAscII6x8(197,26,BLACK,(INT8U*)"2");
 c008dbc:	e3a000c5 	mov	r0, #197	; 0xc5
 c008dc0:	e3a0101a 	mov	r1, #26
 c008dc4:	e3a0200f 	mov	r2, #15
 c008dc8:	e59f3124 	ldr	r3, [pc, #292]	; c008ef4 <Lcd_TC+0x33c>
 c008dcc:	ebffef81 	bl	c004bd8 <Lcd_DspAscII6x8>
	Lcd_DspAscII6x8(277,26,BLACK,(INT8U*)"3");
 c008dd0:	e59f0120 	ldr	r0, [pc, #288]	; c008ef8 <Lcd_TC+0x340>
 c008dd4:	e3a0101a 	mov	r1, #26
 c008dd8:	e3a0200f 	mov	r2, #15
 c008ddc:	e59f3118 	ldr	r3, [pc, #280]	; c008efc <Lcd_TC+0x344>
 c008de0:	ebffef7c 	bl	c004bd8 <Lcd_DspAscII6x8>
	Lcd_DspAscII6x8(37,86,BLACK,(INT8U*)"4");
 c008de4:	e3a00025 	mov	r0, #37	; 0x25
 c008de8:	e3a01056 	mov	r1, #86	; 0x56
 c008dec:	e3a0200f 	mov	r2, #15
 c008df0:	e59f3108 	ldr	r3, [pc, #264]	; c008f00 <Lcd_TC+0x348>
 c008df4:	ebffef77 	bl	c004bd8 <Lcd_DspAscII6x8>
	Lcd_DspAscII6x8(117,86,BLACK,(INT8U*)"5");
 c008df8:	e3a00075 	mov	r0, #117	; 0x75
 c008dfc:	e3a01056 	mov	r1, #86	; 0x56
 c008e00:	e3a0200f 	mov	r2, #15
 c008e04:	e59f30f8 	ldr	r3, [pc, #248]	; c008f04 <Lcd_TC+0x34c>
 c008e08:	ebffef72 	bl	c004bd8 <Lcd_DspAscII6x8>
	Lcd_DspAscII6x8(197,86,BLACK,(INT8U*)"6");
 c008e0c:	e3a000c5 	mov	r0, #197	; 0xc5
 c008e10:	e3a01056 	mov	r1, #86	; 0x56
 c008e14:	e3a0200f 	mov	r2, #15
 c008e18:	e59f30e8 	ldr	r3, [pc, #232]	; c008f08 <Lcd_TC+0x350>
 c008e1c:	ebffef6d 	bl	c004bd8 <Lcd_DspAscII6x8>
	Lcd_DspAscII6x8(277,86,BLACK,(INT8U*)"7");
 c008e20:	e59f00d0 	ldr	r0, [pc, #208]	; c008ef8 <Lcd_TC+0x340>
 c008e24:	e3a01056 	mov	r1, #86	; 0x56
 c008e28:	e3a0200f 	mov	r2, #15
 c008e2c:	e59f30d8 	ldr	r3, [pc, #216]	; c008f0c <Lcd_TC+0x354>
 c008e30:	ebffef68 	bl	c004bd8 <Lcd_DspAscII6x8>
	Lcd_DspAscII6x8(37,146,BLACK,(INT8U*)"8");
 c008e34:	e3a00025 	mov	r0, #37	; 0x25
 c008e38:	e3a01092 	mov	r1, #146	; 0x92
 c008e3c:	e3a0200f 	mov	r2, #15
 c008e40:	e59f30c8 	ldr	r3, [pc, #200]	; c008f10 <Lcd_TC+0x358>
 c008e44:	ebffef63 	bl	c004bd8 <Lcd_DspAscII6x8>
	Lcd_DspAscII6x8(117,146,BLACK,(INT8U*)"9");
 c008e48:	e3a00075 	mov	r0, #117	; 0x75
 c008e4c:	e3a01092 	mov	r1, #146	; 0x92
 c008e50:	e3a0200f 	mov	r2, #15
 c008e54:	e59f30b8 	ldr	r3, [pc, #184]	; c008f14 <Lcd_TC+0x35c>
 c008e58:	ebffef5e 	bl	c004bd8 <Lcd_DspAscII6x8>
	Lcd_DspAscII6x8(197,146,BLACK,(INT8U*)"A");
 c008e5c:	e3a000c5 	mov	r0, #197	; 0xc5
 c008e60:	e3a01092 	mov	r1, #146	; 0x92
 c008e64:	e3a0200f 	mov	r2, #15
 c008e68:	e59f30a8 	ldr	r3, [pc, #168]	; c008f18 <Lcd_TC+0x360>
 c008e6c:	ebffef59 	bl	c004bd8 <Lcd_DspAscII6x8>
	Lcd_DspAscII6x8(277,146,BLACK,(INT8U*)"B");
 c008e70:	e59f0080 	ldr	r0, [pc, #128]	; c008ef8 <Lcd_TC+0x340>
 c008e74:	e3a01092 	mov	r1, #146	; 0x92
 c008e78:	e3a0200f 	mov	r2, #15
 c008e7c:	e59f3098 	ldr	r3, [pc, #152]	; c008f1c <Lcd_TC+0x364>
 c008e80:	ebffef54 	bl	c004bd8 <Lcd_DspAscII6x8>
	Lcd_DspAscII6x8(37,206,BLACK,(INT8U*)"C");
 c008e84:	e3a00025 	mov	r0, #37	; 0x25
 c008e88:	e3a010ce 	mov	r1, #206	; 0xce
 c008e8c:	e3a0200f 	mov	r2, #15
 c008e90:	e59f3088 	ldr	r3, [pc, #136]	; c008f20 <Lcd_TC+0x368>
 c008e94:	ebffef4f 	bl	c004bd8 <Lcd_DspAscII6x8>
	Lcd_DspAscII6x8(117,206,BLACK,(INT8U*)"D");
 c008e98:	e3a00075 	mov	r0, #117	; 0x75
 c008e9c:	e3a010ce 	mov	r1, #206	; 0xce
 c008ea0:	e3a0200f 	mov	r2, #15
 c008ea4:	e59f3078 	ldr	r3, [pc, #120]	; c008f24 <Lcd_TC+0x36c>
 c008ea8:	ebffef4a 	bl	c004bd8 <Lcd_DspAscII6x8>
	Lcd_DspAscII6x8(197,206,BLACK,(INT8U*)"E");
 c008eac:	e3a000c5 	mov	r0, #197	; 0xc5
 c008eb0:	e3a010ce 	mov	r1, #206	; 0xce
 c008eb4:	e3a0200f 	mov	r2, #15
 c008eb8:	e59f3068 	ldr	r3, [pc, #104]	; c008f28 <Lcd_TC+0x370>
 c008ebc:	ebffef45 	bl	c004bd8 <Lcd_DspAscII6x8>
	Lcd_DspAscII6x8(277,206,BLACK,(INT8U*)"F");
 c008ec0:	e59f0030 	ldr	r0, [pc, #48]	; c008ef8 <Lcd_TC+0x340>
 c008ec4:	e3a010ce 	mov	r1, #206	; 0xce
 c008ec8:	e3a0200f 	mov	r2, #15
 c008ecc:	e59f3058 	ldr	r3, [pc, #88]	; c008f2c <Lcd_TC+0x374>
 c008ed0:	ebffef40 	bl	c004bd8 <Lcd_DspAscII6x8>
	Lcd_Dma_Trans();
 c008ed4:	ebffeffd 	bl	c004ed0 <Lcd_Dma_Trans>
	Delay(100);
 c008ed8:	e3a00064 	mov	r0, #100	; 0x64
 c008edc:	ebffde0a 	bl	c00070c <Delay>
}
 c008ee0:	e24bd00c 	sub	sp, fp, #12
 c008ee4:	e89d6800 	ldm	sp, {fp, sp, lr}
 c008ee8:	e12fff1e 	bx	lr
 c008eec:	0c00ed20 	.word	0x0c00ed20
 c008ef0:	0c00ed24 	.word	0x0c00ed24
 c008ef4:	0c00ed28 	.word	0x0c00ed28
 c008ef8:	00000115 	.word	0x00000115
 c008efc:	0c00ed2c 	.word	0x0c00ed2c
 c008f00:	0c00ed30 	.word	0x0c00ed30
 c008f04:	0c00ed34 	.word	0x0c00ed34
 c008f08:	0c00ed38 	.word	0x0c00ed38
 c008f0c:	0c00ed3c 	.word	0x0c00ed3c
 c008f10:	0c00ed40 	.word	0x0c00ed40
 c008f14:	0c00ed44 	.word	0x0c00ed44
 c008f18:	0c00ed48 	.word	0x0c00ed48
 c008f1c:	0c00ed4c 	.word	0x0c00ed4c
 c008f20:	0c00ed50 	.word	0x0c00ed50
 c008f24:	0c00ed54 	.word	0x0c00ed54
 c008f28:	0c00ed58 	.word	0x0c00ed58
 c008f2c:	0c00ed5c 	.word	0x0c00ed5c

0c008f30 <DesignREC>:
* ret:		none
* modify:
* comment:		
*********************************************************************************************/
void DesignREC(ULONG tx, ULONG ty)
{
 c008f30:	e1a0c00d 	mov	ip, sp
 c008f34:	e92dd800 	push	{fp, ip, lr, pc}
 c008f38:	e24cb004 	sub	fp, ip, #4
 c008f3c:	e24dd010 	sub	sp, sp, #16
 c008f40:	e50b0018 	str	r0, [fp, #-24]	; 0xffffffe8
 c008f44:	e50b101c 	str	r1, [fp, #-28]	; 0xffffffe4
    int tm;
    
//  Uart_Printf("\n\r User touch coordinate(X,Y) is :");
//	Uart_Printf("(%04d",tx);	
//	Uart_Printf(",%04d)\n",ty);    
    if(oneTouch == 0)
 c008f48:	e59f30f4 	ldr	r3, [pc, #244]	; c009044 <DesignREC+0x114>
 c008f4c:	e5933000 	ldr	r3, [r3]
 c008f50:	e3530000 	cmp	r3, #0
 c008f54:	1a000009 	bne	c008f80 <DesignREC+0x50>
     {
       Vx = tx;                   // Vx as Xmax
 c008f58:	e59f30e8 	ldr	r3, [pc, #232]	; c009048 <DesignREC+0x118>
 c008f5c:	e51b2018 	ldr	r2, [fp, #-24]	; 0xffffffe8
 c008f60:	e5832000 	str	r2, [r3]
       Vy = ty;                   // Vy as Ymax
 c008f64:	e59f30e0 	ldr	r3, [pc, #224]	; c00904c <DesignREC+0x11c>
 c008f68:	e51b201c 	ldr	r2, [fp, #-28]	; 0xffffffe4
 c008f6c:	e5832000 	str	r2, [r3]
       oneTouch = 1;       		           
 c008f70:	e59f30cc 	ldr	r3, [pc, #204]	; c009044 <DesignREC+0x114>
 c008f74:	e3a02001 	mov	r2, #1
 c008f78:	e5832000 	str	r2, [r3]
 c008f7c:	ea00002d 	b	c009038 <DesignREC+0x108>
    }else{
    
    if(Vx < tx )
 c008f80:	e59f30c0 	ldr	r3, [pc, #192]	; c009048 <DesignREC+0x118>
 c008f84:	e5932000 	ldr	r2, [r3]
 c008f88:	e51b3018 	ldr	r3, [fp, #-24]	; 0xffffffe8
 c008f8c:	e1520003 	cmp	r2, r3
 c008f90:	2a000007 	bcs	c008fb4 <DesignREC+0x84>
     {
       tm = tx; tx = Vx; Vx = tm; // tx as Xmin
 c008f94:	e51b3018 	ldr	r3, [fp, #-24]	; 0xffffffe8
 c008f98:	e50b3010 	str	r3, [fp, #-16]
 c008f9c:	e59f30a4 	ldr	r3, [pc, #164]	; c009048 <DesignREC+0x118>
 c008fa0:	e5933000 	ldr	r3, [r3]
 c008fa4:	e50b3018 	str	r3, [fp, #-24]	; 0xffffffe8
 c008fa8:	e51b2010 	ldr	r2, [fp, #-16]
 c008fac:	e59f3094 	ldr	r3, [pc, #148]	; c009048 <DesignREC+0x118>
 c008fb0:	e5832000 	str	r2, [r3]
     }
    if(Vy < ty )
 c008fb4:	e59f3090 	ldr	r3, [pc, #144]	; c00904c <DesignREC+0x11c>
 c008fb8:	e5932000 	ldr	r2, [r3]
 c008fbc:	e51b301c 	ldr	r3, [fp, #-28]	; 0xffffffe4
 c008fc0:	e1520003 	cmp	r2, r3
 c008fc4:	2a000007 	bcs	c008fe8 <DesignREC+0xb8>
     { 
       tm = ty; ty = Vy; Vy = tm; // ty as Ymin
 c008fc8:	e51b301c 	ldr	r3, [fp, #-28]	; 0xffffffe4
 c008fcc:	e50b3010 	str	r3, [fp, #-16]
 c008fd0:	e59f3074 	ldr	r3, [pc, #116]	; c00904c <DesignREC+0x11c>
 c008fd4:	e5933000 	ldr	r3, [r3]
 c008fd8:	e50b301c 	str	r3, [fp, #-28]	; 0xffffffe4
 c008fdc:	e51b2010 	ldr	r2, [fp, #-16]
 c008fe0:	e59f3064 	ldr	r3, [pc, #100]	; c00904c <DesignREC+0x11c>
 c008fe4:	e5832000 	str	r2, [r3]
     }
     
    Xmax = Vx;    Xmin = tx;
 c008fe8:	e59f3058 	ldr	r3, [pc, #88]	; c009048 <DesignREC+0x118>
 c008fec:	e5932000 	ldr	r2, [r3]
 c008ff0:	e59f3058 	ldr	r3, [pc, #88]	; c009050 <DesignREC+0x120>
 c008ff4:	e5832000 	str	r2, [r3]
 c008ff8:	e59f3054 	ldr	r3, [pc, #84]	; c009054 <DesignREC+0x124>
 c008ffc:	e51b2018 	ldr	r2, [fp, #-24]	; 0xffffffe8
 c009000:	e5832000 	str	r2, [r3]
    Ymax = Vy;    Ymin = ty;
 c009004:	e59f3040 	ldr	r3, [pc, #64]	; c00904c <DesignREC+0x11c>
 c009008:	e5932000 	ldr	r2, [r3]
 c00900c:	e59f3044 	ldr	r3, [pc, #68]	; c009058 <DesignREC+0x128>
 c009010:	e5832000 	str	r2, [r3]
 c009014:	e59f3040 	ldr	r3, [pc, #64]	; c00905c <DesignREC+0x12c>
 c009018:	e51b201c 	ldr	r2, [fp, #-28]	; 0xffffffe4
 c00901c:	e5832000 	str	r2, [r3]
    
    oneTouch = 0;
 c009020:	e59f301c 	ldr	r3, [pc, #28]	; c009044 <DesignREC+0x114>
 c009024:	e3a02000 	mov	r2, #0
 c009028:	e5832000 	str	r2, [r3]
	CheckTSP = 0;// has checked
 c00902c:	e59f302c 	ldr	r3, [pc, #44]	; c009060 <DesignREC+0x130>
 c009030:	e3a02000 	mov	r2, #0
 c009034:	e5832000 	str	r2, [r3]
	
	}// end if(oneTouch == 0)

}
 c009038:	e24bd00c 	sub	sp, fp, #12
 c00903c:	e89d6800 	ldm	sp, {fp, sp, lr}
 c009040:	e12fff1e 	bx	lr
 c009044:	0c00effc 	.word	0x0c00effc
 c009048:	0c00eff4 	.word	0x0c00eff4
 c00904c:	0c00f000 	.word	0x0c00f000
 c009050:	0c00efec 	.word	0x0c00efec
 c009054:	0c00f004 	.word	0x0c00f004
 c009058:	0c00eff8 	.word	0x0c00eff8
 c00905c:	0c00efe8 	.word	0x0c00efe8
 c009060:	0c00f008 	.word	0x0c00f008

0c009064 <Check_Sel>:

void Check_Sel(void)
{
 c009064:	e1a0c00d 	mov	ip, sp
 c009068:	e92dd800 	push	{fp, ip, lr, pc}
 c00906c:	e24cb004 	sub	fp, ip, #4
 c009070:	e24dd008 	sub	sp, sp, #8
	char yn;
    
	do{
	  
	  rINTMSK |=BIT_GLOBAL|BIT_EINT2;
 c009074:	e59f30cc 	ldr	r3, [pc, #204]	; c009148 <Check_Sel+0xe4>
 c009078:	e59f20c8 	ldr	r2, [pc, #200]	; c009148 <Check_Sel+0xe4>
 c00907c:	e5922000 	ldr	r2, [r2]
 c009080:	e3822512 	orr	r2, r2, #75497472	; 0x4800000
 c009084:	e5832000 	str	r2, [r3]
//    Uart_Printf("   (Xmin,Ymin) is :(%04d,%04d)\n",Xmin,Ymin);	
//	  Uart_Printf("   (Xmax,Ymax) is :(%04d,%04d)\n",Xmax,Ymax);	
//	  Uart_Printf("\n  To use current settings. Press N/n key. ");
//	  Uart_Printf("\n\n\r  Want to Set Again(Y/N)? ");	        	      
//	  yn = Uart_Getch();
      rI_ISPC = BIT_EINT2;              // clear pending_bit
 c009088:	e59f30bc 	ldr	r3, [pc, #188]	; c00914c <Check_Sel+0xe8>
 c00908c:	e3a02502 	mov	r2, #8388608	; 0x800000
 c009090:	e5832000 	str	r2, [r3]
      rINTMSK =~(BIT_GLOBAL|BIT_EINT2);
 c009094:	e59f30ac 	ldr	r3, [pc, #172]	; c009148 <Check_Sel+0xe4>
 c009098:	e3e02512 	mvn	r2, #75497472	; 0x4800000
 c00909c:	e5832000 	str	r2, [r3]
//	  if((yn == 0x59)|(yn == 0x79)|(yn == 0x4E)|(yn == 0x6E)) Uart_SendByte(yn);	  
	  if((yn == 0x59)|(yn == 0x79))
 c0090a0:	e55b300d 	ldrb	r3, [fp, #-13]
 c0090a4:	e3530059 	cmp	r3, #89	; 0x59
 c0090a8:	13a03000 	movne	r3, #0
 c0090ac:	03a03001 	moveq	r3, #1
 c0090b0:	e20320ff 	and	r2, r3, #255	; 0xff
 c0090b4:	e55b300d 	ldrb	r3, [fp, #-13]
 c0090b8:	e3530079 	cmp	r3, #121	; 0x79
 c0090bc:	13a03000 	movne	r3, #0
 c0090c0:	03a03001 	moveq	r3, #1
 c0090c4:	e20330ff 	and	r3, r3, #255	; 0xff
 c0090c8:	e1823003 	orr	r3, r2, r3
 c0090cc:	e20330ff 	and	r3, r3, #255	; 0xff
 c0090d0:	e3530000 	cmp	r3, #0
 c0090d4:	0a000017 	beq	c009138 <Check_Sel+0xd4>
	    {
//	      Uart_Printf("\n\n Touch TSP's Cornor to ensure Xmax,Ymax,Xmax,Xmin");	      

         //Init X Y rectangle
          Xmax = 750;    Xmin = 200;
 c0090d8:	e59f3070 	ldr	r3, [pc, #112]	; c009150 <Check_Sel+0xec>
 c0090dc:	e59f2070 	ldr	r2, [pc, #112]	; c009154 <Check_Sel+0xf0>
 c0090e0:	e5832000 	str	r2, [r3]
 c0090e4:	e59f306c 	ldr	r3, [pc, #108]	; c009158 <Check_Sel+0xf4>
 c0090e8:	e3a020c8 	mov	r2, #200	; 0xc8
 c0090ec:	e5832000 	str	r2, [r3]
          Ymax = 620;    Ymin = 120;
 c0090f0:	e59f3064 	ldr	r3, [pc, #100]	; c00915c <Check_Sel+0xf8>
 c0090f4:	e3a02f9b 	mov	r2, #620	; 0x26c
 c0090f8:	e5832000 	str	r2, [r3]
 c0090fc:	e59f305c 	ldr	r3, [pc, #92]	; c009160 <Check_Sel+0xfc>
 c009100:	e3a02078 	mov	r2, #120	; 0x78
 c009104:	e5832000 	str	r2, [r3]

	      oneTouch = 0;
 c009108:	e59f3054 	ldr	r3, [pc, #84]	; c009164 <Check_Sel+0x100>
 c00910c:	e3a02000 	mov	r2, #0
 c009110:	e5832000 	str	r2, [r3]
	      CheckTSP = 1; // mask to check
 c009114:	e59f304c 	ldr	r3, [pc, #76]	; c009168 <Check_Sel+0x104>
 c009118:	e3a02001 	mov	r2, #1
 c00911c:	e5832000 	str	r2, [r3]
	      while(CheckTSP);
 c009120:	e1a00000 	nop			; (mov r0, r0)
 c009124:	e59f303c 	ldr	r3, [pc, #60]	; c009168 <Check_Sel+0x104>
 c009128:	e5933000 	ldr	r3, [r3]
 c00912c:	e3530000 	cmp	r3, #0
 c009130:	1afffffb 	bne	c009124 <Check_Sel+0xc0>
	      
	    }else break;	    
	  
	}while(1);
 c009134:	eaffffce 	b	c009074 <Check_Sel+0x10>
	
}
 c009138:	e1a00000 	nop			; (mov r0, r0)
 c00913c:	e24bd00c 	sub	sp, fp, #12
 c009140:	e89d6800 	ldm	sp, {fp, sp, lr}
 c009144:	e12fff1e 	bx	lr
 c009148:	01e0000c 	.word	0x01e0000c
 c00914c:	01e00024 	.word	0x01e00024
 c009150:	0c00efec 	.word	0x0c00efec
 c009154:	000002ee 	.word	0x000002ee
 c009158:	0c00f004 	.word	0x0c00f004
 c00915c:	0c00eff8 	.word	0x0c00eff8
 c009160:	0c00efe8 	.word	0x0c00efe8
 c009164:	0c00effc 	.word	0x0c00effc
 c009168:	0c00f008 	.word	0x0c00f008

0c00916c <clamp>:
/*********************************************************************************************
* name:     clamp
* func:     Limita un valor entre mnimo y mximo
*********************************************************************************************/
static int clamp(int val, int min, int max)
{
 c00916c:	e1a0c00d 	mov	ip, sp
 c009170:	e92dd800 	push	{fp, ip, lr, pc}
 c009174:	e24cb004 	sub	fp, ip, #4
 c009178:	e24dd010 	sub	sp, sp, #16
 c00917c:	e50b0010 	str	r0, [fp, #-16]
 c009180:	e50b1014 	str	r1, [fp, #-20]	; 0xffffffec
 c009184:	e50b2018 	str	r2, [fp, #-24]	; 0xffffffe8
    if (val < min) return min;
 c009188:	e51b2010 	ldr	r2, [fp, #-16]
 c00918c:	e51b3014 	ldr	r3, [fp, #-20]	; 0xffffffec
 c009190:	e1520003 	cmp	r2, r3
 c009194:	aa000001 	bge	c0091a0 <clamp+0x34>
 c009198:	e51b3014 	ldr	r3, [fp, #-20]	; 0xffffffec
 c00919c:	ea000006 	b	c0091bc <clamp+0x50>
    if (val > max) return max;
 c0091a0:	e51b2010 	ldr	r2, [fp, #-16]
 c0091a4:	e51b3018 	ldr	r3, [fp, #-24]	; 0xffffffe8
 c0091a8:	e1520003 	cmp	r2, r3
 c0091ac:	da000001 	ble	c0091b8 <clamp+0x4c>
 c0091b0:	e51b3018 	ldr	r3, [fp, #-24]	; 0xffffffe8
 c0091b4:	ea000000 	b	c0091bc <clamp+0x50>
    return val;
 c0091b8:	e51b3010 	ldr	r3, [fp, #-16]
}
 c0091bc:	e1a00003 	mov	r0, r3
 c0091c0:	e24bd00c 	sub	sp, fp, #12
 c0091c4:	e89d6800 	ldm	sp, {fp, sp, lr}
 c0091c8:	e12fff1e 	bx	lr

0c0091cc <draw_cross>:
/*********************************************************************************************
* name:     draw_cross
* func:     Dibuja una cruz en las coordenadas especificadas
*********************************************************************************************/
static void draw_cross(int x, int y)
{
 c0091cc:	e1a0c00d 	mov	ip, sp
 c0091d0:	e92dd800 	push	{fp, ip, lr, pc}
 c0091d4:	e24cb004 	sub	fp, ip, #4
 c0091d8:	e24dd010 	sub	sp, sp, #16
 c0091dc:	e50b0018 	str	r0, [fp, #-24]	; 0xffffffe8
 c0091e0:	e50b101c 	str	r1, [fp, #-28]	; 0xffffffe4
    int i;
    // Lnea horizontal
    for (i = -10; i <= 10; i++)
 c0091e4:	e3e03009 	mvn	r3, #9
 c0091e8:	e50b3010 	str	r3, [fp, #-16]
 c0091ec:	ea000050 	b	c009334 <draw_cross+0x168>
    {
        if (x + i >= 0 && x + i < SCR_XSIZE)
 c0091f0:	e51b2018 	ldr	r2, [fp, #-24]	; 0xffffffe8
 c0091f4:	e51b3010 	ldr	r3, [fp, #-16]
 c0091f8:	e0823003 	add	r3, r2, r3
 c0091fc:	e3530000 	cmp	r3, #0
 c009200:	ba000048 	blt	c009328 <draw_cross+0x15c>
 c009204:	e51b2018 	ldr	r2, [fp, #-24]	; 0xffffffe8
 c009208:	e51b3010 	ldr	r3, [fp, #-16]
 c00920c:	e0822003 	add	r2, r2, r3
 c009210:	e59f327c 	ldr	r3, [pc, #636]	; c009494 <draw_cross+0x2c8>
 c009214:	e1520003 	cmp	r2, r3
 c009218:	ca000042 	bgt	c009328 <draw_cross+0x15c>
            (LCD_PutPixel(x + i, y, 0xf));
 c00921c:	e51b201c 	ldr	r2, [fp, #-28]	; 0xffffffe4
 c009220:	e1a03002 	mov	r3, r2
 c009224:	e1a03103 	lsl	r3, r3, #2
 c009228:	e0833002 	add	r3, r3, r2
 c00922c:	e1a03303 	lsl	r3, r3, #6
 c009230:	e1a02fa3 	lsr	r2, r3, #31
 c009234:	e0823003 	add	r3, r2, r3
 c009238:	e1a030c3 	asr	r3, r3, #1
 c00923c:	e28326c3 	add	r2, r3, #204472320	; 0xc300000
 c009240:	e2822c96 	add	r2, r2, #38400	; 0x9600
 c009244:	e51b1018 	ldr	r1, [fp, #-24]	; 0xffffffe8
 c009248:	e51b3010 	ldr	r3, [fp, #-16]
 c00924c:	e0813003 	add	r3, r1, r3
 c009250:	e2831007 	add	r1, r3, #7
 c009254:	e3530000 	cmp	r3, #0
 c009258:	b1a03001 	movlt	r3, r1
 c00925c:	e1a031c3 	asr	r3, r3, #3
 c009260:	e1a03103 	lsl	r3, r3, #2
 c009264:	e0823003 	add	r3, r2, r3
 c009268:	e1a01003 	mov	r1, r3
 c00926c:	e51b201c 	ldr	r2, [fp, #-28]	; 0xffffffe4
 c009270:	e1a03002 	mov	r3, r2
 c009274:	e1a03103 	lsl	r3, r3, #2
 c009278:	e0833002 	add	r3, r3, r2
 c00927c:	e1a03303 	lsl	r3, r3, #6
 c009280:	e1a02fa3 	lsr	r2, r3, #31
 c009284:	e0823003 	add	r3, r2, r3
 c009288:	e1a030c3 	asr	r3, r3, #1
 c00928c:	e28326c3 	add	r2, r3, #204472320	; 0xc300000
 c009290:	e2822c96 	add	r2, r2, #38400	; 0x9600
 c009294:	e51b0018 	ldr	r0, [fp, #-24]	; 0xffffffe8
 c009298:	e51b3010 	ldr	r3, [fp, #-16]
 c00929c:	e0803003 	add	r3, r0, r3
 c0092a0:	e2830007 	add	r0, r3, #7
 c0092a4:	e3530000 	cmp	r3, #0
 c0092a8:	b1a03000 	movlt	r3, r0
 c0092ac:	e1a031c3 	asr	r3, r3, #3
 c0092b0:	e1a03103 	lsl	r3, r3, #2
 c0092b4:	e0823003 	add	r3, r2, r3
 c0092b8:	e5930000 	ldr	r0, [r3]
 c0092bc:	e51b2018 	ldr	r2, [fp, #-24]	; 0xffffffe8
 c0092c0:	e51b3010 	ldr	r3, [fp, #-16]
 c0092c4:	e0822003 	add	r2, r2, r3
 c0092c8:	e1a03fc2 	asr	r3, r2, #31
 c0092cc:	e1a03ea3 	lsr	r3, r3, #29
 c0092d0:	e0822003 	add	r2, r2, r3
 c0092d4:	e2022007 	and	r2, r2, #7
 c0092d8:	e0633002 	rsb	r3, r3, r2
 c0092dc:	e1a03103 	lsl	r3, r3, #2
 c0092e0:	e3a0220f 	mov	r2, #-268435456	; 0xf0000000
 c0092e4:	e1a03332 	lsr	r3, r2, r3
 c0092e8:	e1e03003 	mvn	r3, r3
 c0092ec:	e0000003 	and	r0, r0, r3
 c0092f0:	e51b2018 	ldr	r2, [fp, #-24]	; 0xffffffe8
 c0092f4:	e51b3010 	ldr	r3, [fp, #-16]
 c0092f8:	e0822003 	add	r2, r2, r3
 c0092fc:	e1a03fc2 	asr	r3, r2, #31
 c009300:	e1a03ea3 	lsr	r3, r3, #29
 c009304:	e0822003 	add	r2, r2, r3
 c009308:	e2022007 	and	r2, r2, #7
 c00930c:	e0633002 	rsb	r3, r3, r2
 c009310:	e2633007 	rsb	r3, r3, #7
 c009314:	e1a03103 	lsl	r3, r3, #2
 c009318:	e3a0200f 	mov	r2, #15
 c00931c:	e1a03312 	lsl	r3, r2, r3
 c009320:	e1803003 	orr	r3, r0, r3
 c009324:	e5813000 	str	r3, [r1]
*********************************************************************************************/
static void draw_cross(int x, int y)
{
    int i;
    // Lnea horizontal
    for (i = -10; i <= 10; i++)
 c009328:	e51b3010 	ldr	r3, [fp, #-16]
 c00932c:	e2833001 	add	r3, r3, #1
 c009330:	e50b3010 	str	r3, [fp, #-16]
 c009334:	e51b3010 	ldr	r3, [fp, #-16]
 c009338:	e353000a 	cmp	r3, #10
 c00933c:	daffffab 	ble	c0091f0 <draw_cross+0x24>
    {
        if (x + i >= 0 && x + i < SCR_XSIZE)
            (LCD_PutPixel(x + i, y, 0xf));
    }
    // Lnea vertical
    for (i = -10; i <= 10; i++)
 c009340:	e3e03009 	mvn	r3, #9
 c009344:	e50b3010 	str	r3, [fp, #-16]
 c009348:	ea00004b 	b	c00947c <draw_cross+0x2b0>
    {
        if (y + i >= 0 && y + i < SCR_YSIZE)
 c00934c:	e51b201c 	ldr	r2, [fp, #-28]	; 0xffffffe4
 c009350:	e51b3010 	ldr	r3, [fp, #-16]
 c009354:	e0823003 	add	r3, r2, r3
 c009358:	e3530000 	cmp	r3, #0
 c00935c:	ba000043 	blt	c009470 <draw_cross+0x2a4>
 c009360:	e51b201c 	ldr	r2, [fp, #-28]	; 0xffffffe4
 c009364:	e51b3010 	ldr	r3, [fp, #-16]
 c009368:	e0823003 	add	r3, r2, r3
 c00936c:	e35300ef 	cmp	r3, #239	; 0xef
 c009370:	ca00003e 	bgt	c009470 <draw_cross+0x2a4>
            (LCD_PutPixel(x, y + i, 0xf));
 c009374:	e51b201c 	ldr	r2, [fp, #-28]	; 0xffffffe4
 c009378:	e51b3010 	ldr	r3, [fp, #-16]
 c00937c:	e0822003 	add	r2, r2, r3
 c009380:	e1a03002 	mov	r3, r2
 c009384:	e1a03103 	lsl	r3, r3, #2
 c009388:	e0833002 	add	r3, r3, r2
 c00938c:	e1a03303 	lsl	r3, r3, #6
 c009390:	e1a02fa3 	lsr	r2, r3, #31
 c009394:	e0823003 	add	r3, r2, r3
 c009398:	e1a030c3 	asr	r3, r3, #1
 c00939c:	e28326c3 	add	r2, r3, #204472320	; 0xc300000
 c0093a0:	e2822c96 	add	r2, r2, #38400	; 0x9600
 c0093a4:	e51b3018 	ldr	r3, [fp, #-24]	; 0xffffffe8
 c0093a8:	e2831007 	add	r1, r3, #7
 c0093ac:	e3530000 	cmp	r3, #0
 c0093b0:	b1a03001 	movlt	r3, r1
 c0093b4:	e1a031c3 	asr	r3, r3, #3
 c0093b8:	e1a03103 	lsl	r3, r3, #2
 c0093bc:	e0823003 	add	r3, r2, r3
 c0093c0:	e1a01003 	mov	r1, r3
 c0093c4:	e51b201c 	ldr	r2, [fp, #-28]	; 0xffffffe4
 c0093c8:	e51b3010 	ldr	r3, [fp, #-16]
 c0093cc:	e0822003 	add	r2, r2, r3
 c0093d0:	e1a03002 	mov	r3, r2
 c0093d4:	e1a03103 	lsl	r3, r3, #2
 c0093d8:	e0833002 	add	r3, r3, r2
 c0093dc:	e1a03303 	lsl	r3, r3, #6
 c0093e0:	e1a02fa3 	lsr	r2, r3, #31
 c0093e4:	e0823003 	add	r3, r2, r3
 c0093e8:	e1a030c3 	asr	r3, r3, #1
 c0093ec:	e28326c3 	add	r2, r3, #204472320	; 0xc300000
 c0093f0:	e2822c96 	add	r2, r2, #38400	; 0x9600
 c0093f4:	e51b3018 	ldr	r3, [fp, #-24]	; 0xffffffe8
 c0093f8:	e2830007 	add	r0, r3, #7
 c0093fc:	e3530000 	cmp	r3, #0
 c009400:	b1a03000 	movlt	r3, r0
 c009404:	e1a031c3 	asr	r3, r3, #3
 c009408:	e1a03103 	lsl	r3, r3, #2
 c00940c:	e0823003 	add	r3, r2, r3
 c009410:	e5930000 	ldr	r0, [r3]
 c009414:	e51b2018 	ldr	r2, [fp, #-24]	; 0xffffffe8
 c009418:	e1a03fc2 	asr	r3, r2, #31
 c00941c:	e1a03ea3 	lsr	r3, r3, #29
 c009420:	e0822003 	add	r2, r2, r3
 c009424:	e2022007 	and	r2, r2, #7
 c009428:	e0633002 	rsb	r3, r3, r2
 c00942c:	e1a03103 	lsl	r3, r3, #2
 c009430:	e3a0220f 	mov	r2, #-268435456	; 0xf0000000
 c009434:	e1a03332 	lsr	r3, r2, r3
 c009438:	e1e03003 	mvn	r3, r3
 c00943c:	e0000003 	and	r0, r0, r3
 c009440:	e51b2018 	ldr	r2, [fp, #-24]	; 0xffffffe8
 c009444:	e1a03fc2 	asr	r3, r2, #31
 c009448:	e1a03ea3 	lsr	r3, r3, #29
 c00944c:	e0822003 	add	r2, r2, r3
 c009450:	e2022007 	and	r2, r2, #7
 c009454:	e0633002 	rsb	r3, r3, r2
 c009458:	e2633007 	rsb	r3, r3, #7
 c00945c:	e1a03103 	lsl	r3, r3, #2
 c009460:	e3a0200f 	mov	r2, #15
 c009464:	e1a03312 	lsl	r3, r2, r3
 c009468:	e1803003 	orr	r3, r0, r3
 c00946c:	e5813000 	str	r3, [r1]
    {
        if (x + i >= 0 && x + i < SCR_XSIZE)
            (LCD_PutPixel(x + i, y, 0xf));
    }
    // Lnea vertical
    for (i = -10; i <= 10; i++)
 c009470:	e51b3010 	ldr	r3, [fp, #-16]
 c009474:	e2833001 	add	r3, r3, #1
 c009478:	e50b3010 	str	r3, [fp, #-16]
 c00947c:	e51b3010 	ldr	r3, [fp, #-16]
 c009480:	e353000a 	cmp	r3, #10
 c009484:	daffffb0 	ble	c00934c <draw_cross+0x180>
    {
        if (y + i >= 0 && y + i < SCR_YSIZE)
            (LCD_PutPixel(x, y + i, 0xf));
    }
}
 c009488:	e24bd00c 	sub	sp, fp, #12
 c00948c:	e89d6800 	ldm	sp, {fp, sp, lr}
 c009490:	e12fff1e 	bx	lr
 c009494:	0000013f 	.word	0x0000013f

0c009498 <report_touch_data>:
* name:     report_touch_data
* func:     Llamada desde TSInt() para reportar coordenadas crudas
*           Implementa antirrebote: ignora toques muy rpidos (< 300ms desde ltimo toque)
*********************************************************************************************/
void report_touch_data(int x, int y)
{
 c009498:	e1a0c00d 	mov	ip, sp
 c00949c:	e92dd800 	push	{fp, ip, lr, pc}
 c0094a0:	e24cb004 	sub	fp, ip, #4
 c0094a4:	e24dd010 	sub	sp, sp, #16
 c0094a8:	e50b0018 	str	r0, [fp, #-24]	; 0xffffffe8
 c0094ac:	e50b101c 	str	r1, [fp, #-28]	; 0xffffffe4
    unsigned int current_time = timer2_count();
 c0094b0:	ebfffa18 	bl	c007d18 <timer2_count>
 c0094b4:	e50b0014 	str	r0, [fp, #-20]	; 0xffffffec
    unsigned int time_diff;
    
    /* Calcular diferencia de tiempo (manejando overflow del contador) */
    if (current_time >= g_last_touch_time)
 c0094b8:	e59f309c 	ldr	r3, [pc, #156]	; c00955c <report_touch_data+0xc4>
 c0094bc:	e5933000 	ldr	r3, [r3]
 c0094c0:	e51b2014 	ldr	r2, [fp, #-20]	; 0xffffffec
 c0094c4:	e1520003 	cmp	r2, r3
 c0094c8:	3a000005 	bcc	c0094e4 <report_touch_data+0x4c>
        time_diff = current_time - g_last_touch_time;
 c0094cc:	e59f3088 	ldr	r3, [pc, #136]	; c00955c <report_touch_data+0xc4>
 c0094d0:	e5933000 	ldr	r3, [r3]
 c0094d4:	e51b2014 	ldr	r2, [fp, #-20]	; 0xffffffec
 c0094d8:	e0633002 	rsb	r3, r3, r2
 c0094dc:	e50b3010 	str	r3, [fp, #-16]
 c0094e0:	ea000006 	b	c009500 <report_touch_data+0x68>
    else
        time_diff = (0xFFFFFFFF - g_last_touch_time) + current_time + 1;
 c0094e4:	e59f3070 	ldr	r3, [pc, #112]	; c00955c <report_touch_data+0xc4>
 c0094e8:	e5933000 	ldr	r3, [r3]
 c0094ec:	e1e02003 	mvn	r2, r3
 c0094f0:	e51b3014 	ldr	r3, [fp, #-20]	; 0xffffffec
 c0094f4:	e0823003 	add	r3, r2, r3
 c0094f8:	e2833001 	add	r3, r3, #1
 c0094fc:	e50b3010 	str	r3, [fp, #-16]
    
    /* Solo aceptar el toque si ha pasado suficiente tiempo desde el ltimo */
    if (g_ts_ready == 0 && time_diff >= TOUCH_DEBOUNCE_TIME)
 c009500:	e59f3058 	ldr	r3, [pc, #88]	; c009560 <report_touch_data+0xc8>
 c009504:	e5933000 	ldr	r3, [r3]
 c009508:	e3530000 	cmp	r3, #0
 c00950c:	1a00000f 	bne	c009550 <report_touch_data+0xb8>
 c009510:	e51b2010 	ldr	r2, [fp, #-16]
 c009514:	e59f3048 	ldr	r3, [pc, #72]	; c009564 <report_touch_data+0xcc>
 c009518:	e1520003 	cmp	r2, r3
 c00951c:	9a00000b 	bls	c009550 <report_touch_data+0xb8>
    {
        g_ts_raw_x = x;
 c009520:	e59f3040 	ldr	r3, [pc, #64]	; c009568 <report_touch_data+0xd0>
 c009524:	e51b2018 	ldr	r2, [fp, #-24]	; 0xffffffe8
 c009528:	e5832000 	str	r2, [r3]
        g_ts_raw_y = y;
 c00952c:	e59f3038 	ldr	r3, [pc, #56]	; c00956c <report_touch_data+0xd4>
 c009530:	e51b201c 	ldr	r2, [fp, #-28]	; 0xffffffe4
 c009534:	e5832000 	str	r2, [r3]
        g_ts_ready = 1;
 c009538:	e59f3020 	ldr	r3, [pc, #32]	; c009560 <report_touch_data+0xc8>
 c00953c:	e3a02001 	mov	r2, #1
 c009540:	e5832000 	str	r2, [r3]
        g_last_touch_time = current_time;  /* Actualizar tiempo del ltimo toque */
 c009544:	e59f3010 	ldr	r3, [pc, #16]	; c00955c <report_touch_data+0xc4>
 c009548:	e51b2014 	ldr	r2, [fp, #-20]	; 0xffffffec
 c00954c:	e5832000 	str	r2, [r3]
    }
}
 c009550:	e24bd00c 	sub	sp, fp, #12
 c009554:	e89d6800 	ldm	sp, {fp, sp, lr}
 c009558:	e12fff1e 	bx	lr
 c00955c:	0c00ef5c 	.word	0x0c00ef5c
 c009560:	0c00ef50 	.word	0x0c00ef50
 c009564:	000493df 	.word	0x000493df
 c009568:	0c00ef54 	.word	0x0c00ef54
 c00956c:	0c00ef58 	.word	0x0c00ef58

0c009570 <ts_wait_for_touch>:
/*********************************************************************************************
* name:     ts_wait_for_touch
* func:     Espera hasta detectar un toque
*********************************************************************************************/
static void ts_wait_for_touch(void)
{
 c009570:	e1a0c00d 	mov	ip, sp
 c009574:	e92dd800 	push	{fp, ip, lr, pc}
 c009578:	e24cb004 	sub	fp, ip, #4
    g_ts_ready = 0;
 c00957c:	e59f3024 	ldr	r3, [pc, #36]	; c0095a8 <ts_wait_for_touch+0x38>
 c009580:	e3a02000 	mov	r2, #0
 c009584:	e5832000 	str	r2, [r3]
    while (g_ts_ready == 0)
 c009588:	e1a00000 	nop			; (mov r0, r0)
 c00958c:	e59f3014 	ldr	r3, [pc, #20]	; c0095a8 <ts_wait_for_touch+0x38>
 c009590:	e5933000 	ldr	r3, [r3]
 c009594:	e3530000 	cmp	r3, #0
 c009598:	0afffffb 	beq	c00958c <ts_wait_for_touch+0x1c>
    {
        // Esperar interrupcin
    }
}
 c00959c:	e24bd00c 	sub	sp, fp, #12
 c0095a0:	e89d6800 	ldm	sp, {fp, sp, lr}
 c0095a4:	e12fff1e 	bx	lr
 c0095a8:	0c00ef50 	.word	0x0c00ef50

0c0095ac <ts_read_raw>:
/*********************************************************************************************
* name:     ts_read_raw
* func:     Lee coordenadas crudas del ADC (bloqueante)
*********************************************************************************************/
static void ts_read_raw(int *xr, int *yr)
{
 c0095ac:	e1a0c00d 	mov	ip, sp
 c0095b0:	e92dd800 	push	{fp, ip, lr, pc}
 c0095b4:	e24cb004 	sub	fp, ip, #4
 c0095b8:	e24dd008 	sub	sp, sp, #8
 c0095bc:	e50b0010 	str	r0, [fp, #-16]
 c0095c0:	e50b1014 	str	r1, [fp, #-20]	; 0xffffffec
    ts_wait_for_touch();
 c0095c4:	ebffffe9 	bl	c009570 <ts_wait_for_touch>
    *xr = g_ts_raw_x;
 c0095c8:	e59f3024 	ldr	r3, [pc, #36]	; c0095f4 <ts_read_raw+0x48>
 c0095cc:	e5932000 	ldr	r2, [r3]
 c0095d0:	e51b3010 	ldr	r3, [fp, #-16]
 c0095d4:	e5832000 	str	r2, [r3]
    *yr = g_ts_raw_y;
 c0095d8:	e59f3018 	ldr	r3, [pc, #24]	; c0095f8 <ts_read_raw+0x4c>
 c0095dc:	e5932000 	ldr	r2, [r3]
 c0095e0:	e51b3014 	ldr	r3, [fp, #-20]	; 0xffffffec
 c0095e4:	e5832000 	str	r2, [r3]
}
 c0095e8:	e24bd00c 	sub	sp, fp, #12
 c0095ec:	e89d6800 	ldm	sp, {fp, sp, lr}
 c0095f0:	e12fff1e 	bx	lr
 c0095f4:	0c00ef54 	.word	0x0c00ef54
 c0095f8:	0c00ef58 	.word	0x0c00ef58

0c0095fc <get_cal_point>:
/*********************************************************************************************
* name:     get_cal_point
* func:     Muestra cruz, espera 12 toques y captura promedio con filtrado de extremos
*********************************************************************************************/
static void get_cal_point(int lcd_x, int lcd_y, int *ts_x, int *ts_y)
{
 c0095fc:	e1a0c00d 	mov	ip, sp
 c009600:	e92dd800 	push	{fp, ip, lr, pc}
 c009604:	e24cb004 	sub	fp, ip, #4
 c009608:	e24dd088 	sub	sp, sp, #136	; 0x88
 c00960c:	e50b0088 	str	r0, [fp, #-136]	; 0xffffff78
 c009610:	e50b108c 	str	r1, [fp, #-140]	; 0xffffff74
 c009614:	e50b2090 	str	r2, [fp, #-144]	; 0xffffff70
 c009618:	e50b3094 	str	r3, [fp, #-148]	; 0xffffff6c
    int i, j;
    int samples_x[12], samples_y[12];
    int sum_x = 0, sum_y = 0;
 c00961c:	e3a03000 	mov	r3, #0
 c009620:	e50b3018 	str	r3, [fp, #-24]	; 0xffffffe8
 c009624:	e3a03000 	mov	r3, #0
 c009628:	e50b301c 	str	r3, [fp, #-28]	; 0xffffffe4
    int temp;
    
    draw_cross(lcd_x, lcd_y);
 c00962c:	e51b0088 	ldr	r0, [fp, #-136]	; 0xffffff78
 c009630:	e51b108c 	ldr	r1, [fp, #-140]	; 0xffffff74
 c009634:	ebfffee4 	bl	c0091cc <draw_cross>
    Lcd_Dma_Trans();
 c009638:	ebffee24 	bl	c004ed0 <Lcd_Dma_Trans>
    Delay(80);  // Delay ms largo para permitir posicionamiento preciso
 c00963c:	e3a00050 	mov	r0, #80	; 0x50
 c009640:	ebffdc31 	bl	c00070c <Delay>
    
    // Tomar 12 muestras
    for (i = 0; i < 12; i++)
 c009644:	e3a03000 	mov	r3, #0
 c009648:	e50b3010 	str	r3, [fp, #-16]
 c00964c:	ea00000f 	b	c009690 <get_cal_point+0x94>
    {
        ts_read_raw(&samples_x[i], &samples_y[i]);
 c009650:	e51b3010 	ldr	r3, [fp, #-16]
 c009654:	e1a03103 	lsl	r3, r3, #2
 c009658:	e24b2050 	sub	r2, fp, #80	; 0x50
 c00965c:	e0822003 	add	r2, r2, r3
 c009660:	e51b3010 	ldr	r3, [fp, #-16]
 c009664:	e1a03103 	lsl	r3, r3, #2
 c009668:	e24b1080 	sub	r1, fp, #128	; 0x80
 c00966c:	e0813003 	add	r3, r1, r3
 c009670:	e1a00002 	mov	r0, r2
 c009674:	e1a01003 	mov	r1, r3
 c009678:	ebffffcb 	bl	c0095ac <ts_read_raw>
        Delay(25);  // Pausa entre muestras para mejor estabilizacin
 c00967c:	e3a00019 	mov	r0, #25
 c009680:	ebffdc21 	bl	c00070c <Delay>
    draw_cross(lcd_x, lcd_y);
    Lcd_Dma_Trans();
    Delay(80);  // Delay ms largo para permitir posicionamiento preciso
    
    // Tomar 12 muestras
    for (i = 0; i < 12; i++)
 c009684:	e51b3010 	ldr	r3, [fp, #-16]
 c009688:	e2833001 	add	r3, r3, #1
 c00968c:	e50b3010 	str	r3, [fp, #-16]
 c009690:	e51b3010 	ldr	r3, [fp, #-16]
 c009694:	e353000b 	cmp	r3, #11
 c009698:	daffffec 	ble	c009650 <get_cal_point+0x54>
        ts_read_raw(&samples_x[i], &samples_y[i]);
        Delay(25);  // Pausa entre muestras para mejor estabilizacin
    }
    
    // Ordenar muestras X (bubble sort)
    for (i = 0; i < 11; i++) {
 c00969c:	e3a03000 	mov	r3, #0
 c0096a0:	e50b3010 	str	r3, [fp, #-16]
 c0096a4:	ea00003e 	b	c0097a4 <get_cal_point+0x1a8>
        for (j = 0; j < 11 - i; j++) {
 c0096a8:	e3a03000 	mov	r3, #0
 c0096ac:	e50b3014 	str	r3, [fp, #-20]	; 0xffffffec
 c0096b0:	ea000033 	b	c009784 <get_cal_point+0x188>
            if (samples_x[j] > samples_x[j + 1]) {
 c0096b4:	e51b2014 	ldr	r2, [fp, #-20]	; 0xffffffec
 c0096b8:	e3e03043 	mvn	r3, #67	; 0x43
 c0096bc:	e1a02102 	lsl	r2, r2, #2
 c0096c0:	e24b000c 	sub	r0, fp, #12
 c0096c4:	e0802002 	add	r2, r0, r2
 c0096c8:	e0823003 	add	r3, r2, r3
 c0096cc:	e5932000 	ldr	r2, [r3]
 c0096d0:	e51b3014 	ldr	r3, [fp, #-20]	; 0xffffffec
 c0096d4:	e2831001 	add	r1, r3, #1
 c0096d8:	e3e03043 	mvn	r3, #67	; 0x43
 c0096dc:	e1a01101 	lsl	r1, r1, #2
 c0096e0:	e24b000c 	sub	r0, fp, #12
 c0096e4:	e0801001 	add	r1, r0, r1
 c0096e8:	e0813003 	add	r3, r1, r3
 c0096ec:	e5933000 	ldr	r3, [r3]
 c0096f0:	e1520003 	cmp	r2, r3
 c0096f4:	da00001f 	ble	c009778 <get_cal_point+0x17c>
                temp = samples_x[j];
 c0096f8:	e51b2014 	ldr	r2, [fp, #-20]	; 0xffffffec
 c0096fc:	e3e03043 	mvn	r3, #67	; 0x43
 c009700:	e1a02102 	lsl	r2, r2, #2
 c009704:	e24b100c 	sub	r1, fp, #12
 c009708:	e0812002 	add	r2, r1, r2
 c00970c:	e0823003 	add	r3, r2, r3
 c009710:	e5933000 	ldr	r3, [r3]
 c009714:	e50b3020 	str	r3, [fp, #-32]	; 0xffffffe0
                samples_x[j] = samples_x[j + 1];
 c009718:	e51b3014 	ldr	r3, [fp, #-20]	; 0xffffffec
 c00971c:	e2832001 	add	r2, r3, #1
 c009720:	e3e03043 	mvn	r3, #67	; 0x43
 c009724:	e1a02102 	lsl	r2, r2, #2
 c009728:	e24b000c 	sub	r0, fp, #12
 c00972c:	e0802002 	add	r2, r0, r2
 c009730:	e0823003 	add	r3, r2, r3
 c009734:	e5932000 	ldr	r2, [r3]
 c009738:	e51b1014 	ldr	r1, [fp, #-20]	; 0xffffffec
 c00973c:	e3e03043 	mvn	r3, #67	; 0x43
 c009740:	e1a01101 	lsl	r1, r1, #2
 c009744:	e24b000c 	sub	r0, fp, #12
 c009748:	e0801001 	add	r1, r0, r1
 c00974c:	e0813003 	add	r3, r1, r3
 c009750:	e5832000 	str	r2, [r3]
                samples_x[j + 1] = temp;
 c009754:	e51b3014 	ldr	r3, [fp, #-20]	; 0xffffffec
 c009758:	e2832001 	add	r2, r3, #1
 c00975c:	e3e03043 	mvn	r3, #67	; 0x43
 c009760:	e1a02102 	lsl	r2, r2, #2
 c009764:	e24b100c 	sub	r1, fp, #12
 c009768:	e0812002 	add	r2, r1, r2
 c00976c:	e0823003 	add	r3, r2, r3
 c009770:	e51b2020 	ldr	r2, [fp, #-32]	; 0xffffffe0
 c009774:	e5832000 	str	r2, [r3]
        Delay(25);  // Pausa entre muestras para mejor estabilizacin
    }
    
    // Ordenar muestras X (bubble sort)
    for (i = 0; i < 11; i++) {
        for (j = 0; j < 11 - i; j++) {
 c009778:	e51b3014 	ldr	r3, [fp, #-20]	; 0xffffffec
 c00977c:	e2833001 	add	r3, r3, #1
 c009780:	e50b3014 	str	r3, [fp, #-20]	; 0xffffffec
 c009784:	e51b3010 	ldr	r3, [fp, #-16]
 c009788:	e263200b 	rsb	r2, r3, #11
 c00978c:	e51b3014 	ldr	r3, [fp, #-20]	; 0xffffffec
 c009790:	e1520003 	cmp	r2, r3
 c009794:	caffffc6 	bgt	c0096b4 <get_cal_point+0xb8>
        ts_read_raw(&samples_x[i], &samples_y[i]);
        Delay(25);  // Pausa entre muestras para mejor estabilizacin
    }
    
    // Ordenar muestras X (bubble sort)
    for (i = 0; i < 11; i++) {
 c009798:	e51b3010 	ldr	r3, [fp, #-16]
 c00979c:	e2833001 	add	r3, r3, #1
 c0097a0:	e50b3010 	str	r3, [fp, #-16]
 c0097a4:	e51b3010 	ldr	r3, [fp, #-16]
 c0097a8:	e353000a 	cmp	r3, #10
 c0097ac:	daffffbd 	ble	c0096a8 <get_cal_point+0xac>
            }
        }
    }
    
    // Ordenar muestras Y
    for (i = 0; i < 11; i++) {
 c0097b0:	e3a03000 	mov	r3, #0
 c0097b4:	e50b3010 	str	r3, [fp, #-16]
 c0097b8:	ea00003e 	b	c0098b8 <get_cal_point+0x2bc>
        for (j = 0; j < 11 - i; j++) {
 c0097bc:	e3a03000 	mov	r3, #0
 c0097c0:	e50b3014 	str	r3, [fp, #-20]	; 0xffffffec
 c0097c4:	ea000033 	b	c009898 <get_cal_point+0x29c>
            if (samples_y[j] > samples_y[j + 1]) {
 c0097c8:	e51b2014 	ldr	r2, [fp, #-20]	; 0xffffffec
 c0097cc:	e3e03073 	mvn	r3, #115	; 0x73
 c0097d0:	e1a02102 	lsl	r2, r2, #2
 c0097d4:	e24b000c 	sub	r0, fp, #12
 c0097d8:	e0802002 	add	r2, r0, r2
 c0097dc:	e0823003 	add	r3, r2, r3
 c0097e0:	e5932000 	ldr	r2, [r3]
 c0097e4:	e51b3014 	ldr	r3, [fp, #-20]	; 0xffffffec
 c0097e8:	e2831001 	add	r1, r3, #1
 c0097ec:	e3e03073 	mvn	r3, #115	; 0x73
 c0097f0:	e1a01101 	lsl	r1, r1, #2
 c0097f4:	e24b000c 	sub	r0, fp, #12
 c0097f8:	e0801001 	add	r1, r0, r1
 c0097fc:	e0813003 	add	r3, r1, r3
 c009800:	e5933000 	ldr	r3, [r3]
 c009804:	e1520003 	cmp	r2, r3
 c009808:	da00001f 	ble	c00988c <get_cal_point+0x290>
                temp = samples_y[j];
 c00980c:	e51b2014 	ldr	r2, [fp, #-20]	; 0xffffffec
 c009810:	e3e03073 	mvn	r3, #115	; 0x73
 c009814:	e1a02102 	lsl	r2, r2, #2
 c009818:	e24b100c 	sub	r1, fp, #12
 c00981c:	e0812002 	add	r2, r1, r2
 c009820:	e0823003 	add	r3, r2, r3
 c009824:	e5933000 	ldr	r3, [r3]
 c009828:	e50b3020 	str	r3, [fp, #-32]	; 0xffffffe0
                samples_y[j] = samples_y[j + 1];
 c00982c:	e51b3014 	ldr	r3, [fp, #-20]	; 0xffffffec
 c009830:	e2832001 	add	r2, r3, #1
 c009834:	e3e03073 	mvn	r3, #115	; 0x73
 c009838:	e1a02102 	lsl	r2, r2, #2
 c00983c:	e24b000c 	sub	r0, fp, #12
 c009840:	e0802002 	add	r2, r0, r2
 c009844:	e0823003 	add	r3, r2, r3
 c009848:	e5932000 	ldr	r2, [r3]
 c00984c:	e51b1014 	ldr	r1, [fp, #-20]	; 0xffffffec
 c009850:	e3e03073 	mvn	r3, #115	; 0x73
 c009854:	e1a01101 	lsl	r1, r1, #2
 c009858:	e24b000c 	sub	r0, fp, #12
 c00985c:	e0801001 	add	r1, r0, r1
 c009860:	e0813003 	add	r3, r1, r3
 c009864:	e5832000 	str	r2, [r3]
                samples_y[j + 1] = temp;
 c009868:	e51b3014 	ldr	r3, [fp, #-20]	; 0xffffffec
 c00986c:	e2832001 	add	r2, r3, #1
 c009870:	e3e03073 	mvn	r3, #115	; 0x73
 c009874:	e1a02102 	lsl	r2, r2, #2
 c009878:	e24b100c 	sub	r1, fp, #12
 c00987c:	e0812002 	add	r2, r1, r2
 c009880:	e0823003 	add	r3, r2, r3
 c009884:	e51b2020 	ldr	r2, [fp, #-32]	; 0xffffffe0
 c009888:	e5832000 	str	r2, [r3]
        }
    }
    
    // Ordenar muestras Y
    for (i = 0; i < 11; i++) {
        for (j = 0; j < 11 - i; j++) {
 c00988c:	e51b3014 	ldr	r3, [fp, #-20]	; 0xffffffec
 c009890:	e2833001 	add	r3, r3, #1
 c009894:	e50b3014 	str	r3, [fp, #-20]	; 0xffffffec
 c009898:	e51b3010 	ldr	r3, [fp, #-16]
 c00989c:	e263200b 	rsb	r2, r3, #11
 c0098a0:	e51b3014 	ldr	r3, [fp, #-20]	; 0xffffffec
 c0098a4:	e1520003 	cmp	r2, r3
 c0098a8:	caffffc6 	bgt	c0097c8 <get_cal_point+0x1cc>
            }
        }
    }
    
    // Ordenar muestras Y
    for (i = 0; i < 11; i++) {
 c0098ac:	e51b3010 	ldr	r3, [fp, #-16]
 c0098b0:	e2833001 	add	r3, r3, #1
 c0098b4:	e50b3010 	str	r3, [fp, #-16]
 c0098b8:	e51b3010 	ldr	r3, [fp, #-16]
 c0098bc:	e353000a 	cmp	r3, #10
 c0098c0:	daffffbd 	ble	c0097bc <get_cal_point+0x1c0>
            }
        }
    }
    
    // Promediar las 8 muestras centrales (descartando 2 mnimas y 2 mximas)
    for (i = 2; i < 10; i++) {
 c0098c4:	e3a03002 	mov	r3, #2
 c0098c8:	e50b3010 	str	r3, [fp, #-16]
 c0098cc:	ea000016 	b	c00992c <get_cal_point+0x330>
        sum_x += samples_x[i];
 c0098d0:	e51b2010 	ldr	r2, [fp, #-16]
 c0098d4:	e3e03043 	mvn	r3, #67	; 0x43
 c0098d8:	e1a02102 	lsl	r2, r2, #2
 c0098dc:	e24b000c 	sub	r0, fp, #12
 c0098e0:	e0802002 	add	r2, r0, r2
 c0098e4:	e0823003 	add	r3, r2, r3
 c0098e8:	e5933000 	ldr	r3, [r3]
 c0098ec:	e51b2018 	ldr	r2, [fp, #-24]	; 0xffffffe8
 c0098f0:	e0823003 	add	r3, r2, r3
 c0098f4:	e50b3018 	str	r3, [fp, #-24]	; 0xffffffe8
        sum_y += samples_y[i];
 c0098f8:	e51b2010 	ldr	r2, [fp, #-16]
 c0098fc:	e3e03073 	mvn	r3, #115	; 0x73
 c009900:	e1a02102 	lsl	r2, r2, #2
 c009904:	e24b100c 	sub	r1, fp, #12
 c009908:	e0812002 	add	r2, r1, r2
 c00990c:	e0823003 	add	r3, r2, r3
 c009910:	e5933000 	ldr	r3, [r3]
 c009914:	e51b201c 	ldr	r2, [fp, #-28]	; 0xffffffe4
 c009918:	e0823003 	add	r3, r2, r3
 c00991c:	e50b301c 	str	r3, [fp, #-28]	; 0xffffffe4
            }
        }
    }
    
    // Promediar las 8 muestras centrales (descartando 2 mnimas y 2 mximas)
    for (i = 2; i < 10; i++) {
 c009920:	e51b3010 	ldr	r3, [fp, #-16]
 c009924:	e2833001 	add	r3, r3, #1
 c009928:	e50b3010 	str	r3, [fp, #-16]
 c00992c:	e51b3010 	ldr	r3, [fp, #-16]
 c009930:	e3530009 	cmp	r3, #9
 c009934:	daffffe5 	ble	c0098d0 <get_cal_point+0x2d4>
        sum_x += samples_x[i];
        sum_y += samples_y[i];
    }
    
    *ts_x = sum_x / 8;
 c009938:	e51b3018 	ldr	r3, [fp, #-24]	; 0xffffffe8
 c00993c:	e2832007 	add	r2, r3, #7
 c009940:	e3530000 	cmp	r3, #0
 c009944:	b1a03002 	movlt	r3, r2
 c009948:	e1a031c3 	asr	r3, r3, #3
 c00994c:	e1a02003 	mov	r2, r3
 c009950:	e51b3090 	ldr	r3, [fp, #-144]	; 0xffffff70
 c009954:	e5832000 	str	r2, [r3]
    *ts_y = sum_y / 8;
 c009958:	e51b301c 	ldr	r3, [fp, #-28]	; 0xffffffe4
 c00995c:	e2832007 	add	r2, r3, #7
 c009960:	e3530000 	cmp	r3, #0
 c009964:	b1a03002 	movlt	r3, r2
 c009968:	e1a031c3 	asr	r3, r3, #3
 c00996c:	e1a02003 	mov	r2, r3
 c009970:	e51b3094 	ldr	r3, [fp, #-148]	; 0xffffff6c
 c009974:	e5832000 	str	r2, [r3]
    
    Delay(50);
 c009978:	e3a00032 	mov	r0, #50	; 0x32
 c00997c:	ebffdb62 	bl	c00070c <Delay>
    draw_cross(lcd_x, lcd_y);
 c009980:	e51b0088 	ldr	r0, [fp, #-136]	; 0xffffff78
 c009984:	e51b108c 	ldr	r1, [fp, #-140]	; 0xffffff74
 c009988:	ebfffe0f 	bl	c0091cc <draw_cross>
    Lcd_Dma_Trans();
 c00998c:	ebffed4f 	bl	c004ed0 <Lcd_Dma_Trans>
}
 c009990:	e24bd00c 	sub	sp, fp, #12
 c009994:	e89d6800 	ldm	sp, {fp, sp, lr}
 c009998:	e12fff1e 	bx	lr

0c00999c <ts_calibrate_5pt>:
* func:     Calibracin de 5 puntos del touchscreen
* para:     XRES - resolucin horizontal, YRES - vertical, M - margen
* comment:  Implementa mtodo con deteccin swap XY y escalas con signo (fixed-point 16.16)
*********************************************************************************************/
void ts_calibrate_5pt(int XRES, int YRES, int M)
{
 c00999c:	e1a0c00d 	mov	ip, sp
 c0099a0:	e92dd810 	push	{r4, fp, ip, lr, pc}
 c0099a4:	e24cb004 	sub	fp, ip, #4
 c0099a8:	e24dd094 	sub	sp, sp, #148	; 0x94
 c0099ac:	e50b0098 	str	r0, [fp, #-152]	; 0xffffff68
 c0099b0:	e50b109c 	str	r1, [fp, #-156]	; 0xffffff64
 c0099b4:	e50b20a0 	str	r2, [fp, #-160]	; 0xffffff60
    int dx, dy;
    int lcd_s, lcd_d;
    int ts_s1, ts_s2, ts_d1, ts_d2;
    long long temp;
    
    Lcd_Clr();
 c0099b8:	ebffe67a 	bl	c0033a8 <Lcd_Clr>
    Lcd_Active_Clr();
 c0099bc:	ebffe62b 	bl	c003270 <Lcd_Active_Clr>
    Lcd_DspAscII8x16(60, 110, BLACK, (unsigned char *)"Calibracion 5pts");
 c0099c0:	e3a0003c 	mov	r0, #60	; 0x3c
 c0099c4:	e3a0106e 	mov	r1, #110	; 0x6e
 c0099c8:	e3a0200f 	mov	r2, #15
 c0099cc:	e59f3588 	ldr	r3, [pc, #1416]	; c009f5c <ts_calibrate_5pt+0x5c0>
 c0099d0:	ebffebbb 	bl	c0048c4 <Lcd_DspAscII8x16>
    Lcd_Dma_Trans();
 c0099d4:	ebffed3d 	bl	c004ed0 <Lcd_Dma_Trans>
    Delay(100);
 c0099d8:	e3a00064 	mov	r0, #100	; 0x64
 c0099dc:	ebffdb4a 	bl	c00070c <Delay>
    
    Lcd_Clr();
 c0099e0:	ebffe670 	bl	c0033a8 <Lcd_Clr>
    Lcd_Dma_Trans();
 c0099e4:	ebffed39 	bl	c004ed0 <Lcd_Dma_Trans>
    
    // Definir posiciones LCD de los 5 puntos
    A_lcd_x = M;            A_lcd_y = M;
 c0099e8:	e51b30a0 	ldr	r3, [fp, #-160]	; 0xffffff60
 c0099ec:	e50b3020 	str	r3, [fp, #-32]	; 0xffffffe0
 c0099f0:	e51b30a0 	ldr	r3, [fp, #-160]	; 0xffffff60
 c0099f4:	e50b3024 	str	r3, [fp, #-36]	; 0xffffffdc
    B_lcd_x = XRES - M;     B_lcd_y = M;
 c0099f8:	e51b2098 	ldr	r2, [fp, #-152]	; 0xffffff68
 c0099fc:	e51b30a0 	ldr	r3, [fp, #-160]	; 0xffffff60
 c009a00:	e0633002 	rsb	r3, r3, r2
 c009a04:	e50b3028 	str	r3, [fp, #-40]	; 0xffffffd8
 c009a08:	e51b30a0 	ldr	r3, [fp, #-160]	; 0xffffff60
 c009a0c:	e50b302c 	str	r3, [fp, #-44]	; 0xffffffd4
    C_lcd_x = XRES - M;     C_lcd_y = YRES - M;
 c009a10:	e51b2098 	ldr	r2, [fp, #-152]	; 0xffffff68
 c009a14:	e51b30a0 	ldr	r3, [fp, #-160]	; 0xffffff60
 c009a18:	e0633002 	rsb	r3, r3, r2
 c009a1c:	e50b3030 	str	r3, [fp, #-48]	; 0xffffffd0
 c009a20:	e51b209c 	ldr	r2, [fp, #-156]	; 0xffffff64
 c009a24:	e51b30a0 	ldr	r3, [fp, #-160]	; 0xffffff60
 c009a28:	e0633002 	rsb	r3, r3, r2
 c009a2c:	e50b3034 	str	r3, [fp, #-52]	; 0xffffffcc
    D_lcd_x = M;            D_lcd_y = YRES - M;
 c009a30:	e51b30a0 	ldr	r3, [fp, #-160]	; 0xffffff60
 c009a34:	e50b3038 	str	r3, [fp, #-56]	; 0xffffffc8
 c009a38:	e51b209c 	ldr	r2, [fp, #-156]	; 0xffffff64
 c009a3c:	e51b30a0 	ldr	r3, [fp, #-160]	; 0xffffff60
 c009a40:	e0633002 	rsb	r3, r3, r2
 c009a44:	e50b303c 	str	r3, [fp, #-60]	; 0xffffffc4
    E_lcd_x = XRES / 2;     E_lcd_y = YRES / 2;
 c009a48:	e51b3098 	ldr	r3, [fp, #-152]	; 0xffffff68
 c009a4c:	e1a02fa3 	lsr	r2, r3, #31
 c009a50:	e0823003 	add	r3, r2, r3
 c009a54:	e1a030c3 	asr	r3, r3, #1
 c009a58:	e50b3040 	str	r3, [fp, #-64]	; 0xffffffc0
 c009a5c:	e51b309c 	ldr	r3, [fp, #-156]	; 0xffffff64
 c009a60:	e1a02fa3 	lsr	r2, r3, #31
 c009a64:	e0823003 	add	r3, r2, r3
 c009a68:	e1a030c3 	asr	r3, r3, #1
 c009a6c:	e50b3044 	str	r3, [fp, #-68]	; 0xffffffbc
    
    // Capturar punto A
    Lcd_DspAscII6x8(10, 10, BLACK, (unsigned char *)"Toca punto A");
 c009a70:	e3a0000a 	mov	r0, #10
 c009a74:	e3a0100a 	mov	r1, #10
 c009a78:	e3a0200f 	mov	r2, #15
 c009a7c:	e59f34dc 	ldr	r3, [pc, #1244]	; c009f60 <ts_calibrate_5pt+0x5c4>
 c009a80:	ebffec54 	bl	c004bd8 <Lcd_DspAscII6x8>
    Lcd_Dma_Trans();
 c009a84:	ebffed11 	bl	c004ed0 <Lcd_Dma_Trans>
    get_cal_point(A_lcd_x, A_lcd_y, &A_ts_x, &A_ts_y);
 c009a88:	e24b2070 	sub	r2, fp, #112	; 0x70
 c009a8c:	e24b3074 	sub	r3, fp, #116	; 0x74
 c009a90:	e51b0020 	ldr	r0, [fp, #-32]	; 0xffffffe0
 c009a94:	e51b1024 	ldr	r1, [fp, #-36]	; 0xffffffdc
 c009a98:	ebfffed7 	bl	c0095fc <get_cal_point>
    
    // Capturar punto B
    Lcd_Clr();
 c009a9c:	ebffe641 	bl	c0033a8 <Lcd_Clr>
    Lcd_DspAscII6x8(10, 10, BLACK, (unsigned char *)"Toca punto B");
 c009aa0:	e3a0000a 	mov	r0, #10
 c009aa4:	e3a0100a 	mov	r1, #10
 c009aa8:	e3a0200f 	mov	r2, #15
 c009aac:	e59f34b0 	ldr	r3, [pc, #1200]	; c009f64 <ts_calibrate_5pt+0x5c8>
 c009ab0:	ebffec48 	bl	c004bd8 <Lcd_DspAscII6x8>
    Lcd_Dma_Trans();
 c009ab4:	ebffed05 	bl	c004ed0 <Lcd_Dma_Trans>
    get_cal_point(B_lcd_x, B_lcd_y, &B_ts_x, &B_ts_y);
 c009ab8:	e24b2078 	sub	r2, fp, #120	; 0x78
 c009abc:	e24b307c 	sub	r3, fp, #124	; 0x7c
 c009ac0:	e51b0028 	ldr	r0, [fp, #-40]	; 0xffffffd8
 c009ac4:	e51b102c 	ldr	r1, [fp, #-44]	; 0xffffffd4
 c009ac8:	ebfffecb 	bl	c0095fc <get_cal_point>
    
    // Capturar punto C
    Lcd_Clr();
 c009acc:	ebffe635 	bl	c0033a8 <Lcd_Clr>
    Lcd_DspAscII6x8(10, 10, BLACK, (unsigned char *)"Toca punto C");
 c009ad0:	e3a0000a 	mov	r0, #10
 c009ad4:	e3a0100a 	mov	r1, #10
 c009ad8:	e3a0200f 	mov	r2, #15
 c009adc:	e59f3484 	ldr	r3, [pc, #1156]	; c009f68 <ts_calibrate_5pt+0x5cc>
 c009ae0:	ebffec3c 	bl	c004bd8 <Lcd_DspAscII6x8>
    Lcd_Dma_Trans();
 c009ae4:	ebffecf9 	bl	c004ed0 <Lcd_Dma_Trans>
    get_cal_point(C_lcd_x, C_lcd_y, &C_ts_x, &C_ts_y);
 c009ae8:	e24b2080 	sub	r2, fp, #128	; 0x80
 c009aec:	e24b3084 	sub	r3, fp, #132	; 0x84
 c009af0:	e51b0030 	ldr	r0, [fp, #-48]	; 0xffffffd0
 c009af4:	e51b1034 	ldr	r1, [fp, #-52]	; 0xffffffcc
 c009af8:	ebfffebf 	bl	c0095fc <get_cal_point>
    
    // Capturar punto D
    Lcd_Clr();
 c009afc:	ebffe629 	bl	c0033a8 <Lcd_Clr>
    Lcd_DspAscII6x8(10, 10, BLACK, (unsigned char *)"Toca punto D");
 c009b00:	e3a0000a 	mov	r0, #10
 c009b04:	e3a0100a 	mov	r1, #10
 c009b08:	e3a0200f 	mov	r2, #15
 c009b0c:	e59f3458 	ldr	r3, [pc, #1112]	; c009f6c <ts_calibrate_5pt+0x5d0>
 c009b10:	ebffec30 	bl	c004bd8 <Lcd_DspAscII6x8>
    Lcd_Dma_Trans();
 c009b14:	ebffeced 	bl	c004ed0 <Lcd_Dma_Trans>
    get_cal_point(D_lcd_x, D_lcd_y, &D_ts_x, &D_ts_y);
 c009b18:	e24b2088 	sub	r2, fp, #136	; 0x88
 c009b1c:	e24b308c 	sub	r3, fp, #140	; 0x8c
 c009b20:	e51b0038 	ldr	r0, [fp, #-56]	; 0xffffffc8
 c009b24:	e51b103c 	ldr	r1, [fp, #-60]	; 0xffffffc4
 c009b28:	ebfffeb3 	bl	c0095fc <get_cal_point>
    
    // Capturar punto E (centro)
    Lcd_Clr();
 c009b2c:	ebffe61d 	bl	c0033a8 <Lcd_Clr>
    Lcd_DspAscII6x8(10, 10, BLACK, (unsigned char *)"Toca centro E");
 c009b30:	e3a0000a 	mov	r0, #10
 c009b34:	e3a0100a 	mov	r1, #10
 c009b38:	e3a0200f 	mov	r2, #15
 c009b3c:	e59f342c 	ldr	r3, [pc, #1068]	; c009f70 <ts_calibrate_5pt+0x5d4>
 c009b40:	ebffec24 	bl	c004bd8 <Lcd_DspAscII6x8>
    Lcd_Dma_Trans();
 c009b44:	ebffece1 	bl	c004ed0 <Lcd_Dma_Trans>
    get_cal_point(E_lcd_x, E_lcd_y, &E_ts_x, &E_ts_y);
 c009b48:	e24b2090 	sub	r2, fp, #144	; 0x90
 c009b4c:	e24b3094 	sub	r3, fp, #148	; 0x94
 c009b50:	e51b0040 	ldr	r0, [fp, #-64]	; 0xffffffc0
 c009b54:	e51b1044 	ldr	r1, [fp, #-68]	; 0xffffffbc
 c009b58:	ebfffea7 	bl	c0095fc <get_cal_point>
    
    // DETECCIN DE SWAP XY
    dx = B_ts_x - A_ts_x;
 c009b5c:	e51b2078 	ldr	r2, [fp, #-120]	; 0xffffff88
 c009b60:	e51b3070 	ldr	r3, [fp, #-112]	; 0xffffff90
 c009b64:	e0633002 	rsb	r3, r3, r2
 c009b68:	e50b3018 	str	r3, [fp, #-24]	; 0xffffffe8
    dy = B_ts_y - A_ts_y;
 c009b6c:	e51b207c 	ldr	r2, [fp, #-124]	; 0xffffff84
 c009b70:	e51b3074 	ldr	r3, [fp, #-116]	; 0xffffff8c
 c009b74:	e0633002 	rsb	r3, r3, r2
 c009b78:	e50b301c 	str	r3, [fp, #-28]	; 0xffffffe4
    if (dx < 0) dx = -dx;
 c009b7c:	e51b3018 	ldr	r3, [fp, #-24]	; 0xffffffe8
 c009b80:	e3530000 	cmp	r3, #0
 c009b84:	aa000002 	bge	c009b94 <ts_calibrate_5pt+0x1f8>
 c009b88:	e51b3018 	ldr	r3, [fp, #-24]	; 0xffffffe8
 c009b8c:	e2633000 	rsb	r3, r3, #0
 c009b90:	e50b3018 	str	r3, [fp, #-24]	; 0xffffffe8
    if (dy < 0) dy = -dy;
 c009b94:	e51b301c 	ldr	r3, [fp, #-28]	; 0xffffffe4
 c009b98:	e3530000 	cmp	r3, #0
 c009b9c:	aa000002 	bge	c009bac <ts_calibrate_5pt+0x210>
 c009ba0:	e51b301c 	ldr	r3, [fp, #-28]	; 0xffffffe4
 c009ba4:	e2633000 	rsb	r3, r3, #0
 c009ba8:	e50b301c 	str	r3, [fp, #-28]	; 0xffffffe4
    
    if (dx > dy)
 c009bac:	e51b2018 	ldr	r2, [fp, #-24]	; 0xffffffe8
 c009bb0:	e51b301c 	ldr	r3, [fp, #-28]	; 0xffffffe4
 c009bb4:	e1520003 	cmp	r2, r3
 c009bb8:	da000003 	ble	c009bcc <ts_calibrate_5pt+0x230>
    {
        g_swap_xy = 0;
 c009bbc:	e59f33b0 	ldr	r3, [pc, #944]	; c009f74 <ts_calibrate_5pt+0x5d8>
 c009bc0:	e3a02000 	mov	r2, #0
 c009bc4:	e5832000 	str	r2, [r3]
 c009bc8:	ea000020 	b	c009c50 <ts_calibrate_5pt+0x2b4>
    }
    else
    {
        g_swap_xy = 1;
 c009bcc:	e59f33a0 	ldr	r3, [pc, #928]	; c009f74 <ts_calibrate_5pt+0x5d8>
 c009bd0:	e3a02001 	mov	r2, #1
 c009bd4:	e5832000 	str	r2, [r3]
        int tmp;
        #define SWAP(a, b) { tmp = a; a = b; b = tmp; }
        SWAP(A_ts_x, A_ts_y);
 c009bd8:	e51b3070 	ldr	r3, [fp, #-112]	; 0xffffff90
 c009bdc:	e50b3048 	str	r3, [fp, #-72]	; 0xffffffb8
 c009be0:	e51b3074 	ldr	r3, [fp, #-116]	; 0xffffff8c
 c009be4:	e50b3070 	str	r3, [fp, #-112]	; 0xffffff90
 c009be8:	e51b3048 	ldr	r3, [fp, #-72]	; 0xffffffb8
 c009bec:	e50b3074 	str	r3, [fp, #-116]	; 0xffffff8c
        SWAP(B_ts_x, B_ts_y);
 c009bf0:	e51b3078 	ldr	r3, [fp, #-120]	; 0xffffff88
 c009bf4:	e50b3048 	str	r3, [fp, #-72]	; 0xffffffb8
 c009bf8:	e51b307c 	ldr	r3, [fp, #-124]	; 0xffffff84
 c009bfc:	e50b3078 	str	r3, [fp, #-120]	; 0xffffff88
 c009c00:	e51b3048 	ldr	r3, [fp, #-72]	; 0xffffffb8
 c009c04:	e50b307c 	str	r3, [fp, #-124]	; 0xffffff84
        SWAP(C_ts_x, C_ts_y);
 c009c08:	e51b3080 	ldr	r3, [fp, #-128]	; 0xffffff80
 c009c0c:	e50b3048 	str	r3, [fp, #-72]	; 0xffffffb8
 c009c10:	e51b3084 	ldr	r3, [fp, #-132]	; 0xffffff7c
 c009c14:	e50b3080 	str	r3, [fp, #-128]	; 0xffffff80
 c009c18:	e51b3048 	ldr	r3, [fp, #-72]	; 0xffffffb8
 c009c1c:	e50b3084 	str	r3, [fp, #-132]	; 0xffffff7c
        SWAP(D_ts_x, D_ts_y);
 c009c20:	e51b3088 	ldr	r3, [fp, #-136]	; 0xffffff78
 c009c24:	e50b3048 	str	r3, [fp, #-72]	; 0xffffffb8
 c009c28:	e51b308c 	ldr	r3, [fp, #-140]	; 0xffffff74
 c009c2c:	e50b3088 	str	r3, [fp, #-136]	; 0xffffff78
 c009c30:	e51b3048 	ldr	r3, [fp, #-72]	; 0xffffffb8
 c009c34:	e50b308c 	str	r3, [fp, #-140]	; 0xffffff74
        SWAP(E_ts_x, E_ts_y);
 c009c38:	e51b3090 	ldr	r3, [fp, #-144]	; 0xffffff70
 c009c3c:	e50b3048 	str	r3, [fp, #-72]	; 0xffffffb8
 c009c40:	e51b3094 	ldr	r3, [fp, #-148]	; 0xffffff6c
 c009c44:	e50b3090 	str	r3, [fp, #-144]	; 0xffffff70
 c009c48:	e51b3048 	ldr	r3, [fp, #-72]	; 0xffffffb8
 c009c4c:	e50b3094 	str	r3, [fp, #-148]	; 0xffffff6c
    }
    
    // CLCULO DEL CENTRO - usar promedio de los 4 puntos para mayor precisin
    g_ts_xc = (A_ts_x + B_ts_x + C_ts_x + D_ts_x) / 4;
 c009c50:	e51b2070 	ldr	r2, [fp, #-112]	; 0xffffff90
 c009c54:	e51b3078 	ldr	r3, [fp, #-120]	; 0xffffff88
 c009c58:	e0822003 	add	r2, r2, r3
 c009c5c:	e51b3080 	ldr	r3, [fp, #-128]	; 0xffffff80
 c009c60:	e0822003 	add	r2, r2, r3
 c009c64:	e51b3088 	ldr	r3, [fp, #-136]	; 0xffffff78
 c009c68:	e0823003 	add	r3, r2, r3
 c009c6c:	e2832003 	add	r2, r3, #3
 c009c70:	e3530000 	cmp	r3, #0
 c009c74:	b1a03002 	movlt	r3, r2
 c009c78:	e1a03143 	asr	r3, r3, #2
 c009c7c:	e1a02003 	mov	r2, r3
 c009c80:	e59f32f0 	ldr	r3, [pc, #752]	; c009f78 <ts_calibrate_5pt+0x5dc>
 c009c84:	e5832000 	str	r2, [r3]
    g_ts_yc = (A_ts_y + B_ts_y + C_ts_y + D_ts_y) / 4;
 c009c88:	e51b2074 	ldr	r2, [fp, #-116]	; 0xffffff8c
 c009c8c:	e51b307c 	ldr	r3, [fp, #-124]	; 0xffffff84
 c009c90:	e0822003 	add	r2, r2, r3
 c009c94:	e51b3084 	ldr	r3, [fp, #-132]	; 0xffffff7c
 c009c98:	e0822003 	add	r2, r2, r3
 c009c9c:	e51b308c 	ldr	r3, [fp, #-140]	; 0xffffff74
 c009ca0:	e0823003 	add	r3, r2, r3
 c009ca4:	e2832003 	add	r2, r3, #3
 c009ca8:	e3530000 	cmp	r3, #0
 c009cac:	b1a03002 	movlt	r3, r2
 c009cb0:	e1a03143 	asr	r3, r3, #2
 c009cb4:	e1a02003 	mov	r2, r3
 c009cb8:	e59f32bc 	ldr	r3, [pc, #700]	; c009f7c <ts_calibrate_5pt+0x5e0>
 c009cbc:	e5832000 	str	r2, [r3]
    g_lcd_xc = XRES / 2;
 c009cc0:	e51b3098 	ldr	r3, [fp, #-152]	; 0xffffff68
 c009cc4:	e1a02fa3 	lsr	r2, r3, #31
 c009cc8:	e0823003 	add	r3, r2, r3
 c009ccc:	e1a030c3 	asr	r3, r3, #1
 c009cd0:	e1a02003 	mov	r2, r3
 c009cd4:	e59f32a4 	ldr	r3, [pc, #676]	; c009f80 <ts_calibrate_5pt+0x5e4>
 c009cd8:	e5832000 	str	r2, [r3]
    g_lcd_yc = YRES / 2;
 c009cdc:	e51b309c 	ldr	r3, [fp, #-156]	; 0xffffff64
 c009ce0:	e1a02fa3 	lsr	r2, r3, #31
 c009ce4:	e0823003 	add	r3, r2, r3
 c009ce8:	e1a030c3 	asr	r3, r3, #1
 c009cec:	e1a02003 	mov	r2, r3
 c009cf0:	e59f328c 	ldr	r3, [pc, #652]	; c009f84 <ts_calibrate_5pt+0x5e8>
 c009cf4:	e5832000 	str	r2, [r3]
    
    // CLCULO DE kx y ky (CON SIGNO - fixed-point 16.16)
    lcd_s = XRES - 2 * M;
 c009cf8:	e51b20a0 	ldr	r2, [fp, #-160]	; 0xffffff60
 c009cfc:	e1a03002 	mov	r3, r2
 c009d00:	e1a03f83 	lsl	r3, r3, #31
 c009d04:	e0623003 	rsb	r3, r2, r3
 c009d08:	e1a03083 	lsl	r3, r3, #1
 c009d0c:	e1a02003 	mov	r2, r3
 c009d10:	e51b3098 	ldr	r3, [fp, #-152]	; 0xffffff68
 c009d14:	e0823003 	add	r3, r2, r3
 c009d18:	e50b304c 	str	r3, [fp, #-76]	; 0xffffffb4
    lcd_d = YRES - 2 * M;
 c009d1c:	e51b20a0 	ldr	r2, [fp, #-160]	; 0xffffff60
 c009d20:	e1a03002 	mov	r3, r2
 c009d24:	e1a03f83 	lsl	r3, r3, #31
 c009d28:	e0623003 	rsb	r3, r2, r3
 c009d2c:	e1a03083 	lsl	r3, r3, #1
 c009d30:	e1a02003 	mov	r2, r3
 c009d34:	e51b309c 	ldr	r3, [fp, #-156]	; 0xffffff64
 c009d38:	e0823003 	add	r3, r2, r3
 c009d3c:	e50b3050 	str	r3, [fp, #-80]	; 0xffffffb0
    
    ts_s1 = B_ts_x - A_ts_x;
 c009d40:	e51b2078 	ldr	r2, [fp, #-120]	; 0xffffff88
 c009d44:	e51b3070 	ldr	r3, [fp, #-112]	; 0xffffff90
 c009d48:	e0633002 	rsb	r3, r3, r2
 c009d4c:	e50b3054 	str	r3, [fp, #-84]	; 0xffffffac
    ts_s2 = C_ts_x - D_ts_x;
 c009d50:	e51b2080 	ldr	r2, [fp, #-128]	; 0xffffff80
 c009d54:	e51b3088 	ldr	r3, [fp, #-136]	; 0xffffff78
 c009d58:	e0633002 	rsb	r3, r3, r2
 c009d5c:	e50b3058 	str	r3, [fp, #-88]	; 0xffffffa8
    ts_d1 = D_ts_y - A_ts_y;
 c009d60:	e51b208c 	ldr	r2, [fp, #-140]	; 0xffffff74
 c009d64:	e51b3074 	ldr	r3, [fp, #-116]	; 0xffffff8c
 c009d68:	e0633002 	rsb	r3, r3, r2
 c009d6c:	e50b305c 	str	r3, [fp, #-92]	; 0xffffffa4
    ts_d2 = C_ts_y - B_ts_y;
 c009d70:	e51b2084 	ldr	r2, [fp, #-132]	; 0xffffff7c
 c009d74:	e51b307c 	ldr	r3, [fp, #-124]	; 0xffffff84
 c009d78:	e0633002 	rsb	r3, r3, r2
 c009d7c:	e50b3060 	str	r3, [fp, #-96]	; 0xffffffa0
    
    // Usar promedios para mayor precisin
    temp = (long long)lcd_s << 17;  // Multiplicar por 2 usando shift (<<17 = <<16 * 2)
 c009d80:	e51b304c 	ldr	r3, [fp, #-76]	; 0xffffffb4
 c009d84:	e1a04fc3 	asr	r4, r3, #31
 c009d88:	e1a027a3 	lsr	r2, r3, #15
 c009d8c:	e1a01884 	lsl	r1, r4, #17
 c009d90:	e1812002 	orr	r2, r1, r2
 c009d94:	e50b2068 	str	r2, [fp, #-104]	; 0xffffff98
 c009d98:	e1a03883 	lsl	r3, r3, #17
 c009d9c:	e50b306c 	str	r3, [fp, #-108]	; 0xffffff94
    g_kx_fp = (long)(temp / (ts_s1 + ts_s2));
 c009da0:	e51b2054 	ldr	r2, [fp, #-84]	; 0xffffffac
 c009da4:	e51b3058 	ldr	r3, [fp, #-88]	; 0xffffffa8
 c009da8:	e0823003 	add	r3, r2, r3
 c009dac:	e1a04fc3 	asr	r4, r3, #31
 c009db0:	e24b106c 	sub	r1, fp, #108	; 0x6c
 c009db4:	e8910003 	ldm	r1, {r0, r1}
 c009db8:	e1a02003 	mov	r2, r3
 c009dbc:	e1a03004 	mov	r3, r4
 c009dc0:	eb000575 	bl	c00b39c <__aeabi_ldivmod>
 c009dc4:	e1a03000 	mov	r3, r0
 c009dc8:	e1a04001 	mov	r4, r1
 c009dcc:	e1a02003 	mov	r2, r3
 c009dd0:	e59f31b0 	ldr	r3, [pc, #432]	; c009f88 <ts_calibrate_5pt+0x5ec>
 c009dd4:	e5832000 	str	r2, [r3]
    
    temp = (long long)lcd_d << 17;  // Multiplicar por 2 usando shift
 c009dd8:	e51b3050 	ldr	r3, [fp, #-80]	; 0xffffffb0
 c009ddc:	e1a04fc3 	asr	r4, r3, #31
 c009de0:	e1a027a3 	lsr	r2, r3, #15
 c009de4:	e1a01884 	lsl	r1, r4, #17
 c009de8:	e1812002 	orr	r2, r1, r2
 c009dec:	e50b2068 	str	r2, [fp, #-104]	; 0xffffff98
 c009df0:	e1a03883 	lsl	r3, r3, #17
 c009df4:	e50b306c 	str	r3, [fp, #-108]	; 0xffffff94
    g_ky_fp = (long)(temp / (ts_d1 + ts_d2));
 c009df8:	e51b205c 	ldr	r2, [fp, #-92]	; 0xffffffa4
 c009dfc:	e51b3060 	ldr	r3, [fp, #-96]	; 0xffffffa0
 c009e00:	e0823003 	add	r3, r2, r3
 c009e04:	e1a04fc3 	asr	r4, r3, #31
 c009e08:	e24b106c 	sub	r1, fp, #108	; 0x6c
 c009e0c:	e8910003 	ldm	r1, {r0, r1}
 c009e10:	e1a02003 	mov	r2, r3
 c009e14:	e1a03004 	mov	r3, r4
 c009e18:	eb00055f 	bl	c00b39c <__aeabi_ldivmod>
 c009e1c:	e1a03000 	mov	r3, r0
 c009e20:	e1a04001 	mov	r4, r1
 c009e24:	e1a02003 	mov	r2, r3
 c009e28:	e59f315c 	ldr	r3, [pc, #348]	; c009f8c <ts_calibrate_5pt+0x5f0>
 c009e2c:	e5832000 	str	r2, [r3]
    
    // Mostrar resultados de calibracin
    Lcd_Clr();
 c009e30:	ebffe55c 	bl	c0033a8 <Lcd_Clr>
    
    Lcd_DspAscII6x8(10, 10, BLACK, (unsigned char *)"=== CALIBRACION OK ===");
 c009e34:	e3a0000a 	mov	r0, #10
 c009e38:	e3a0100a 	mov	r1, #10
 c009e3c:	e3a0200f 	mov	r2, #15
 c009e40:	e59f3148 	ldr	r3, [pc, #328]	; c009f90 <ts_calibrate_5pt+0x5f4>
 c009e44:	ebffeb63 	bl	c004bd8 <Lcd_DspAscII6x8>
    
    if (g_swap_xy)
 c009e48:	e59f3124 	ldr	r3, [pc, #292]	; c009f74 <ts_calibrate_5pt+0x5d8>
 c009e4c:	e5933000 	ldr	r3, [r3]
 c009e50:	e3530000 	cmp	r3, #0
 c009e54:	0a000005 	beq	c009e70 <ts_calibrate_5pt+0x4d4>
        Lcd_DspAscII6x8(10, 30, BLACK, (unsigned char *)"Swap XY: SI");
 c009e58:	e3a0000a 	mov	r0, #10
 c009e5c:	e3a0101e 	mov	r1, #30
 c009e60:	e3a0200f 	mov	r2, #15
 c009e64:	e59f3128 	ldr	r3, [pc, #296]	; c009f94 <ts_calibrate_5pt+0x5f8>
 c009e68:	ebffeb5a 	bl	c004bd8 <Lcd_DspAscII6x8>
 c009e6c:	ea000004 	b	c009e84 <ts_calibrate_5pt+0x4e8>
    else
        Lcd_DspAscII6x8(10, 30, BLACK, (unsigned char *)"Swap XY: NO");
 c009e70:	e3a0000a 	mov	r0, #10
 c009e74:	e3a0101e 	mov	r1, #30
 c009e78:	e3a0200f 	mov	r2, #15
 c009e7c:	e59f3114 	ldr	r3, [pc, #276]	; c009f98 <ts_calibrate_5pt+0x5fc>
 c009e80:	ebffeb54 	bl	c004bd8 <Lcd_DspAscII6x8>
    
    Lcd_DspAscII6x8(10, 50, BLACK, (unsigned char *)"Puntos capturados OK");
 c009e84:	e3a0000a 	mov	r0, #10
 c009e88:	e3a01032 	mov	r1, #50	; 0x32
 c009e8c:	e3a0200f 	mov	r2, #15
 c009e90:	e59f3104 	ldr	r3, [pc, #260]	; c009f9c <ts_calibrate_5pt+0x600>
 c009e94:	ebffeb4f 	bl	c004bd8 <Lcd_DspAscII6x8>
    Lcd_DspAscII6x8(10, 70, BLACK, (unsigned char *)"Factores calculados");
 c009e98:	e3a0000a 	mov	r0, #10
 c009e9c:	e3a01046 	mov	r1, #70	; 0x46
 c009ea0:	e3a0200f 	mov	r2, #15
 c009ea4:	e59f30f4 	ldr	r3, [pc, #244]	; c009fa0 <ts_calibrate_5pt+0x604>
 c009ea8:	ebffeb4a 	bl	c004bd8 <Lcd_DspAscII6x8>
    
    // Mostrar signo de las escalas
    if (g_kx_fp > 0)
 c009eac:	e59f30d4 	ldr	r3, [pc, #212]	; c009f88 <ts_calibrate_5pt+0x5ec>
 c009eb0:	e5933000 	ldr	r3, [r3]
 c009eb4:	e3530000 	cmp	r3, #0
 c009eb8:	da000005 	ble	c009ed4 <ts_calibrate_5pt+0x538>
        Lcd_DspAscII6x8(10, 90, BLACK, (unsigned char *)"kx: POSITIVO");
 c009ebc:	e3a0000a 	mov	r0, #10
 c009ec0:	e3a0105a 	mov	r1, #90	; 0x5a
 c009ec4:	e3a0200f 	mov	r2, #15
 c009ec8:	e59f30d4 	ldr	r3, [pc, #212]	; c009fa4 <ts_calibrate_5pt+0x608>
 c009ecc:	ebffeb41 	bl	c004bd8 <Lcd_DspAscII6x8>
 c009ed0:	ea000004 	b	c009ee8 <ts_calibrate_5pt+0x54c>
    else
        Lcd_DspAscII6x8(10, 90, BLACK, (unsigned char *)"kx: NEGATIVO");
 c009ed4:	e3a0000a 	mov	r0, #10
 c009ed8:	e3a0105a 	mov	r1, #90	; 0x5a
 c009edc:	e3a0200f 	mov	r2, #15
 c009ee0:	e59f30c0 	ldr	r3, [pc, #192]	; c009fa8 <ts_calibrate_5pt+0x60c>
 c009ee4:	ebffeb3b 	bl	c004bd8 <Lcd_DspAscII6x8>
        
    if (g_ky_fp > 0)
 c009ee8:	e59f309c 	ldr	r3, [pc, #156]	; c009f8c <ts_calibrate_5pt+0x5f0>
 c009eec:	e5933000 	ldr	r3, [r3]
 c009ef0:	e3530000 	cmp	r3, #0
 c009ef4:	da000005 	ble	c009f10 <ts_calibrate_5pt+0x574>
        Lcd_DspAscII6x8(10, 110, BLACK, (unsigned char *)"ky: POSITIVO");
 c009ef8:	e3a0000a 	mov	r0, #10
 c009efc:	e3a0106e 	mov	r1, #110	; 0x6e
 c009f00:	e3a0200f 	mov	r2, #15
 c009f04:	e59f30a0 	ldr	r3, [pc, #160]	; c009fac <ts_calibrate_5pt+0x610>
 c009f08:	ebffeb32 	bl	c004bd8 <Lcd_DspAscII6x8>
 c009f0c:	ea000004 	b	c009f24 <ts_calibrate_5pt+0x588>
    else
        Lcd_DspAscII6x8(10, 110, BLACK, (unsigned char *)"ky: NEGATIVO");
 c009f10:	e3a0000a 	mov	r0, #10
 c009f14:	e3a0106e 	mov	r1, #110	; 0x6e
 c009f18:	e3a0200f 	mov	r2, #15
 c009f1c:	e59f308c 	ldr	r3, [pc, #140]	; c009fb0 <ts_calibrate_5pt+0x614>
 c009f20:	ebffeb2c 	bl	c004bd8 <Lcd_DspAscII6x8>
    
    Lcd_DspAscII6x8(10, 140, BLACK, (unsigned char *)"[Toca para continuar]");
 c009f24:	e3a0000a 	mov	r0, #10
 c009f28:	e3a0108c 	mov	r1, #140	; 0x8c
 c009f2c:	e3a0200f 	mov	r2, #15
 c009f30:	e59f307c 	ldr	r3, [pc, #124]	; c009fb4 <ts_calibrate_5pt+0x618>
 c009f34:	ebffeb27 	bl	c004bd8 <Lcd_DspAscII6x8>
    
    Lcd_Dma_Trans();
 c009f38:	ebffebe4 	bl	c004ed0 <Lcd_Dma_Trans>
    
    // Esperar toque para continuar
    ts_wait_for_touch();
 c009f3c:	ebfffd8b 	bl	c009570 <ts_wait_for_touch>
    Delay(50);
 c009f40:	e3a00032 	mov	r0, #50	; 0x32
 c009f44:	ebffd9f0 	bl	c00070c <Delay>
    
    Lcd_Clr();
 c009f48:	ebffe516 	bl	c0033a8 <Lcd_Clr>
    Lcd_Dma_Trans();
 c009f4c:	ebffebdf 	bl	c004ed0 <Lcd_Dma_Trans>
}
 c009f50:	e24bd010 	sub	sp, fp, #16
 c009f54:	e89d6810 	ldm	sp, {r4, fp, sp, lr}
 c009f58:	e12fff1e 	bx	lr
 c009f5c:	0c00ed60 	.word	0x0c00ed60
 c009f60:	0c00ed74 	.word	0x0c00ed74
 c009f64:	0c00ed84 	.word	0x0c00ed84
 c009f68:	0c00ed94 	.word	0x0c00ed94
 c009f6c:	0c00eda4 	.word	0x0c00eda4
 c009f70:	0c00edb4 	.word	0x0c00edb4
 c009f74:	0c00ef34 	.word	0x0c00ef34
 c009f78:	0c00ef40 	.word	0x0c00ef40
 c009f7c:	0c00ef44 	.word	0x0c00ef44
 c009f80:	0c00ef48 	.word	0x0c00ef48
 c009f84:	0c00ef4c 	.word	0x0c00ef4c
 c009f88:	0c00ef38 	.word	0x0c00ef38
 c009f8c:	0c00ef3c 	.word	0x0c00ef3c
 c009f90:	0c00edc4 	.word	0x0c00edc4
 c009f94:	0c00eddc 	.word	0x0c00eddc
 c009f98:	0c00ede8 	.word	0x0c00ede8
 c009f9c:	0c00edf4 	.word	0x0c00edf4
 c009fa0:	0c00ee0c 	.word	0x0c00ee0c
 c009fa4:	0c00ee20 	.word	0x0c00ee20
 c009fa8:	0c00ee30 	.word	0x0c00ee30
 c009fac:	0c00ee40 	.word	0x0c00ee40
 c009fb0:	0c00ee50 	.word	0x0c00ee50
 c009fb4:	0c00ee60 	.word	0x0c00ee60

0c009fb8 <ts_read_calibrated>:
* name:     ts_read_calibrated
* func:     Lee coordenadas calibradas del touchscreen
* ret:      0 si xito, -1 si no hay toque
*********************************************************************************************/
int ts_read_calibrated(int *x, int *y)
{
 c009fb8:	e1a0c00d 	mov	ip, sp
 c009fbc:	e92ddff0 	push	{r4, r5, r6, r7, r8, r9, sl, fp, ip, lr, pc}
 c009fc0:	e24cb004 	sub	fp, ip, #4
 c009fc4:	e24dd02c 	sub	sp, sp, #44	; 0x2c
 c009fc8:	e50b0050 	str	r0, [fp, #-80]	; 0xffffffb0
 c009fcc:	e50b1054 	str	r1, [fp, #-84]	; 0xffffffac
    int xr, yr;
    long long temp_x, temp_y;
    
    if (g_ts_ready == 0)
 c009fd0:	e59f21c0 	ldr	r2, [pc, #448]	; c00a198 <ts_read_calibrated+0x1e0>
 c009fd4:	e5922000 	ldr	r2, [r2]
 c009fd8:	e3520000 	cmp	r2, #0
 c009fdc:	1a000001 	bne	c009fe8 <ts_read_calibrated+0x30>
        return -1;
 c009fe0:	e3e03000 	mvn	r3, #0
 c009fe4:	ea000067 	b	c00a188 <ts_read_calibrated+0x1d0>
    
    xr = g_ts_raw_x;
 c009fe8:	e59f21ac 	ldr	r2, [pc, #428]	; c00a19c <ts_read_calibrated+0x1e4>
 c009fec:	e5922000 	ldr	r2, [r2]
 c009ff0:	e50b2030 	str	r2, [fp, #-48]	; 0xffffffd0
    yr = g_ts_raw_y;
 c009ff4:	e59f21a4 	ldr	r2, [pc, #420]	; c00a1a0 <ts_read_calibrated+0x1e8>
 c009ff8:	e5922000 	ldr	r2, [r2]
 c009ffc:	e50b2034 	str	r2, [fp, #-52]	; 0xffffffcc
    g_ts_ready = 0;
 c00a000:	e59f2190 	ldr	r2, [pc, #400]	; c00a198 <ts_read_calibrated+0x1e0>
 c00a004:	e3a01000 	mov	r1, #0
 c00a008:	e5821000 	str	r1, [r2]
    
    // Aplicar swap si necesario
    if (g_swap_xy)
 c00a00c:	e59f2190 	ldr	r2, [pc, #400]	; c00a1a4 <ts_read_calibrated+0x1ec>
 c00a010:	e5922000 	ldr	r2, [r2]
 c00a014:	e3520000 	cmp	r2, #0
 c00a018:	0a000005 	beq	c00a034 <ts_read_calibrated+0x7c>
    {
        int tmp = xr;
 c00a01c:	e51b2030 	ldr	r2, [fp, #-48]	; 0xffffffd0
 c00a020:	e50b2038 	str	r2, [fp, #-56]	; 0xffffffc8
        xr = yr;
 c00a024:	e51b2034 	ldr	r2, [fp, #-52]	; 0xffffffcc
 c00a028:	e50b2030 	str	r2, [fp, #-48]	; 0xffffffd0
        yr = tmp;
 c00a02c:	e51b2038 	ldr	r2, [fp, #-56]	; 0xffffffc8
 c00a030:	e50b2034 	str	r2, [fp, #-52]	; 0xffffffcc
    }
    
    // CONVERSIN con fixed-point 16.16
    temp_x = (long long)g_kx_fp * (xr - g_ts_xc);
 c00a034:	e59f216c 	ldr	r2, [pc, #364]	; c00a1a8 <ts_read_calibrated+0x1f0>
 c00a038:	e5922000 	ldr	r2, [r2]
 c00a03c:	e1a09002 	mov	r9, r2
 c00a040:	e1a0afc9 	asr	sl, r9, #31
 c00a044:	e59f2160 	ldr	r2, [pc, #352]	; c00a1ac <ts_read_calibrated+0x1f4>
 c00a048:	e5922000 	ldr	r2, [r2]
 c00a04c:	e51b1030 	ldr	r1, [fp, #-48]	; 0xffffffd0
 c00a050:	e0622001 	rsb	r2, r2, r1
 c00a054:	e1a07002 	mov	r7, r2
 c00a058:	e1a08fc7 	asr	r8, r7, #31
 c00a05c:	e0000a97 	mul	r0, r7, sl
 c00a060:	e0020899 	mul	r2, r9, r8
 c00a064:	e0800002 	add	r0, r0, r2
 c00a068:	e0821799 	umull	r1, r2, r9, r7
 c00a06c:	e0800002 	add	r0, r0, r2
 c00a070:	e1a02000 	mov	r2, r0
 c00a074:	e50b1044 	str	r1, [fp, #-68]	; 0xffffffbc
 c00a078:	e50b2040 	str	r2, [fp, #-64]	; 0xffffffc0
 c00a07c:	e50b1044 	str	r1, [fp, #-68]	; 0xffffffbc
 c00a080:	e50b2040 	str	r2, [fp, #-64]	; 0xffffffc0
    *x = (int)(temp_x >> 16) + g_lcd_xc;
 c00a084:	e51b2040 	ldr	r2, [fp, #-64]	; 0xffffffc0
 c00a088:	e1a02802 	lsl	r2, r2, #16
 c00a08c:	e51b1044 	ldr	r1, [fp, #-68]	; 0xffffffbc
 c00a090:	e1a05821 	lsr	r5, r1, #16
 c00a094:	e1825005 	orr	r5, r2, r5
 c00a098:	e51b2040 	ldr	r2, [fp, #-64]	; 0xffffffc0
 c00a09c:	e1a06842 	asr	r6, r2, #16
 c00a0a0:	e1a01005 	mov	r1, r5
 c00a0a4:	e59f2104 	ldr	r2, [pc, #260]	; c00a1b0 <ts_read_calibrated+0x1f8>
 c00a0a8:	e5922000 	ldr	r2, [r2]
 c00a0ac:	e0811002 	add	r1, r1, r2
 c00a0b0:	e51b2050 	ldr	r2, [fp, #-80]	; 0xffffffb0
 c00a0b4:	e5821000 	str	r1, [r2]
    
    temp_y = (long long)g_ky_fp * (yr - g_ts_yc);
 c00a0b8:	e59f20f4 	ldr	r2, [pc, #244]	; c00a1b4 <ts_read_calibrated+0x1fc>
 c00a0bc:	e5922000 	ldr	r2, [r2]
 c00a0c0:	e1a07002 	mov	r7, r2
 c00a0c4:	e1a08fc7 	asr	r8, r7, #31
 c00a0c8:	e59f20e8 	ldr	r2, [pc, #232]	; c00a1b8 <ts_read_calibrated+0x200>
 c00a0cc:	e5922000 	ldr	r2, [r2]
 c00a0d0:	e51b1034 	ldr	r1, [fp, #-52]	; 0xffffffcc
 c00a0d4:	e0622001 	rsb	r2, r2, r1
 c00a0d8:	e1a05002 	mov	r5, r2
 c00a0dc:	e1a06fc5 	asr	r6, r5, #31
 c00a0e0:	e0000895 	mul	r0, r5, r8
 c00a0e4:	e0020697 	mul	r2, r7, r6
 c00a0e8:	e0800002 	add	r0, r0, r2
 c00a0ec:	e0821597 	umull	r1, r2, r7, r5
 c00a0f0:	e0800002 	add	r0, r0, r2
 c00a0f4:	e1a02000 	mov	r2, r0
 c00a0f8:	e50b104c 	str	r1, [fp, #-76]	; 0xffffffb4
 c00a0fc:	e50b2048 	str	r2, [fp, #-72]	; 0xffffffb8
 c00a100:	e50b104c 	str	r1, [fp, #-76]	; 0xffffffb4
 c00a104:	e50b2048 	str	r2, [fp, #-72]	; 0xffffffb8
    *y = (int)(temp_y >> 16) + g_lcd_yc;
 c00a108:	e51b2048 	ldr	r2, [fp, #-72]	; 0xffffffb8
 c00a10c:	e1a02802 	lsl	r2, r2, #16
 c00a110:	e51b104c 	ldr	r1, [fp, #-76]	; 0xffffffb4
 c00a114:	e1a03821 	lsr	r3, r1, #16
 c00a118:	e1823003 	orr	r3, r2, r3
 c00a11c:	e51b2048 	ldr	r2, [fp, #-72]	; 0xffffffb8
 c00a120:	e1a04842 	asr	r4, r2, #16
 c00a124:	e1a02003 	mov	r2, r3
 c00a128:	e59f308c 	ldr	r3, [pc, #140]	; c00a1bc <ts_read_calibrated+0x204>
 c00a12c:	e5933000 	ldr	r3, [r3]
 c00a130:	e0822003 	add	r2, r2, r3
 c00a134:	e51b3054 	ldr	r3, [fp, #-84]	; 0xffffffac
 c00a138:	e5832000 	str	r2, [r3]
    
    // Clampear
    *x = clamp(*x, 0, SCR_XSIZE - 1);
 c00a13c:	e51b3050 	ldr	r3, [fp, #-80]	; 0xffffffb0
 c00a140:	e5933000 	ldr	r3, [r3]
 c00a144:	e1a00003 	mov	r0, r3
 c00a148:	e3a01000 	mov	r1, #0
 c00a14c:	e59f206c 	ldr	r2, [pc, #108]	; c00a1c0 <ts_read_calibrated+0x208>
 c00a150:	ebfffc05 	bl	c00916c <clamp>
 c00a154:	e1a02000 	mov	r2, r0
 c00a158:	e51b3050 	ldr	r3, [fp, #-80]	; 0xffffffb0
 c00a15c:	e5832000 	str	r2, [r3]
    *y = clamp(*y, 0, SCR_YSIZE - 1);
 c00a160:	e51b3054 	ldr	r3, [fp, #-84]	; 0xffffffac
 c00a164:	e5933000 	ldr	r3, [r3]
 c00a168:	e1a00003 	mov	r0, r3
 c00a16c:	e3a01000 	mov	r1, #0
 c00a170:	e3a020ef 	mov	r2, #239	; 0xef
 c00a174:	ebfffbfc 	bl	c00916c <clamp>
 c00a178:	e1a02000 	mov	r2, r0
 c00a17c:	e51b3054 	ldr	r3, [fp, #-84]	; 0xffffffac
 c00a180:	e5832000 	str	r2, [r3]
    
    return 0;
 c00a184:	e3a03000 	mov	r3, #0
}
 c00a188:	e1a00003 	mov	r0, r3
 c00a18c:	e24bd028 	sub	sp, fp, #40	; 0x28
 c00a190:	e89d6ff0 	ldm	sp, {r4, r5, r6, r7, r8, r9, sl, fp, sp, lr}
 c00a194:	e12fff1e 	bx	lr
 c00a198:	0c00ef50 	.word	0x0c00ef50
 c00a19c:	0c00ef54 	.word	0x0c00ef54
 c00a1a0:	0c00ef58 	.word	0x0c00ef58
 c00a1a4:	0c00ef34 	.word	0x0c00ef34
 c00a1a8:	0c00ef38 	.word	0x0c00ef38
 c00a1ac:	0c00ef40 	.word	0x0c00ef40
 c00a1b0:	0c00ef48 	.word	0x0c00ef48
 c00a1b4:	0c00ef3c 	.word	0x0c00ef3c
 c00a1b8:	0c00ef44 	.word	0x0c00ef44
 c00a1bc:	0c00ef4c 	.word	0x0c00ef4c
 c00a1c0:	0000013f 	.word	0x0000013f

0c00a1c4 <ts_test_calibracion>:
/*********************************************************************************************
* name:     ts_test_calibracion
* func:     Funcin de test completa: calibra y permite dibujar
*********************************************************************************************/
void ts_test_calibracion(void)
{
 c00a1c4:	e1a0c00d 	mov	ip, sp
 c00a1c8:	e92dd800 	push	{fp, ip, lr, pc}
 c00a1cc:	e24cb004 	sub	fp, ip, #4
 c00a1d0:	e24dd008 	sub	sp, sp, #8
    int x, y;
    
    Lcd_Init();
 c00a1d4:	ebffe3c0 	bl	c0030dc <Lcd_Init>
    TS_init();
 c00a1d8:	ebfffa2b 	bl	c008a8c <TS_init>
    
    // Calibrar con margen de 50 pxeles
    ts_calibrate_5pt(SCR_XSIZE, SCR_YSIZE, 50);
 c00a1dc:	e3a00d05 	mov	r0, #320	; 0x140
 c00a1e0:	e3a010f0 	mov	r1, #240	; 0xf0
 c00a1e4:	e3a02032 	mov	r2, #50	; 0x32
 c00a1e8:	ebfffdeb 	bl	c00999c <ts_calibrate_5pt>
    
    Lcd_Clr();
 c00a1ec:	ebffe46d 	bl	c0033a8 <Lcd_Clr>
    Lcd_Active_Clr();
 c00a1f0:	ebffe41e 	bl	c003270 <Lcd_Active_Clr>
    Lcd_DspAscII8x16(80, 110, BLACK, (unsigned char *)"Dibuja!");
 c00a1f4:	e3a00050 	mov	r0, #80	; 0x50
 c00a1f8:	e3a0106e 	mov	r1, #110	; 0x6e
 c00a1fc:	e3a0200f 	mov	r2, #15
 c00a200:	e59f3168 	ldr	r3, [pc, #360]	; c00a370 <ts_test_calibracion+0x1ac>
 c00a204:	ebffe9ae 	bl	c0048c4 <Lcd_DspAscII8x16>
    Lcd_Dma_Trans();
 c00a208:	ebffeb30 	bl	c004ed0 <Lcd_Dma_Trans>
    Delay(100);
 c00a20c:	e3a00064 	mov	r0, #100	; 0x64
 c00a210:	ebffd93d 	bl	c00070c <Delay>
    
    Lcd_Clr();
 c00a214:	ebffe463 	bl	c0033a8 <Lcd_Clr>
    Lcd_Dma_Trans();
 c00a218:	ebffeb2c 	bl	c004ed0 <Lcd_Dma_Trans>
 c00a21c:	ea000002 	b	c00a22c <ts_test_calibracion+0x68>
            {
                Lcd_Dma_Trans();
                count = 0;
            }
        }
    }
 c00a220:	e1a00000 	nop			; (mov r0, r0)
 c00a224:	ea000000 	b	c00a22c <ts_test_calibracion+0x68>
 c00a228:	e1a00000 	nop			; (mov r0, r0)
    Lcd_Dma_Trans();
    
    // Loop de dibujo
    while (1)
    {
        if (ts_read_calibrated(&x, &y) == 0)
 c00a22c:	e24b2010 	sub	r2, fp, #16
 c00a230:	e24b3014 	sub	r3, fp, #20
 c00a234:	e1a00002 	mov	r0, r2
 c00a238:	e1a01003 	mov	r1, r3
 c00a23c:	ebffff5d 	bl	c009fb8 <ts_read_calibrated>
 c00a240:	e1a03000 	mov	r3, r0
 c00a244:	e3530000 	cmp	r3, #0
 c00a248:	1afffff4 	bne	c00a220 <ts_test_calibracion+0x5c>
        {
            (LCD_PutPixel(x, y, 0xf));
 c00a24c:	e51b2014 	ldr	r2, [fp, #-20]	; 0xffffffec
 c00a250:	e1a03002 	mov	r3, r2
 c00a254:	e1a03103 	lsl	r3, r3, #2
 c00a258:	e0833002 	add	r3, r3, r2
 c00a25c:	e1a03303 	lsl	r3, r3, #6
 c00a260:	e1a02fa3 	lsr	r2, r3, #31
 c00a264:	e0823003 	add	r3, r2, r3
 c00a268:	e1a030c3 	asr	r3, r3, #1
 c00a26c:	e28326c3 	add	r2, r3, #204472320	; 0xc300000
 c00a270:	e2822c96 	add	r2, r2, #38400	; 0x9600
 c00a274:	e51b3010 	ldr	r3, [fp, #-16]
 c00a278:	e2831007 	add	r1, r3, #7
 c00a27c:	e3530000 	cmp	r3, #0
 c00a280:	b1a03001 	movlt	r3, r1
 c00a284:	e1a031c3 	asr	r3, r3, #3
 c00a288:	e1a03103 	lsl	r3, r3, #2
 c00a28c:	e0823003 	add	r3, r2, r3
 c00a290:	e1a01003 	mov	r1, r3
 c00a294:	e51b2014 	ldr	r2, [fp, #-20]	; 0xffffffec
 c00a298:	e1a03002 	mov	r3, r2
 c00a29c:	e1a03103 	lsl	r3, r3, #2
 c00a2a0:	e0833002 	add	r3, r3, r2
 c00a2a4:	e1a03303 	lsl	r3, r3, #6
 c00a2a8:	e1a02fa3 	lsr	r2, r3, #31
 c00a2ac:	e0823003 	add	r3, r2, r3
 c00a2b0:	e1a030c3 	asr	r3, r3, #1
 c00a2b4:	e28326c3 	add	r2, r3, #204472320	; 0xc300000
 c00a2b8:	e2822c96 	add	r2, r2, #38400	; 0x9600
 c00a2bc:	e51b3010 	ldr	r3, [fp, #-16]
 c00a2c0:	e2830007 	add	r0, r3, #7
 c00a2c4:	e3530000 	cmp	r3, #0
 c00a2c8:	b1a03000 	movlt	r3, r0
 c00a2cc:	e1a031c3 	asr	r3, r3, #3
 c00a2d0:	e1a03103 	lsl	r3, r3, #2
 c00a2d4:	e0823003 	add	r3, r2, r3
 c00a2d8:	e5930000 	ldr	r0, [r3]
 c00a2dc:	e51b2010 	ldr	r2, [fp, #-16]
 c00a2e0:	e1a03fc2 	asr	r3, r2, #31
 c00a2e4:	e1a03ea3 	lsr	r3, r3, #29
 c00a2e8:	e0822003 	add	r2, r2, r3
 c00a2ec:	e2022007 	and	r2, r2, #7
 c00a2f0:	e0633002 	rsb	r3, r3, r2
 c00a2f4:	e1a03103 	lsl	r3, r3, #2
 c00a2f8:	e3a0220f 	mov	r2, #-268435456	; 0xf0000000
 c00a2fc:	e1a03332 	lsr	r3, r2, r3
 c00a300:	e1e03003 	mvn	r3, r3
 c00a304:	e0000003 	and	r0, r0, r3
 c00a308:	e51b2010 	ldr	r2, [fp, #-16]
 c00a30c:	e1a03fc2 	asr	r3, r2, #31
 c00a310:	e1a03ea3 	lsr	r3, r3, #29
 c00a314:	e0822003 	add	r2, r2, r3
 c00a318:	e2022007 	and	r2, r2, #7
 c00a31c:	e0633002 	rsb	r3, r3, r2
 c00a320:	e2633007 	rsb	r3, r3, #7
 c00a324:	e1a03103 	lsl	r3, r3, #2
 c00a328:	e3a0200f 	mov	r2, #15
 c00a32c:	e1a03312 	lsl	r3, r2, r3
 c00a330:	e1803003 	orr	r3, r0, r3
 c00a334:	e5813000 	str	r3, [r1]
            
            static int count = 0;
            if (++count >= 5)
 c00a338:	e59f3034 	ldr	r3, [pc, #52]	; c00a374 <ts_test_calibracion+0x1b0>
 c00a33c:	e5933000 	ldr	r3, [r3]
 c00a340:	e2832001 	add	r2, r3, #1
 c00a344:	e59f3028 	ldr	r3, [pc, #40]	; c00a374 <ts_test_calibracion+0x1b0>
 c00a348:	e5832000 	str	r2, [r3]
 c00a34c:	e59f3020 	ldr	r3, [pc, #32]	; c00a374 <ts_test_calibracion+0x1b0>
 c00a350:	e5933000 	ldr	r3, [r3]
 c00a354:	e3530004 	cmp	r3, #4
 c00a358:	daffffb2 	ble	c00a228 <ts_test_calibracion+0x64>
            {
                Lcd_Dma_Trans();
 c00a35c:	ebffeadb 	bl	c004ed0 <Lcd_Dma_Trans>
                count = 0;
 c00a360:	e59f300c 	ldr	r3, [pc, #12]	; c00a374 <ts_test_calibracion+0x1b0>
 c00a364:	e3a02000 	mov	r2, #0
 c00a368:	e5832000 	str	r2, [r3]
            }
        }
    }
 c00a36c:	eaffffae 	b	c00a22c <ts_test_calibracion+0x68>
 c00a370:	0c00ee78 	.word	0x0c00ee78
 c00a374:	0c00ef60 	.word	0x0c00ef60

0c00a378 <ts_test_numeros>:
/*********************************************************************************************
* name:     ts_test_numeros
* func:     Test con dos nmeros: muestra coordenadas al tocar
*********************************************************************************************/
void ts_test_numeros(void)
{
 c00a378:	e1a0c00d 	mov	ip, sp
 c00a37c:	e92dd800 	push	{fp, ip, lr, pc}
 c00a380:	e24cb004 	sub	fp, ip, #4
 c00a384:	e24dd028 	sub	sp, sp, #40	; 0x28
    int x, y;
    int num1_x = 60, num1_y = 100;   // Posicin nmero 1 (izquierda)
 c00a388:	e3a0303c 	mov	r3, #60	; 0x3c
 c00a38c:	e50b3020 	str	r3, [fp, #-32]	; 0xffffffe0
 c00a390:	e3a03064 	mov	r3, #100	; 0x64
 c00a394:	e50b3024 	str	r3, [fp, #-36]	; 0xffffffdc
    int num2_x = 220, num2_y = 100;  // Posicin nmero 2 (derecha)
 c00a398:	e3a030dc 	mov	r3, #220	; 0xdc
 c00a39c:	e50b3028 	str	r3, [fp, #-40]	; 0xffffffd8
 c00a3a0:	e3a03064 	mov	r3, #100	; 0x64
 c00a3a4:	e50b302c 	str	r3, [fp, #-44]	; 0xffffffd4
    
    Lcd_Init();
 c00a3a8:	ebffe34b 	bl	c0030dc <Lcd_Init>
    TS_init();
 c00a3ac:	ebfff9b6 	bl	c008a8c <TS_init>
    
    // Calibrar con margen de 30 pxeles (ms cerca de los bordes)
    ts_calibrate_5pt(SCR_XSIZE, SCR_YSIZE, 30);
 c00a3b0:	e3a00d05 	mov	r0, #320	; 0x140
 c00a3b4:	e3a010f0 	mov	r1, #240	; 0xf0
 c00a3b8:	e3a0201e 	mov	r2, #30
 c00a3bc:	ebfffd76 	bl	c00999c <ts_calibrate_5pt>
    
    // Mostrar los dos nmeros
    Lcd_Clr();
 c00a3c0:	ebffe3f8 	bl	c0033a8 <Lcd_Clr>
    Lcd_DspAscII8x16(num1_x, num1_y, BLACK, (unsigned char *)"1");
 c00a3c4:	e51b3020 	ldr	r3, [fp, #-32]	; 0xffffffe0
 c00a3c8:	e1a03803 	lsl	r3, r3, #16
 c00a3cc:	e1a02823 	lsr	r2, r3, #16
 c00a3d0:	e51b3024 	ldr	r3, [fp, #-36]	; 0xffffffdc
 c00a3d4:	e1a03803 	lsl	r3, r3, #16
 c00a3d8:	e1a03823 	lsr	r3, r3, #16
 c00a3dc:	e1a00002 	mov	r0, r2
 c00a3e0:	e1a01003 	mov	r1, r3
 c00a3e4:	e3a0200f 	mov	r2, #15
 c00a3e8:	e59f3414 	ldr	r3, [pc, #1044]	; c00a804 <ts_test_numeros+0x48c>
 c00a3ec:	ebffe934 	bl	c0048c4 <Lcd_DspAscII8x16>
    Lcd_DspAscII8x16(num2_x, num2_y, BLACK, (unsigned char *)"2");
 c00a3f0:	e51b3028 	ldr	r3, [fp, #-40]	; 0xffffffd8
 c00a3f4:	e1a03803 	lsl	r3, r3, #16
 c00a3f8:	e1a02823 	lsr	r2, r3, #16
 c00a3fc:	e51b302c 	ldr	r3, [fp, #-44]	; 0xffffffd4
 c00a400:	e1a03803 	lsl	r3, r3, #16
 c00a404:	e1a03823 	lsr	r3, r3, #16
 c00a408:	e1a00002 	mov	r0, r2
 c00a40c:	e1a01003 	mov	r1, r3
 c00a410:	e3a0200f 	mov	r2, #15
 c00a414:	e59f33ec 	ldr	r3, [pc, #1004]	; c00a808 <ts_test_numeros+0x490>
 c00a418:	ebffe929 	bl	c0048c4 <Lcd_DspAscII8x16>
    Lcd_DspAscII6x8(60, 20, BLACK, (unsigned char *)"Toca un numero");
 c00a41c:	e3a0003c 	mov	r0, #60	; 0x3c
 c00a420:	e3a01014 	mov	r1, #20
 c00a424:	e3a0200f 	mov	r2, #15
 c00a428:	e59f33dc 	ldr	r3, [pc, #988]	; c00a80c <ts_test_numeros+0x494>
 c00a42c:	ebffe9e9 	bl	c004bd8 <Lcd_DspAscII6x8>
    Lcd_Dma_Trans();
 c00a430:	ebffeaa6 	bl	c004ed0 <Lcd_Dma_Trans>
 c00a434:	ea000000 	b	c00a43c <ts_test_numeros+0xc4>
            }
            
            Lcd_Dma_Trans();
            Delay(50);
        }
    }
 c00a438:	e1a00000 	nop			; (mov r0, r0)
    Lcd_Dma_Trans();
    
    // Loop de deteccin de toques
    while (1)
    {
        if (ts_read_calibrated(&x, &y) == 0)
 c00a43c:	e24b2030 	sub	r2, fp, #48	; 0x30
 c00a440:	e24b3034 	sub	r3, fp, #52	; 0x34
 c00a444:	e1a00002 	mov	r0, r2
 c00a448:	e1a01003 	mov	r1, r3
 c00a44c:	ebfffed9 	bl	c009fb8 <ts_read_calibrated>
 c00a450:	e1a03000 	mov	r3, r0
 c00a454:	e3530000 	cmp	r3, #0
 c00a458:	1afffff6 	bne	c00a438 <ts_test_numeros+0xc0>
        {
            // Limpiar zona de informacin
            int i, j;
            for (i = 0; i < 320; i++)
 c00a45c:	e3a03000 	mov	r3, #0
 c00a460:	e50b3010 	str	r3, [fp, #-16]
 c00a464:	ea00003b 	b	c00a558 <ts_test_numeros+0x1e0>
                for (j = 150; j < 200; j++)
 c00a468:	e3a03096 	mov	r3, #150	; 0x96
 c00a46c:	e50b3014 	str	r3, [fp, #-20]	; 0xffffffec
 c00a470:	ea000032 	b	c00a540 <ts_test_numeros+0x1c8>
                    (LCD_PutPixel(i, j, 0x0));
 c00a474:	e51b2014 	ldr	r2, [fp, #-20]	; 0xffffffec
 c00a478:	e1a03002 	mov	r3, r2
 c00a47c:	e1a03103 	lsl	r3, r3, #2
 c00a480:	e0833002 	add	r3, r3, r2
 c00a484:	e1a03303 	lsl	r3, r3, #6
 c00a488:	e1a02fa3 	lsr	r2, r3, #31
 c00a48c:	e0823003 	add	r3, r2, r3
 c00a490:	e1a030c3 	asr	r3, r3, #1
 c00a494:	e28326c3 	add	r2, r3, #204472320	; 0xc300000
 c00a498:	e2822c96 	add	r2, r2, #38400	; 0x9600
 c00a49c:	e51b3010 	ldr	r3, [fp, #-16]
 c00a4a0:	e2831007 	add	r1, r3, #7
 c00a4a4:	e3530000 	cmp	r3, #0
 c00a4a8:	b1a03001 	movlt	r3, r1
 c00a4ac:	e1a031c3 	asr	r3, r3, #3
 c00a4b0:	e1a03103 	lsl	r3, r3, #2
 c00a4b4:	e0823003 	add	r3, r2, r3
 c00a4b8:	e1a01003 	mov	r1, r3
 c00a4bc:	e51b2014 	ldr	r2, [fp, #-20]	; 0xffffffec
 c00a4c0:	e1a03002 	mov	r3, r2
 c00a4c4:	e1a03103 	lsl	r3, r3, #2
 c00a4c8:	e0833002 	add	r3, r3, r2
 c00a4cc:	e1a03303 	lsl	r3, r3, #6
 c00a4d0:	e1a02fa3 	lsr	r2, r3, #31
 c00a4d4:	e0823003 	add	r3, r2, r3
 c00a4d8:	e1a030c3 	asr	r3, r3, #1
 c00a4dc:	e28326c3 	add	r2, r3, #204472320	; 0xc300000
 c00a4e0:	e2822c96 	add	r2, r2, #38400	; 0x9600
 c00a4e4:	e51b3010 	ldr	r3, [fp, #-16]
 c00a4e8:	e2830007 	add	r0, r3, #7
 c00a4ec:	e3530000 	cmp	r3, #0
 c00a4f0:	b1a03000 	movlt	r3, r0
 c00a4f4:	e1a031c3 	asr	r3, r3, #3
 c00a4f8:	e1a03103 	lsl	r3, r3, #2
 c00a4fc:	e0823003 	add	r3, r2, r3
 c00a500:	e5930000 	ldr	r0, [r3]
 c00a504:	e51b2010 	ldr	r2, [fp, #-16]
 c00a508:	e1a03fc2 	asr	r3, r2, #31
 c00a50c:	e1a03ea3 	lsr	r3, r3, #29
 c00a510:	e0822003 	add	r2, r2, r3
 c00a514:	e2022007 	and	r2, r2, #7
 c00a518:	e0633002 	rsb	r3, r3, r2
 c00a51c:	e1a03103 	lsl	r3, r3, #2
 c00a520:	e3a0220f 	mov	r2, #-268435456	; 0xf0000000
 c00a524:	e1a03332 	lsr	r3, r2, r3
 c00a528:	e1e03003 	mvn	r3, r3
 c00a52c:	e0003003 	and	r3, r0, r3
 c00a530:	e5813000 	str	r3, [r1]
        if (ts_read_calibrated(&x, &y) == 0)
        {
            // Limpiar zona de informacin
            int i, j;
            for (i = 0; i < 320; i++)
                for (j = 150; j < 200; j++)
 c00a534:	e51b3014 	ldr	r3, [fp, #-20]	; 0xffffffec
 c00a538:	e2833001 	add	r3, r3, #1
 c00a53c:	e50b3014 	str	r3, [fp, #-20]	; 0xffffffec
 c00a540:	e51b3014 	ldr	r3, [fp, #-20]	; 0xffffffec
 c00a544:	e35300c7 	cmp	r3, #199	; 0xc7
 c00a548:	daffffc9 	ble	c00a474 <ts_test_numeros+0xfc>
    {
        if (ts_read_calibrated(&x, &y) == 0)
        {
            // Limpiar zona de informacin
            int i, j;
            for (i = 0; i < 320; i++)
 c00a54c:	e51b3010 	ldr	r3, [fp, #-16]
 c00a550:	e2833001 	add	r3, r3, #1
 c00a554:	e50b3010 	str	r3, [fp, #-16]
 c00a558:	e51b2010 	ldr	r2, [fp, #-16]
 c00a55c:	e59f32ac 	ldr	r3, [pc, #684]	; c00a810 <ts_test_numeros+0x498>
 c00a560:	e1520003 	cmp	r2, r3
 c00a564:	daffffbf 	ble	c00a468 <ts_test_numeros+0xf0>
                for (j = 150; j < 200; j++)
                    (LCD_PutPixel(i, j, 0x0));
            
            // Mostrar coordenadas
            Lcd_DspAscII6x8(10, 160, BLACK, (unsigned char *)"Toque detectado:");
 c00a568:	e3a0000a 	mov	r0, #10
 c00a56c:	e3a010a0 	mov	r1, #160	; 0xa0
 c00a570:	e3a0200f 	mov	r2, #15
 c00a574:	e59f3298 	ldr	r3, [pc, #664]	; c00a814 <ts_test_numeros+0x49c>
 c00a578:	ebffe996 	bl	c004bd8 <Lcd_DspAscII6x8>
            
            // Mostrar X (solo texto fijo, sin sprintf)
            Lcd_DspAscII6x8(10, 175, BLACK, (unsigned char *)"Coordenadas guardadas");
 c00a57c:	e3a0000a 	mov	r0, #10
 c00a580:	e3a010af 	mov	r1, #175	; 0xaf
 c00a584:	e3a0200f 	mov	r2, #15
 c00a588:	e59f3288 	ldr	r3, [pc, #648]	; c00a818 <ts_test_numeros+0x4a0>
 c00a58c:	ebffe991 	bl	c004bd8 <Lcd_DspAscII6x8>
            
            // Dibujar punto donde se toc
            int px, py;
            for (px = x-3; px <= x+3; px++)
 c00a590:	e51b3030 	ldr	r3, [fp, #-48]	; 0xffffffd0
 c00a594:	e2433003 	sub	r3, r3, #3
 c00a598:	e50b3018 	str	r3, [fp, #-24]	; 0xffffffe8
 c00a59c:	ea000056 	b	c00a6fc <ts_test_numeros+0x384>
                for (py = y-3; py <= y+3; py++)
 c00a5a0:	e51b3034 	ldr	r3, [fp, #-52]	; 0xffffffcc
 c00a5a4:	e2433003 	sub	r3, r3, #3
 c00a5a8:	e50b301c 	str	r3, [fp, #-28]	; 0xffffffe4
 c00a5ac:	ea00004a 	b	c00a6dc <ts_test_numeros+0x364>
                    if (px >= 0 && px < SCR_XSIZE && py >= 0 && py < SCR_YSIZE)
 c00a5b0:	e51b3018 	ldr	r3, [fp, #-24]	; 0xffffffe8
 c00a5b4:	e3530000 	cmp	r3, #0
 c00a5b8:	ba000044 	blt	c00a6d0 <ts_test_numeros+0x358>
 c00a5bc:	e51b2018 	ldr	r2, [fp, #-24]	; 0xffffffe8
 c00a5c0:	e59f3248 	ldr	r3, [pc, #584]	; c00a810 <ts_test_numeros+0x498>
 c00a5c4:	e1520003 	cmp	r2, r3
 c00a5c8:	ca000040 	bgt	c00a6d0 <ts_test_numeros+0x358>
 c00a5cc:	e51b301c 	ldr	r3, [fp, #-28]	; 0xffffffe4
 c00a5d0:	e3530000 	cmp	r3, #0
 c00a5d4:	ba00003d 	blt	c00a6d0 <ts_test_numeros+0x358>
 c00a5d8:	e51b301c 	ldr	r3, [fp, #-28]	; 0xffffffe4
 c00a5dc:	e35300ef 	cmp	r3, #239	; 0xef
 c00a5e0:	ca00003a 	bgt	c00a6d0 <ts_test_numeros+0x358>
                        (LCD_PutPixel(px, py, 0xf));
 c00a5e4:	e51b201c 	ldr	r2, [fp, #-28]	; 0xffffffe4
 c00a5e8:	e1a03002 	mov	r3, r2
 c00a5ec:	e1a03103 	lsl	r3, r3, #2
 c00a5f0:	e0833002 	add	r3, r3, r2
 c00a5f4:	e1a03303 	lsl	r3, r3, #6
 c00a5f8:	e1a02fa3 	lsr	r2, r3, #31
 c00a5fc:	e0823003 	add	r3, r2, r3
 c00a600:	e1a030c3 	asr	r3, r3, #1
 c00a604:	e28326c3 	add	r2, r3, #204472320	; 0xc300000
 c00a608:	e2822c96 	add	r2, r2, #38400	; 0x9600
 c00a60c:	e51b3018 	ldr	r3, [fp, #-24]	; 0xffffffe8
 c00a610:	e2831007 	add	r1, r3, #7
 c00a614:	e3530000 	cmp	r3, #0
 c00a618:	b1a03001 	movlt	r3, r1
 c00a61c:	e1a031c3 	asr	r3, r3, #3
 c00a620:	e1a03103 	lsl	r3, r3, #2
 c00a624:	e0823003 	add	r3, r2, r3
 c00a628:	e1a01003 	mov	r1, r3
 c00a62c:	e51b201c 	ldr	r2, [fp, #-28]	; 0xffffffe4
 c00a630:	e1a03002 	mov	r3, r2
 c00a634:	e1a03103 	lsl	r3, r3, #2
 c00a638:	e0833002 	add	r3, r3, r2
 c00a63c:	e1a03303 	lsl	r3, r3, #6
 c00a640:	e1a02fa3 	lsr	r2, r3, #31
 c00a644:	e0823003 	add	r3, r2, r3
 c00a648:	e1a030c3 	asr	r3, r3, #1
 c00a64c:	e28326c3 	add	r2, r3, #204472320	; 0xc300000
 c00a650:	e2822c96 	add	r2, r2, #38400	; 0x9600
 c00a654:	e51b3018 	ldr	r3, [fp, #-24]	; 0xffffffe8
 c00a658:	e2830007 	add	r0, r3, #7
 c00a65c:	e3530000 	cmp	r3, #0
 c00a660:	b1a03000 	movlt	r3, r0
 c00a664:	e1a031c3 	asr	r3, r3, #3
 c00a668:	e1a03103 	lsl	r3, r3, #2
 c00a66c:	e0823003 	add	r3, r2, r3
 c00a670:	e5930000 	ldr	r0, [r3]
 c00a674:	e51b2018 	ldr	r2, [fp, #-24]	; 0xffffffe8
 c00a678:	e1a03fc2 	asr	r3, r2, #31
 c00a67c:	e1a03ea3 	lsr	r3, r3, #29
 c00a680:	e0822003 	add	r2, r2, r3
 c00a684:	e2022007 	and	r2, r2, #7
 c00a688:	e0633002 	rsb	r3, r3, r2
 c00a68c:	e1a03103 	lsl	r3, r3, #2
 c00a690:	e3a0220f 	mov	r2, #-268435456	; 0xf0000000
 c00a694:	e1a03332 	lsr	r3, r2, r3
 c00a698:	e1e03003 	mvn	r3, r3
 c00a69c:	e0000003 	and	r0, r0, r3
 c00a6a0:	e51b2018 	ldr	r2, [fp, #-24]	; 0xffffffe8
 c00a6a4:	e1a03fc2 	asr	r3, r2, #31
 c00a6a8:	e1a03ea3 	lsr	r3, r3, #29
 c00a6ac:	e0822003 	add	r2, r2, r3
 c00a6b0:	e2022007 	and	r2, r2, #7
 c00a6b4:	e0633002 	rsb	r3, r3, r2
 c00a6b8:	e2633007 	rsb	r3, r3, #7
 c00a6bc:	e1a03103 	lsl	r3, r3, #2
 c00a6c0:	e3a0200f 	mov	r2, #15
 c00a6c4:	e1a03312 	lsl	r3, r2, r3
 c00a6c8:	e1803003 	orr	r3, r0, r3
 c00a6cc:	e5813000 	str	r3, [r1]
            Lcd_DspAscII6x8(10, 175, BLACK, (unsigned char *)"Coordenadas guardadas");
            
            // Dibujar punto donde se toc
            int px, py;
            for (px = x-3; px <= x+3; px++)
                for (py = y-3; py <= y+3; py++)
 c00a6d0:	e51b301c 	ldr	r3, [fp, #-28]	; 0xffffffe4
 c00a6d4:	e2833001 	add	r3, r3, #1
 c00a6d8:	e50b301c 	str	r3, [fp, #-28]	; 0xffffffe4
 c00a6dc:	e51b3034 	ldr	r3, [fp, #-52]	; 0xffffffcc
 c00a6e0:	e2832003 	add	r2, r3, #3
 c00a6e4:	e51b301c 	ldr	r3, [fp, #-28]	; 0xffffffe4
 c00a6e8:	e1520003 	cmp	r2, r3
 c00a6ec:	aaffffaf 	bge	c00a5b0 <ts_test_numeros+0x238>
            // Mostrar X (solo texto fijo, sin sprintf)
            Lcd_DspAscII6x8(10, 175, BLACK, (unsigned char *)"Coordenadas guardadas");
            
            // Dibujar punto donde se toc
            int px, py;
            for (px = x-3; px <= x+3; px++)
 c00a6f0:	e51b3018 	ldr	r3, [fp, #-24]	; 0xffffffe8
 c00a6f4:	e2833001 	add	r3, r3, #1
 c00a6f8:	e50b3018 	str	r3, [fp, #-24]	; 0xffffffe8
 c00a6fc:	e51b3030 	ldr	r3, [fp, #-48]	; 0xffffffd0
 c00a700:	e2832003 	add	r2, r3, #3
 c00a704:	e51b3018 	ldr	r3, [fp, #-24]	; 0xffffffe8
 c00a708:	e1520003 	cmp	r2, r3
 c00a70c:	aaffffa3 	bge	c00a5a0 <ts_test_numeros+0x228>
                for (py = y-3; py <= y+3; py++)
                    if (px >= 0 && px < SCR_XSIZE && py >= 0 && py < SCR_YSIZE)
                        (LCD_PutPixel(px, py, 0xf));
            
            // Detectar qu nmero se toc (rea ms amplia para test)
            if (x >= (num1_x-30) && x <= (num1_x+30) && y >= (num1_y-30) && y <= (num1_y+30))
 c00a710:	e51b3020 	ldr	r3, [fp, #-32]	; 0xffffffe0
 c00a714:	e243201e 	sub	r2, r3, #30
 c00a718:	e51b3030 	ldr	r3, [fp, #-48]	; 0xffffffd0
 c00a71c:	e1520003 	cmp	r2, r3
 c00a720:	ca000014 	bgt	c00a778 <ts_test_numeros+0x400>
 c00a724:	e51b3020 	ldr	r3, [fp, #-32]	; 0xffffffe0
 c00a728:	e283201e 	add	r2, r3, #30
 c00a72c:	e51b3030 	ldr	r3, [fp, #-48]	; 0xffffffd0
 c00a730:	e1520003 	cmp	r2, r3
 c00a734:	ba00000f 	blt	c00a778 <ts_test_numeros+0x400>
 c00a738:	e51b3024 	ldr	r3, [fp, #-36]	; 0xffffffdc
 c00a73c:	e243201e 	sub	r2, r3, #30
 c00a740:	e51b3034 	ldr	r3, [fp, #-52]	; 0xffffffcc
 c00a744:	e1520003 	cmp	r2, r3
 c00a748:	ca00000a 	bgt	c00a778 <ts_test_numeros+0x400>
 c00a74c:	e51b3024 	ldr	r3, [fp, #-36]	; 0xffffffdc
 c00a750:	e283201e 	add	r2, r3, #30
 c00a754:	e51b3034 	ldr	r3, [fp, #-52]	; 0xffffffcc
 c00a758:	e1520003 	cmp	r2, r3
 c00a75c:	ba000005 	blt	c00a778 <ts_test_numeros+0x400>
            {
                Lcd_DspAscII8x16(80, 190, BLACK, (unsigned char *)"NUMERO 1");
 c00a760:	e3a00050 	mov	r0, #80	; 0x50
 c00a764:	e3a010be 	mov	r1, #190	; 0xbe
 c00a768:	e3a0200f 	mov	r2, #15
 c00a76c:	e59f30a8 	ldr	r3, [pc, #168]	; c00a81c <ts_test_numeros+0x4a4>
 c00a770:	ebffe853 	bl	c0048c4 <Lcd_DspAscII8x16>
 c00a774:	ea00001e 	b	c00a7f4 <ts_test_numeros+0x47c>
            }
            else if (x >= (num2_x-30) && x <= (num2_x+30) && y >= (num2_y-30) && y <= (num2_y+30))
 c00a778:	e51b3028 	ldr	r3, [fp, #-40]	; 0xffffffd8
 c00a77c:	e243201e 	sub	r2, r3, #30
 c00a780:	e51b3030 	ldr	r3, [fp, #-48]	; 0xffffffd0
 c00a784:	e1520003 	cmp	r2, r3
 c00a788:	ca000014 	bgt	c00a7e0 <ts_test_numeros+0x468>
 c00a78c:	e51b3028 	ldr	r3, [fp, #-40]	; 0xffffffd8
 c00a790:	e283201e 	add	r2, r3, #30
 c00a794:	e51b3030 	ldr	r3, [fp, #-48]	; 0xffffffd0
 c00a798:	e1520003 	cmp	r2, r3
 c00a79c:	ba00000f 	blt	c00a7e0 <ts_test_numeros+0x468>
 c00a7a0:	e51b302c 	ldr	r3, [fp, #-44]	; 0xffffffd4
 c00a7a4:	e243201e 	sub	r2, r3, #30
 c00a7a8:	e51b3034 	ldr	r3, [fp, #-52]	; 0xffffffcc
 c00a7ac:	e1520003 	cmp	r2, r3
 c00a7b0:	ca00000a 	bgt	c00a7e0 <ts_test_numeros+0x468>
 c00a7b4:	e51b302c 	ldr	r3, [fp, #-44]	; 0xffffffd4
 c00a7b8:	e283201e 	add	r2, r3, #30
 c00a7bc:	e51b3034 	ldr	r3, [fp, #-52]	; 0xffffffcc
 c00a7c0:	e1520003 	cmp	r2, r3
 c00a7c4:	ba000005 	blt	c00a7e0 <ts_test_numeros+0x468>
            {
                Lcd_DspAscII8x16(80, 190, BLACK, (unsigned char *)"NUMERO 2");
 c00a7c8:	e3a00050 	mov	r0, #80	; 0x50
 c00a7cc:	e3a010be 	mov	r1, #190	; 0xbe
 c00a7d0:	e3a0200f 	mov	r2, #15
 c00a7d4:	e59f3044 	ldr	r3, [pc, #68]	; c00a820 <ts_test_numeros+0x4a8>
 c00a7d8:	ebffe839 	bl	c0048c4 <Lcd_DspAscII8x16>
 c00a7dc:	ea000004 	b	c00a7f4 <ts_test_numeros+0x47c>
            }
            else
            {
                Lcd_DspAscII6x8(70, 195, BLACK, (unsigned char *)"Fuera de zona");
 c00a7e0:	e3a00046 	mov	r0, #70	; 0x46
 c00a7e4:	e3a010c3 	mov	r1, #195	; 0xc3
 c00a7e8:	e3a0200f 	mov	r2, #15
 c00a7ec:	e59f3030 	ldr	r3, [pc, #48]	; c00a824 <ts_test_numeros+0x4ac>
 c00a7f0:	ebffe8f8 	bl	c004bd8 <Lcd_DspAscII6x8>
            }
            
            Lcd_Dma_Trans();
 c00a7f4:	ebffe9b5 	bl	c004ed0 <Lcd_Dma_Trans>
            Delay(50);
 c00a7f8:	e3a00032 	mov	r0, #50	; 0x32
 c00a7fc:	ebffd7c2 	bl	c00070c <Delay>
        }
    }
 c00a800:	eaffff0d 	b	c00a43c <ts_test_numeros+0xc4>
 c00a804:	0c00ed24 	.word	0x0c00ed24
 c00a808:	0c00ed28 	.word	0x0c00ed28
 c00a80c:	0c00ee80 	.word	0x0c00ee80
 c00a810:	0000013f 	.word	0x0000013f
 c00a814:	0c00ee90 	.word	0x0c00ee90
 c00a818:	0c00eea4 	.word	0x0c00eea4
 c00a81c:	0c00eebc 	.word	0x0c00eebc
 c00a820:	0c00eec8 	.word	0x0c00eec8
 c00a824:	0c00eed4 	.word	0x0c00eed4

0c00a828 <__aeabi_uidiv>:
 c00a828:	e2512001 	subs	r2, r1, #1
 c00a82c:	012fff1e 	bxeq	lr
 c00a830:	3a000036 	bcc	c00a910 <__aeabi_uidiv+0xe8>
 c00a834:	e1500001 	cmp	r0, r1
 c00a838:	9a000022 	bls	c00a8c8 <__aeabi_uidiv+0xa0>
 c00a83c:	e1110002 	tst	r1, r2
 c00a840:	0a000023 	beq	c00a8d4 <__aeabi_uidiv+0xac>
 c00a844:	e311020e 	tst	r1, #-536870912	; 0xe0000000
 c00a848:	01a01181 	lsleq	r1, r1, #3
 c00a84c:	03a03008 	moveq	r3, #8
 c00a850:	13a03001 	movne	r3, #1
 c00a854:	e3510201 	cmp	r1, #268435456	; 0x10000000
 c00a858:	31510000 	cmpcc	r1, r0
 c00a85c:	31a01201 	lslcc	r1, r1, #4
 c00a860:	31a03203 	lslcc	r3, r3, #4
 c00a864:	3afffffa 	bcc	c00a854 <__aeabi_uidiv+0x2c>
 c00a868:	e3510102 	cmp	r1, #-2147483648	; 0x80000000
 c00a86c:	31510000 	cmpcc	r1, r0
 c00a870:	31a01081 	lslcc	r1, r1, #1
 c00a874:	31a03083 	lslcc	r3, r3, #1
 c00a878:	3afffffa 	bcc	c00a868 <__aeabi_uidiv+0x40>
 c00a87c:	e3a02000 	mov	r2, #0
 c00a880:	e1500001 	cmp	r0, r1
 c00a884:	20400001 	subcs	r0, r0, r1
 c00a888:	21822003 	orrcs	r2, r2, r3
 c00a88c:	e15000a1 	cmp	r0, r1, lsr #1
 c00a890:	204000a1 	subcs	r0, r0, r1, lsr #1
 c00a894:	218220a3 	orrcs	r2, r2, r3, lsr #1
 c00a898:	e1500121 	cmp	r0, r1, lsr #2
 c00a89c:	20400121 	subcs	r0, r0, r1, lsr #2
 c00a8a0:	21822123 	orrcs	r2, r2, r3, lsr #2
 c00a8a4:	e15001a1 	cmp	r0, r1, lsr #3
 c00a8a8:	204001a1 	subcs	r0, r0, r1, lsr #3
 c00a8ac:	218221a3 	orrcs	r2, r2, r3, lsr #3
 c00a8b0:	e3500000 	cmp	r0, #0
 c00a8b4:	11b03223 	lsrsne	r3, r3, #4
 c00a8b8:	11a01221 	lsrne	r1, r1, #4
 c00a8bc:	1affffef 	bne	c00a880 <__aeabi_uidiv+0x58>
 c00a8c0:	e1a00002 	mov	r0, r2
 c00a8c4:	e12fff1e 	bx	lr
 c00a8c8:	03a00001 	moveq	r0, #1
 c00a8cc:	13a00000 	movne	r0, #0
 c00a8d0:	e12fff1e 	bx	lr
 c00a8d4:	e3510801 	cmp	r1, #65536	; 0x10000
 c00a8d8:	21a01821 	lsrcs	r1, r1, #16
 c00a8dc:	23a02010 	movcs	r2, #16
 c00a8e0:	33a02000 	movcc	r2, #0
 c00a8e4:	e3510c01 	cmp	r1, #256	; 0x100
 c00a8e8:	21a01421 	lsrcs	r1, r1, #8
 c00a8ec:	22822008 	addcs	r2, r2, #8
 c00a8f0:	e3510010 	cmp	r1, #16
 c00a8f4:	21a01221 	lsrcs	r1, r1, #4
 c00a8f8:	22822004 	addcs	r2, r2, #4
 c00a8fc:	e3510004 	cmp	r1, #4
 c00a900:	82822003 	addhi	r2, r2, #3
 c00a904:	908220a1 	addls	r2, r2, r1, lsr #1
 c00a908:	e1a00230 	lsr	r0, r0, r2
 c00a90c:	e12fff1e 	bx	lr
 c00a910:	e3500000 	cmp	r0, #0
 c00a914:	13e00000 	mvnne	r0, #0
 c00a918:	ea000059 	b	c00aa84 <__aeabi_idiv0>

0c00a91c <__aeabi_uidivmod>:
 c00a91c:	e3510000 	cmp	r1, #0
 c00a920:	0afffffa 	beq	c00a910 <__aeabi_uidiv+0xe8>
 c00a924:	e92d4003 	push	{r0, r1, lr}
 c00a928:	ebffffbe 	bl	c00a828 <__aeabi_uidiv>
 c00a92c:	e8bd4006 	pop	{r1, r2, lr}
 c00a930:	e0030092 	mul	r3, r2, r0
 c00a934:	e0411003 	sub	r1, r1, r3
 c00a938:	e12fff1e 	bx	lr

0c00a93c <__aeabi_idiv>:
 c00a93c:	e3510000 	cmp	r1, #0
 c00a940:	0a000043 	beq	c00aa54 <.divsi3_skip_div0_test+0x110>

0c00a944 <.divsi3_skip_div0_test>:
 c00a944:	e020c001 	eor	ip, r0, r1
 c00a948:	42611000 	rsbmi	r1, r1, #0
 c00a94c:	e2512001 	subs	r2, r1, #1
 c00a950:	0a000027 	beq	c00a9f4 <.divsi3_skip_div0_test+0xb0>
 c00a954:	e1b03000 	movs	r3, r0
 c00a958:	42603000 	rsbmi	r3, r0, #0
 c00a95c:	e1530001 	cmp	r3, r1
 c00a960:	9a000026 	bls	c00aa00 <.divsi3_skip_div0_test+0xbc>
 c00a964:	e1110002 	tst	r1, r2
 c00a968:	0a000028 	beq	c00aa10 <.divsi3_skip_div0_test+0xcc>
 c00a96c:	e311020e 	tst	r1, #-536870912	; 0xe0000000
 c00a970:	01a01181 	lsleq	r1, r1, #3
 c00a974:	03a02008 	moveq	r2, #8
 c00a978:	13a02001 	movne	r2, #1
 c00a97c:	e3510201 	cmp	r1, #268435456	; 0x10000000
 c00a980:	31510003 	cmpcc	r1, r3
 c00a984:	31a01201 	lslcc	r1, r1, #4
 c00a988:	31a02202 	lslcc	r2, r2, #4
 c00a98c:	3afffffa 	bcc	c00a97c <.divsi3_skip_div0_test+0x38>
 c00a990:	e3510102 	cmp	r1, #-2147483648	; 0x80000000
 c00a994:	31510003 	cmpcc	r1, r3
 c00a998:	31a01081 	lslcc	r1, r1, #1
 c00a99c:	31a02082 	lslcc	r2, r2, #1
 c00a9a0:	3afffffa 	bcc	c00a990 <.divsi3_skip_div0_test+0x4c>
 c00a9a4:	e3a00000 	mov	r0, #0
 c00a9a8:	e1530001 	cmp	r3, r1
 c00a9ac:	20433001 	subcs	r3, r3, r1
 c00a9b0:	21800002 	orrcs	r0, r0, r2
 c00a9b4:	e15300a1 	cmp	r3, r1, lsr #1
 c00a9b8:	204330a1 	subcs	r3, r3, r1, lsr #1
 c00a9bc:	218000a2 	orrcs	r0, r0, r2, lsr #1
 c00a9c0:	e1530121 	cmp	r3, r1, lsr #2
 c00a9c4:	20433121 	subcs	r3, r3, r1, lsr #2
 c00a9c8:	21800122 	orrcs	r0, r0, r2, lsr #2
 c00a9cc:	e15301a1 	cmp	r3, r1, lsr #3
 c00a9d0:	204331a1 	subcs	r3, r3, r1, lsr #3
 c00a9d4:	218001a2 	orrcs	r0, r0, r2, lsr #3
 c00a9d8:	e3530000 	cmp	r3, #0
 c00a9dc:	11b02222 	lsrsne	r2, r2, #4
 c00a9e0:	11a01221 	lsrne	r1, r1, #4
 c00a9e4:	1affffef 	bne	c00a9a8 <.divsi3_skip_div0_test+0x64>
 c00a9e8:	e35c0000 	cmp	ip, #0
 c00a9ec:	42600000 	rsbmi	r0, r0, #0
 c00a9f0:	e12fff1e 	bx	lr
 c00a9f4:	e13c0000 	teq	ip, r0
 c00a9f8:	42600000 	rsbmi	r0, r0, #0
 c00a9fc:	e12fff1e 	bx	lr
 c00aa00:	33a00000 	movcc	r0, #0
 c00aa04:	01a00fcc 	asreq	r0, ip, #31
 c00aa08:	03800001 	orreq	r0, r0, #1
 c00aa0c:	e12fff1e 	bx	lr
 c00aa10:	e3510801 	cmp	r1, #65536	; 0x10000
 c00aa14:	21a01821 	lsrcs	r1, r1, #16
 c00aa18:	23a02010 	movcs	r2, #16
 c00aa1c:	33a02000 	movcc	r2, #0
 c00aa20:	e3510c01 	cmp	r1, #256	; 0x100
 c00aa24:	21a01421 	lsrcs	r1, r1, #8
 c00aa28:	22822008 	addcs	r2, r2, #8
 c00aa2c:	e3510010 	cmp	r1, #16
 c00aa30:	21a01221 	lsrcs	r1, r1, #4
 c00aa34:	22822004 	addcs	r2, r2, #4
 c00aa38:	e3510004 	cmp	r1, #4
 c00aa3c:	82822003 	addhi	r2, r2, #3
 c00aa40:	908220a1 	addls	r2, r2, r1, lsr #1
 c00aa44:	e35c0000 	cmp	ip, #0
 c00aa48:	e1a00233 	lsr	r0, r3, r2
 c00aa4c:	42600000 	rsbmi	r0, r0, #0
 c00aa50:	e12fff1e 	bx	lr
 c00aa54:	e3500000 	cmp	r0, #0
 c00aa58:	c3e00102 	mvngt	r0, #-2147483648	; 0x80000000
 c00aa5c:	b3a00102 	movlt	r0, #-2147483648	; 0x80000000
 c00aa60:	ea000007 	b	c00aa84 <__aeabi_idiv0>

0c00aa64 <__aeabi_idivmod>:
 c00aa64:	e3510000 	cmp	r1, #0
 c00aa68:	0afffff9 	beq	c00aa54 <.divsi3_skip_div0_test+0x110>
 c00aa6c:	e92d4003 	push	{r0, r1, lr}
 c00aa70:	ebffffb3 	bl	c00a944 <.divsi3_skip_div0_test>
 c00aa74:	e8bd4006 	pop	{r1, r2, lr}
 c00aa78:	e0030092 	mul	r3, r2, r0
 c00aa7c:	e0411003 	sub	r1, r1, r3
 c00aa80:	e12fff1e 	bx	lr

0c00aa84 <__aeabi_idiv0>:
 c00aa84:	e12fff1e 	bx	lr

0c00aa88 <__aeabi_drsub>:
 c00aa88:	e2211102 	eor	r1, r1, #-2147483648	; 0x80000000
 c00aa8c:	ea000000 	b	c00aa94 <__adddf3>

0c00aa90 <__aeabi_dsub>:
 c00aa90:	e2233102 	eor	r3, r3, #-2147483648	; 0x80000000

0c00aa94 <__adddf3>:
 c00aa94:	e92d4030 	push	{r4, r5, lr}
 c00aa98:	e1a04081 	lsl	r4, r1, #1
 c00aa9c:	e1a05083 	lsl	r5, r3, #1
 c00aaa0:	e1340005 	teq	r4, r5
 c00aaa4:	01300002 	teqeq	r0, r2
 c00aaa8:	1194c000 	orrsne	ip, r4, r0
 c00aaac:	1195c002 	orrsne	ip, r5, r2
 c00aab0:	11f0cac4 	mvnsne	ip, r4, asr #21
 c00aab4:	11f0cac5 	mvnsne	ip, r5, asr #21
 c00aab8:	0a00008c 	beq	c00acf0 <__adddf3+0x25c>
 c00aabc:	e1a04aa4 	lsr	r4, r4, #21
 c00aac0:	e0745aa5 	rsbs	r5, r4, r5, lsr #21
 c00aac4:	b2655000 	rsblt	r5, r5, #0
 c00aac8:	da000006 	ble	c00aae8 <__adddf3+0x54>
 c00aacc:	e0844005 	add	r4, r4, r5
 c00aad0:	e0202002 	eor	r2, r0, r2
 c00aad4:	e0213003 	eor	r3, r1, r3
 c00aad8:	e0220000 	eor	r0, r2, r0
 c00aadc:	e0231001 	eor	r1, r3, r1
 c00aae0:	e0202002 	eor	r2, r0, r2
 c00aae4:	e0213003 	eor	r3, r1, r3
 c00aae8:	e3550036 	cmp	r5, #54	; 0x36
 c00aaec:	88bd4030 	pophi	{r4, r5, lr}
 c00aaf0:	812fff1e 	bxhi	lr
 c00aaf4:	e3110102 	tst	r1, #-2147483648	; 0x80000000
 c00aaf8:	e1a01601 	lsl	r1, r1, #12
 c00aafc:	e3a0c601 	mov	ip, #1048576	; 0x100000
 c00ab00:	e18c1621 	orr	r1, ip, r1, lsr #12
 c00ab04:	0a000001 	beq	c00ab10 <__adddf3+0x7c>
 c00ab08:	e2700000 	rsbs	r0, r0, #0
 c00ab0c:	e2e11000 	rsc	r1, r1, #0
 c00ab10:	e3130102 	tst	r3, #-2147483648	; 0x80000000
 c00ab14:	e1a03603 	lsl	r3, r3, #12
 c00ab18:	e18c3623 	orr	r3, ip, r3, lsr #12
 c00ab1c:	0a000001 	beq	c00ab28 <__adddf3+0x94>
 c00ab20:	e2722000 	rsbs	r2, r2, #0
 c00ab24:	e2e33000 	rsc	r3, r3, #0
 c00ab28:	e1340005 	teq	r4, r5
 c00ab2c:	0a000069 	beq	c00acd8 <__adddf3+0x244>
 c00ab30:	e2444001 	sub	r4, r4, #1
 c00ab34:	e275e020 	rsbs	lr, r5, #32
 c00ab38:	ba000005 	blt	c00ab54 <__adddf3+0xc0>
 c00ab3c:	e1a0ce12 	lsl	ip, r2, lr
 c00ab40:	e0900532 	adds	r0, r0, r2, lsr r5
 c00ab44:	e2a11000 	adc	r1, r1, #0
 c00ab48:	e0900e13 	adds	r0, r0, r3, lsl lr
 c00ab4c:	e0b11553 	adcs	r1, r1, r3, asr r5
 c00ab50:	ea000006 	b	c00ab70 <__adddf3+0xdc>
 c00ab54:	e2455020 	sub	r5, r5, #32
 c00ab58:	e28ee020 	add	lr, lr, #32
 c00ab5c:	e3520001 	cmp	r2, #1
 c00ab60:	e1a0ce13 	lsl	ip, r3, lr
 c00ab64:	238cc002 	orrcs	ip, ip, #2
 c00ab68:	e0900553 	adds	r0, r0, r3, asr r5
 c00ab6c:	e0b11fc3 	adcs	r1, r1, r3, asr #31
 c00ab70:	e2015102 	and	r5, r1, #-2147483648	; 0x80000000
 c00ab74:	5a000002 	bpl	c00ab84 <__adddf3+0xf0>
 c00ab78:	e27cc000 	rsbs	ip, ip, #0
 c00ab7c:	e2f00000 	rscs	r0, r0, #0
 c00ab80:	e2e11000 	rsc	r1, r1, #0
 c00ab84:	e3510601 	cmp	r1, #1048576	; 0x100000
 c00ab88:	3a00000f 	bcc	c00abcc <__adddf3+0x138>
 c00ab8c:	e3510602 	cmp	r1, #2097152	; 0x200000
 c00ab90:	3a000006 	bcc	c00abb0 <__adddf3+0x11c>
 c00ab94:	e1b010a1 	lsrs	r1, r1, #1
 c00ab98:	e1b00060 	rrxs	r0, r0
 c00ab9c:	e1a0c06c 	rrx	ip, ip
 c00aba0:	e2844001 	add	r4, r4, #1
 c00aba4:	e1a02a84 	lsl	r2, r4, #21
 c00aba8:	e3720501 	cmn	r2, #4194304	; 0x400000
 c00abac:	2a00006b 	bcs	c00ad60 <__adddf3+0x2cc>
 c00abb0:	e35c0102 	cmp	ip, #-2147483648	; 0x80000000
 c00abb4:	01b0c0a0 	lsrseq	ip, r0, #1
 c00abb8:	e2b00000 	adcs	r0, r0, #0
 c00abbc:	e0a11a04 	adc	r1, r1, r4, lsl #20
 c00abc0:	e1811005 	orr	r1, r1, r5
 c00abc4:	e8bd4030 	pop	{r4, r5, lr}
 c00abc8:	e12fff1e 	bx	lr
 c00abcc:	e1b0c08c 	lsls	ip, ip, #1
 c00abd0:	e0b00000 	adcs	r0, r0, r0
 c00abd4:	e0a11001 	adc	r1, r1, r1
 c00abd8:	e3110601 	tst	r1, #1048576	; 0x100000
 c00abdc:	e2444001 	sub	r4, r4, #1
 c00abe0:	1afffff2 	bne	c00abb0 <__adddf3+0x11c>
 c00abe4:	e3310000 	teq	r1, #0
 c00abe8:	13a03014 	movne	r3, #20
 c00abec:	03a03034 	moveq	r3, #52	; 0x34
 c00abf0:	01a01000 	moveq	r1, r0
 c00abf4:	03a00000 	moveq	r0, #0
 c00abf8:	e1a02001 	mov	r2, r1
 c00abfc:	e3520801 	cmp	r2, #65536	; 0x10000
 c00ac00:	21a02822 	lsrcs	r2, r2, #16
 c00ac04:	22433010 	subcs	r3, r3, #16
 c00ac08:	e3520c01 	cmp	r2, #256	; 0x100
 c00ac0c:	21a02422 	lsrcs	r2, r2, #8
 c00ac10:	22433008 	subcs	r3, r3, #8
 c00ac14:	e3520010 	cmp	r2, #16
 c00ac18:	21a02222 	lsrcs	r2, r2, #4
 c00ac1c:	22433004 	subcs	r3, r3, #4
 c00ac20:	e3520004 	cmp	r2, #4
 c00ac24:	22433002 	subcs	r3, r3, #2
 c00ac28:	304330a2 	subcc	r3, r3, r2, lsr #1
 c00ac2c:	e04331a2 	sub	r3, r3, r2, lsr #3
 c00ac30:	e2532020 	subs	r2, r3, #32
 c00ac34:	aa000007 	bge	c00ac58 <__adddf3+0x1c4>
 c00ac38:	e292200c 	adds	r2, r2, #12
 c00ac3c:	da000004 	ble	c00ac54 <__adddf3+0x1c0>
 c00ac40:	e282c014 	add	ip, r2, #20
 c00ac44:	e262200c 	rsb	r2, r2, #12
 c00ac48:	e1a00c11 	lsl	r0, r1, ip
 c00ac4c:	e1a01231 	lsr	r1, r1, r2
 c00ac50:	ea000004 	b	c00ac68 <__adddf3+0x1d4>
 c00ac54:	e2822014 	add	r2, r2, #20
 c00ac58:	d262c020 	rsble	ip, r2, #32
 c00ac5c:	e1a01211 	lsl	r1, r1, r2
 c00ac60:	d1811c30 	orrle	r1, r1, r0, lsr ip
 c00ac64:	d1a00210 	lslle	r0, r0, r2
 c00ac68:	e0544003 	subs	r4, r4, r3
 c00ac6c:	a0811a04 	addge	r1, r1, r4, lsl #20
 c00ac70:	a1811005 	orrge	r1, r1, r5
 c00ac74:	a8bd4030 	popge	{r4, r5, lr}
 c00ac78:	a12fff1e 	bxge	lr
 c00ac7c:	e1e04004 	mvn	r4, r4
 c00ac80:	e254401f 	subs	r4, r4, #31
 c00ac84:	aa00000f 	bge	c00acc8 <__adddf3+0x234>
 c00ac88:	e294400c 	adds	r4, r4, #12
 c00ac8c:	ca000006 	bgt	c00acac <__adddf3+0x218>
 c00ac90:	e2844014 	add	r4, r4, #20
 c00ac94:	e2642020 	rsb	r2, r4, #32
 c00ac98:	e1a00430 	lsr	r0, r0, r4
 c00ac9c:	e1800211 	orr	r0, r0, r1, lsl r2
 c00aca0:	e1851431 	orr	r1, r5, r1, lsr r4
 c00aca4:	e8bd4030 	pop	{r4, r5, lr}
 c00aca8:	e12fff1e 	bx	lr
 c00acac:	e264400c 	rsb	r4, r4, #12
 c00acb0:	e2642020 	rsb	r2, r4, #32
 c00acb4:	e1a00230 	lsr	r0, r0, r2
 c00acb8:	e1800411 	orr	r0, r0, r1, lsl r4
 c00acbc:	e1a01005 	mov	r1, r5
 c00acc0:	e8bd4030 	pop	{r4, r5, lr}
 c00acc4:	e12fff1e 	bx	lr
 c00acc8:	e1a00431 	lsr	r0, r1, r4
 c00accc:	e1a01005 	mov	r1, r5
 c00acd0:	e8bd4030 	pop	{r4, r5, lr}
 c00acd4:	e12fff1e 	bx	lr
 c00acd8:	e3340000 	teq	r4, #0
 c00acdc:	e2233601 	eor	r3, r3, #1048576	; 0x100000
 c00ace0:	02211601 	eoreq	r1, r1, #1048576	; 0x100000
 c00ace4:	02844001 	addeq	r4, r4, #1
 c00ace8:	12455001 	subne	r5, r5, #1
 c00acec:	eaffff8f 	b	c00ab30 <__adddf3+0x9c>
 c00acf0:	e1f0cac4 	mvns	ip, r4, asr #21
 c00acf4:	11f0cac5 	mvnsne	ip, r5, asr #21
 c00acf8:	0a00001d 	beq	c00ad74 <__adddf3+0x2e0>
 c00acfc:	e1340005 	teq	r4, r5
 c00ad00:	01300002 	teqeq	r0, r2
 c00ad04:	0a000004 	beq	c00ad1c <__adddf3+0x288>
 c00ad08:	e194c000 	orrs	ip, r4, r0
 c00ad0c:	01a01003 	moveq	r1, r3
 c00ad10:	01a00002 	moveq	r0, r2
 c00ad14:	e8bd4030 	pop	{r4, r5, lr}
 c00ad18:	e12fff1e 	bx	lr
 c00ad1c:	e1310003 	teq	r1, r3
 c00ad20:	13a01000 	movne	r1, #0
 c00ad24:	13a00000 	movne	r0, #0
 c00ad28:	18bd4030 	popne	{r4, r5, lr}
 c00ad2c:	112fff1e 	bxne	lr
 c00ad30:	e1b0caa4 	lsrs	ip, r4, #21
 c00ad34:	1a000004 	bne	c00ad4c <__adddf3+0x2b8>
 c00ad38:	e1b00080 	lsls	r0, r0, #1
 c00ad3c:	e0b11001 	adcs	r1, r1, r1
 c00ad40:	23811102 	orrcs	r1, r1, #-2147483648	; 0x80000000
 c00ad44:	e8bd4030 	pop	{r4, r5, lr}
 c00ad48:	e12fff1e 	bx	lr
 c00ad4c:	e2944501 	adds	r4, r4, #4194304	; 0x400000
 c00ad50:	32811601 	addcc	r1, r1, #1048576	; 0x100000
 c00ad54:	38bd4030 	popcc	{r4, r5, lr}
 c00ad58:	312fff1e 	bxcc	lr
 c00ad5c:	e2015102 	and	r5, r1, #-2147483648	; 0x80000000
 c00ad60:	e385147f 	orr	r1, r5, #2130706432	; 0x7f000000
 c00ad64:	e381160f 	orr	r1, r1, #15728640	; 0xf00000
 c00ad68:	e3a00000 	mov	r0, #0
 c00ad6c:	e8bd4030 	pop	{r4, r5, lr}
 c00ad70:	e12fff1e 	bx	lr
 c00ad74:	e1f0cac4 	mvns	ip, r4, asr #21
 c00ad78:	11a01003 	movne	r1, r3
 c00ad7c:	11a00002 	movne	r0, r2
 c00ad80:	01f0cac5 	mvnseq	ip, r5, asr #21
 c00ad84:	11a03001 	movne	r3, r1
 c00ad88:	11a02000 	movne	r2, r0
 c00ad8c:	e1904601 	orrs	r4, r0, r1, lsl #12
 c00ad90:	01925603 	orrseq	r5, r2, r3, lsl #12
 c00ad94:	01310003 	teqeq	r1, r3
 c00ad98:	13811702 	orrne	r1, r1, #524288	; 0x80000
 c00ad9c:	e8bd4030 	pop	{r4, r5, lr}
 c00ada0:	e12fff1e 	bx	lr

0c00ada4 <__aeabi_ui2d>:
 c00ada4:	e3300000 	teq	r0, #0
 c00ada8:	03a01000 	moveq	r1, #0
 c00adac:	012fff1e 	bxeq	lr
 c00adb0:	e92d4030 	push	{r4, r5, lr}
 c00adb4:	e3a04b01 	mov	r4, #1024	; 0x400
 c00adb8:	e2844032 	add	r4, r4, #50	; 0x32
 c00adbc:	e3a05000 	mov	r5, #0
 c00adc0:	e3a01000 	mov	r1, #0
 c00adc4:	eaffff86 	b	c00abe4 <__adddf3+0x150>

0c00adc8 <__aeabi_i2d>:
 c00adc8:	e3300000 	teq	r0, #0
 c00adcc:	03a01000 	moveq	r1, #0
 c00add0:	012fff1e 	bxeq	lr
 c00add4:	e92d4030 	push	{r4, r5, lr}
 c00add8:	e3a04b01 	mov	r4, #1024	; 0x400
 c00addc:	e2844032 	add	r4, r4, #50	; 0x32
 c00ade0:	e2105102 	ands	r5, r0, #-2147483648	; 0x80000000
 c00ade4:	42600000 	rsbmi	r0, r0, #0
 c00ade8:	e3a01000 	mov	r1, #0
 c00adec:	eaffff7c 	b	c00abe4 <__adddf3+0x150>

0c00adf0 <__aeabi_f2d>:
 c00adf0:	e1b02080 	lsls	r2, r0, #1
 c00adf4:	e1a011c2 	asr	r1, r2, #3
 c00adf8:	e1a01061 	rrx	r1, r1
 c00adfc:	e1a00e02 	lsl	r0, r2, #28
 c00ae00:	121234ff 	andsne	r3, r2, #-16777216	; 0xff000000
 c00ae04:	133304ff 	teqne	r3, #-16777216	; 0xff000000
 c00ae08:	1221130e 	eorne	r1, r1, #939524096	; 0x38000000
 c00ae0c:	112fff1e 	bxne	lr
 c00ae10:	e3320000 	teq	r2, #0
 c00ae14:	133304ff 	teqne	r3, #-16777216	; 0xff000000
 c00ae18:	012fff1e 	bxeq	lr
 c00ae1c:	e92d4030 	push	{r4, r5, lr}
 c00ae20:	e3a04d0e 	mov	r4, #896	; 0x380
 c00ae24:	e2015102 	and	r5, r1, #-2147483648	; 0x80000000
 c00ae28:	e3c11102 	bic	r1, r1, #-2147483648	; 0x80000000
 c00ae2c:	eaffff6c 	b	c00abe4 <__adddf3+0x150>

0c00ae30 <__aeabi_ul2d>:
 c00ae30:	e1902001 	orrs	r2, r0, r1
 c00ae34:	012fff1e 	bxeq	lr
 c00ae38:	e92d4030 	push	{r4, r5, lr}
 c00ae3c:	e3a05000 	mov	r5, #0
 c00ae40:	ea000006 	b	c00ae60 <__aeabi_l2d+0x1c>

0c00ae44 <__aeabi_l2d>:
 c00ae44:	e1902001 	orrs	r2, r0, r1
 c00ae48:	012fff1e 	bxeq	lr
 c00ae4c:	e92d4030 	push	{r4, r5, lr}
 c00ae50:	e2115102 	ands	r5, r1, #-2147483648	; 0x80000000
 c00ae54:	5a000001 	bpl	c00ae60 <__aeabi_l2d+0x1c>
 c00ae58:	e2700000 	rsbs	r0, r0, #0
 c00ae5c:	e2e11000 	rsc	r1, r1, #0
 c00ae60:	e3a04b01 	mov	r4, #1024	; 0x400
 c00ae64:	e2844032 	add	r4, r4, #50	; 0x32
 c00ae68:	e1b0cb21 	lsrs	ip, r1, #22
 c00ae6c:	0affff44 	beq	c00ab84 <__adddf3+0xf0>
 c00ae70:	e3a02003 	mov	r2, #3
 c00ae74:	e1b0c1ac 	lsrs	ip, ip, #3
 c00ae78:	12822003 	addne	r2, r2, #3
 c00ae7c:	e1b0c1ac 	lsrs	ip, ip, #3
 c00ae80:	12822003 	addne	r2, r2, #3
 c00ae84:	e08221ac 	add	r2, r2, ip, lsr #3
 c00ae88:	e2623020 	rsb	r3, r2, #32
 c00ae8c:	e1a0c310 	lsl	ip, r0, r3
 c00ae90:	e1a00230 	lsr	r0, r0, r2
 c00ae94:	e1800311 	orr	r0, r0, r1, lsl r3
 c00ae98:	e1a01231 	lsr	r1, r1, r2
 c00ae9c:	e0844002 	add	r4, r4, r2
 c00aea0:	eaffff37 	b	c00ab84 <__adddf3+0xf0>

0c00aea4 <__aeabi_dmul>:
 c00aea4:	e92d4070 	push	{r4, r5, r6, lr}
 c00aea8:	e3a0c0ff 	mov	ip, #255	; 0xff
 c00aeac:	e38ccc07 	orr	ip, ip, #1792	; 0x700
 c00aeb0:	e01c4a21 	ands	r4, ip, r1, lsr #20
 c00aeb4:	101c5a23 	andsne	r5, ip, r3, lsr #20
 c00aeb8:	1134000c 	teqne	r4, ip
 c00aebc:	1135000c 	teqne	r5, ip
 c00aec0:	0b000075 	bleq	c00b09c <__aeabi_dmul+0x1f8>
 c00aec4:	e0844005 	add	r4, r4, r5
 c00aec8:	e0216003 	eor	r6, r1, r3
 c00aecc:	e1c11a8c 	bic	r1, r1, ip, lsl #21
 c00aed0:	e1c33a8c 	bic	r3, r3, ip, lsl #21
 c00aed4:	e1905601 	orrs	r5, r0, r1, lsl #12
 c00aed8:	11925603 	orrsne	r5, r2, r3, lsl #12
 c00aedc:	e3811601 	orr	r1, r1, #1048576	; 0x100000
 c00aee0:	e3833601 	orr	r3, r3, #1048576	; 0x100000
 c00aee4:	0a00001d 	beq	c00af60 <__aeabi_dmul+0xbc>
 c00aee8:	e08ec290 	umull	ip, lr, r0, r2
 c00aeec:	e3a05000 	mov	r5, #0
 c00aef0:	e0a5e291 	umlal	lr, r5, r1, r2
 c00aef4:	e2062102 	and	r2, r6, #-2147483648	; 0x80000000
 c00aef8:	e0a5e390 	umlal	lr, r5, r0, r3
 c00aefc:	e3a06000 	mov	r6, #0
 c00af00:	e0a65391 	umlal	r5, r6, r1, r3
 c00af04:	e33c0000 	teq	ip, #0
 c00af08:	138ee001 	orrne	lr, lr, #1
 c00af0c:	e24440ff 	sub	r4, r4, #255	; 0xff
 c00af10:	e3560c02 	cmp	r6, #512	; 0x200
 c00af14:	e2c44c03 	sbc	r4, r4, #768	; 0x300
 c00af18:	2a000002 	bcs	c00af28 <__aeabi_dmul+0x84>
 c00af1c:	e1b0e08e 	lsls	lr, lr, #1
 c00af20:	e0b55005 	adcs	r5, r5, r5
 c00af24:	e0a66006 	adc	r6, r6, r6
 c00af28:	e1821586 	orr	r1, r2, r6, lsl #11
 c00af2c:	e1811aa5 	orr	r1, r1, r5, lsr #21
 c00af30:	e1a00585 	lsl	r0, r5, #11
 c00af34:	e1800aae 	orr	r0, r0, lr, lsr #21
 c00af38:	e1a0e58e 	lsl	lr, lr, #11
 c00af3c:	e254c0fd 	subs	ip, r4, #253	; 0xfd
 c00af40:	835c0c07 	cmphi	ip, #1792	; 0x700
 c00af44:	8a000011 	bhi	c00af90 <__aeabi_dmul+0xec>
 c00af48:	e35e0102 	cmp	lr, #-2147483648	; 0x80000000
 c00af4c:	01b0e0a0 	lsrseq	lr, r0, #1
 c00af50:	e2b00000 	adcs	r0, r0, #0
 c00af54:	e0a11a04 	adc	r1, r1, r4, lsl #20
 c00af58:	e8bd4070 	pop	{r4, r5, r6, lr}
 c00af5c:	e12fff1e 	bx	lr
 c00af60:	e2066102 	and	r6, r6, #-2147483648	; 0x80000000
 c00af64:	e1861001 	orr	r1, r6, r1
 c00af68:	e1800002 	orr	r0, r0, r2
 c00af6c:	e0211003 	eor	r1, r1, r3
 c00af70:	e05440ac 	subs	r4, r4, ip, lsr #1
 c00af74:	c074500c 	rsbsgt	r5, r4, ip
 c00af78:	c1811a04 	orrgt	r1, r1, r4, lsl #20
 c00af7c:	c8bd4070 	popgt	{r4, r5, r6, lr}
 c00af80:	c12fff1e 	bxgt	lr
 c00af84:	e3811601 	orr	r1, r1, #1048576	; 0x100000
 c00af88:	e3a0e000 	mov	lr, #0
 c00af8c:	e2544001 	subs	r4, r4, #1
 c00af90:	ca00005d 	bgt	c00b10c <__aeabi_dmul+0x268>
 c00af94:	e3740036 	cmn	r4, #54	; 0x36
 c00af98:	d3a00000 	movle	r0, #0
 c00af9c:	d2011102 	andle	r1, r1, #-2147483648	; 0x80000000
 c00afa0:	d8bd4070 	pople	{r4, r5, r6, lr}
 c00afa4:	d12fff1e 	bxle	lr
 c00afa8:	e2644000 	rsb	r4, r4, #0
 c00afac:	e2544020 	subs	r4, r4, #32
 c00afb0:	aa00001a 	bge	c00b020 <__aeabi_dmul+0x17c>
 c00afb4:	e294400c 	adds	r4, r4, #12
 c00afb8:	ca00000c 	bgt	c00aff0 <__aeabi_dmul+0x14c>
 c00afbc:	e2844014 	add	r4, r4, #20
 c00afc0:	e2645020 	rsb	r5, r4, #32
 c00afc4:	e1a03510 	lsl	r3, r0, r5
 c00afc8:	e1a00430 	lsr	r0, r0, r4
 c00afcc:	e1800511 	orr	r0, r0, r1, lsl r5
 c00afd0:	e2012102 	and	r2, r1, #-2147483648	; 0x80000000
 c00afd4:	e3c11102 	bic	r1, r1, #-2147483648	; 0x80000000
 c00afd8:	e0900fa3 	adds	r0, r0, r3, lsr #31
 c00afdc:	e0a21431 	adc	r1, r2, r1, lsr r4
 c00afe0:	e19ee083 	orrs	lr, lr, r3, lsl #1
 c00afe4:	01c00fa3 	biceq	r0, r0, r3, lsr #31
 c00afe8:	e8bd4070 	pop	{r4, r5, r6, lr}
 c00afec:	e12fff1e 	bx	lr
 c00aff0:	e264400c 	rsb	r4, r4, #12
 c00aff4:	e2645020 	rsb	r5, r4, #32
 c00aff8:	e1a03410 	lsl	r3, r0, r4
 c00affc:	e1a00530 	lsr	r0, r0, r5
 c00b000:	e1800411 	orr	r0, r0, r1, lsl r4
 c00b004:	e2011102 	and	r1, r1, #-2147483648	; 0x80000000
 c00b008:	e0900fa3 	adds	r0, r0, r3, lsr #31
 c00b00c:	e2a11000 	adc	r1, r1, #0
 c00b010:	e19ee083 	orrs	lr, lr, r3, lsl #1
 c00b014:	01c00fa3 	biceq	r0, r0, r3, lsr #31
 c00b018:	e8bd4070 	pop	{r4, r5, r6, lr}
 c00b01c:	e12fff1e 	bx	lr
 c00b020:	e2645020 	rsb	r5, r4, #32
 c00b024:	e18ee510 	orr	lr, lr, r0, lsl r5
 c00b028:	e1a03430 	lsr	r3, r0, r4
 c00b02c:	e1833511 	orr	r3, r3, r1, lsl r5
 c00b030:	e1a00431 	lsr	r0, r1, r4
 c00b034:	e2011102 	and	r1, r1, #-2147483648	; 0x80000000
 c00b038:	e1c00431 	bic	r0, r0, r1, lsr r4
 c00b03c:	e0800fa3 	add	r0, r0, r3, lsr #31
 c00b040:	e19ee083 	orrs	lr, lr, r3, lsl #1
 c00b044:	01c00fa3 	biceq	r0, r0, r3, lsr #31
 c00b048:	e8bd4070 	pop	{r4, r5, r6, lr}
 c00b04c:	e12fff1e 	bx	lr
 c00b050:	e3340000 	teq	r4, #0
 c00b054:	1a000008 	bne	c00b07c <__aeabi_dmul+0x1d8>
 c00b058:	e2016102 	and	r6, r1, #-2147483648	; 0x80000000
 c00b05c:	e1b00080 	lsls	r0, r0, #1
 c00b060:	e0a11001 	adc	r1, r1, r1
 c00b064:	e3110601 	tst	r1, #1048576	; 0x100000
 c00b068:	02444001 	subeq	r4, r4, #1
 c00b06c:	0afffffa 	beq	c00b05c <__aeabi_dmul+0x1b8>
 c00b070:	e1811006 	orr	r1, r1, r6
 c00b074:	e3350000 	teq	r5, #0
 c00b078:	112fff1e 	bxne	lr
 c00b07c:	e2036102 	and	r6, r3, #-2147483648	; 0x80000000
 c00b080:	e1b02082 	lsls	r2, r2, #1
 c00b084:	e0a33003 	adc	r3, r3, r3
 c00b088:	e3130601 	tst	r3, #1048576	; 0x100000
 c00b08c:	02455001 	subeq	r5, r5, #1
 c00b090:	0afffffa 	beq	c00b080 <__aeabi_dmul+0x1dc>
 c00b094:	e1833006 	orr	r3, r3, r6
 c00b098:	e12fff1e 	bx	lr
 c00b09c:	e134000c 	teq	r4, ip
 c00b0a0:	e00c5a23 	and	r5, ip, r3, lsr #20
 c00b0a4:	1135000c 	teqne	r5, ip
 c00b0a8:	0a000007 	beq	c00b0cc <__aeabi_dmul+0x228>
 c00b0ac:	e1906081 	orrs	r6, r0, r1, lsl #1
 c00b0b0:	11926083 	orrsne	r6, r2, r3, lsl #1
 c00b0b4:	1affffe5 	bne	c00b050 <__aeabi_dmul+0x1ac>
 c00b0b8:	e0211003 	eor	r1, r1, r3
 c00b0bc:	e2011102 	and	r1, r1, #-2147483648	; 0x80000000
 c00b0c0:	e3a00000 	mov	r0, #0
 c00b0c4:	e8bd4070 	pop	{r4, r5, r6, lr}
 c00b0c8:	e12fff1e 	bx	lr
 c00b0cc:	e1906081 	orrs	r6, r0, r1, lsl #1
 c00b0d0:	01a00002 	moveq	r0, r2
 c00b0d4:	01a01003 	moveq	r1, r3
 c00b0d8:	11926083 	orrsne	r6, r2, r3, lsl #1
 c00b0dc:	0a000010 	beq	c00b124 <__aeabi_dmul+0x280>
 c00b0e0:	e134000c 	teq	r4, ip
 c00b0e4:	1a000001 	bne	c00b0f0 <__aeabi_dmul+0x24c>
 c00b0e8:	e1906601 	orrs	r6, r0, r1, lsl #12
 c00b0ec:	1a00000c 	bne	c00b124 <__aeabi_dmul+0x280>
 c00b0f0:	e135000c 	teq	r5, ip
 c00b0f4:	1a000003 	bne	c00b108 <__aeabi_dmul+0x264>
 c00b0f8:	e1926603 	orrs	r6, r2, r3, lsl #12
 c00b0fc:	11a00002 	movne	r0, r2
 c00b100:	11a01003 	movne	r1, r3
 c00b104:	1a000006 	bne	c00b124 <__aeabi_dmul+0x280>
 c00b108:	e0211003 	eor	r1, r1, r3
 c00b10c:	e2011102 	and	r1, r1, #-2147483648	; 0x80000000
 c00b110:	e381147f 	orr	r1, r1, #2130706432	; 0x7f000000
 c00b114:	e381160f 	orr	r1, r1, #15728640	; 0xf00000
 c00b118:	e3a00000 	mov	r0, #0
 c00b11c:	e8bd4070 	pop	{r4, r5, r6, lr}
 c00b120:	e12fff1e 	bx	lr
 c00b124:	e381147f 	orr	r1, r1, #2130706432	; 0x7f000000
 c00b128:	e381173e 	orr	r1, r1, #16252928	; 0xf80000
 c00b12c:	e8bd4070 	pop	{r4, r5, r6, lr}
 c00b130:	e12fff1e 	bx	lr

0c00b134 <__aeabi_ddiv>:
 c00b134:	e92d4070 	push	{r4, r5, r6, lr}
 c00b138:	e3a0c0ff 	mov	ip, #255	; 0xff
 c00b13c:	e38ccc07 	orr	ip, ip, #1792	; 0x700
 c00b140:	e01c4a21 	ands	r4, ip, r1, lsr #20
 c00b144:	101c5a23 	andsne	r5, ip, r3, lsr #20
 c00b148:	1134000c 	teqne	r4, ip
 c00b14c:	1135000c 	teqne	r5, ip
 c00b150:	0b00005e 	bleq	c00b2d0 <__aeabi_ddiv+0x19c>
 c00b154:	e0444005 	sub	r4, r4, r5
 c00b158:	e021e003 	eor	lr, r1, r3
 c00b15c:	e1925603 	orrs	r5, r2, r3, lsl #12
 c00b160:	e1a01601 	lsl	r1, r1, #12
 c00b164:	0a00004c 	beq	c00b29c <__aeabi_ddiv+0x168>
 c00b168:	e1a03603 	lsl	r3, r3, #12
 c00b16c:	e3a05201 	mov	r5, #268435456	; 0x10000000
 c00b170:	e1853223 	orr	r3, r5, r3, lsr #4
 c00b174:	e1833c22 	orr	r3, r3, r2, lsr #24
 c00b178:	e1a02402 	lsl	r2, r2, #8
 c00b17c:	e1855221 	orr	r5, r5, r1, lsr #4
 c00b180:	e1855c20 	orr	r5, r5, r0, lsr #24
 c00b184:	e1a06400 	lsl	r6, r0, #8
 c00b188:	e20e1102 	and	r1, lr, #-2147483648	; 0x80000000
 c00b18c:	e1550003 	cmp	r5, r3
 c00b190:	01560002 	cmpeq	r6, r2
 c00b194:	e2a440fd 	adc	r4, r4, #253	; 0xfd
 c00b198:	e2844c03 	add	r4, r4, #768	; 0x300
 c00b19c:	2a000001 	bcs	c00b1a8 <__aeabi_ddiv+0x74>
 c00b1a0:	e1b030a3 	lsrs	r3, r3, #1
 c00b1a4:	e1a02062 	rrx	r2, r2
 c00b1a8:	e0566002 	subs	r6, r6, r2
 c00b1ac:	e0c55003 	sbc	r5, r5, r3
 c00b1b0:	e1b030a3 	lsrs	r3, r3, #1
 c00b1b4:	e1a02062 	rrx	r2, r2
 c00b1b8:	e3a00601 	mov	r0, #1048576	; 0x100000
 c00b1bc:	e3a0c702 	mov	ip, #524288	; 0x80000
 c00b1c0:	e056e002 	subs	lr, r6, r2
 c00b1c4:	e0d5e003 	sbcs	lr, r5, r3
 c00b1c8:	20466002 	subcs	r6, r6, r2
 c00b1cc:	21a0500e 	movcs	r5, lr
 c00b1d0:	2180000c 	orrcs	r0, r0, ip
 c00b1d4:	e1b030a3 	lsrs	r3, r3, #1
 c00b1d8:	e1a02062 	rrx	r2, r2
 c00b1dc:	e056e002 	subs	lr, r6, r2
 c00b1e0:	e0d5e003 	sbcs	lr, r5, r3
 c00b1e4:	20466002 	subcs	r6, r6, r2
 c00b1e8:	21a0500e 	movcs	r5, lr
 c00b1ec:	218000ac 	orrcs	r0, r0, ip, lsr #1
 c00b1f0:	e1b030a3 	lsrs	r3, r3, #1
 c00b1f4:	e1a02062 	rrx	r2, r2
 c00b1f8:	e056e002 	subs	lr, r6, r2
 c00b1fc:	e0d5e003 	sbcs	lr, r5, r3
 c00b200:	20466002 	subcs	r6, r6, r2
 c00b204:	21a0500e 	movcs	r5, lr
 c00b208:	2180012c 	orrcs	r0, r0, ip, lsr #2
 c00b20c:	e1b030a3 	lsrs	r3, r3, #1
 c00b210:	e1a02062 	rrx	r2, r2
 c00b214:	e056e002 	subs	lr, r6, r2
 c00b218:	e0d5e003 	sbcs	lr, r5, r3
 c00b21c:	20466002 	subcs	r6, r6, r2
 c00b220:	21a0500e 	movcs	r5, lr
 c00b224:	218001ac 	orrcs	r0, r0, ip, lsr #3
 c00b228:	e195e006 	orrs	lr, r5, r6
 c00b22c:	0a00000d 	beq	c00b268 <__aeabi_ddiv+0x134>
 c00b230:	e1a05205 	lsl	r5, r5, #4
 c00b234:	e1855e26 	orr	r5, r5, r6, lsr #28
 c00b238:	e1a06206 	lsl	r6, r6, #4
 c00b23c:	e1a03183 	lsl	r3, r3, #3
 c00b240:	e1833ea2 	orr	r3, r3, r2, lsr #29
 c00b244:	e1a02182 	lsl	r2, r2, #3
 c00b248:	e1b0c22c 	lsrs	ip, ip, #4
 c00b24c:	1affffdb 	bne	c00b1c0 <__aeabi_ddiv+0x8c>
 c00b250:	e3110601 	tst	r1, #1048576	; 0x100000
 c00b254:	1a000006 	bne	c00b274 <__aeabi_ddiv+0x140>
 c00b258:	e1811000 	orr	r1, r1, r0
 c00b25c:	e3a00000 	mov	r0, #0
 c00b260:	e3a0c102 	mov	ip, #-2147483648	; 0x80000000
 c00b264:	eaffffd5 	b	c00b1c0 <__aeabi_ddiv+0x8c>
 c00b268:	e3110601 	tst	r1, #1048576	; 0x100000
 c00b26c:	01811000 	orreq	r1, r1, r0
 c00b270:	03a00000 	moveq	r0, #0
 c00b274:	e254c0fd 	subs	ip, r4, #253	; 0xfd
 c00b278:	835c0c07 	cmphi	ip, #1792	; 0x700
 c00b27c:	8affff43 	bhi	c00af90 <__aeabi_dmul+0xec>
 c00b280:	e055c003 	subs	ip, r5, r3
 c00b284:	0056c002 	subseq	ip, r6, r2
 c00b288:	01b0c0a0 	lsrseq	ip, r0, #1
 c00b28c:	e2b00000 	adcs	r0, r0, #0
 c00b290:	e0a11a04 	adc	r1, r1, r4, lsl #20
 c00b294:	e8bd4070 	pop	{r4, r5, r6, lr}
 c00b298:	e12fff1e 	bx	lr
 c00b29c:	e20ee102 	and	lr, lr, #-2147483648	; 0x80000000
 c00b2a0:	e18e1621 	orr	r1, lr, r1, lsr #12
 c00b2a4:	e09440ac 	adds	r4, r4, ip, lsr #1
 c00b2a8:	c074500c 	rsbsgt	r5, r4, ip
 c00b2ac:	c1811a04 	orrgt	r1, r1, r4, lsl #20
 c00b2b0:	c8bd4070 	popgt	{r4, r5, r6, lr}
 c00b2b4:	c12fff1e 	bxgt	lr
 c00b2b8:	e3811601 	orr	r1, r1, #1048576	; 0x100000
 c00b2bc:	e3a0e000 	mov	lr, #0
 c00b2c0:	e2544001 	subs	r4, r4, #1
 c00b2c4:	eaffff31 	b	c00af90 <__aeabi_dmul+0xec>
 c00b2c8:	e185e006 	orr	lr, r5, r6
 c00b2cc:	eaffff2f 	b	c00af90 <__aeabi_dmul+0xec>
 c00b2d0:	e00c5a23 	and	r5, ip, r3, lsr #20
 c00b2d4:	e134000c 	teq	r4, ip
 c00b2d8:	0135000c 	teqeq	r5, ip
 c00b2dc:	0affff90 	beq	c00b124 <__aeabi_dmul+0x280>
 c00b2e0:	e134000c 	teq	r4, ip
 c00b2e4:	1a000006 	bne	c00b304 <__aeabi_ddiv+0x1d0>
 c00b2e8:	e1904601 	orrs	r4, r0, r1, lsl #12
 c00b2ec:	1affff8c 	bne	c00b124 <__aeabi_dmul+0x280>
 c00b2f0:	e135000c 	teq	r5, ip
 c00b2f4:	1affff83 	bne	c00b108 <__aeabi_dmul+0x264>
 c00b2f8:	e1a00002 	mov	r0, r2
 c00b2fc:	e1a01003 	mov	r1, r3
 c00b300:	eaffff87 	b	c00b124 <__aeabi_dmul+0x280>
 c00b304:	e135000c 	teq	r5, ip
 c00b308:	1a000004 	bne	c00b320 <__aeabi_ddiv+0x1ec>
 c00b30c:	e1925603 	orrs	r5, r2, r3, lsl #12
 c00b310:	0affff68 	beq	c00b0b8 <__aeabi_dmul+0x214>
 c00b314:	e1a00002 	mov	r0, r2
 c00b318:	e1a01003 	mov	r1, r3
 c00b31c:	eaffff80 	b	c00b124 <__aeabi_dmul+0x280>
 c00b320:	e1906081 	orrs	r6, r0, r1, lsl #1
 c00b324:	11926083 	orrsne	r6, r2, r3, lsl #1
 c00b328:	1affff48 	bne	c00b050 <__aeabi_dmul+0x1ac>
 c00b32c:	e1904081 	orrs	r4, r0, r1, lsl #1
 c00b330:	1affff74 	bne	c00b108 <__aeabi_dmul+0x264>
 c00b334:	e1925083 	orrs	r5, r2, r3, lsl #1
 c00b338:	1affff5e 	bne	c00b0b8 <__aeabi_dmul+0x214>
 c00b33c:	eaffff78 	b	c00b124 <__aeabi_dmul+0x280>

0c00b340 <__aeabi_d2iz>:
 c00b340:	e1a02081 	lsl	r2, r1, #1
 c00b344:	e2922602 	adds	r2, r2, #2097152	; 0x200000
 c00b348:	2a00000c 	bcs	c00b380 <__aeabi_d2iz+0x40>
 c00b34c:	5a000009 	bpl	c00b378 <__aeabi_d2iz+0x38>
 c00b350:	e3e03e3e 	mvn	r3, #992	; 0x3e0
 c00b354:	e0532ac2 	subs	r2, r3, r2, asr #21
 c00b358:	9a00000a 	bls	c00b388 <__aeabi_d2iz+0x48>
 c00b35c:	e1a03581 	lsl	r3, r1, #11
 c00b360:	e3833102 	orr	r3, r3, #-2147483648	; 0x80000000
 c00b364:	e1833aa0 	orr	r3, r3, r0, lsr #21
 c00b368:	e3110102 	tst	r1, #-2147483648	; 0x80000000
 c00b36c:	e1a00233 	lsr	r0, r3, r2
 c00b370:	12600000 	rsbne	r0, r0, #0
 c00b374:	e12fff1e 	bx	lr
 c00b378:	e3a00000 	mov	r0, #0
 c00b37c:	e12fff1e 	bx	lr
 c00b380:	e1900601 	orrs	r0, r0, r1, lsl #12
 c00b384:	1a000002 	bne	c00b394 <__aeabi_d2iz+0x54>
 c00b388:	e2110102 	ands	r0, r1, #-2147483648	; 0x80000000
 c00b38c:	03e00102 	mvneq	r0, #-2147483648	; 0x80000000
 c00b390:	e12fff1e 	bx	lr
 c00b394:	e3a00000 	mov	r0, #0
 c00b398:	e12fff1e 	bx	lr

0c00b39c <__aeabi_ldivmod>:
 c00b39c:	e3530000 	cmp	r3, #0
 c00b3a0:	03520000 	cmpeq	r2, #0
 c00b3a4:	1a000006 	bne	c00b3c4 <__aeabi_ldivmod+0x28>
 c00b3a8:	e3510000 	cmp	r1, #0
 c00b3ac:	03500000 	cmpeq	r0, #0
 c00b3b0:	b3a01102 	movlt	r1, #-2147483648	; 0x80000000
 c00b3b4:	b3a00000 	movlt	r0, #0
 c00b3b8:	c3e01102 	mvngt	r1, #-2147483648	; 0x80000000
 c00b3bc:	c3e00000 	mvngt	r0, #0
 c00b3c0:	eafffdaf 	b	c00aa84 <__aeabi_idiv0>
 c00b3c4:	e24dd008 	sub	sp, sp, #8
 c00b3c8:	e92d6000 	push	{sp, lr}
 c00b3cc:	eb000003 	bl	c00b3e0 <__gnu_ldivmod_helper>
 c00b3d0:	e59de004 	ldr	lr, [sp, #4]
 c00b3d4:	e28dd008 	add	sp, sp, #8
 c00b3d8:	e8bd000c 	pop	{r2, r3}
 c00b3dc:	e12fff1e 	bx	lr

0c00b3e0 <__gnu_ldivmod_helper>:
 c00b3e0:	e92d40f8 	push	{r3, r4, r5, r6, r7, lr}
 c00b3e4:	e1a04002 	mov	r4, r2
 c00b3e8:	e1a07003 	mov	r7, r3
 c00b3ec:	e1a05000 	mov	r5, r0
 c00b3f0:	e1a06001 	mov	r6, r1
 c00b3f4:	eb000019 	bl	c00b460 <__divdi3>
 c00b3f8:	e0070790 	mul	r7, r0, r7
 c00b3fc:	e0832490 	umull	r2, r3, r0, r4
 c00b400:	e0247491 	mla	r4, r1, r4, r7
 c00b404:	e0843003 	add	r3, r4, r3
 c00b408:	e0555002 	subs	r5, r5, r2
 c00b40c:	e0c66003 	sbc	r6, r6, r3
 c00b410:	e59d3018 	ldr	r3, [sp, #24]
 c00b414:	e8830060 	stm	r3, {r5, r6}
 c00b418:	e8bd40f8 	pop	{r3, r4, r5, r6, r7, lr}
 c00b41c:	e12fff1e 	bx	lr

0c00b420 <__gnu_uldivmod_helper>:
 c00b420:	e92d40f8 	push	{r3, r4, r5, r6, r7, lr}
 c00b424:	e1a04002 	mov	r4, r2
 c00b428:	e1a07003 	mov	r7, r3
 c00b42c:	e1a05000 	mov	r5, r0
 c00b430:	e1a06001 	mov	r6, r1
 c00b434:	eb000133 	bl	c00b908 <__udivdi3>
 c00b438:	e0070790 	mul	r7, r0, r7
 c00b43c:	e0832490 	umull	r2, r3, r0, r4
 c00b440:	e0247491 	mla	r4, r1, r4, r7
 c00b444:	e0843003 	add	r3, r4, r3
 c00b448:	e0555002 	subs	r5, r5, r2
 c00b44c:	e0c66003 	sbc	r6, r6, r3
 c00b450:	e59d3018 	ldr	r3, [sp, #24]
 c00b454:	e8830060 	stm	r3, {r5, r6}
 c00b458:	e8bd40f8 	pop	{r3, r4, r5, r6, r7, lr}
 c00b45c:	e12fff1e 	bx	lr

0c00b460 <__divdi3>:
 c00b460:	e92d4ff0 	push	{r4, r5, r6, r7, r8, r9, sl, fp, lr}
 c00b464:	e3510000 	cmp	r1, #0
 c00b468:	e24dd014 	sub	sp, sp, #20
 c00b46c:	e1a0c003 	mov	ip, r3
 c00b470:	a3a07000 	movge	r7, #0
 c00b474:	ba000094 	blt	c00b6cc <__divdi3+0x26c>
 c00b478:	e35c0000 	cmp	ip, #0
 c00b47c:	ba00008e 	blt	c00b6bc <__divdi3+0x25c>
 c00b480:	e253a000 	subs	sl, r3, #0
 c00b484:	e1a0b000 	mov	fp, r0
 c00b488:	e1a08001 	mov	r8, r1
 c00b48c:	e1a09002 	mov	r9, r2
 c00b490:	e1a04002 	mov	r4, r2
 c00b494:	e1a05000 	mov	r5, r0
 c00b498:	e1a06001 	mov	r6, r1
 c00b49c:	1a00003e 	bne	c00b59c <__divdi3+0x13c>
 c00b4a0:	e1520001 	cmp	r2, r1
 c00b4a4:	9a00004c 	bls	c00b5dc <__divdi3+0x17c>
 c00b4a8:	e1a00002 	mov	r0, r2
 c00b4ac:	eb000222 	bl	c00bd3c <__clzsi2>
 c00b4b0:	e3500000 	cmp	r0, #0
 c00b4b4:	12603020 	rsbne	r3, r0, #32
 c00b4b8:	11a0333b 	lsrne	r3, fp, r3
 c00b4bc:	11a04019 	lslne	r4, r9, r0
 c00b4c0:	11836018 	orrne	r6, r3, r8, lsl r0
 c00b4c4:	e1a09824 	lsr	r9, r4, #16
 c00b4c8:	11a0501b 	lslne	r5, fp, r0
 c00b4cc:	e1a01009 	mov	r1, r9
 c00b4d0:	e1a00006 	mov	r0, r6
 c00b4d4:	ebfffcd3 	bl	c00a828 <__aeabi_uidiv>
 c00b4d8:	e1a01009 	mov	r1, r9
 c00b4dc:	e1a0a000 	mov	sl, r0
 c00b4e0:	e1a00006 	mov	r0, r6
 c00b4e4:	ebfffd0c 	bl	c00a91c <__aeabi_uidivmod>
 c00b4e8:	e1a08804 	lsl	r8, r4, #16
 c00b4ec:	e1a08828 	lsr	r8, r8, #16
 c00b4f0:	e0030a98 	mul	r3, r8, sl
 c00b4f4:	e1a0b825 	lsr	fp, r5, #16
 c00b4f8:	e18bb801 	orr	fp, fp, r1, lsl #16
 c00b4fc:	e153000b 	cmp	r3, fp
 c00b500:	9a000005 	bls	c00b51c <__divdi3+0xbc>
 c00b504:	e09bb004 	adds	fp, fp, r4
 c00b508:	e24aa001 	sub	sl, sl, #1
 c00b50c:	2a000002 	bcs	c00b51c <__divdi3+0xbc>
 c00b510:	e153000b 	cmp	r3, fp
 c00b514:	824aa001 	subhi	sl, sl, #1
 c00b518:	808bb004 	addhi	fp, fp, r4
 c00b51c:	e063b00b 	rsb	fp, r3, fp
 c00b520:	e1a01009 	mov	r1, r9
 c00b524:	e1a0000b 	mov	r0, fp
 c00b528:	ebfffcbe 	bl	c00a828 <__aeabi_uidiv>
 c00b52c:	e1a01009 	mov	r1, r9
 c00b530:	e1a06000 	mov	r6, r0
 c00b534:	e1a0000b 	mov	r0, fp
 c00b538:	ebfffcf7 	bl	c00a91c <__aeabi_uidivmod>
 c00b53c:	e0080896 	mul	r8, r6, r8
 c00b540:	e1a00805 	lsl	r0, r5, #16
 c00b544:	e1a05820 	lsr	r5, r0, #16
 c00b548:	e1855801 	orr	r5, r5, r1, lsl #16
 c00b54c:	e1580005 	cmp	r8, r5
 c00b550:	9a000004 	bls	c00b568 <__divdi3+0x108>
 c00b554:	e0955004 	adds	r5, r5, r4
 c00b558:	e2466001 	sub	r6, r6, #1
 c00b55c:	2a000001 	bcs	c00b568 <__divdi3+0x108>
 c00b560:	e1580005 	cmp	r8, r5
 c00b564:	82466001 	subhi	r6, r6, #1
 c00b568:	e186680a 	orr	r6, r6, sl, lsl #16
 c00b56c:	e3a09000 	mov	r9, #0
 c00b570:	e3570000 	cmp	r7, #0
 c00b574:	e1a03006 	mov	r3, r6
 c00b578:	e1a04009 	mov	r4, r9
 c00b57c:	0a000001 	beq	c00b588 <__divdi3+0x128>
 c00b580:	e2733000 	rsbs	r3, r3, #0
 c00b584:	e2e44000 	rsc	r4, r4, #0
 c00b588:	e1a00003 	mov	r0, r3
 c00b58c:	e1a01004 	mov	r1, r4
 c00b590:	e28dd014 	add	sp, sp, #20
 c00b594:	e8bd4ff0 	pop	{r4, r5, r6, r7, r8, r9, sl, fp, lr}
 c00b598:	e12fff1e 	bx	lr
 c00b59c:	e15a0001 	cmp	sl, r1
 c00b5a0:	83a09000 	movhi	r9, #0
 c00b5a4:	81a06009 	movhi	r6, r9
 c00b5a8:	8afffff0 	bhi	c00b570 <__divdi3+0x110>
 c00b5ac:	e1a00003 	mov	r0, r3
 c00b5b0:	eb0001e1 	bl	c00bd3c <__clzsi2>
 c00b5b4:	e2504000 	subs	r4, r0, #0
 c00b5b8:	1a00007a 	bne	c00b7a8 <__divdi3+0x348>
 c00b5bc:	e15a0008 	cmp	sl, r8
 c00b5c0:	2159000b 	cmpcs	r9, fp
 c00b5c4:	83a09000 	movhi	r9, #0
 c00b5c8:	93a09001 	movls	r9, #1
 c00b5cc:	93a06001 	movls	r6, #1
 c00b5d0:	91a09004 	movls	r9, r4
 c00b5d4:	81a06009 	movhi	r6, r9
 c00b5d8:	eaffffe4 	b	c00b570 <__divdi3+0x110>
 c00b5dc:	e3520000 	cmp	r2, #0
 c00b5e0:	1a000003 	bne	c00b5f4 <__divdi3+0x194>
 c00b5e4:	e3a00001 	mov	r0, #1
 c00b5e8:	e1a01002 	mov	r1, r2
 c00b5ec:	ebfffc8d 	bl	c00a828 <__aeabi_uidiv>
 c00b5f0:	e1a04000 	mov	r4, r0
 c00b5f4:	e1a00004 	mov	r0, r4
 c00b5f8:	eb0001cf 	bl	c00bd3c <__clzsi2>
 c00b5fc:	e2503000 	subs	r3, r0, #0
 c00b600:	1a000035 	bne	c00b6dc <__divdi3+0x27c>
 c00b604:	e3a01001 	mov	r1, #1
 c00b608:	e1a09804 	lsl	r9, r4, #16
 c00b60c:	e58d1008 	str	r1, [sp, #8]
 c00b610:	e0646006 	rsb	r6, r4, r6
 c00b614:	e1a08824 	lsr	r8, r4, #16
 c00b618:	e1a09829 	lsr	r9, r9, #16
 c00b61c:	e1a01008 	mov	r1, r8
 c00b620:	e1a00006 	mov	r0, r6
 c00b624:	ebfffc7f 	bl	c00a828 <__aeabi_uidiv>
 c00b628:	e1a01008 	mov	r1, r8
 c00b62c:	e1a0a000 	mov	sl, r0
 c00b630:	e1a00006 	mov	r0, r6
 c00b634:	ebfffcb8 	bl	c00a91c <__aeabi_uidivmod>
 c00b638:	e0030a99 	mul	r3, r9, sl
 c00b63c:	e1a0c825 	lsr	ip, r5, #16
 c00b640:	e18cb801 	orr	fp, ip, r1, lsl #16
 c00b644:	e153000b 	cmp	r3, fp
 c00b648:	9a000005 	bls	c00b664 <__divdi3+0x204>
 c00b64c:	e09bb004 	adds	fp, fp, r4
 c00b650:	e24aa001 	sub	sl, sl, #1
 c00b654:	2a000002 	bcs	c00b664 <__divdi3+0x204>
 c00b658:	e153000b 	cmp	r3, fp
 c00b65c:	824aa001 	subhi	sl, sl, #1
 c00b660:	808bb004 	addhi	fp, fp, r4
 c00b664:	e063b00b 	rsb	fp, r3, fp
 c00b668:	e1a01008 	mov	r1, r8
 c00b66c:	e1a0000b 	mov	r0, fp
 c00b670:	ebfffc6c 	bl	c00a828 <__aeabi_uidiv>
 c00b674:	e1a01008 	mov	r1, r8
 c00b678:	e1a06000 	mov	r6, r0
 c00b67c:	e1a0000b 	mov	r0, fp
 c00b680:	ebfffca5 	bl	c00a91c <__aeabi_uidivmod>
 c00b684:	e0090996 	mul	r9, r6, r9
 c00b688:	e1a00805 	lsl	r0, r5, #16
 c00b68c:	e1a05820 	lsr	r5, r0, #16
 c00b690:	e1855801 	orr	r5, r5, r1, lsl #16
 c00b694:	e1590005 	cmp	r9, r5
 c00b698:	9a000004 	bls	c00b6b0 <__divdi3+0x250>
 c00b69c:	e0955004 	adds	r5, r5, r4
 c00b6a0:	e2466001 	sub	r6, r6, #1
 c00b6a4:	2a000001 	bcs	c00b6b0 <__divdi3+0x250>
 c00b6a8:	e1590005 	cmp	r9, r5
 c00b6ac:	82466001 	subhi	r6, r6, #1
 c00b6b0:	e186680a 	orr	r6, r6, sl, lsl #16
 c00b6b4:	e59d9008 	ldr	r9, [sp, #8]
 c00b6b8:	eaffffac 	b	c00b570 <__divdi3+0x110>
 c00b6bc:	e1e07007 	mvn	r7, r7
 c00b6c0:	e2722000 	rsbs	r2, r2, #0
 c00b6c4:	e2e33000 	rsc	r3, r3, #0
 c00b6c8:	eaffff6c 	b	c00b480 <__divdi3+0x20>
 c00b6cc:	e2700000 	rsbs	r0, r0, #0
 c00b6d0:	e2e11000 	rsc	r1, r1, #0
 c00b6d4:	e3e07000 	mvn	r7, #0
 c00b6d8:	eaffff66 	b	c00b478 <__divdi3+0x18>
 c00b6dc:	e2638020 	rsb	r8, r3, #32
 c00b6e0:	e1a0b835 	lsr	fp, r5, r8
 c00b6e4:	e1a04314 	lsl	r4, r4, r3
 c00b6e8:	e1a0a836 	lsr	sl, r6, r8
 c00b6ec:	e18be316 	orr	lr, fp, r6, lsl r3
 c00b6f0:	e1a08824 	lsr	r8, r4, #16
 c00b6f4:	e1a0c804 	lsl	ip, r4, #16
 c00b6f8:	e1a01008 	mov	r1, r8
 c00b6fc:	e1a0000a 	mov	r0, sl
 c00b700:	e1a0982c 	lsr	r9, ip, #16
 c00b704:	e1a05315 	lsl	r5, r5, r3
 c00b708:	e58de008 	str	lr, [sp, #8]
 c00b70c:	ebfffc45 	bl	c00a828 <__aeabi_uidiv>
 c00b710:	e1a01008 	mov	r1, r8
 c00b714:	e1a0b000 	mov	fp, r0
 c00b718:	e1a0000a 	mov	r0, sl
 c00b71c:	ebfffc7e 	bl	c00a91c <__aeabi_uidivmod>
 c00b720:	e0030b99 	mul	r3, r9, fp
 c00b724:	e59d2008 	ldr	r2, [sp, #8]
 c00b728:	e1a06822 	lsr	r6, r2, #16
 c00b72c:	e1866801 	orr	r6, r6, r1, lsl #16
 c00b730:	e1530006 	cmp	r3, r6
 c00b734:	9a000002 	bls	c00b744 <__divdi3+0x2e4>
 c00b738:	e0966004 	adds	r6, r6, r4
 c00b73c:	e24bb001 	sub	fp, fp, #1
 c00b740:	3a00006c 	bcc	c00b8f8 <__divdi3+0x498>
 c00b744:	e0636006 	rsb	r6, r3, r6
 c00b748:	e1a01008 	mov	r1, r8
 c00b74c:	e1a00006 	mov	r0, r6
 c00b750:	ebfffc34 	bl	c00a828 <__aeabi_uidiv>
 c00b754:	e1a01008 	mov	r1, r8
 c00b758:	e1a0a000 	mov	sl, r0
 c00b75c:	e1a00006 	mov	r0, r6
 c00b760:	ebfffc6d 	bl	c00a91c <__aeabi_uidivmod>
 c00b764:	e0030a99 	mul	r3, r9, sl
 c00b768:	e59d2008 	ldr	r2, [sp, #8]
 c00b76c:	e1a06802 	lsl	r6, r2, #16
 c00b770:	e1a00826 	lsr	r0, r6, #16
 c00b774:	e1806801 	orr	r6, r0, r1, lsl #16
 c00b778:	e1530006 	cmp	r3, r6
 c00b77c:	9a000005 	bls	c00b798 <__divdi3+0x338>
 c00b780:	e0966004 	adds	r6, r6, r4
 c00b784:	e24aa001 	sub	sl, sl, #1
 c00b788:	2a000002 	bcs	c00b798 <__divdi3+0x338>
 c00b78c:	e1530006 	cmp	r3, r6
 c00b790:	824aa001 	subhi	sl, sl, #1
 c00b794:	80866004 	addhi	r6, r6, r4
 c00b798:	e0636006 	rsb	r6, r3, r6
 c00b79c:	e18a380b 	orr	r3, sl, fp, lsl #16
 c00b7a0:	e58d3008 	str	r3, [sp, #8]
 c00b7a4:	eaffff9c 	b	c00b61c <__divdi3+0x1bc>
 c00b7a8:	e2641020 	rsb	r1, r4, #32
 c00b7ac:	e1a00139 	lsr	r0, r9, r1
 c00b7b0:	e1a0213b 	lsr	r2, fp, r1
 c00b7b4:	e180a41a 	orr	sl, r0, sl, lsl r4
 c00b7b8:	e1a06138 	lsr	r6, r8, r1
 c00b7bc:	e1828418 	orr	r8, r2, r8, lsl r4
 c00b7c0:	e1a0380a 	lsl	r3, sl, #16
 c00b7c4:	e1a0b82a 	lsr	fp, sl, #16
 c00b7c8:	e1a0e823 	lsr	lr, r3, #16
 c00b7cc:	e1a0100b 	mov	r1, fp
 c00b7d0:	e1a00006 	mov	r0, r6
 c00b7d4:	e58d8008 	str	r8, [sp, #8]
 c00b7d8:	e58de00c 	str	lr, [sp, #12]
 c00b7dc:	ebfffc11 	bl	c00a828 <__aeabi_uidiv>
 c00b7e0:	e1a0100b 	mov	r1, fp
 c00b7e4:	e1a08000 	mov	r8, r0
 c00b7e8:	e1a00006 	mov	r0, r6
 c00b7ec:	ebfffc4a 	bl	c00a91c <__aeabi_uidivmod>
 c00b7f0:	e59dc00c 	ldr	ip, [sp, #12]
 c00b7f4:	e002089c 	mul	r2, ip, r8
 c00b7f8:	e59d3008 	ldr	r3, [sp, #8]
 c00b7fc:	e1a06823 	lsr	r6, r3, #16
 c00b800:	e1861801 	orr	r1, r6, r1, lsl #16
 c00b804:	e1520001 	cmp	r2, r1
 c00b808:	e1a03419 	lsl	r3, r9, r4
 c00b80c:	9a000002 	bls	c00b81c <__divdi3+0x3bc>
 c00b810:	e091100a 	adds	r1, r1, sl
 c00b814:	e2488001 	sub	r8, r8, #1
 c00b818:	3a000032 	bcc	c00b8e8 <__divdi3+0x488>
 c00b81c:	e0629001 	rsb	r9, r2, r1
 c00b820:	e1a00009 	mov	r0, r9
 c00b824:	e1a0100b 	mov	r1, fp
 c00b828:	e58d3004 	str	r3, [sp, #4]
 c00b82c:	ebfffbfd 	bl	c00a828 <__aeabi_uidiv>
 c00b830:	e1a0100b 	mov	r1, fp
 c00b834:	e1a06000 	mov	r6, r0
 c00b838:	e1a00009 	mov	r0, r9
 c00b83c:	ebfffc36 	bl	c00a91c <__aeabi_uidivmod>
 c00b840:	e59d000c 	ldr	r0, [sp, #12]
 c00b844:	e0020690 	mul	r2, r0, r6
 c00b848:	e59d3008 	ldr	r3, [sp, #8]
 c00b84c:	e1a0c803 	lsl	ip, r3, #16
 c00b850:	e1a0982c 	lsr	r9, ip, #16
 c00b854:	e1890801 	orr	r0, r9, r1, lsl #16
 c00b858:	e1520000 	cmp	r2, r0
 c00b85c:	e59d3004 	ldr	r3, [sp, #4]
 c00b860:	9a000002 	bls	c00b870 <__divdi3+0x410>
 c00b864:	e090000a 	adds	r0, r0, sl
 c00b868:	e2466001 	sub	r6, r6, #1
 c00b86c:	3a000019 	bcc	c00b8d8 <__divdi3+0x478>
 c00b870:	e062e000 	rsb	lr, r2, r0
 c00b874:	e1866808 	orr	r6, r6, r8, lsl #16
 c00b878:	e1a02826 	lsr	r2, r6, #16
 c00b87c:	e1a01823 	lsr	r1, r3, #16
 c00b880:	e1c6c802 	bic	ip, r6, r2, lsl #16
 c00b884:	e1c39801 	bic	r9, r3, r1, lsl #16
 c00b888:	e003099c 	mul	r3, ip, r9
 c00b88c:	e0090992 	mul	r9, r2, r9
 c00b890:	e00c0c91 	mul	ip, r1, ip
 c00b894:	e0010192 	mul	r1, r2, r1
 c00b898:	e099c00c 	adds	ip, r9, ip
 c00b89c:	22811801 	addcs	r1, r1, #65536	; 0x10000
 c00b8a0:	e093380c 	adds	r3, r3, ip, lsl #16
 c00b8a4:	e0a1182c 	adc	r1, r1, ip, lsr #16
 c00b8a8:	e15e0001 	cmp	lr, r1
 c00b8ac:	3a000006 	bcc	c00b8cc <__divdi3+0x46c>
 c00b8b0:	13a02000 	movne	r2, #0
 c00b8b4:	03a02001 	moveq	r2, #1
 c00b8b8:	e1530415 	cmp	r3, r5, lsl r4
 c00b8bc:	93a09000 	movls	r9, #0
 c00b8c0:	82029001 	andhi	r9, r2, #1
 c00b8c4:	e3590000 	cmp	r9, #0
 c00b8c8:	0affff28 	beq	c00b570 <__divdi3+0x110>
 c00b8cc:	e2466001 	sub	r6, r6, #1
 c00b8d0:	e3a09000 	mov	r9, #0
 c00b8d4:	eaffff25 	b	c00b570 <__divdi3+0x110>
 c00b8d8:	e1520000 	cmp	r2, r0
 c00b8dc:	82466001 	subhi	r6, r6, #1
 c00b8e0:	8080000a 	addhi	r0, r0, sl
 c00b8e4:	eaffffe1 	b	c00b870 <__divdi3+0x410>
 c00b8e8:	e1520001 	cmp	r2, r1
 c00b8ec:	82488001 	subhi	r8, r8, #1
 c00b8f0:	8081100a 	addhi	r1, r1, sl
 c00b8f4:	eaffffc8 	b	c00b81c <__divdi3+0x3bc>
 c00b8f8:	e1530006 	cmp	r3, r6
 c00b8fc:	824bb001 	subhi	fp, fp, #1
 c00b900:	80866004 	addhi	r6, r6, r4
 c00b904:	eaffff8e 	b	c00b744 <__divdi3+0x2e4>

0c00b908 <__udivdi3>:
 c00b908:	e92d4ff0 	push	{r4, r5, r6, r7, r8, r9, sl, fp, lr}
 c00b90c:	e2538000 	subs	r8, r3, #0
 c00b910:	e24dd00c 	sub	sp, sp, #12
 c00b914:	e1a05000 	mov	r5, r0
 c00b918:	e1a04001 	mov	r4, r1
 c00b91c:	e1a06002 	mov	r6, r2
 c00b920:	e1a0a002 	mov	sl, r2
 c00b924:	e1a0b000 	mov	fp, r0
 c00b928:	e1a07001 	mov	r7, r1
 c00b92c:	1a000037 	bne	c00ba10 <__udivdi3+0x108>
 c00b930:	e1520001 	cmp	r2, r1
 c00b934:	9a000045 	bls	c00ba50 <__udivdi3+0x148>
 c00b938:	e1a00002 	mov	r0, r2
 c00b93c:	eb0000fe 	bl	c00bd3c <__clzsi2>
 c00b940:	e3500000 	cmp	r0, #0
 c00b944:	12603020 	rsbne	r3, r0, #32
 c00b948:	11a03335 	lsrne	r3, r5, r3
 c00b94c:	11a0a016 	lslne	sl, r6, r0
 c00b950:	11837014 	orrne	r7, r3, r4, lsl r0
 c00b954:	e1a0482a 	lsr	r4, sl, #16
 c00b958:	11a0b015 	lslne	fp, r5, r0
 c00b95c:	e1a01004 	mov	r1, r4
 c00b960:	e1a00007 	mov	r0, r7
 c00b964:	ebfffbaf 	bl	c00a828 <__aeabi_uidiv>
 c00b968:	e1a01004 	mov	r1, r4
 c00b96c:	e1a08000 	mov	r8, r0
 c00b970:	e1a00007 	mov	r0, r7
 c00b974:	ebfffbe8 	bl	c00a91c <__aeabi_uidivmod>
 c00b978:	e1a0680a 	lsl	r6, sl, #16
 c00b97c:	e1a06826 	lsr	r6, r6, #16
 c00b980:	e0030896 	mul	r3, r6, r8
 c00b984:	e1a0782b 	lsr	r7, fp, #16
 c00b988:	e1877801 	orr	r7, r7, r1, lsl #16
 c00b98c:	e1530007 	cmp	r3, r7
 c00b990:	9a000005 	bls	c00b9ac <__udivdi3+0xa4>
 c00b994:	e097700a 	adds	r7, r7, sl
 c00b998:	e2488001 	sub	r8, r8, #1
 c00b99c:	2a000002 	bcs	c00b9ac <__udivdi3+0xa4>
 c00b9a0:	e1530007 	cmp	r3, r7
 c00b9a4:	82488001 	subhi	r8, r8, #1
 c00b9a8:	8087700a 	addhi	r7, r7, sl
 c00b9ac:	e0637007 	rsb	r7, r3, r7
 c00b9b0:	e1a01004 	mov	r1, r4
 c00b9b4:	e1a00007 	mov	r0, r7
 c00b9b8:	ebfffb9a 	bl	c00a828 <__aeabi_uidiv>
 c00b9bc:	e1a01004 	mov	r1, r4
 c00b9c0:	e1a05000 	mov	r5, r0
 c00b9c4:	e1a00007 	mov	r0, r7
 c00b9c8:	ebfffbd3 	bl	c00a91c <__aeabi_uidivmod>
 c00b9cc:	e0060695 	mul	r6, r5, r6
 c00b9d0:	e1a0080b 	lsl	r0, fp, #16
 c00b9d4:	e1a0b820 	lsr	fp, r0, #16
 c00b9d8:	e18bb801 	orr	fp, fp, r1, lsl #16
 c00b9dc:	e156000b 	cmp	r6, fp
 c00b9e0:	9a000004 	bls	c00b9f8 <__udivdi3+0xf0>
 c00b9e4:	e09bb00a 	adds	fp, fp, sl
 c00b9e8:	e2455001 	sub	r5, r5, #1
 c00b9ec:	2a000001 	bcs	c00b9f8 <__udivdi3+0xf0>
 c00b9f0:	e156000b 	cmp	r6, fp
 c00b9f4:	82455001 	subhi	r5, r5, #1
 c00b9f8:	e1858808 	orr	r8, r5, r8, lsl #16
 c00b9fc:	e3a01000 	mov	r1, #0
 c00ba00:	e1a00008 	mov	r0, r8
 c00ba04:	e28dd00c 	add	sp, sp, #12
 c00ba08:	e8bd4ff0 	pop	{r4, r5, r6, r7, r8, r9, sl, fp, lr}
 c00ba0c:	e12fff1e 	bx	lr
 c00ba10:	e1580001 	cmp	r8, r1
 c00ba14:	83a01000 	movhi	r1, #0
 c00ba18:	81a08001 	movhi	r8, r1
 c00ba1c:	8afffff7 	bhi	c00ba00 <__udivdi3+0xf8>
 c00ba20:	e1a00008 	mov	r0, r8
 c00ba24:	eb0000c4 	bl	c00bd3c <__clzsi2>
 c00ba28:	e2507000 	subs	r7, r0, #0
 c00ba2c:	1a00003e 	bne	c00bb2c <__udivdi3+0x224>
 c00ba30:	e1580004 	cmp	r8, r4
 c00ba34:	21560005 	cmpcs	r6, r5
 c00ba38:	83a01000 	movhi	r1, #0
 c00ba3c:	93a01001 	movls	r1, #1
 c00ba40:	93a08001 	movls	r8, #1
 c00ba44:	91a01007 	movls	r1, r7
 c00ba48:	81a08001 	movhi	r8, r1
 c00ba4c:	eaffffeb 	b	c00ba00 <__udivdi3+0xf8>
 c00ba50:	e3520000 	cmp	r2, #0
 c00ba54:	1a000003 	bne	c00ba68 <__udivdi3+0x160>
 c00ba58:	e3a00001 	mov	r0, #1
 c00ba5c:	e1a01002 	mov	r1, r2
 c00ba60:	ebfffb70 	bl	c00a828 <__aeabi_uidiv>
 c00ba64:	e1a0a000 	mov	sl, r0
 c00ba68:	e1a0000a 	mov	r0, sl
 c00ba6c:	eb0000b2 	bl	c00bd3c <__clzsi2>
 c00ba70:	e2503000 	subs	r3, r0, #0
 c00ba74:	1a000075 	bne	c00bc50 <__udivdi3+0x348>
 c00ba78:	e1a0180a 	lsl	r1, sl, #16
 c00ba7c:	e06a4004 	rsb	r4, sl, r4
 c00ba80:	e1a0982a 	lsr	r9, sl, #16
 c00ba84:	e1a06821 	lsr	r6, r1, #16
 c00ba88:	e3a07001 	mov	r7, #1
 c00ba8c:	e1a01009 	mov	r1, r9
 c00ba90:	e1a00004 	mov	r0, r4
 c00ba94:	ebfffb63 	bl	c00a828 <__aeabi_uidiv>
 c00ba98:	e1a01009 	mov	r1, r9
 c00ba9c:	e1a05000 	mov	r5, r0
 c00baa0:	e1a00004 	mov	r0, r4
 c00baa4:	ebfffb9c 	bl	c00a91c <__aeabi_uidivmod>
 c00baa8:	e0030596 	mul	r3, r6, r5
 c00baac:	e1a0282b 	lsr	r2, fp, #16
 c00bab0:	e1824801 	orr	r4, r2, r1, lsl #16
 c00bab4:	e1530004 	cmp	r3, r4
 c00bab8:	9a000005 	bls	c00bad4 <__udivdi3+0x1cc>
 c00babc:	e094400a 	adds	r4, r4, sl
 c00bac0:	e2455001 	sub	r5, r5, #1
 c00bac4:	2a000002 	bcs	c00bad4 <__udivdi3+0x1cc>
 c00bac8:	e1530004 	cmp	r3, r4
 c00bacc:	82455001 	subhi	r5, r5, #1
 c00bad0:	8084400a 	addhi	r4, r4, sl
 c00bad4:	e0634004 	rsb	r4, r3, r4
 c00bad8:	e1a01009 	mov	r1, r9
 c00badc:	e1a00004 	mov	r0, r4
 c00bae0:	ebfffb50 	bl	c00a828 <__aeabi_uidiv>
 c00bae4:	e1a01009 	mov	r1, r9
 c00bae8:	e1a08000 	mov	r8, r0
 c00baec:	e1a00004 	mov	r0, r4
 c00baf0:	ebfffb89 	bl	c00a91c <__aeabi_uidivmod>
 c00baf4:	e0060698 	mul	r6, r8, r6
 c00baf8:	e1a0b80b 	lsl	fp, fp, #16
 c00bafc:	e1a0382b 	lsr	r3, fp, #16
 c00bb00:	e183b801 	orr	fp, r3, r1, lsl #16
 c00bb04:	e156000b 	cmp	r6, fp
 c00bb08:	9a000004 	bls	c00bb20 <__udivdi3+0x218>
 c00bb0c:	e09bb00a 	adds	fp, fp, sl
 c00bb10:	e2488001 	sub	r8, r8, #1
 c00bb14:	2a000001 	bcs	c00bb20 <__udivdi3+0x218>
 c00bb18:	e156000b 	cmp	r6, fp
 c00bb1c:	82488001 	subhi	r8, r8, #1
 c00bb20:	e1888805 	orr	r8, r8, r5, lsl #16
 c00bb24:	e1a01007 	mov	r1, r7
 c00bb28:	eaffffb4 	b	c00ba00 <__udivdi3+0xf8>
 c00bb2c:	e267a020 	rsb	sl, r7, #32
 c00bb30:	e1a01a36 	lsr	r1, r6, sl
 c00bb34:	e1a02a35 	lsr	r2, r5, sl
 c00bb38:	e1818718 	orr	r8, r1, r8, lsl r7
 c00bb3c:	e1a0ba34 	lsr	fp, r4, sl
 c00bb40:	e1829714 	orr	r9, r2, r4, lsl r7
 c00bb44:	e1a0a828 	lsr	sl, r8, #16
 c00bb48:	e1a0e808 	lsl	lr, r8, #16
 c00bb4c:	e1a0100a 	mov	r1, sl
 c00bb50:	e1a0000b 	mov	r0, fp
 c00bb54:	e1a0482e 	lsr	r4, lr, #16
 c00bb58:	e58d9004 	str	r9, [sp, #4]
 c00bb5c:	ebfffb31 	bl	c00a828 <__aeabi_uidiv>
 c00bb60:	e1a0100a 	mov	r1, sl
 c00bb64:	e1a09000 	mov	r9, r0
 c00bb68:	e1a0000b 	mov	r0, fp
 c00bb6c:	ebfffb6a 	bl	c00a91c <__aeabi_uidivmod>
 c00bb70:	e0020994 	mul	r2, r4, r9
 c00bb74:	e59d0004 	ldr	r0, [sp, #4]
 c00bb78:	e1a0c820 	lsr	ip, r0, #16
 c00bb7c:	e18cb801 	orr	fp, ip, r1, lsl #16
 c00bb80:	e152000b 	cmp	r2, fp
 c00bb84:	e1a03716 	lsl	r3, r6, r7
 c00bb88:	9a000002 	bls	c00bb98 <__udivdi3+0x290>
 c00bb8c:	e09bb008 	adds	fp, fp, r8
 c00bb90:	e2499001 	sub	r9, r9, #1
 c00bb94:	3a000060 	bcc	c00bd1c <__udivdi3+0x414>
 c00bb98:	e062b00b 	rsb	fp, r2, fp
 c00bb9c:	e1a0100a 	mov	r1, sl
 c00bba0:	e1a0000b 	mov	r0, fp
 c00bba4:	e58d3000 	str	r3, [sp]
 c00bba8:	ebfffb1e 	bl	c00a828 <__aeabi_uidiv>
 c00bbac:	e1a0100a 	mov	r1, sl
 c00bbb0:	e1a06000 	mov	r6, r0
 c00bbb4:	e1a0000b 	mov	r0, fp
 c00bbb8:	ebfffb57 	bl	c00a91c <__aeabi_uidivmod>
 c00bbbc:	e0040496 	mul	r4, r6, r4
 c00bbc0:	e59d0004 	ldr	r0, [sp, #4]
 c00bbc4:	e1a0c800 	lsl	ip, r0, #16
 c00bbc8:	e1a0382c 	lsr	r3, ip, #16
 c00bbcc:	e1832801 	orr	r2, r3, r1, lsl #16
 c00bbd0:	e1540002 	cmp	r4, r2
 c00bbd4:	e59d3000 	ldr	r3, [sp]
 c00bbd8:	9a000002 	bls	c00bbe8 <__udivdi3+0x2e0>
 c00bbdc:	e0922008 	adds	r2, r2, r8
 c00bbe0:	e2466001 	sub	r6, r6, #1
 c00bbe4:	3a000048 	bcc	c00bd0c <__udivdi3+0x404>
 c00bbe8:	e0644002 	rsb	r4, r4, r2
 c00bbec:	e1868809 	orr	r8, r6, r9, lsl #16
 c00bbf0:	e1a02828 	lsr	r2, r8, #16
 c00bbf4:	e1a0e823 	lsr	lr, r3, #16
 c00bbf8:	e1c80802 	bic	r0, r8, r2, lsl #16
 c00bbfc:	e1c3680e 	bic	r6, r3, lr, lsl #16
 c00bc00:	e0030690 	mul	r3, r0, r6
 c00bc04:	e0060692 	mul	r6, r2, r6
 c00bc08:	e000009e 	mul	r0, lr, r0
 c00bc0c:	e00e0e92 	mul	lr, r2, lr
 c00bc10:	e0960000 	adds	r0, r6, r0
 c00bc14:	228ee801 	addcs	lr, lr, #65536	; 0x10000
 c00bc18:	e0933800 	adds	r3, r3, r0, lsl #16
 c00bc1c:	e0aee820 	adc	lr, lr, r0, lsr #16
 c00bc20:	e154000e 	cmp	r4, lr
 c00bc24:	3a000006 	bcc	c00bc44 <__udivdi3+0x33c>
 c00bc28:	13a02000 	movne	r2, #0
 c00bc2c:	03a02001 	moveq	r2, #1
 c00bc30:	e1530715 	cmp	r3, r5, lsl r7
 c00bc34:	93a01000 	movls	r1, #0
 c00bc38:	82021001 	andhi	r1, r2, #1
 c00bc3c:	e3510000 	cmp	r1, #0
 c00bc40:	0affff6e 	beq	c00ba00 <__udivdi3+0xf8>
 c00bc44:	e2488001 	sub	r8, r8, #1
 c00bc48:	e3a01000 	mov	r1, #0
 c00bc4c:	eaffff6b 	b	c00ba00 <__udivdi3+0xf8>
 c00bc50:	e2639020 	rsb	r9, r3, #32
 c00bc54:	e1a0a31a 	lsl	sl, sl, r3
 c00bc58:	e1a07934 	lsr	r7, r4, r9
 c00bc5c:	e1a08935 	lsr	r8, r5, r9
 c00bc60:	e1a0982a 	lsr	r9, sl, #16
 c00bc64:	e1a0280a 	lsl	r2, sl, #16
 c00bc68:	e1a01009 	mov	r1, r9
 c00bc6c:	e1a00007 	mov	r0, r7
 c00bc70:	e1888314 	orr	r8, r8, r4, lsl r3
 c00bc74:	e1a0b315 	lsl	fp, r5, r3
 c00bc78:	e1a06822 	lsr	r6, r2, #16
 c00bc7c:	ebfffae9 	bl	c00a828 <__aeabi_uidiv>
 c00bc80:	e1a01009 	mov	r1, r9
 c00bc84:	e1a05000 	mov	r5, r0
 c00bc88:	e1a00007 	mov	r0, r7
 c00bc8c:	ebfffb22 	bl	c00a91c <__aeabi_uidivmod>
 c00bc90:	e0030596 	mul	r3, r6, r5
 c00bc94:	e1a04828 	lsr	r4, r8, #16
 c00bc98:	e1844801 	orr	r4, r4, r1, lsl #16
 c00bc9c:	e1530004 	cmp	r3, r4
 c00bca0:	9a000002 	bls	c00bcb0 <__udivdi3+0x3a8>
 c00bca4:	e094400a 	adds	r4, r4, sl
 c00bca8:	e2455001 	sub	r5, r5, #1
 c00bcac:	3a00001e 	bcc	c00bd2c <__udivdi3+0x424>
 c00bcb0:	e0634004 	rsb	r4, r3, r4
 c00bcb4:	e1a01009 	mov	r1, r9
 c00bcb8:	e1a00004 	mov	r0, r4
 c00bcbc:	ebfffad9 	bl	c00a828 <__aeabi_uidiv>
 c00bcc0:	e1a01009 	mov	r1, r9
 c00bcc4:	e1a07000 	mov	r7, r0
 c00bcc8:	e1a00004 	mov	r0, r4
 c00bccc:	ebfffb12 	bl	c00a91c <__aeabi_uidivmod>
 c00bcd0:	e0030796 	mul	r3, r6, r7
 c00bcd4:	e1a00808 	lsl	r0, r8, #16
 c00bcd8:	e1a0c820 	lsr	ip, r0, #16
 c00bcdc:	e18c4801 	orr	r4, ip, r1, lsl #16
 c00bce0:	e1530004 	cmp	r3, r4
 c00bce4:	9a000005 	bls	c00bd00 <__udivdi3+0x3f8>
 c00bce8:	e094400a 	adds	r4, r4, sl
 c00bcec:	e2477001 	sub	r7, r7, #1
 c00bcf0:	2a000002 	bcs	c00bd00 <__udivdi3+0x3f8>
 c00bcf4:	e1530004 	cmp	r3, r4
 c00bcf8:	82477001 	subhi	r7, r7, #1
 c00bcfc:	8084400a 	addhi	r4, r4, sl
 c00bd00:	e0634004 	rsb	r4, r3, r4
 c00bd04:	e1877805 	orr	r7, r7, r5, lsl #16
 c00bd08:	eaffff5f 	b	c00ba8c <__udivdi3+0x184>
 c00bd0c:	e1540002 	cmp	r4, r2
 c00bd10:	82466001 	subhi	r6, r6, #1
 c00bd14:	80822008 	addhi	r2, r2, r8
 c00bd18:	eaffffb2 	b	c00bbe8 <__udivdi3+0x2e0>
 c00bd1c:	e152000b 	cmp	r2, fp
 c00bd20:	82499001 	subhi	r9, r9, #1
 c00bd24:	808bb008 	addhi	fp, fp, r8
 c00bd28:	eaffff9a 	b	c00bb98 <__udivdi3+0x290>
 c00bd2c:	e1530004 	cmp	r3, r4
 c00bd30:	82455001 	subhi	r5, r5, #1
 c00bd34:	8084400a 	addhi	r4, r4, sl
 c00bd38:	eaffffdc 	b	c00bcb0 <__udivdi3+0x3a8>

0c00bd3c <__clzsi2>:
 c00bd3c:	e3a0101c 	mov	r1, #28
 c00bd40:	e3500801 	cmp	r0, #65536	; 0x10000
 c00bd44:	21a00820 	lsrcs	r0, r0, #16
 c00bd48:	22411010 	subcs	r1, r1, #16
 c00bd4c:	e3500c01 	cmp	r0, #256	; 0x100
 c00bd50:	21a00420 	lsrcs	r0, r0, #8
 c00bd54:	22411008 	subcs	r1, r1, #8
 c00bd58:	e3500010 	cmp	r0, #16
 c00bd5c:	21a00220 	lsrcs	r0, r0, #4
 c00bd60:	22411004 	subcs	r1, r1, #4
 c00bd64:	e28f2008 	add	r2, pc, #8
 c00bd68:	e7d20000 	ldrb	r0, [r2, r0]
 c00bd6c:	e0800001 	add	r0, r0, r1
 c00bd70:	e12fff1e 	bx	lr
 c00bd74:	02020304 	.word	0x02020304
 c00bd78:	01010101 	.word	0x01010101
	...

0c00bd84 <strlen>:
 c00bd84:	e3c01003 	bic	r1, r0, #3
 c00bd88:	e2100003 	ands	r0, r0, #3
 c00bd8c:	e2600000 	rsb	r0, r0, #0
 c00bd90:	e4913004 	ldr	r3, [r1], #4
 c00bd94:	e280c004 	add	ip, r0, #4
 c00bd98:	e1a0c18c 	lsl	ip, ip, #3
 c00bd9c:	e3e02000 	mvn	r2, #0
 c00bda0:	11833c32 	orrne	r3, r3, r2, lsr ip
 c00bda4:	e3a0c001 	mov	ip, #1
 c00bda8:	e18cc40c 	orr	ip, ip, ip, lsl #8
 c00bdac:	e18cc80c 	orr	ip, ip, ip, lsl #16
 c00bdb0:	e043200c 	sub	r2, r3, ip
 c00bdb4:	e1c22003 	bic	r2, r2, r3
 c00bdb8:	e012238c 	ands	r2, r2, ip, lsl #7
 c00bdbc:	04913004 	ldreq	r3, [r1], #4
 c00bdc0:	02800004 	addeq	r0, r0, #4
 c00bdc4:	0afffff9 	beq	c00bdb0 <strlen+0x2c>
 c00bdc8:	e31300ff 	tst	r3, #255	; 0xff
 c00bdcc:	12800001 	addne	r0, r0, #1
 c00bdd0:	13130cff 	tstne	r3, #65280	; 0xff00
 c00bdd4:	12800001 	addne	r0, r0, #1
 c00bdd8:	131308ff 	tstne	r3, #16711680	; 0xff0000
 c00bddc:	12800001 	addne	r0, r0, #1
 c00bde0:	e12fff1e 	bx	lr
