
PRACTICA_3.elf:     file format elf32-littlearm

Sections:
Idx Name          Size      VMA       LMA       File off  Algn
  0 .text         0000a3b8  0c000000  0c000000  00008000  2**2
                  CONTENTS, ALLOC, LOAD, READONLY, CODE
  1 .data         00000660  0c00a3c0  0c00a3c0  000123c0  2**5
                  CONTENTS, ALLOC, LOAD, DATA
  2 .cola_debug   00000c00  0c00aa20  0c00aa20  00012a20  2**2
                  CONTENTS, ALLOC, LOAD, DATA
  3 .rodata       000016f8  0c00b620  0c00b620  00013620  2**2
                  CONTENTS, ALLOC, LOAD, READONLY, DATA
  4 .bss          0000010c  0c00cd18  0c00cd18  00014d18  2**2
                  ALLOC
  5 .ARM.attributes 0000002e  00000000  00000000  00014d18  2**0
                  CONTENTS, READONLY
  6 .comment      0000002a  00000000  00000000  00014d46  2**0
                  CONTENTS, READONLY
  7 .debug_info   0000318e  00000000  00000000  00014d70  2**0
                  CONTENTS, READONLY, DEBUGGING
  8 .debug_line   000027bd  00000000  00000000  00017efe  2**0
                  CONTENTS, READONLY, DEBUGGING
  9 .debug_abbrev 00000ebe  00000000  00000000  0001a6bb  2**0
                  CONTENTS, READONLY, DEBUGGING
 10 .debug_frame  00000f90  00000000  00000000  0001b57c  2**2
                  CONTENTS, READONLY, DEBUGGING
 11 .debug_aranges 00000220  00000000  00000000  0001c510  2**3
                  CONTENTS, READONLY, DEBUGGING
 12 .debug_macinfo 0005c9a4  00000000  00000000  0001c730  2**0
                  CONTENTS, READONLY, DEBUGGING
 13 .debug_loc    00001314  00000000  00000000  000790d4  2**0
                  CONTENTS, READONLY, DEBUGGING
 14 .debug_pubnames 000009a1  00000000  00000000  0007a3e8  2**0
                  CONTENTS, READONLY, DEBUGGING
 15 .debug_pubtypes 00000253  00000000  00000000  0007ad89  2**0
                  CONTENTS, READONLY, DEBUGGING
 16 .debug_str    000010f0  00000000  00000000  0007afdc  2**0
                  CONTENTS, READONLY, DEBUGGING

Disassembly of section .text:

0c000000 <ENTRY>:
    .extern Main			/* The main entry of mon program */
    
    .text

    ENTRY:
    b ResetHandler			/* for debug            */
 c000000:	ea00010a 	b	c000430 <ResetHandler>
    b HandlerUndef      	/* handlerUndef         */
 c000004:	ea000042 	b	c000114 <HandlerUndef>
    b HandlerSWI        	/* SWI interrupt handler*/
 c000008:	ea000047 	b	c00012c <HandlerSWI>
    b HandlerPabort     	/* handlerPAbort        */
 c00000c:	ea000052 	b	c00015c <HandlerPabort>
    b HandlerDabort     	/* handlerDAbort        */
 c000010:	ea00004b 	b	c000144 <HandlerDabort>
    b .                 	/* handlerReserved      */
 c000014:	eafffffe 	b	c000014 <ENTRY+0x14>
    b HandlerIRQ
 c000018:	ea000037 	b	c0000fc <HandlerIRQ>
    b HandlerFIQ
 c00001c:	ea000030 	b	c0000e4 <HandlerFIQ>

0c000020 <VECTOR_BRANCH>:
	#be changed like below, to work-around with H/W bug of S3C44B0X interrupt controller. 
	# b HandlerIRQ  ->  subs pc,lr,#4
	# b HandlerIRQ  ->  subs pc,lr,#4

VECTOR_BRANCH:
    ldr pc,=HandlerEINT0    /*mGA    H/W interrupt vector table  */
 c000020:	e59ff56c 	ldr	pc, [pc, #1388]	; c000594 <U0+0x14>
    ldr pc,=HandlerEINT1    /*	                                 */	
 c000024:	e59ff56c 	ldr	pc, [pc, #1388]	; c000598 <U0+0x18>
    ldr pc,=HandlerEINT2    /*                                   */  
 c000028:	e59ff56c 	ldr	pc, [pc, #1388]	; c00059c <U0+0x1c>
    ldr pc,=HandlerEINT3    /*                                   */  
 c00002c:	e59ff56c 	ldr	pc, [pc, #1388]	; c0005a0 <U0+0x20>
    ldr pc,=HandlerEINT4567 /*                                   */  
 c000030:	e59ff56c 	ldr	pc, [pc, #1388]	; c0005a4 <U0+0x24>
    ldr pc,=HandlerTICK	    /*mGA                                */   
 c000034:	e59ff56c 	ldr	pc, [pc, #1388]	; c0005a8 <U0+0x28>
    b .                                                          
 c000038:	eafffffe 	b	c000038 <VECTOR_BRANCH+0x18>
    b .                                                         
 c00003c:	eafffffe 	b	c00003c <VECTOR_BRANCH+0x1c>
    ldr pc,=HandlerZDMA0    /*mGB                                */  
 c000040:	e59ff564 	ldr	pc, [pc, #1380]	; c0005ac <U0+0x2c>
    ldr pc,=HandlerZDMA1    /*                                   */  
 c000044:	e59ff564 	ldr	pc, [pc, #1380]	; c0005b0 <U0+0x30>
    ldr pc,=HandlerBDMA0    /*                                   */  
 c000048:	e59ff564 	ldr	pc, [pc, #1380]	; c0005b4 <U0+0x34>
    ldr pc,=HandlerBDMA1    /*                                   */  
 c00004c:	e59ff564 	ldr	pc, [pc, #1380]	; c0005b8 <U0+0x38>
    ldr pc,=HandlerWDT	    /*                                   */   
 c000050:	e59ff564 	ldr	pc, [pc, #1380]	; c0005bc <U0+0x3c>
    ldr pc,=HandlerUERR01   /*mGB                                */  
 c000054:	e59ff564 	ldr	pc, [pc, #1380]	; c0005c0 <U0+0x40>
    b .                                                          
 c000058:	eafffffe 	b	c000058 <VECTOR_BRANCH+0x38>
    b .                                                          
 c00005c:	eafffffe 	b	c00005c <VECTOR_BRANCH+0x3c>
    ldr pc,=HandlerTIMER0   /*mGC                                */  
 c000060:	e59ff55c 	ldr	pc, [pc, #1372]	; c0005c4 <U0+0x44>
    ldr pc,=HandlerTIMER1   /*                                   */  
 c000064:	e59ff55c 	ldr	pc, [pc, #1372]	; c0005c8 <U0+0x48>
    ldr pc,=HandlerTIMER2   /*                                   */  
 c000068:	e59ff55c 	ldr	pc, [pc, #1372]	; c0005cc <U0+0x4c>
    ldr pc,=HandlerTIMER3   /*                                   */  
 c00006c:	e59ff55c 	ldr	pc, [pc, #1372]	; c0005d0 <U0+0x50>
    ldr pc,=HandlerTIMER4   /*                                   */  
 c000070:	e59ff55c 	ldr	pc, [pc, #1372]	; c0005d4 <U0+0x54>
    ldr pc,=HandlerTIMER5   /*mGC                                */  
 c000074:	e59ff55c 	ldr	pc, [pc, #1372]	; c0005d8 <U0+0x58>
    b .                                                          
 c000078:	eafffffe 	b	c000078 <VECTOR_BRANCH+0x58>
    b .                                                          
 c00007c:	eafffffe 	b	c00007c <VECTOR_BRANCH+0x5c>
    ldr pc,=HandlerURXD0    /*mGD                                */  
 c000080:	e59ff554 	ldr	pc, [pc, #1364]	; c0005dc <U0+0x5c>
    ldr pc,=HandlerURXD1    /*                                   */  
 c000084:	e59ff554 	ldr	pc, [pc, #1364]	; c0005e0 <U0+0x60>
    ldr pc,=HandlerIIC	    /*                                   */   
 c000088:	e59ff554 	ldr	pc, [pc, #1364]	; c0005e4 <U0+0x64>
    ldr pc,=HandlerSIO	    /*                                   */   
 c00008c:	e59ff554 	ldr	pc, [pc, #1364]	; c0005e8 <U0+0x68>
    ldr pc,=HandlerUTXD0    /*                                   */  
 c000090:	e59ff554 	ldr	pc, [pc, #1364]	; c0005ec <U0+0x6c>
    ldr pc,=HandlerUTXD1    /*mGD                                */  
 c000094:	e59ff554 	ldr	pc, [pc, #1364]	; c0005f0 <U0+0x70>
    b .                                                          
 c000098:	eafffffe 	b	c000098 <VECTOR_BRANCH+0x78>
    b .                                                          
 c00009c:	eafffffe 	b	c00009c <VECTOR_BRANCH+0x7c>
    ldr pc,=HandlerRTC	    /*mGKA                               */   
 c0000a0:	e59ff54c 	ldr	pc, [pc, #1356]	; c0005f4 <U0+0x74>
    b .					    /*                     		         */
 c0000a4:	eafffffe 	b	c0000a4 <VECTOR_BRANCH+0x84>
    b .					    /*                     		         */
 c0000a8:	eafffffe 	b	c0000a8 <VECTOR_BRANCH+0x88>
    b .					    /*                     		         */
 c0000ac:	eafffffe 	b	c0000ac <VECTOR_BRANCH+0x8c>
    b .					    /*                     		         */
 c0000b0:	eafffffe 	b	c0000b0 <VECTOR_BRANCH+0x90>
    b .					    /*mGKA                 			     */
 c0000b4:	eafffffe 	b	c0000b4 <VECTOR_BRANCH+0x94>
    b .                                                          
 c0000b8:	eafffffe 	b	c0000b8 <VECTOR_BRANCH+0x98>
    b .                                                          
 c0000bc:	eafffffe 	b	c0000bc <VECTOR_BRANCH+0x9c>
    ldr pc,=HandlerADC	    /*mGKB                               */  
 c0000c0:	e59ff530 	ldr	pc, [pc, #1328]	; c0005f8 <U0+0x78>
    b .					    /*                     		         */
 c0000c4:	eafffffe 	b	c0000c4 <VECTOR_BRANCH+0xa4>
    b .					    /*                     		         */
 c0000c8:	eafffffe 	b	c0000c8 <VECTOR_BRANCH+0xa8>
    b .					    /*                     		         */
 c0000cc:	eafffffe 	b	c0000cc <VECTOR_BRANCH+0xac>
    b .					    /*                     		         */
 c0000d0:	eafffffe 	b	c0000d0 <VECTOR_BRANCH+0xb0>
    b .					    /*mGKB                 		         */
 c0000d4:	eafffffe 	b	c0000d4 <VECTOR_BRANCH+0xb4>
    b .                                                          
 c0000d8:	eafffffe 	b	c0000d8 <VECTOR_BRANCH+0xb8>
    b .                                                          
 c0000dc:	eafffffe 	b	c0000dc <VECTOR_BRANCH+0xbc>
@0xe0=EnterPWDN                                                 
    ldr pc,=EnterPWDN
 c0000e0:	e59ff514 	ldr	pc, [pc, #1300]	; c0005fc <U0+0x7c>

0c0000e4 <HandlerFIQ>:
               to be dumped into the current section\ 
               (which is assumed to be the .text section)\ 
               at the current location (aligned to a word boundary).*/
   .align

HandlerFIQ:		HANDLER HandleFIQ
 c0000e4:	e24dd004 	sub	sp, sp, #4
 c0000e8:	e52d0004 	push	{r0}		; (str r0, [sp, #-4]!)
 c0000ec:	e59f050c 	ldr	r0, [pc, #1292]	; c000600 <U0+0x80>
 c0000f0:	e5900000 	ldr	r0, [r0]
 c0000f4:	e58d0004 	str	r0, [sp, #4]
 c0000f8:	e8bd8001 	pop	{r0, pc}

0c0000fc <HandlerIRQ>:
HandlerIRQ:		HANDLER HandleIRQ
 c0000fc:	e24dd004 	sub	sp, sp, #4
 c000100:	e52d0004 	push	{r0}		; (str r0, [sp, #-4]!)
 c000104:	e59f04f8 	ldr	r0, [pc, #1272]	; c000604 <U0+0x84>
 c000108:	e5900000 	ldr	r0, [r0]
 c00010c:	e58d0004 	str	r0, [sp, #4]
 c000110:	e8bd8001 	pop	{r0, pc}

0c000114 <HandlerUndef>:
HandlerUndef:	HANDLER HandleUndef
 c000114:	e24dd004 	sub	sp, sp, #4
 c000118:	e52d0004 	push	{r0}		; (str r0, [sp, #-4]!)
 c00011c:	e59f04e4 	ldr	r0, [pc, #1252]	; c000608 <U0+0x88>
 c000120:	e5900000 	ldr	r0, [r0]
 c000124:	e58d0004 	str	r0, [sp, #4]
 c000128:	e8bd8001 	pop	{r0, pc}

0c00012c <HandlerSWI>:
HandlerSWI:		HANDLER HandleSWI
 c00012c:	e24dd004 	sub	sp, sp, #4
 c000130:	e52d0004 	push	{r0}		; (str r0, [sp, #-4]!)
 c000134:	e59f04d0 	ldr	r0, [pc, #1232]	; c00060c <U0+0x8c>
 c000138:	e5900000 	ldr	r0, [r0]
 c00013c:	e58d0004 	str	r0, [sp, #4]
 c000140:	e8bd8001 	pop	{r0, pc}

0c000144 <HandlerDabort>:
HandlerDabort:	HANDLER HandleDabort
 c000144:	e24dd004 	sub	sp, sp, #4
 c000148:	e52d0004 	push	{r0}		; (str r0, [sp, #-4]!)
 c00014c:	e59f04bc 	ldr	r0, [pc, #1212]	; c000610 <U0+0x90>
 c000150:	e5900000 	ldr	r0, [r0]
 c000154:	e58d0004 	str	r0, [sp, #4]
 c000158:	e8bd8001 	pop	{r0, pc}

0c00015c <HandlerPabort>:
HandlerPabort:	HANDLER HandlePabort
 c00015c:	e24dd004 	sub	sp, sp, #4
 c000160:	e52d0004 	push	{r0}		; (str r0, [sp, #-4]!)
 c000164:	e59f04a8 	ldr	r0, [pc, #1192]	; c000614 <U0+0x94>
 c000168:	e5900000 	ldr	r0, [r0]
 c00016c:	e58d0004 	str	r0, [sp, #4]
 c000170:	e8bd8001 	pop	{r0, pc}

0c000174 <HandlerADC>:
HandlerADC:		HANDLER HandleADC
 c000174:	e24dd004 	sub	sp, sp, #4
 c000178:	e52d0004 	push	{r0}		; (str r0, [sp, #-4]!)
 c00017c:	e59f0494 	ldr	r0, [pc, #1172]	; c000618 <U0+0x98>
 c000180:	e5900000 	ldr	r0, [r0]
 c000184:	e58d0004 	str	r0, [sp, #4]
 c000188:	e8bd8001 	pop	{r0, pc}

0c00018c <HandlerRTC>:
HandlerRTC:		HANDLER HandleRTC
 c00018c:	e24dd004 	sub	sp, sp, #4
 c000190:	e52d0004 	push	{r0}		; (str r0, [sp, #-4]!)
 c000194:	e59f0480 	ldr	r0, [pc, #1152]	; c00061c <U0+0x9c>
 c000198:	e5900000 	ldr	r0, [r0]
 c00019c:	e58d0004 	str	r0, [sp, #4]
 c0001a0:	e8bd8001 	pop	{r0, pc}

0c0001a4 <HandlerUTXD1>:
HandlerUTXD1:	HANDLER HandleUTXD1
 c0001a4:	e24dd004 	sub	sp, sp, #4
 c0001a8:	e52d0004 	push	{r0}		; (str r0, [sp, #-4]!)
 c0001ac:	e59f046c 	ldr	r0, [pc, #1132]	; c000620 <U0+0xa0>
 c0001b0:	e5900000 	ldr	r0, [r0]
 c0001b4:	e58d0004 	str	r0, [sp, #4]
 c0001b8:	e8bd8001 	pop	{r0, pc}

0c0001bc <HandlerUTXD0>:
HandlerUTXD0:	HANDLER HandleUTXD0
 c0001bc:	e24dd004 	sub	sp, sp, #4
 c0001c0:	e52d0004 	push	{r0}		; (str r0, [sp, #-4]!)
 c0001c4:	e59f0458 	ldr	r0, [pc, #1112]	; c000624 <U0+0xa4>
 c0001c8:	e5900000 	ldr	r0, [r0]
 c0001cc:	e58d0004 	str	r0, [sp, #4]
 c0001d0:	e8bd8001 	pop	{r0, pc}

0c0001d4 <HandlerSIO>:
HandlerSIO:		HANDLER HandleSIO
 c0001d4:	e24dd004 	sub	sp, sp, #4
 c0001d8:	e52d0004 	push	{r0}		; (str r0, [sp, #-4]!)
 c0001dc:	e59f0444 	ldr	r0, [pc, #1092]	; c000628 <U0+0xa8>
 c0001e0:	e5900000 	ldr	r0, [r0]
 c0001e4:	e58d0004 	str	r0, [sp, #4]
 c0001e8:	e8bd8001 	pop	{r0, pc}

0c0001ec <HandlerIIC>:
HandlerIIC:		HANDLER HandleIIC
 c0001ec:	e24dd004 	sub	sp, sp, #4
 c0001f0:	e52d0004 	push	{r0}		; (str r0, [sp, #-4]!)
 c0001f4:	e59f0430 	ldr	r0, [pc, #1072]	; c00062c <U0+0xac>
 c0001f8:	e5900000 	ldr	r0, [r0]
 c0001fc:	e58d0004 	str	r0, [sp, #4]
 c000200:	e8bd8001 	pop	{r0, pc}

0c000204 <HandlerURXD1>:
HandlerURXD1:	HANDLER HandleURXD1
 c000204:	e24dd004 	sub	sp, sp, #4
 c000208:	e52d0004 	push	{r0}		; (str r0, [sp, #-4]!)
 c00020c:	e59f041c 	ldr	r0, [pc, #1052]	; c000630 <U0+0xb0>
 c000210:	e5900000 	ldr	r0, [r0]
 c000214:	e58d0004 	str	r0, [sp, #4]
 c000218:	e8bd8001 	pop	{r0, pc}

0c00021c <HandlerURXD0>:
HandlerURXD0:	HANDLER HandleURXD0
 c00021c:	e24dd004 	sub	sp, sp, #4
 c000220:	e52d0004 	push	{r0}		; (str r0, [sp, #-4]!)
 c000224:	e59f0408 	ldr	r0, [pc, #1032]	; c000634 <U0+0xb4>
 c000228:	e5900000 	ldr	r0, [r0]
 c00022c:	e58d0004 	str	r0, [sp, #4]
 c000230:	e8bd8001 	pop	{r0, pc}

0c000234 <HandlerTIMER5>:
HandlerTIMER5:	HANDLER HandleTIMER5
 c000234:	e24dd004 	sub	sp, sp, #4
 c000238:	e52d0004 	push	{r0}		; (str r0, [sp, #-4]!)
 c00023c:	e59f03f4 	ldr	r0, [pc, #1012]	; c000638 <U0+0xb8>
 c000240:	e5900000 	ldr	r0, [r0]
 c000244:	e58d0004 	str	r0, [sp, #4]
 c000248:	e8bd8001 	pop	{r0, pc}

0c00024c <HandlerTIMER4>:
HandlerTIMER4:	HANDLER HandleTIMER4
 c00024c:	e24dd004 	sub	sp, sp, #4
 c000250:	e52d0004 	push	{r0}		; (str r0, [sp, #-4]!)
 c000254:	e59f03e0 	ldr	r0, [pc, #992]	; c00063c <U0+0xbc>
 c000258:	e5900000 	ldr	r0, [r0]
 c00025c:	e58d0004 	str	r0, [sp, #4]
 c000260:	e8bd8001 	pop	{r0, pc}

0c000264 <HandlerTIMER3>:
HandlerTIMER3:	HANDLER HandleTIMER3
 c000264:	e24dd004 	sub	sp, sp, #4
 c000268:	e52d0004 	push	{r0}		; (str r0, [sp, #-4]!)
 c00026c:	e59f03cc 	ldr	r0, [pc, #972]	; c000640 <U0+0xc0>
 c000270:	e5900000 	ldr	r0, [r0]
 c000274:	e58d0004 	str	r0, [sp, #4]
 c000278:	e8bd8001 	pop	{r0, pc}

0c00027c <HandlerTIMER2>:
HandlerTIMER2:	HANDLER HandleTIMER2
 c00027c:	e24dd004 	sub	sp, sp, #4
 c000280:	e52d0004 	push	{r0}		; (str r0, [sp, #-4]!)
 c000284:	e59f03b8 	ldr	r0, [pc, #952]	; c000644 <U0+0xc4>
 c000288:	e5900000 	ldr	r0, [r0]
 c00028c:	e58d0004 	str	r0, [sp, #4]
 c000290:	e8bd8001 	pop	{r0, pc}

0c000294 <HandlerTIMER1>:
HandlerTIMER1:	HANDLER HandleTIMER1
 c000294:	e24dd004 	sub	sp, sp, #4
 c000298:	e52d0004 	push	{r0}		; (str r0, [sp, #-4]!)
 c00029c:	e59f03a4 	ldr	r0, [pc, #932]	; c000648 <U0+0xc8>
 c0002a0:	e5900000 	ldr	r0, [r0]
 c0002a4:	e58d0004 	str	r0, [sp, #4]
 c0002a8:	e8bd8001 	pop	{r0, pc}

0c0002ac <HandlerTIMER0>:
HandlerTIMER0:	HANDLER HandleTIMER0
 c0002ac:	e24dd004 	sub	sp, sp, #4
 c0002b0:	e52d0004 	push	{r0}		; (str r0, [sp, #-4]!)
 c0002b4:	e59f0390 	ldr	r0, [pc, #912]	; c00064c <U0+0xcc>
 c0002b8:	e5900000 	ldr	r0, [r0]
 c0002bc:	e58d0004 	str	r0, [sp, #4]
 c0002c0:	e8bd8001 	pop	{r0, pc}

0c0002c4 <HandlerUERR01>:
HandlerUERR01:	HANDLER HandleUERR01
 c0002c4:	e24dd004 	sub	sp, sp, #4
 c0002c8:	e52d0004 	push	{r0}		; (str r0, [sp, #-4]!)
 c0002cc:	e59f037c 	ldr	r0, [pc, #892]	; c000650 <U0+0xd0>
 c0002d0:	e5900000 	ldr	r0, [r0]
 c0002d4:	e58d0004 	str	r0, [sp, #4]
 c0002d8:	e8bd8001 	pop	{r0, pc}

0c0002dc <HandlerWDT>:
HandlerWDT:		HANDLER HandleWDT
 c0002dc:	e24dd004 	sub	sp, sp, #4
 c0002e0:	e52d0004 	push	{r0}		; (str r0, [sp, #-4]!)
 c0002e4:	e59f0368 	ldr	r0, [pc, #872]	; c000654 <U0+0xd4>
 c0002e8:	e5900000 	ldr	r0, [r0]
 c0002ec:	e58d0004 	str	r0, [sp, #4]
 c0002f0:	e8bd8001 	pop	{r0, pc}

0c0002f4 <HandlerBDMA1>:
HandlerBDMA1:	HANDLER HandleBDMA1
 c0002f4:	e24dd004 	sub	sp, sp, #4
 c0002f8:	e52d0004 	push	{r0}		; (str r0, [sp, #-4]!)
 c0002fc:	e59f0354 	ldr	r0, [pc, #852]	; c000658 <U0+0xd8>
 c000300:	e5900000 	ldr	r0, [r0]
 c000304:	e58d0004 	str	r0, [sp, #4]
 c000308:	e8bd8001 	pop	{r0, pc}

0c00030c <HandlerBDMA0>:
HandlerBDMA0:	HANDLER HandleBDMA0
 c00030c:	e24dd004 	sub	sp, sp, #4
 c000310:	e52d0004 	push	{r0}		; (str r0, [sp, #-4]!)
 c000314:	e59f0340 	ldr	r0, [pc, #832]	; c00065c <U0+0xdc>
 c000318:	e5900000 	ldr	r0, [r0]
 c00031c:	e58d0004 	str	r0, [sp, #4]
 c000320:	e8bd8001 	pop	{r0, pc}

0c000324 <HandlerZDMA1>:
HandlerZDMA1:	HANDLER HandleZDMA1
 c000324:	e24dd004 	sub	sp, sp, #4
 c000328:	e52d0004 	push	{r0}		; (str r0, [sp, #-4]!)
 c00032c:	e59f032c 	ldr	r0, [pc, #812]	; c000660 <U0+0xe0>
 c000330:	e5900000 	ldr	r0, [r0]
 c000334:	e58d0004 	str	r0, [sp, #4]
 c000338:	e8bd8001 	pop	{r0, pc}

0c00033c <HandlerZDMA0>:
HandlerZDMA0:	HANDLER HandleZDMA0
 c00033c:	e24dd004 	sub	sp, sp, #4
 c000340:	e52d0004 	push	{r0}		; (str r0, [sp, #-4]!)
 c000344:	e59f0318 	ldr	r0, [pc, #792]	; c000664 <U0+0xe4>
 c000348:	e5900000 	ldr	r0, [r0]
 c00034c:	e58d0004 	str	r0, [sp, #4]
 c000350:	e8bd8001 	pop	{r0, pc}

0c000354 <HandlerTICK>:
HandlerTICK:	HANDLER HandleTICK
 c000354:	e24dd004 	sub	sp, sp, #4
 c000358:	e52d0004 	push	{r0}		; (str r0, [sp, #-4]!)
 c00035c:	e59f0304 	ldr	r0, [pc, #772]	; c000668 <U0+0xe8>
 c000360:	e5900000 	ldr	r0, [r0]
 c000364:	e58d0004 	str	r0, [sp, #4]
 c000368:	e8bd8001 	pop	{r0, pc}

0c00036c <HandlerEINT4567>:
HandlerEINT4567:HANDLER HandleEINT4567
 c00036c:	e24dd004 	sub	sp, sp, #4
 c000370:	e52d0004 	push	{r0}		; (str r0, [sp, #-4]!)
 c000374:	e59f02f0 	ldr	r0, [pc, #752]	; c00066c <U0+0xec>
 c000378:	e5900000 	ldr	r0, [r0]
 c00037c:	e58d0004 	str	r0, [sp, #4]
 c000380:	e8bd8001 	pop	{r0, pc}

0c000384 <HandlerEINT3>:
HandlerEINT3:	HANDLER HandleEINT3
 c000384:	e24dd004 	sub	sp, sp, #4
 c000388:	e52d0004 	push	{r0}		; (str r0, [sp, #-4]!)
 c00038c:	e59f02dc 	ldr	r0, [pc, #732]	; c000670 <U0+0xf0>
 c000390:	e5900000 	ldr	r0, [r0]
 c000394:	e58d0004 	str	r0, [sp, #4]
 c000398:	e8bd8001 	pop	{r0, pc}

0c00039c <HandlerEINT2>:
HandlerEINT2:	HANDLER HandleEINT2
 c00039c:	e24dd004 	sub	sp, sp, #4
 c0003a0:	e52d0004 	push	{r0}		; (str r0, [sp, #-4]!)
 c0003a4:	e59f02c8 	ldr	r0, [pc, #712]	; c000674 <U0+0xf4>
 c0003a8:	e5900000 	ldr	r0, [r0]
 c0003ac:	e58d0004 	str	r0, [sp, #4]
 c0003b0:	e8bd8001 	pop	{r0, pc}

0c0003b4 <HandlerEINT1>:
HandlerEINT1:	HANDLER HandleEINT1
 c0003b4:	e24dd004 	sub	sp, sp, #4
 c0003b8:	e52d0004 	push	{r0}		; (str r0, [sp, #-4]!)
 c0003bc:	e59f02b4 	ldr	r0, [pc, #692]	; c000678 <U0+0xf8>
 c0003c0:	e5900000 	ldr	r0, [r0]
 c0003c4:	e58d0004 	str	r0, [sp, #4]
 c0003c8:	e8bd8001 	pop	{r0, pc}

0c0003cc <HandlerEINT0>:
HandlerEINT0:	HANDLER HandleEINT0
 c0003cc:	e24dd004 	sub	sp, sp, #4
 c0003d0:	e52d0004 	push	{r0}		; (str r0, [sp, #-4]!)
 c0003d4:	e59f02a0 	ldr	r0, [pc, #672]	; c00067c <U0+0xfc>
 c0003d8:	e5900000 	ldr	r0, [r0]
 c0003dc:	e58d0004 	str	r0, [sp, #4]
 c0003e0:	e8bd8001 	pop	{r0, pc}

0c0003e4 <IsrIRQ>:

#One of the following two routines can be used for non-vectored interrupt.

IsrIRQ:						/* using I_ISPR register. */
    sub	    sp,sp,#4       	/* reserved for PC	  */
 c0003e4:	e24dd004 	sub	sp, sp, #4
    stmfd   sp!,{r8-r9}   
 c0003e8:	e92d0300 	push	{r8, r9}

#IMPORTANT CAUTION
# when I_ISPC isn't used properly, I_ISPR can be 0 in this routine.

    ldr	    r9,=I_ISPR
 c0003ec:	e59f928c 	ldr	r9, [pc, #652]	; c000680 <U0+0x100>
    ldr	    r9,[r9]
 c0003f0:	e5999000 	ldr	r9, [r9]

	cmp		r9, #0x0		/* If the IDLE mode work-around is used, 	*/
 c0003f4:	e3590000 	cmp	r9, #0
							/* r9 may be 0 sometimes.			*/
	beq		l2
 c0003f8:	0a000009 	beq	c000424 <l2>

    mov	    r8,#0x0
 c0003fc:	e3a08000 	mov	r8, #0

0c000400 <l0>:
l0:
    movs    r9,r9,lsr #1
 c000400:	e1b090a9 	lsrs	r9, r9, #1
    bcs	    l1
 c000404:	2a000001 	bcs	c000410 <l1>
    add	    r8,r8,#4
 c000408:	e2888004 	add	r8, r8, #4
    b	    l0
 c00040c:	eafffffb 	b	c000400 <l0>

0c000410 <l1>:

l1:
    ldr	    r9,=HandleADC
 c000410:	e59f9200 	ldr	r9, [pc, #512]	; c000618 <U0+0x98>
    add	    r9,r9,r8
 c000414:	e0899008 	add	r9, r9, r8
    ldr	    r9,[r9]
 c000418:	e5999000 	ldr	r9, [r9]
    str	    r9,[sp,#8]
 c00041c:	e58d9008 	str	r9, [sp, #8]
    ldmfd   sp!,{r8-r9,pc}
 c000420:	e8bd8300 	pop	{r8, r9, pc}

0c000424 <l2>:

l2:
	ldmfd	sp!,{r8-r9}
 c000424:	e8bd0300 	pop	{r8, r9}
	add		sp,sp,#4
 c000428:	e28dd004 	add	sp, sp, #4
	subs	pc,lr,#4
 c00042c:	e25ef004 	subs	pc, lr, #4

0c000430 <ResetHandler>:

#****************************************************
#*	START											*
#****************************************************
ResetHandler:
    ldr	    r0,=WTCON	    	/* watch dog disable*/
 c000430:	e59f024c 	ldr	r0, [pc, #588]	; c000684 <U0+0x104>
    ldr	    r1,=0x0 		
 c000434:	e3a01000 	mov	r1, #0
    str	    r1,[r0]
 c000438:	e5801000 	str	r1, [r0]

    ldr	    r0,=INTMSK
 c00043c:	e59f0244 	ldr	r0, [pc, #580]	; c000688 <U0+0x108>
    ldr	    r1,=0x07ffffff  	/* all interrupt disable */
 c000440:	e3e0133e 	mvn	r1, #-134217728	; 0xf8000000
    str	    r1,[r0]
 c000444:	e5801000 	str	r1, [r0]

    #****************************************************
    #*	Set clock control registers						*
    #****************************************************
    ldr		r0,=LOCKTIME
 c000448:	e59f023c 	ldr	r0, [pc, #572]	; c00068c <U0+0x10c>
    ldr		r1,=0xfff
 c00044c:	e59f123c 	ldr	r1, [pc, #572]	; c000690 <U0+0x110>
    str		r1,[r0]
 c000450:	e5801000 	str	r1, [r0]

.if PLLONSTART
	ldr		r0,=PLLCON			/* temporary setting of PLL */
 c000454:	e3a00776 	mov	r0, #30932992	; 0x1d80000
	ldr		r1,=((M_DIV<<12)+(P_DIV<<4)+S_DIV)	/* Fin=8MHz,Fout=64MHz     */
 c000458:	e59f1234 	ldr	r1, [pc, #564]	; c000694 <U0+0x114>
	str		r1,[r0]
 c00045c:	e5801000 	str	r1, [r0]
.endif

    ldr	    r0,=CLKCON		
 c000460:	e59f0230 	ldr	r0, [pc, #560]	; c000698 <U0+0x118>
    ldr	    r1,=0x7ff8	    	/* All unit block CLK enable */
 c000464:	e59f1230 	ldr	r1, [pc, #560]	; c00069c <U0+0x11c>
    str	    r1,[r0]
 c000468:	e5801000 	str	r1, [r0]

    #****************************************
    #*  change BDMACON reset value for BDMA *   
    #****************************************
    ldr     r0,=BDIDES0      
 c00046c:	e59f022c 	ldr	r0, [pc, #556]	; c0006a0 <U0+0x120>
    ldr     r1,=0x40000000   	/* BDIDESn reset value should be 0x40000000 */
 c000470:	e3a01101 	mov	r1, #1073741824	; 0x40000000
    str     r1,[r0]
 c000474:	e5801000 	str	r1, [r0]

    ldr     r0,=BDIDES1      
 c000478:	e59f0224 	ldr	r0, [pc, #548]	; c0006a4 <U0+0x124>
    ldr     r1,=0x40000000   	/* BDIDESn reset value should be 0x40000000 */	 
 c00047c:	e3a01101 	mov	r1, #1073741824	; 0x40000000
    str     r1,[r0]
 c000480:	e5801000 	str	r1, [r0]

    #****************************************************
    #*	Set memory control registers					* 	
    #****************************************************
    ldr	    r0,=SMRDATA
 c000484:	e59f021c 	ldr	r0, [pc, #540]	; c0006a8 <U0+0x128>
    ldmia   r0,{r1-r13}
 c000488:	e8903ffe 	ldm	r0, {r1, r2, r3, r4, r5, r6, r7, r8, r9, sl, fp, ip, sp}
    ldr	    r0,=0x01c80000  	/* BWSCON Address */
 c00048c:	e3a00772 	mov	r0, #29884416	; 0x1c80000
    stmia   r0,{r1-r13}
 c000490:	e8803ffe 	stm	r0, {r1, r2, r3, r4, r5, r6, r7, r8, r9, sl, fp, ip, sp}

    #;****************************************************
    #;*	Initialize stacks								* 
    #;****************************************************
    ldr	    sp, =SVCStack		/* Why	*/		
 c000494:	e59fd210 	ldr	sp, [pc, #528]	; c0006ac <U0+0x12c>
    bl	    InitStacks
 c000498:	eb000015 	bl	c0004f4 <InitStacks>

    #;****************************************************
    #;*	Setup IRQ handler								*
    #;****************************************************
    ldr	    r0,=HandleIRQ		/* This routine is needed */
 c00049c:	e59f0160 	ldr	r0, [pc, #352]	; c000604 <U0+0x84>
    ldr	    r1,=IsrIRQ			/* if there isn't 'subs pc,lr,#4' at 0x18, 0x1c */
 c0004a0:	e59f1208 	ldr	r1, [pc, #520]	; c0006b0 <U0+0x130>
    str	    r1,[r0]
 c0004a4:	e5801000 	str	r1, [r0]

    #********************************************************
    #*	Copy and paste RW data/zero initialized data	    *
    #********************************************************
    LDR	    r0, =Image_RO_Limit	/* Get pointer to ROM data */
 c0004a8:	e59f0204 	ldr	r0, [pc, #516]	; c0006b4 <U0+0x134>
    LDR	    r1, =Image_RW_Base	/* and RAM copy	*/
 c0004ac:	e59f1204 	ldr	r1, [pc, #516]	; c0006b8 <U0+0x138>
    LDR	    r3, =Image_ZI_Base	
 c0004b0:	e59f3204 	ldr	r3, [pc, #516]	; c0006bc <U0+0x13c>
	/* Zero init base => top of initialised data */
			
    CMP	    r0, r1	    		/* Check that they are different */
 c0004b4:	e1500001 	cmp	r0, r1
    BEQ	    F1
 c0004b8:	0a000003 	beq	c0004cc <F1>

0c0004bc <F0>:
F0:
    CMP	    r1, r3				/* Copy init data                        */
 c0004bc:	e1510003 	cmp	r1, r3
    LDRCC   r2, [r0], #4        /* --> LDRCC r2, [r0] + ADD r0, r0, #4	 */
 c0004c0:	34902004 	ldrcc	r2, [r0], #4
    STRCC   r2, [r1], #4        /* --> STRCC r2, [r1] + ADD r1, r1, #4   */ 
 c0004c4:	34812004 	strcc	r2, [r1], #4
    BCC	    F0
 c0004c8:	3afffffb 	bcc	c0004bc <F0>

0c0004cc <F1>:
F1:
    LDR	    r1, =Image_ZI_Limit	/* Top of zero init segment */
 c0004cc:	e59f11ec 	ldr	r1, [pc, #492]	; c0006c0 <U0+0x140>
    MOV	    r2, #0
 c0004d0:	e3a02000 	mov	r2, #0

0c0004d4 <F2>:
F2:
    CMP	    r3, r1	    		/* Zero init */
 c0004d4:	e1530001 	cmp	r3, r1
    STRCC   r2, [r3], #4
 c0004d8:	34832004 	strcc	r2, [r3], #4
    BCC	    F2
 c0004dc:	3afffffc 	bcc	c0004d4 <F2>

	MRS	r0, CPSR
 c0004e0:	e10f0000 	mrs	r0, CPSR
	BIC	r0, r0, #NOINT /* enable interrupt */
 c0004e4:	e3c000c0 	bic	r0, r0, #192	; 0xc0
	MSR	CPSR_cxsf, r0
 c0004e8:	e12ff000 	msr	CPSR_fsxc, r0
	/* jump to main() */
   	BL	Main
 c0004ec:	eb001b91 	bl	c007338 <Main>
   	B   .	    
 c0004f0:	eafffffe 	b	c0004f0 <F2+0x1c>

0c0004f4 <InitStacks>:
InitStacks:
	#Don't use DRAM,such as stmfd,ldmfd......
	#SVCstack is initialized before
	#Under toolkit ver 2.50, 'msr cpsr,r1' can be used instead of 'msr cpsr_cxsf,r1'

    mrs	    r0,cpsr
 c0004f4:	e10f0000 	mrs	r0, CPSR
    bic	    r0,r0,#MODEMASK
 c0004f8:	e3c0001f 	bic	r0, r0, #31
    orr	    r1,r0,#UNDEFMODE
 c0004fc:	e380101b 	orr	r1, r0, #27
    msr	    cpsr_cxsf,r1		/* UndefMode */
 c000500:	e12ff001 	msr	CPSR_fsxc, r1
    ldr	    sp,=UndefStack
 c000504:	e59fd1b8 	ldr	sp, [pc, #440]	; c0006c4 <U0+0x144>
	
    orr	    r1,r0,#ABORTMODE|NOINT
 c000508:	e38010d7 	orr	r1, r0, #215	; 0xd7
    msr	    cpsr_cxsf,r1 	    /* AbortMode */	
 c00050c:	e12ff001 	msr	CPSR_fsxc, r1
    ldr	    sp,=AbortStack
 c000510:	e59fd1b0 	ldr	sp, [pc, #432]	; c0006c8 <U0+0x148>

    orr	    r1,r0,#IRQMODE|FIQ_MODE
 c000514:	e3801092 	orr	r1, r0, #146	; 0x92
    msr	    cpsr_cxsf,r1 	    /* IRQMode */
 c000518:	e12ff001 	msr	CPSR_fsxc, r1
    ldr	    sp,=IRQStack
 c00051c:	e59fd1a8 	ldr	sp, [pc, #424]	; c0006cc <U0+0x14c>
	
    orr	    r1,r0,#FIQMODE|IRQ_MODE
 c000520:	e3801051 	orr	r1, r0, #81	; 0x51
    msr	    cpsr_cxsf,r1 	    /* FIQMode */
 c000524:	e12ff001 	msr	CPSR_fsxc, r1
    ldr	    sp,=FIQStack
 c000528:	e59fd1a0 	ldr	sp, [pc, #416]	; c0006d0 <U0+0x150>

    bic	    r0,r0,#MODEMASK
 c00052c:	e3c0001f 	bic	r0, r0, #31
    orr	    r1,r0,#SVCMODE
 c000530:	e3801013 	orr	r1, r0, #19
    msr	    cpsr_cxsf,r1 	    /* SVCMode */
 c000534:	e12ff001 	msr	CPSR_fsxc, r1
    ldr	    sp,=SVCStack
 c000538:	e59fd16c 	ldr	sp, [pc, #364]	; c0006ac <U0+0x12c>

	#USER mode is not initialized.
    mov	    pc,lr 				/* The LR register may be not valid for the mode changes. */
 c00053c:	e1a0f00e 	mov	pc, lr

0c000540 <EnterPWDN>:
#****************************************************
#*	The function for entering power down mode		*
#****************************************************
#void EnterPWDN(int CLKCON);
EnterPWDN:
    mov	    r2,r0               /* r0=CLKCON */
 c000540:	e1a02000 	mov	r2, r0
    ldr	    r0,=REFRESH		
 c000544:	e59f0188 	ldr	r0, [pc, #392]	; c0006d4 <U0+0x154>
    ldr	    r3,[r0]
 c000548:	e5903000 	ldr	r3, [r0]
    mov	    r1, r3
 c00054c:	e1a01003 	mov	r1, r3
    orr	    r1, r1, #0x400000   /* self-refresh enable */
 c000550:	e3811501 	orr	r1, r1, #4194304	; 0x400000
    str	    r1, [r0]
 c000554:	e5801000 	str	r1, [r0]

    nop     /* Wait until self-refresh is issued. May not be needed. */
 c000558:	e1a00000 	nop			; (mov r0, r0)
    nop     /* If the other bus master holds the bus, ... */
 c00055c:	e1a00000 	nop			; (mov r0, r0)
    nop	    /* mov r0, r0 */
 c000560:	e1a00000 	nop			; (mov r0, r0)
    nop
 c000564:	e1a00000 	nop			; (mov r0, r0)
    nop
 c000568:	e1a00000 	nop			; (mov r0, r0)
    nop
 c00056c:	e1a00000 	nop			; (mov r0, r0)
    nop
 c000570:	e1a00000 	nop			; (mov r0, r0)

#enter POWERDN mode
    ldr	    r0,=CLKCON
 c000574:	e59f011c 	ldr	r0, [pc, #284]	; c000698 <U0+0x118>
    str	    r2,[r0]
 c000578:	e5802000 	str	r2, [r0]

#wait until enter SL_IDLE,STOP mode and until wake-up
    ldr	    r0,=0x10
 c00057c:	e3a00010 	mov	r0, #16

0c000580 <U0>:
U0: subs    r0,r0,#1
 c000580:	e2500001 	subs	r0, r0, #1
    bne	    U0
 c000584:	1afffffd 	bne	c000580 <U0>

#exit from DRAM/SDRAM self refresh mode.
    ldr	    r0,=REFRESH
 c000588:	e59f0144 	ldr	r0, [pc, #324]	; c0006d4 <U0+0x154>
    str	    r3,[r0]
 c00058c:	e5803000 	str	r3, [r0]
    mov	    pc,lr
 c000590:	e1a0f00e 	mov	pc, lr
 c000594:	0c0003cc 	.word	0x0c0003cc
 c000598:	0c0003b4 	.word	0x0c0003b4
 c00059c:	0c00039c 	.word	0x0c00039c
 c0005a0:	0c000384 	.word	0x0c000384
 c0005a4:	0c00036c 	.word	0x0c00036c
 c0005a8:	0c000354 	.word	0x0c000354
 c0005ac:	0c00033c 	.word	0x0c00033c
 c0005b0:	0c000324 	.word	0x0c000324
 c0005b4:	0c00030c 	.word	0x0c00030c
 c0005b8:	0c0002f4 	.word	0x0c0002f4
 c0005bc:	0c0002dc 	.word	0x0c0002dc
 c0005c0:	0c0002c4 	.word	0x0c0002c4
 c0005c4:	0c0002ac 	.word	0x0c0002ac
 c0005c8:	0c000294 	.word	0x0c000294
 c0005cc:	0c00027c 	.word	0x0c00027c
 c0005d0:	0c000264 	.word	0x0c000264
 c0005d4:	0c00024c 	.word	0x0c00024c
 c0005d8:	0c000234 	.word	0x0c000234
 c0005dc:	0c00021c 	.word	0x0c00021c
 c0005e0:	0c000204 	.word	0x0c000204
 c0005e4:	0c0001ec 	.word	0x0c0001ec
 c0005e8:	0c0001d4 	.word	0x0c0001d4
 c0005ec:	0c0001bc 	.word	0x0c0001bc
 c0005f0:	0c0001a4 	.word	0x0c0001a4
 c0005f4:	0c00018c 	.word	0x0c00018c
 c0005f8:	0c000174 	.word	0x0c000174
 c0005fc:	0c000540 	.word	0x0c000540
 c000600:	0c7fff1c 	.word	0x0c7fff1c
 c000604:	0c7fff18 	.word	0x0c7fff18
 c000608:	0c7fff04 	.word	0x0c7fff04
 c00060c:	0c7fff08 	.word	0x0c7fff08
 c000610:	0c7fff10 	.word	0x0c7fff10
 c000614:	0c7fff0c 	.word	0x0c7fff0c
 c000618:	0c7fff20 	.word	0x0c7fff20
 c00061c:	0c7fff24 	.word	0x0c7fff24
 c000620:	0c7fff28 	.word	0x0c7fff28
 c000624:	0c7fff2c 	.word	0x0c7fff2c
 c000628:	0c7fff30 	.word	0x0c7fff30
 c00062c:	0c7fff34 	.word	0x0c7fff34
 c000630:	0c7fff38 	.word	0x0c7fff38
 c000634:	0c7fff3c 	.word	0x0c7fff3c
 c000638:	0c7fff40 	.word	0x0c7fff40
 c00063c:	0c7fff44 	.word	0x0c7fff44
 c000640:	0c7fff48 	.word	0x0c7fff48
 c000644:	0c7fff4c 	.word	0x0c7fff4c
 c000648:	0c7fff50 	.word	0x0c7fff50
 c00064c:	0c7fff54 	.word	0x0c7fff54
 c000650:	0c7fff58 	.word	0x0c7fff58
 c000654:	0c7fff5c 	.word	0x0c7fff5c
 c000658:	0c7fff60 	.word	0x0c7fff60
 c00065c:	0c7fff64 	.word	0x0c7fff64
 c000660:	0c7fff68 	.word	0x0c7fff68
 c000664:	0c7fff6c 	.word	0x0c7fff6c
 c000668:	0c7fff70 	.word	0x0c7fff70
 c00066c:	0c7fff74 	.word	0x0c7fff74
 c000670:	0c7fff78 	.word	0x0c7fff78
 c000674:	0c7fff7c 	.word	0x0c7fff7c
 c000678:	0c7fff80 	.word	0x0c7fff80
 c00067c:	0c7fff84 	.word	0x0c7fff84
 c000680:	01e00020 	.word	0x01e00020
 c000684:	01d30000 	.word	0x01d30000
 c000688:	01e0000c 	.word	0x01e0000c
 c00068c:	01d8000c 	.word	0x01d8000c
 c000690:	00000fff 	.word	0x00000fff
 c000694:	00038021 	.word	0x00038021
 c000698:	01d80004 	.word	0x01d80004
 c00069c:	00007ff8 	.word	0x00007ff8
 c0006a0:	01f80008 	.word	0x01f80008
 c0006a4:	01f80028 	.word	0x01f80028
 c0006a8:	0c0006d8 	.word	0x0c0006d8
 c0006ac:	0c7ff100 	.word	0x0c7ff100
 c0006b0:	0c0003e4 	.word	0x0c0003e4
 c0006b4:	0c00a3b8 	.word	0x0c00a3b8
 c0006b8:	0c00a3b8 	.word	0x0c00a3b8
 c0006bc:	0c00cd18 	.word	0x0c00cd18
 c0006c0:	0c00ce24 	.word	0x0c00ce24
 c0006c4:	0c7ff200 	.word	0x0c7ff200
 c0006c8:	0c7ff300 	.word	0x0c7ff300
 c0006cc:	0c7ff400 	.word	0x0c7ff400
 c0006d0:	0c7ff500 	.word	0x0c7ff500
 c0006d4:	01c80024 	.word	0x01c80024

0c0006d8 <SMRDATA>:
 c0006d8:	11110102 	.word	0x11110102
 c0006dc:	00000600 	.word	0x00000600
 c0006e0:	00007ffc 	.word	0x00007ffc
 c0006e4:	00007ffc 	.word	0x00007ffc
 c0006e8:	00007ffc 	.word	0x00007ffc
 c0006ec:	00007ffc 	.word	0x00007ffc
 c0006f0:	00007ffc 	.word	0x00007ffc
 c0006f4:	00018000 	.word	0x00018000
 c0006f8:	00018000 	.word	0x00018000
 c0006fc:	00860459 	.word	0x00860459
 c000700:	00000010 	.word	0x00000010
 c000704:	00000020 	.word	0x00000020
 c000708:	00000020 	.word	0x00000020

0c00070c <Delay>:
void Delay(int time)
// time=0: adjust the Delay function by WatchDog timer
// time>0: the number of loop time
// 100us resolution
// Delay(10) -> 10*100us resolution
{
 c00070c:	e1a0c00d 	mov	ip, sp
 c000710:	e92dd800 	push	{fp, ip, lr, pc}
 c000714:	e24cb004 	sub	fp, ip, #4
 c000718:	e24dd010 	sub	sp, sp, #16
 c00071c:	e50b0018 	str	r0, [fp, #-24]	; 0xffffffe8
	int i,adjust=0;
 c000720:	e3a03000 	mov	r3, #0
 c000724:	e50b3014 	str	r3, [fp, #-20]	; 0xffffffec
	if(time==0)
 c000728:	e51b3018 	ldr	r3, [fp, #-24]	; 0xffffffe8
 c00072c:	e3530000 	cmp	r3, #0
 c000730:	1a000021 	bne	c0007bc <Delay+0xb0>
	{
		time=200;
 c000734:	e3a030c8 	mov	r3, #200	; 0xc8
 c000738:	e50b3018 	str	r3, [fp, #-24]	; 0xffffffe8
		adjust=1;
 c00073c:	e3a03001 	mov	r3, #1
 c000740:	e50b3014 	str	r3, [fp, #-20]	; 0xffffffec
		delayLoopCount=400;
 c000744:	e59f30d8 	ldr	r3, [pc, #216]	; c000824 <Delay+0x118>
 c000748:	e3a02e19 	mov	r2, #400	; 0x190
 c00074c:	e5832000 	str	r2, [r3]
		rWTCON=((MCLK/1000000-1)<<8)|(2<<3);	// 1M/64,Watch-dog,nRESET,interrupt disable//
 c000750:	e59f30d0 	ldr	r3, [pc, #208]	; c000828 <Delay+0x11c>
 c000754:	e59f20d0 	ldr	r2, [pc, #208]	; c00082c <Delay+0x120>
 c000758:	e5832000 	str	r2, [r3]
		rWTDAT=0xffff;
 c00075c:	e59f30cc 	ldr	r3, [pc, #204]	; c000830 <Delay+0x124>
 c000760:	e59f20cc 	ldr	r2, [pc, #204]	; c000834 <Delay+0x128>
 c000764:	e5832000 	str	r2, [r3]
		rWTCNT=0xffff;	 
 c000768:	e59f30c8 	ldr	r3, [pc, #200]	; c000838 <Delay+0x12c>
 c00076c:	e59f20c0 	ldr	r2, [pc, #192]	; c000834 <Delay+0x128>
 c000770:	e5832000 	str	r2, [r3]
		rWTCON=((MCLK/1000000-1)<<8)|(2<<3)|(1<<5); // 1M/64,Watch-dog enable,nRESET,interrupt disable //
 c000774:	e59f30ac 	ldr	r3, [pc, #172]	; c000828 <Delay+0x11c>
 c000778:	e59f20bc 	ldr	r2, [pc, #188]	; c00083c <Delay+0x130>
 c00077c:	e5832000 	str	r2, [r3]
	}
	for(;time>0;time--)
 c000780:	ea00000d 	b	c0007bc <Delay+0xb0>
		for(i=0;i<delayLoopCount;i++);
 c000784:	e3a03000 	mov	r3, #0
 c000788:	e50b3010 	str	r3, [fp, #-16]
 c00078c:	ea000002 	b	c00079c <Delay+0x90>
 c000790:	e51b3010 	ldr	r3, [fp, #-16]
 c000794:	e2833001 	add	r3, r3, #1
 c000798:	e50b3010 	str	r3, [fp, #-16]
 c00079c:	e59f3080 	ldr	r3, [pc, #128]	; c000824 <Delay+0x118>
 c0007a0:	e5933000 	ldr	r3, [r3]
 c0007a4:	e51b2010 	ldr	r2, [fp, #-16]
 c0007a8:	e1520003 	cmp	r2, r3
 c0007ac:	bafffff7 	blt	c000790 <Delay+0x84>
		rWTCON=((MCLK/1000000-1)<<8)|(2<<3);	// 1M/64,Watch-dog,nRESET,interrupt disable//
		rWTDAT=0xffff;
		rWTCNT=0xffff;	 
		rWTCON=((MCLK/1000000-1)<<8)|(2<<3)|(1<<5); // 1M/64,Watch-dog enable,nRESET,interrupt disable //
	}
	for(;time>0;time--)
 c0007b0:	e51b3018 	ldr	r3, [fp, #-24]	; 0xffffffe8
 c0007b4:	e2433001 	sub	r3, r3, #1
 c0007b8:	e50b3018 	str	r3, [fp, #-24]	; 0xffffffe8
 c0007bc:	e51b3018 	ldr	r3, [fp, #-24]	; 0xffffffe8
 c0007c0:	e3530000 	cmp	r3, #0
 c0007c4:	caffffee 	bgt	c000784 <Delay+0x78>
		for(i=0;i<delayLoopCount;i++);
	if(adjust==1)
 c0007c8:	e51b3014 	ldr	r3, [fp, #-20]	; 0xffffffec
 c0007cc:	e3530001 	cmp	r3, #1
 c0007d0:	1a000010 	bne	c000818 <Delay+0x10c>
	{
		rWTCON=((MCLK/1000000-1)<<8)|(2<<3);
 c0007d4:	e59f304c 	ldr	r3, [pc, #76]	; c000828 <Delay+0x11c>
 c0007d8:	e59f204c 	ldr	r2, [pc, #76]	; c00082c <Delay+0x120>
 c0007dc:	e5832000 	str	r2, [r3]
		i=0xffff-rWTCNT;   //  1count/16us?????????//
 c0007e0:	e59f3050 	ldr	r3, [pc, #80]	; c000838 <Delay+0x12c>
 c0007e4:	e5933000 	ldr	r3, [r3]
 c0007e8:	e2633cff 	rsb	r3, r3, #65280	; 0xff00
 c0007ec:	e28330ff 	add	r3, r3, #255	; 0xff
 c0007f0:	e50b3010 	str	r3, [fp, #-16]
		delayLoopCount=8000000/(i*64);	//400*100/(i*64/200)   //
 c0007f4:	e51b3010 	ldr	r3, [fp, #-16]
 c0007f8:	e1a03303 	lsl	r3, r3, #6
 c0007fc:	e59f003c 	ldr	r0, [pc, #60]	; c000840 <Delay+0x134>
 c000800:	e1a01003 	mov	r1, r3
 c000804:	eb00243b 	bl	c0098f8 <__aeabi_idiv>
 c000808:	e1a03000 	mov	r3, r0
 c00080c:	e1a02003 	mov	r2, r3
 c000810:	e59f300c 	ldr	r3, [pc, #12]	; c000824 <Delay+0x118>
 c000814:	e5832000 	str	r2, [r3]
	}
}
 c000818:	e24bd00c 	sub	sp, fp, #12
 c00081c:	e89d6800 	ldm	sp, {fp, sp, lr}
 c000820:	e12fff1e 	bx	lr
 c000824:	0c00a3d0 	.word	0x0c00a3d0
 c000828:	01d30000 	.word	0x01d30000
 c00082c:	00003f10 	.word	0x00003f10
 c000830:	01d30004 	.word	0x01d30004
 c000834:	0000ffff 	.word	0x0000ffff
 c000838:	01d30008 	.word	0x01d30008
 c00083c:	00003f30 	.word	0x00003f30
 c000840:	007a1200 	.word	0x007a1200

0c000844 <DelayMs>:

void DelayMs(int ms_time)
{
 c000844:	e1a0c00d 	mov	ip, sp
 c000848:	e92dd800 	push	{fp, ip, lr, pc}
 c00084c:	e24cb004 	sub	fp, ip, #4
 c000850:	e24dd010 	sub	sp, sp, #16
 c000854:	e50b0018 	str	r0, [fp, #-24]	; 0xffffffe8
	int i;
	
	for( i = 0 ; i < 1000*ms_time ; i++ )
 c000858:	e3a03000 	mov	r3, #0
 c00085c:	e50b3010 	str	r3, [fp, #-16]
 c000860:	ea000002 	b	c000870 <DelayMs+0x2c>
 c000864:	e51b3010 	ldr	r3, [fp, #-16]
 c000868:	e2833001 	add	r3, r3, #1
 c00086c:	e50b3010 	str	r3, [fp, #-16]
 c000870:	e51b2018 	ldr	r2, [fp, #-24]	; 0xffffffe8
 c000874:	e1a03002 	mov	r3, r2
 c000878:	e1a03283 	lsl	r3, r3, #5
 c00087c:	e0623003 	rsb	r3, r2, r3
 c000880:	e1a03103 	lsl	r3, r3, #2
 c000884:	e0833002 	add	r3, r3, r2
 c000888:	e1a03183 	lsl	r3, r3, #3
 c00088c:	e1a02003 	mov	r2, r3
 c000890:	e51b3010 	ldr	r3, [fp, #-16]
 c000894:	e1520003 	cmp	r2, r3
 c000898:	cafffff1 	bgt	c000864 <DelayMs+0x20>
		;
}
 c00089c:	e24bd00c 	sub	sp, fp, #12
 c0008a0:	e89d6800 	ldm	sp, {fp, sp, lr}
 c0008a4:	e12fff1e 	bx	lr

0c0008a8 <DelayTime>:

void DelayTime(int num)
{
 c0008a8:	e1a0c00d 	mov	ip, sp
 c0008ac:	e92dd800 	push	{fp, ip, lr, pc}
 c0008b0:	e24cb004 	sub	fp, ip, #4
 c0008b4:	e24dd010 	sub	sp, sp, #16
 c0008b8:	e50b0018 	str	r0, [fp, #-24]	; 0xffffffe8
	int i;
	
	for( i = 0 ; i < num ; i++ )
 c0008bc:	e3a03000 	mov	r3, #0
 c0008c0:	e50b3010 	str	r3, [fp, #-16]
 c0008c4:	ea000002 	b	c0008d4 <DelayTime+0x2c>
 c0008c8:	e51b3010 	ldr	r3, [fp, #-16]
 c0008cc:	e2833001 	add	r3, r3, #1
 c0008d0:	e50b3010 	str	r3, [fp, #-16]
 c0008d4:	e51b2010 	ldr	r2, [fp, #-16]
 c0008d8:	e51b3018 	ldr	r3, [fp, #-24]	; 0xffffffe8
 c0008dc:	e1520003 	cmp	r2, r3
 c0008e0:	bafffff8 	blt	c0008c8 <DelayTime+0x20>
		;
}
 c0008e4:	e24bd00c 	sub	sp, fp, #12
 c0008e8:	e89d6800 	ldm	sp, {fp, sp, lr}
 c0008ec:	e12fff1e 	bx	lr

0c0008f0 <Port_Init>:

//------------------------PORTS------------------------------//
void Port_Init(void)
{
 c0008f0:	e1a0c00d 	mov	ip, sp
 c0008f4:	e92dd800 	push	{fp, ip, lr, pc}
 c0008f8:	e24cb004 	sub	fp, ip, #4

	// PORT A GROUP
	// BIT 	9	8	7	6	5	4	3	2	1	0
	// 		A24	A23	A22	A21	A20	A19	A18	A17	A16	A0
	//		0	1	1	1	1	1	1	1	1	1
	rPCONA = 0x1ff;	
 c0008fc:	e59f3100 	ldr	r3, [pc, #256]	; c000a04 <Port_Init+0x114>
 c000900:	e59f2100 	ldr	r2, [pc, #256]	; c000a08 <Port_Init+0x118>
 c000904:	e5832000 	str	r2, [r3]
	// PORT B GROUP
	// BIT 	10		9		8		7		6		5		4		3		2		1		0
	//		/CS5	/CS4	/CS3	/CS2	/CS1	GPB5	GPB4	/SRAS	/SCAS	SCLK	SCKE
	//		EXT		NIC		USB		IDE		SMC		NC		NC		Sdram	Sdram	Sdram	Sdram
	//      1, 		1,   	1,   	1,    	1,    	0,       0,     1,    	1,    	1,   	1	
	rPDATB = 0x7ff;				// P9-LED1 P10-LED2
 c000908:	e59f30fc 	ldr	r3, [pc, #252]	; c000a0c <Port_Init+0x11c>
 c00090c:	e59f20fc 	ldr	r2, [pc, #252]	; c000a10 <Port_Init+0x120>
 c000910:	e5832000 	str	r2, [r3]
	rPCONB = 0x1cf;
 c000914:	e59f30f8 	ldr	r3, [pc, #248]	; c000a14 <Port_Init+0x124>
 c000918:	e59f20f8 	ldr	r2, [pc, #248]	; c000a18 <Port_Init+0x128>
 c00091c:	e5832000 	str	r2, [r3]

	//  PC7		6		5		4		3		2		1		0
	//   I		I		I		I		I		I		I		I
	//   NC		NC		NC		NC		IISCLK	IISDI	IISDO	IISLRCK
	//   00		00		00		00		11		11		11		11
	rPDATC = 0xff00;
 c000920:	e59f30f4 	ldr	r3, [pc, #244]	; c000a1c <Port_Init+0x12c>
 c000924:	e3a02cff 	mov	r2, #65280	; 0xff00
 c000928:	e5832000 	str	r2, [r3]
	rPCONC = 0x0ff0ffff;	
 c00092c:	e59f30ec 	ldr	r3, [pc, #236]	; c000a20 <Port_Init+0x130>
 c000930:	e59f20ec 	ldr	r2, [pc, #236]	; c000a24 <Port_Init+0x134>
 c000934:	e5832000 	str	r2, [r3]
	rPUPC  = 0x30ff;	//PULL UP RESISTOR should be enabled to I/O
 c000938:	e59f30e8 	ldr	r3, [pc, #232]	; c000a28 <Port_Init+0x138>
 c00093c:	e59f20e8 	ldr	r2, [pc, #232]	; c000a2c <Port_Init+0x13c>
 c000940:	e5832000 	str	r2, [r3]
	// PORT D GROUP
	// PORT D GROUP(I/O OR LCD)
	// BIT7		6		5		4		3		2		1		0
	//	VF		VM		VLINE	VCLK	VD3		VD2		VD1		VD0
	//	00		00		00		00		00		00		00		00
	rPDATD= 0xff;
 c000944:	e59f30e4 	ldr	r3, [pc, #228]	; c000a30 <Port_Init+0x140>
 c000948:	e3a020ff 	mov	r2, #255	; 0xff
 c00094c:	e5832000 	str	r2, [r3]
	rPCOND= 0xaaaa;	
 c000950:	e59f30dc 	ldr	r3, [pc, #220]	; c000a34 <Port_Init+0x144>
 c000954:	e59f20dc 	ldr	r2, [pc, #220]	; c000a38 <Port_Init+0x148>
 c000958:	e5832000 	str	r2, [r3]
	rPUPD = 0x0;
 c00095c:	e59f30d8 	ldr	r3, [pc, #216]	; c000a3c <Port_Init+0x14c>
 c000960:	e3a02000 	mov	r2, #0
 c000964:	e5832000 	str	r2, [r3]
	
	// PORT E GROUP 
	// Bit	8		7		6		5		4		3		2		1		0
	//  	CODECLK	LED4	LED5	LED6	LED7	BEEP	RXD0	TXD0	LcdDisp
	//  	10		01		01		01		01		01		10		10		01
	rPDATE	= 0x1ff;
 c000968:	e59f30d0 	ldr	r3, [pc, #208]	; c000a40 <Port_Init+0x150>
 c00096c:	e59f2094 	ldr	r2, [pc, #148]	; c000a08 <Port_Init+0x118>
 c000970:	e5832000 	str	r2, [r3]
	rPCONE	= 0x25529;	
 c000974:	e59f30c8 	ldr	r3, [pc, #200]	; c000a44 <Port_Init+0x154>
 c000978:	e59f20c8 	ldr	r2, [pc, #200]	; c000a48 <Port_Init+0x158>
 c00097c:	e5832000 	str	r2, [r3]
	rPUPE	= 0x6;
 c000980:	e59f30c4 	ldr	r3, [pc, #196]	; c000a4c <Port_Init+0x15c>
 c000984:	e3a02006 	mov	r2, #6
 c000988:	e5832000 	str	r2, [r3]
	
	// PORT F GROUP
	// Bit8		7		6		5		 4		3		2		1		0
	// IISCLK	IISDI	IISDO	IISLRCK	Input	Input	Input	IICSDA	IICSCL
	// 100		100		100		100		00		00		00		10		10
	rPDATF = 0x0;
 c00098c:	e59f30bc 	ldr	r3, [pc, #188]	; c000a50 <Port_Init+0x160>
 c000990:	e3a02000 	mov	r2, #0
 c000994:	e5832000 	str	r2, [r3]
	rPCONF = 0x252a;
 c000998:	e59f30b4 	ldr	r3, [pc, #180]	; c000a54 <Port_Init+0x164>
 c00099c:	e59f20b4 	ldr	r2, [pc, #180]	; c000a58 <Port_Init+0x168>
 c0009a0:	e5832000 	str	r2, [r3]
	rPUPF  = 0x0;
 c0009a4:	e59f30b0 	ldr	r3, [pc, #176]	; c000a5c <Port_Init+0x16c>
 c0009a8:	e3a02000 	mov	r2, #0
 c0009ac:	e5832000 	str	r2, [r3]
	// PORT G GROUP
	// BIT7		6		5		4		3		2		1		0
	// 	INT7	INT6	INT5	INT4	INT3	INT2	INT1	INT0
	//	S3		S4		S5		S6		NIC		EXT		IDE		USB
	//	11      11      11      11      11      11      11      11
	rPDATG = 0xff;
 c0009b0:	e59f30a8 	ldr	r3, [pc, #168]	; c000a60 <Port_Init+0x170>
 c0009b4:	e3a020ff 	mov	r2, #255	; 0xff
 c0009b8:	e5832000 	str	r2, [r3]
	rPCONG = 0xffff;
 c0009bc:	e59f30a0 	ldr	r3, [pc, #160]	; c000a64 <Port_Init+0x174>
 c0009c0:	e59f20a0 	ldr	r2, [pc, #160]	; c000a68 <Port_Init+0x178>
 c0009c4:	e5832000 	str	r2, [r3]
	rPUPG  = 0x0;		//should be enabled  
 c0009c8:	e59f309c 	ldr	r3, [pc, #156]	; c000a6c <Port_Init+0x17c>
 c0009cc:	e3a02000 	mov	r2, #0
 c0009d0:	e5832000 	str	r2, [r3]
	rSPUCR = 0x7;  		//D15-D0 pull-up disable
 c0009d4:	e59f3094 	ldr	r3, [pc, #148]	; c000a70 <Port_Init+0x180>
 c0009d8:	e3a02007 	mov	r2, #7
 c0009dc:	e5832000 	str	r2, [r3]

	/* Non Cache area */
	rNCACHBE0=((Non_Cache_End>>12)<<16)|(Non_Cache_Start>>12); 
 c0009e0:	e59f308c 	ldr	r3, [pc, #140]	; c000a74 <Port_Init+0x184>
 c0009e4:	e59f208c 	ldr	r2, [pc, #140]	; c000a78 <Port_Init+0x188>
 c0009e8:	e5832000 	str	r2, [r3]
	/* Low level default */
	rEXTINT=0x0;
 c0009ec:	e59f3088 	ldr	r3, [pc, #136]	; c000a7c <Port_Init+0x18c>
 c0009f0:	e3a02000 	mov	r2, #0
 c0009f4:	e5832000 	str	r2, [r3]
}
 c0009f8:	e24bd00c 	sub	sp, fp, #12
 c0009fc:	e89d6800 	ldm	sp, {fp, sp, lr}
 c000a00:	e12fff1e 	bx	lr
 c000a04:	01d20000 	.word	0x01d20000
 c000a08:	000001ff 	.word	0x000001ff
 c000a0c:	01d2000c 	.word	0x01d2000c
 c000a10:	000007ff 	.word	0x000007ff
 c000a14:	01d20008 	.word	0x01d20008
 c000a18:	000001cf 	.word	0x000001cf
 c000a1c:	01d20014 	.word	0x01d20014
 c000a20:	01d20010 	.word	0x01d20010
 c000a24:	0ff0ffff 	.word	0x0ff0ffff
 c000a28:	01d20018 	.word	0x01d20018
 c000a2c:	000030ff 	.word	0x000030ff
 c000a30:	01d20020 	.word	0x01d20020
 c000a34:	01d2001c 	.word	0x01d2001c
 c000a38:	0000aaaa 	.word	0x0000aaaa
 c000a3c:	01d20024 	.word	0x01d20024
 c000a40:	01d2002c 	.word	0x01d2002c
 c000a44:	01d20028 	.word	0x01d20028
 c000a48:	00025529 	.word	0x00025529
 c000a4c:	01d20030 	.word	0x01d20030
 c000a50:	01d20038 	.word	0x01d20038
 c000a54:	01d20034 	.word	0x01d20034
 c000a58:	0000252a 	.word	0x0000252a
 c000a5c:	01d2003c 	.word	0x01d2003c
 c000a60:	01d20044 	.word	0x01d20044
 c000a64:	01d20040 	.word	0x01d20040
 c000a68:	0000ffff 	.word	0x0000ffff
 c000a6c:	01d20048 	.word	0x01d20048
 c000a70:	01d2004c 	.word	0x01d2004c
 c000a74:	01c00004 	.word	0x01c00004
 c000a78:	c0002000 	.word	0xc0002000
 c000a7c:	01d20050 	.word	0x01d20050

0c000a80 <Uart_Init>:

//------------------------UART------------------------------//
void Uart_Init(int mclk,int baud)
{
 c000a80:	e1a0c00d 	mov	ip, sp
 c000a84:	e92dd8f0 	push	{r4, r5, r6, r7, fp, ip, lr, pc}
 c000a88:	e24cb004 	sub	fp, ip, #4
 c000a8c:	e24dd010 	sub	sp, sp, #16
 c000a90:	e50b0028 	str	r0, [fp, #-40]	; 0xffffffd8
 c000a94:	e50b102c 	str	r1, [fp, #-44]	; 0xffffffd4
    int i;
    if(mclk==0)
 c000a98:	e51b3028 	ldr	r3, [fp, #-40]	; 0xffffffd8
 c000a9c:	e3530000 	cmp	r3, #0
 c000aa0:	1a000001 	bne	c000aac <Uart_Init+0x2c>
		mclk=MCLK;
 c000aa4:	e59f31d0 	ldr	r3, [pc, #464]	; c000c7c <Uart_Init+0x1fc>
 c000aa8:	e50b3028 	str	r3, [fp, #-40]	; 0xffffffd8

    rUFCON0=0x0;     //FIFO disable
 c000aac:	e59f31cc 	ldr	r3, [pc, #460]	; c000c80 <Uart_Init+0x200>
 c000ab0:	e3a02000 	mov	r2, #0
 c000ab4:	e5832000 	str	r2, [r3]
    rUFCON1=0x0;
 c000ab8:	e59f31c4 	ldr	r3, [pc, #452]	; c000c84 <Uart_Init+0x204>
 c000abc:	e3a02000 	mov	r2, #0
 c000ac0:	e5832000 	str	r2, [r3]
    rUMCON0=0x0;
 c000ac4:	e59f31bc 	ldr	r3, [pc, #444]	; c000c88 <Uart_Init+0x208>
 c000ac8:	e3a02000 	mov	r2, #0
 c000acc:	e5832000 	str	r2, [r3]
    rUMCON1=0x0;
 c000ad0:	e59f31b4 	ldr	r3, [pc, #436]	; c000c8c <Uart_Init+0x20c>
 c000ad4:	e3a02000 	mov	r2, #0
 c000ad8:	e5832000 	str	r2, [r3]
//UART0
    rULCON0=0x3;     //Normal,No parity,1 stop,8 bit
 c000adc:	e3a0361d 	mov	r3, #30408704	; 0x1d00000
 c000ae0:	e3a02003 	mov	r2, #3
 c000ae4:	e5832000 	str	r2, [r3]
    rUCON0=0x245;    //rx=edge,tx=level,disable timeout int.,enable rx error int.,normal,interrupt or polling
 c000ae8:	e59f31a0 	ldr	r3, [pc, #416]	; c000c90 <Uart_Init+0x210>
 c000aec:	e59f21a0 	ldr	r2, [pc, #416]	; c000c94 <Uart_Init+0x214>
 c000af0:	e5832000 	str	r2, [r3]
    rUBRDIV0=( (int)(mclk/16./baud + 0.5) -1 );
 c000af4:	e59f719c 	ldr	r7, [pc, #412]	; c000c98 <Uart_Init+0x218>
 c000af8:	e51b0028 	ldr	r0, [fp, #-40]	; 0xffffffd8
 c000afc:	eb0024a0 	bl	c009d84 <__aeabi_i2d>
 c000b00:	e1a03000 	mov	r3, r0
 c000b04:	e1a04001 	mov	r4, r1
 c000b08:	e1a00003 	mov	r0, r3
 c000b0c:	e1a01004 	mov	r1, r4
 c000b10:	e3a02000 	mov	r2, #0
 c000b14:	e3a03101 	mov	r3, #1073741824	; 0x40000000
 c000b18:	e2833603 	add	r3, r3, #3145728	; 0x300000
 c000b1c:	eb002573 	bl	c00a0f0 <__aeabi_ddiv>
 c000b20:	e1a03000 	mov	r3, r0
 c000b24:	e1a04001 	mov	r4, r1
 c000b28:	e1a05003 	mov	r5, r3
 c000b2c:	e1a06004 	mov	r6, r4
 c000b30:	e51b002c 	ldr	r0, [fp, #-44]	; 0xffffffd4
 c000b34:	eb002492 	bl	c009d84 <__aeabi_i2d>
 c000b38:	e1a03000 	mov	r3, r0
 c000b3c:	e1a04001 	mov	r4, r1
 c000b40:	e1a00005 	mov	r0, r5
 c000b44:	e1a01006 	mov	r1, r6
 c000b48:	e1a02003 	mov	r2, r3
 c000b4c:	e1a03004 	mov	r3, r4
 c000b50:	eb002566 	bl	c00a0f0 <__aeabi_ddiv>
 c000b54:	e1a03000 	mov	r3, r0
 c000b58:	e1a04001 	mov	r4, r1
 c000b5c:	e1a00003 	mov	r0, r3
 c000b60:	e1a01004 	mov	r1, r4
 c000b64:	e3a02000 	mov	r2, #0
 c000b68:	e3a035ff 	mov	r3, #1069547520	; 0x3fc00000
 c000b6c:	e2833602 	add	r3, r3, #2097152	; 0x200000
 c000b70:	eb0023b6 	bl	c009a50 <__adddf3>
 c000b74:	e1a03000 	mov	r3, r0
 c000b78:	e1a04001 	mov	r4, r1
 c000b7c:	e1a00003 	mov	r0, r3
 c000b80:	e1a01004 	mov	r1, r4
 c000b84:	eb0025dc 	bl	c00a2fc <__aeabi_d2iz>
 c000b88:	e1a03000 	mov	r3, r0
 c000b8c:	e2433001 	sub	r3, r3, #1
 c000b90:	e5873000 	str	r3, [r7]
//UART1
    rULCON1=0x3;
 c000b94:	e59f3100 	ldr	r3, [pc, #256]	; c000c9c <Uart_Init+0x21c>
 c000b98:	e3a02003 	mov	r2, #3
 c000b9c:	e5832000 	str	r2, [r3]
    rUCON1=0x245;
 c000ba0:	e59f30f8 	ldr	r3, [pc, #248]	; c000ca0 <Uart_Init+0x220>
 c000ba4:	e59f20e8 	ldr	r2, [pc, #232]	; c000c94 <Uart_Init+0x214>
 c000ba8:	e5832000 	str	r2, [r3]
    rUBRDIV1=( (int)(mclk/16./baud + 0.5) -1 );
 c000bac:	e59f70f0 	ldr	r7, [pc, #240]	; c000ca4 <Uart_Init+0x224>
 c000bb0:	e51b0028 	ldr	r0, [fp, #-40]	; 0xffffffd8
 c000bb4:	eb002472 	bl	c009d84 <__aeabi_i2d>
 c000bb8:	e1a03000 	mov	r3, r0
 c000bbc:	e1a04001 	mov	r4, r1
 c000bc0:	e1a00003 	mov	r0, r3
 c000bc4:	e1a01004 	mov	r1, r4
 c000bc8:	e3a02000 	mov	r2, #0
 c000bcc:	e3a03101 	mov	r3, #1073741824	; 0x40000000
 c000bd0:	e2833603 	add	r3, r3, #3145728	; 0x300000
 c000bd4:	eb002545 	bl	c00a0f0 <__aeabi_ddiv>
 c000bd8:	e1a03000 	mov	r3, r0
 c000bdc:	e1a04001 	mov	r4, r1
 c000be0:	e1a05003 	mov	r5, r3
 c000be4:	e1a06004 	mov	r6, r4
 c000be8:	e51b002c 	ldr	r0, [fp, #-44]	; 0xffffffd4
 c000bec:	eb002464 	bl	c009d84 <__aeabi_i2d>
 c000bf0:	e1a03000 	mov	r3, r0
 c000bf4:	e1a04001 	mov	r4, r1
 c000bf8:	e1a00005 	mov	r0, r5
 c000bfc:	e1a01006 	mov	r1, r6
 c000c00:	e1a02003 	mov	r2, r3
 c000c04:	e1a03004 	mov	r3, r4
 c000c08:	eb002538 	bl	c00a0f0 <__aeabi_ddiv>
 c000c0c:	e1a03000 	mov	r3, r0
 c000c10:	e1a04001 	mov	r4, r1
 c000c14:	e1a00003 	mov	r0, r3
 c000c18:	e1a01004 	mov	r1, r4
 c000c1c:	e3a02000 	mov	r2, #0
 c000c20:	e3a035ff 	mov	r3, #1069547520	; 0x3fc00000
 c000c24:	e2833602 	add	r3, r3, #2097152	; 0x200000
 c000c28:	eb002388 	bl	c009a50 <__adddf3>
 c000c2c:	e1a03000 	mov	r3, r0
 c000c30:	e1a04001 	mov	r4, r1
 c000c34:	e1a00003 	mov	r0, r3
 c000c38:	e1a01004 	mov	r1, r4
 c000c3c:	eb0025ae 	bl	c00a2fc <__aeabi_d2iz>
 c000c40:	e1a03000 	mov	r3, r0
 c000c44:	e2433001 	sub	r3, r3, #1
 c000c48:	e5873000 	str	r3, [r7]

    for(i=0;i<100;i++);
 c000c4c:	e3a03000 	mov	r3, #0
 c000c50:	e50b3020 	str	r3, [fp, #-32]	; 0xffffffe0
 c000c54:	ea000002 	b	c000c64 <Uart_Init+0x1e4>
 c000c58:	e51b3020 	ldr	r3, [fp, #-32]	; 0xffffffe0
 c000c5c:	e2833001 	add	r3, r3, #1
 c000c60:	e50b3020 	str	r3, [fp, #-32]	; 0xffffffe0
 c000c64:	e51b3020 	ldr	r3, [fp, #-32]	; 0xffffffe0
 c000c68:	e3530063 	cmp	r3, #99	; 0x63
 c000c6c:	dafffff9 	ble	c000c58 <Uart_Init+0x1d8>
}
 c000c70:	e24bd01c 	sub	sp, fp, #28
 c000c74:	e89d68f0 	ldm	sp, {r4, r5, r6, r7, fp, sp, lr}
 c000c78:	e12fff1e 	bx	lr
 c000c7c:	03d09000 	.word	0x03d09000
 c000c80:	01d00008 	.word	0x01d00008
 c000c84:	01d04008 	.word	0x01d04008
 c000c88:	01d0000c 	.word	0x01d0000c
 c000c8c:	01d0400c 	.word	0x01d0400c
 c000c90:	01d00004 	.word	0x01d00004
 c000c94:	00000245 	.word	0x00000245
 c000c98:	01d00028 	.word	0x01d00028
 c000c9c:	01d04000 	.word	0x01d04000
 c000ca0:	01d04004 	.word	0x01d04004
 c000ca4:	01d04028 	.word	0x01d04028

0c000ca8 <Timer_Start>:

//------------------------ Timer ------------------------------//
void Timer_Start(int divider)  //0:16us,1:32us 2:64us 3:128us
{
 c000ca8:	e1a0c00d 	mov	ip, sp
 c000cac:	e92dd800 	push	{fp, ip, lr, pc}
 c000cb0:	e24cb004 	sub	fp, ip, #4
 c000cb4:	e24dd008 	sub	sp, sp, #8
 c000cb8:	e50b0010 	str	r0, [fp, #-16]
    rWTCON=((MCLK/1000000-1)<<8)|(divider<<3);
 c000cbc:	e59f3048 	ldr	r3, [pc, #72]	; c000d0c <Timer_Start+0x64>
 c000cc0:	e51b2010 	ldr	r2, [fp, #-16]
 c000cc4:	e1a02182 	lsl	r2, r2, #3
 c000cc8:	e3822c3f 	orr	r2, r2, #16128	; 0x3f00
 c000ccc:	e5832000 	str	r2, [r3]
    rWTDAT=0xffff;
 c000cd0:	e59f3038 	ldr	r3, [pc, #56]	; c000d10 <Timer_Start+0x68>
 c000cd4:	e59f2038 	ldr	r2, [pc, #56]	; c000d14 <Timer_Start+0x6c>
 c000cd8:	e5832000 	str	r2, [r3]
    rWTCNT=0xffff;   
 c000cdc:	e59f3034 	ldr	r3, [pc, #52]	; c000d18 <Timer_Start+0x70>
 c000ce0:	e59f202c 	ldr	r2, [pc, #44]	; c000d14 <Timer_Start+0x6c>
 c000ce4:	e5832000 	str	r2, [r3]

    // 1/16/(65+1),nRESET & interrupt  disable
    rWTCON=((MCLK/1000000-1)<<8)|(divider<<3)|(1<<5);	
 c000ce8:	e59f201c 	ldr	r2, [pc, #28]	; c000d0c <Timer_Start+0x64>
 c000cec:	e51b3010 	ldr	r3, [fp, #-16]
 c000cf0:	e1a03183 	lsl	r3, r3, #3
 c000cf4:	e3833c3f 	orr	r3, r3, #16128	; 0x3f00
 c000cf8:	e3833020 	orr	r3, r3, #32
 c000cfc:	e5823000 	str	r3, [r2]
}
 c000d00:	e24bd00c 	sub	sp, fp, #12
 c000d04:	e89d6800 	ldm	sp, {fp, sp, lr}
 c000d08:	e12fff1e 	bx	lr
 c000d0c:	01d30000 	.word	0x01d30000
 c000d10:	01d30004 	.word	0x01d30004
 c000d14:	0000ffff 	.word	0x0000ffff
 c000d18:	01d30008 	.word	0x01d30008

0c000d1c <Timer_Stop>:


int Timer_Stop(void)
{
 c000d1c:	e1a0c00d 	mov	ip, sp
 c000d20:	e92dd800 	push	{fp, ip, lr, pc}
 c000d24:	e24cb004 	sub	fp, ip, #4
    rWTCON=((MCLK/1000000-1)<<8);
 c000d28:	e59f3024 	ldr	r3, [pc, #36]	; c000d54 <Timer_Stop+0x38>
 c000d2c:	e3a02c3f 	mov	r2, #16128	; 0x3f00
 c000d30:	e5832000 	str	r2, [r3]
    return (0xffff-rWTCNT);
 c000d34:	e59f301c 	ldr	r3, [pc, #28]	; c000d58 <Timer_Stop+0x3c>
 c000d38:	e5933000 	ldr	r3, [r3]
 c000d3c:	e2633cff 	rsb	r3, r3, #65280	; 0xff00
 c000d40:	e28330ff 	add	r3, r3, #255	; 0xff
}
 c000d44:	e1a00003 	mov	r0, r3
 c000d48:	e24bd00c 	sub	sp, fp, #12
 c000d4c:	e89d6800 	ldm	sp, {fp, sp, lr}
 c000d50:	e12fff1e 	bx	lr
 c000d54:	01d30000 	.word	0x01d30000
 c000d58:	01d30008 	.word	0x01d30008

0c000d5c <Beep>:

void Beep(int BeepStatus)
{
 c000d5c:	e1a0c00d 	mov	ip, sp
 c000d60:	e92dd800 	push	{fp, ip, lr, pc}
 c000d64:	e24cb004 	sub	fp, ip, #4
 c000d68:	e24dd008 	sub	sp, sp, #8
 c000d6c:	e50b0010 	str	r0, [fp, #-16]
	if (BeepStatus==0)
 c000d70:	e51b3010 	ldr	r3, [fp, #-16]
 c000d74:	e3530000 	cmp	r3, #0
 c000d78:	1a000005 	bne	c000d94 <Beep+0x38>
		rPDATE=rPDATE|0x8;
 c000d7c:	e59f3034 	ldr	r3, [pc, #52]	; c000db8 <Beep+0x5c>
 c000d80:	e59f2030 	ldr	r2, [pc, #48]	; c000db8 <Beep+0x5c>
 c000d84:	e5922000 	ldr	r2, [r2]
 c000d88:	e3822008 	orr	r2, r2, #8
 c000d8c:	e5832000 	str	r2, [r3]
 c000d90:	ea000005 	b	c000dac <Beep+0x50>
	else
		rPDATE=rPDATE&0x1f7;
 c000d94:	e59f201c 	ldr	r2, [pc, #28]	; c000db8 <Beep+0x5c>
 c000d98:	e59f3018 	ldr	r3, [pc, #24]	; c000db8 <Beep+0x5c>
 c000d9c:	e5931000 	ldr	r1, [r3]
 c000da0:	e59f3014 	ldr	r3, [pc, #20]	; c000dbc <Beep+0x60>
 c000da4:	e0013003 	and	r3, r1, r3
 c000da8:	e5823000 	str	r3, [r2]

}
 c000dac:	e24bd00c 	sub	sp, fp, #12
 c000db0:	e89d6800 	ldm	sp, {fp, sp, lr}
 c000db4:	e12fff1e 	bx	lr
 c000db8:	01d2002c 	.word	0x01d2002c
 c000dbc:	000001f7 	.word	0x000001f7

0c000dc0 <ChangePllValue>:

//------------------------ PLL ------------------------------//
void ChangePllValue(int mdiv,int pdiv,int sdiv)
{
 c000dc0:	e1a0c00d 	mov	ip, sp
 c000dc4:	e92dd800 	push	{fp, ip, lr, pc}
 c000dc8:	e24cb004 	sub	fp, ip, #4
 c000dcc:	e24dd010 	sub	sp, sp, #16
 c000dd0:	e50b0010 	str	r0, [fp, #-16]
 c000dd4:	e50b1014 	str	r1, [fp, #-20]	; 0xffffffec
 c000dd8:	e50b2018 	str	r2, [fp, #-24]	; 0xffffffe8
    rPLLCON=(mdiv<<12)|(pdiv<<4)|sdiv;
 c000ddc:	e3a03776 	mov	r3, #30932992	; 0x1d80000
 c000de0:	e51b2010 	ldr	r2, [fp, #-16]
 c000de4:	e1a01602 	lsl	r1, r2, #12
 c000de8:	e51b2014 	ldr	r2, [fp, #-20]	; 0xffffffec
 c000dec:	e1a02202 	lsl	r2, r2, #4
 c000df0:	e1811002 	orr	r1, r1, r2
 c000df4:	e51b2018 	ldr	r2, [fp, #-24]	; 0xffffffe8
 c000df8:	e1812002 	orr	r2, r1, r2
 c000dfc:	e5832000 	str	r2, [r3]
}
 c000e00:	e24bd00c 	sub	sp, fp, #12
 c000e04:	e89d6800 	ldm	sp, {fp, sp, lr}
 c000e08:	e12fff1e 	bx	lr

0c000e0c <malloc>:

//------------------------ General Library ------------------------------//
void * malloc(unsigned nbyte) 
/*Very simple; Use malloc() & free() like Stack*/
//void *mallocPt=Image$$RW$$Limit;
{
 c000e0c:	e1a0c00d 	mov	ip, sp
 c000e10:	e92dd800 	push	{fp, ip, lr, pc}
 c000e14:	e24cb004 	sub	fp, ip, #4
 c000e18:	e24dd010 	sub	sp, sp, #16
 c000e1c:	e50b0018 	str	r0, [fp, #-24]	; 0xffffffe8
    void *returnPt=mallocPt;
 c000e20:	e59f307c 	ldr	r3, [pc, #124]	; c000ea4 <malloc+0x98>
 c000e24:	e5933000 	ldr	r3, [r3]
 c000e28:	e50b3010 	str	r3, [fp, #-16]

    mallocPt= (int *)mallocPt+nbyte/4+((nbyte%4)>0); //to align 4byte
 c000e2c:	e59f3070 	ldr	r3, [pc, #112]	; c000ea4 <malloc+0x98>
 c000e30:	e5932000 	ldr	r2, [r3]
 c000e34:	e51b3018 	ldr	r3, [fp, #-24]	; 0xffffffe8
 c000e38:	e1a01123 	lsr	r1, r3, #2
 c000e3c:	e51b3018 	ldr	r3, [fp, #-24]	; 0xffffffe8
 c000e40:	e2033003 	and	r3, r3, #3
 c000e44:	e3530000 	cmp	r3, #0
 c000e48:	03a03000 	moveq	r3, #0
 c000e4c:	13a03001 	movne	r3, #1
 c000e50:	e0813003 	add	r3, r1, r3
 c000e54:	e1a03103 	lsl	r3, r3, #2
 c000e58:	e0822003 	add	r2, r2, r3
 c000e5c:	e59f3040 	ldr	r3, [pc, #64]	; c000ea4 <malloc+0x98>
 c000e60:	e5832000 	str	r2, [r3]

    if( (int)mallocPt > HEAPEND )
 c000e64:	e59f3038 	ldr	r3, [pc, #56]	; c000ea4 <malloc+0x98>
 c000e68:	e5933000 	ldr	r3, [r3]
 c000e6c:	e1a02003 	mov	r2, r3
 c000e70:	e59f3030 	ldr	r3, [pc, #48]	; c000ea8 <malloc+0x9c>
 c000e74:	e1520003 	cmp	r2, r3
 c000e78:	da000004 	ble	c000e90 <malloc+0x84>
    {
		mallocPt=returnPt;
 c000e7c:	e59f3020 	ldr	r3, [pc, #32]	; c000ea4 <malloc+0x98>
 c000e80:	e51b2010 	ldr	r2, [fp, #-16]
 c000e84:	e5832000 	str	r2, [r3]
		return NULL;
 c000e88:	e3a03000 	mov	r3, #0
 c000e8c:	ea000000 	b	c000e94 <malloc+0x88>
    }
    return returnPt;
 c000e90:	e51b3010 	ldr	r3, [fp, #-16]
}
 c000e94:	e1a00003 	mov	r0, r3
 c000e98:	e24bd00c 	sub	sp, fp, #12
 c000e9c:	e89d6800 	ldm	sp, {fp, sp, lr}
 c000ea0:	e12fff1e 	bx	lr
 c000ea4:	0c00a3c8 	.word	0x0c00a3c8
 c000ea8:	0c7ff000 	.word	0x0c7ff000

0c000eac <free>:

void free(void *pt)
{
 c000eac:	e1a0c00d 	mov	ip, sp
 c000eb0:	e92dd800 	push	{fp, ip, lr, pc}
 c000eb4:	e24cb004 	sub	fp, ip, #4
 c000eb8:	e24dd008 	sub	sp, sp, #8
 c000ebc:	e50b0010 	str	r0, [fp, #-16]
    mallocPt=pt;
 c000ec0:	e59f3010 	ldr	r3, [pc, #16]	; c000ed8 <free+0x2c>
 c000ec4:	e51b2010 	ldr	r2, [fp, #-16]
 c000ec8:	e5832000 	str	r2, [r3]
}
 c000ecc:	e24bd00c 	sub	sp, fp, #12
 c000ed0:	e89d6800 	ldm	sp, {fp, sp, lr}
 c000ed4:	e12fff1e 	bx	lr
 c000ed8:	0c00a3c8 	.word	0x0c00a3c8

0c000edc <Cache_Flush>:

void Cache_Flush(void)
{
 c000edc:	e1a0c00d 	mov	ip, sp
 c000ee0:	e92dd800 	push	{fp, ip, lr, pc}
 c000ee4:	e24cb004 	sub	fp, ip, #4
 c000ee8:	e24dd008 	sub	sp, sp, #8
    int i,saveSyscfg;
    
    saveSyscfg=rSYSCFG;
 c000eec:	e3a03507 	mov	r3, #29360128	; 0x1c00000
 c000ef0:	e5933000 	ldr	r3, [r3]
 c000ef4:	e50b3014 	str	r3, [fp, #-20]	; 0xffffffec

    rSYSCFG=SYSCFG_0KB; 		      
 c000ef8:	e3a03507 	mov	r3, #29360128	; 0x1c00000
 c000efc:	e3a02008 	mov	r2, #8
 c000f00:	e5832000 	str	r2, [r3]
    for(i=0x10004000;i<0x10004800;i+=16)    
 c000f04:	e59f3044 	ldr	r3, [pc, #68]	; c000f50 <Cache_Flush+0x74>
 c000f08:	e50b3010 	str	r3, [fp, #-16]
 c000f0c:	ea000005 	b	c000f28 <Cache_Flush+0x4c>
    {					   
		*((int *)i)=0x0;		   
 c000f10:	e51b3010 	ldr	r3, [fp, #-16]
 c000f14:	e3a02000 	mov	r2, #0
 c000f18:	e5832000 	str	r2, [r3]
    int i,saveSyscfg;
    
    saveSyscfg=rSYSCFG;

    rSYSCFG=SYSCFG_0KB; 		      
    for(i=0x10004000;i<0x10004800;i+=16)    
 c000f1c:	e51b3010 	ldr	r3, [fp, #-16]
 c000f20:	e2833010 	add	r3, r3, #16
 c000f24:	e50b3010 	str	r3, [fp, #-16]
 c000f28:	e51b2010 	ldr	r2, [fp, #-16]
 c000f2c:	e59f3020 	ldr	r3, [pc, #32]	; c000f54 <Cache_Flush+0x78>
 c000f30:	e1520003 	cmp	r2, r3
 c000f34:	dafffff5 	ble	c000f10 <Cache_Flush+0x34>
    {					   
		*((int *)i)=0x0;		   
    }
    rSYSCFG=saveSyscfg; 			    
 c000f38:	e3a03507 	mov	r3, #29360128	; 0x1c00000
 c000f3c:	e51b2014 	ldr	r2, [fp, #-20]	; 0xffffffec
 c000f40:	e5832000 	str	r2, [r3]
}
 c000f44:	e24bd00c 	sub	sp, fp, #12
 c000f48:	e89d6800 	ldm	sp, {fp, sp, lr}
 c000f4c:	e12fff1e 	bx	lr
 c000f50:	10004000 	.word	0x10004000
 c000f54:	100047ff 	.word	0x100047ff

0c000f58 <sys_init>:

void sys_init()// Interrupt,Port and UART
{
 c000f58:	e1a0c00d 	mov	ip, sp
 c000f5c:	e92dd800 	push	{fp, ip, lr, pc}
 c000f60:	e24cb004 	sub	fp, ip, #4
	/* enable interrupt */
	rINTMOD = 0x0;
 c000f64:	e59f304c 	ldr	r3, [pc, #76]	; c000fb8 <sys_init+0x60>
 c000f68:	e3a02000 	mov	r2, #0
 c000f6c:	e5832000 	str	r2, [r3]
	rINTCON = 0x1;
 c000f70:	e3a0361e 	mov	r3, #31457280	; 0x1e00000
 c000f74:	e3a02001 	mov	r2, #1
 c000f78:	e5832000 	str	r2, [r3]
	rI_ISPC = 0xffffffff;			// clear all interrupt pend
 c000f7c:	e59f3038 	ldr	r3, [pc, #56]	; c000fbc <sys_init+0x64>
 c000f80:	e3e02000 	mvn	r2, #0
 c000f84:	e5832000 	str	r2, [r3]
	rEXTINTPND = 0xf;				  // clear EXTINTPND reg
 c000f88:	e59f3030 	ldr	r3, [pc, #48]	; c000fc0 <sys_init+0x68>
 c000f8c:	e3a0200f 	mov	r2, #15
 c000f90:	e5832000 	str	r2, [r3]
	Port_Init();					    // Initial 44B0X's I/O port
 c000f94:	ebfffe55 	bl	c0008f0 <Port_Init>
	Delay(0);						      // delay time				
 c000f98:	e3a00000 	mov	r0, #0
 c000f9c:	ebfffdda 	bl	c00070c <Delay>
	rINTMSK = ~(BIT_GLOBAL);  //enable interrupt mask vector
 c000fa0:	e59f301c 	ldr	r3, [pc, #28]	; c000fc4 <sys_init+0x6c>
 c000fa4:	e3e02301 	mvn	r2, #67108864	; 0x4000000
 c000fa8:	e5832000 	str	r2, [r3]
}
 c000fac:	e24bd00c 	sub	sp, fp, #12
 c000fb0:	e89d6800 	ldm	sp, {fp, sp, lr}
 c000fb4:	e12fff1e 	bx	lr
 c000fb8:	01e00008 	.word	0x01e00008
 c000fbc:	01e00024 	.word	0x01e00024
 c000fc0:	01d20054 	.word	0x01d20054
 c000fc4:	01e0000c 	.word	0x01e0000c

0c000fc8 <D8Led_init>:
static int
	Symbol[size_8led] = {cero, uno, dos, tres, cuatro, cinco, seis, siete, ocho, nueve, A, B, C, D, E, F, blank};

/*--- cdigo de las funciones ---*/
void D8Led_init(void)
{
 c000fc8:	e1a0c00d 	mov	ip, sp
 c000fcc:	e92dd800 	push	{fp, ip, lr, pc}
 c000fd0:	e24cb004 	sub	fp, ip, #4
	/* Estado inicial del display con todos los segmentos iluminados
	   (buscar en los ficheros de cabecera la direccion implicada) */
	LED8ADDR = (unsigned char)cero;
 c000fd4:	e3a03785 	mov	r3, #34865152	; 0x2140000
 c000fd8:	e3a02012 	mov	r2, #18
 c000fdc:	e5c32000 	strb	r2, [r3]
}
 c000fe0:	e24bd00c 	sub	sp, fp, #12
 c000fe4:	e89d6800 	ldm	sp, {fp, sp, lr}
 c000fe8:	e12fff1e 	bx	lr

0c000fec <D8Led_symbol>:

void D8Led_symbol(int value)
{
 c000fec:	e1a0c00d 	mov	ip, sp
 c000ff0:	e92dd800 	push	{fp, ip, lr, pc}
 c000ff4:	e24cb004 	sub	fp, ip, #4
 c000ff8:	e24dd008 	sub	sp, sp, #8
 c000ffc:	e50b0010 	str	r0, [fp, #-16]
	/* muestra el Symbol[value] en el display (analogo al caso anterior) */
	if ((value >= 0) && (value < size_8led))
 c001000:	e51b3010 	ldr	r3, [fp, #-16]
 c001004:	e3530000 	cmp	r3, #0
 c001008:	ba000008 	blt	c001030 <D8Led_symbol+0x44>
 c00100c:	e51b3010 	ldr	r3, [fp, #-16]
 c001010:	e3530010 	cmp	r3, #16
 c001014:	ca000005 	bgt	c001030 <D8Led_symbol+0x44>
	{
		LED8ADDR = (unsigned char)Symbol[value];
 c001018:	e3a03785 	mov	r3, #34865152	; 0x2140000
 c00101c:	e59f2018 	ldr	r2, [pc, #24]	; c00103c <D8Led_symbol+0x50>
 c001020:	e51b1010 	ldr	r1, [fp, #-16]
 c001024:	e7922101 	ldr	r2, [r2, r1, lsl #2]
 c001028:	e20220ff 	and	r2, r2, #255	; 0xff
 c00102c:	e5c32000 	strb	r2, [r3]
	}
}
 c001030:	e24bd00c 	sub	sp, fp, #12
 c001034:	e89d6800 	ldm	sp, {fp, sp, lr}
 c001038:	e12fff1e 	bx	lr
 c00103c:	0c00a3d4 	.word	0x0c00a3d4

0c001040 <BitmapView>:
* ret:		none
* modify:
* comment:		
*********************************************************************************************/
void BitmapView (INT16U x, INT16U y, STRU_BITMAP Stru_Bitmap)
{
 c001040:	e1a0c00d 	mov	ip, sp
 c001044:	e24dd008 	sub	sp, sp, #8
 c001048:	e92dd800 	push	{fp, ip, lr, pc}
 c00104c:	e24cb00c 	sub	fp, ip, #12
 c001050:	e24dd018 	sub	sp, sp, #24
 c001054:	e28bc004 	add	ip, fp, #4
 c001058:	e88c000c 	stm	ip, {r2, r3}
 c00105c:	e14b01be 	strh	r0, [fp, #-30]	; 0xffffffe2
 c001060:	e14b12b0 	strh	r1, [fp, #-32]	; 0xffffffe0
	INT32U i, j;
	INT8U ucColor;
	
	for (i =  0; i < Stru_Bitmap.usHeight; i++)
 c001064:	e3a03000 	mov	r3, #0
 c001068:	e50b3010 	str	r3, [fp, #-16]
 c00106c:	ea00004e 	b	c0011ac <BitmapView+0x16c>
	{
		for (j = 0; j <Stru_Bitmap.usWidth; j++)
 c001070:	e3a03000 	mov	r3, #0
 c001074:	e50b3014 	str	r3, [fp, #-20]	; 0xffffffec
 c001078:	ea000043 	b	c00118c <BitmapView+0x14c>
		{
			if ((ucColor = *(INT8U*)(Stru_Bitmap.pucStart + i * Stru_Bitmap.usWidth + j)) != TRANSPARENCY)
 c00107c:	e59b2010 	ldr	r2, [fp, #16]
 c001080:	e1db30b6 	ldrh	r3, [fp, #6]
 c001084:	e51b1010 	ldr	r1, [fp, #-16]
 c001088:	e0010193 	mul	r1, r3, r1
 c00108c:	e51b3014 	ldr	r3, [fp, #-20]	; 0xffffffec
 c001090:	e0813003 	add	r3, r1, r3
 c001094:	e0823003 	add	r3, r2, r3
 c001098:	e5d33000 	ldrb	r3, [r3]
 c00109c:	e54b3015 	strb	r3, [fp, #-21]	; 0xffffffeb
 c0010a0:	e55b3015 	ldrb	r3, [fp, #-21]	; 0xffffffeb
 c0010a4:	e35300ff 	cmp	r3, #255	; 0xff
 c0010a8:	0a000034 	beq	c001180 <BitmapView+0x140>
			{
				LCD_PutPixel(x + j, y + i, ucColor); 
 c0010ac:	e15b22b0 	ldrh	r2, [fp, #-32]	; 0xffffffe0
 c0010b0:	e51b3010 	ldr	r3, [fp, #-16]
 c0010b4:	e0822003 	add	r2, r2, r3
 c0010b8:	e1a03002 	mov	r3, r2
 c0010bc:	e1a03103 	lsl	r3, r3, #2
 c0010c0:	e0833002 	add	r3, r3, r2
 c0010c4:	e1a03303 	lsl	r3, r3, #6
 c0010c8:	e1a020a3 	lsr	r2, r3, #1
 c0010cc:	e15b11be 	ldrh	r1, [fp, #-30]	; 0xffffffe2
 c0010d0:	e51b3014 	ldr	r3, [fp, #-20]	; 0xffffffec
 c0010d4:	e0813003 	add	r3, r1, r3
 c0010d8:	e1a031a3 	lsr	r3, r3, #3
 c0010dc:	e1a03103 	lsl	r3, r3, #2
 c0010e0:	e0823003 	add	r3, r2, r3
 c0010e4:	e28336c3 	add	r3, r3, #204472320	; 0xc300000
 c0010e8:	e2833c96 	add	r3, r3, #38400	; 0x9600
 c0010ec:	e1a01003 	mov	r1, r3
 c0010f0:	e15b22b0 	ldrh	r2, [fp, #-32]	; 0xffffffe0
 c0010f4:	e51b3010 	ldr	r3, [fp, #-16]
 c0010f8:	e0822003 	add	r2, r2, r3
 c0010fc:	e1a03002 	mov	r3, r2
 c001100:	e1a03103 	lsl	r3, r3, #2
 c001104:	e0833002 	add	r3, r3, r2
 c001108:	e1a03303 	lsl	r3, r3, #6
 c00110c:	e1a020a3 	lsr	r2, r3, #1
 c001110:	e15b01be 	ldrh	r0, [fp, #-30]	; 0xffffffe2
 c001114:	e51b3014 	ldr	r3, [fp, #-20]	; 0xffffffec
 c001118:	e0803003 	add	r3, r0, r3
 c00111c:	e1a031a3 	lsr	r3, r3, #3
 c001120:	e1a03103 	lsl	r3, r3, #2
 c001124:	e0823003 	add	r3, r2, r3
 c001128:	e28336c3 	add	r3, r3, #204472320	; 0xc300000
 c00112c:	e2833c96 	add	r3, r3, #38400	; 0x9600
 c001130:	e5932000 	ldr	r2, [r3]
 c001134:	e15b01be 	ldrh	r0, [fp, #-30]	; 0xffffffe2
 c001138:	e51b3014 	ldr	r3, [fp, #-20]	; 0xffffffec
 c00113c:	e0803003 	add	r3, r0, r3
 c001140:	e2033007 	and	r3, r3, #7
 c001144:	e1a03103 	lsl	r3, r3, #2
 c001148:	e3a0020f 	mov	r0, #-268435456	; 0xf0000000
 c00114c:	e1a03330 	lsr	r3, r0, r3
 c001150:	e1e03003 	mvn	r3, r3
 c001154:	e0022003 	and	r2, r2, r3
 c001158:	e55b0015 	ldrb	r0, [fp, #-21]	; 0xffffffeb
 c00115c:	e15bc1be 	ldrh	ip, [fp, #-30]	; 0xffffffe2
 c001160:	e51b3014 	ldr	r3, [fp, #-20]	; 0xffffffec
 c001164:	e08c3003 	add	r3, ip, r3
 c001168:	e1e03003 	mvn	r3, r3
 c00116c:	e2033007 	and	r3, r3, #7
 c001170:	e1a03103 	lsl	r3, r3, #2
 c001174:	e1a03310 	lsl	r3, r0, r3
 c001178:	e1823003 	orr	r3, r2, r3
 c00117c:	e5813000 	str	r3, [r1]
	INT32U i, j;
	INT8U ucColor;
	
	for (i =  0; i < Stru_Bitmap.usHeight; i++)
	{
		for (j = 0; j <Stru_Bitmap.usWidth; j++)
 c001180:	e51b3014 	ldr	r3, [fp, #-20]	; 0xffffffec
 c001184:	e2833001 	add	r3, r3, #1
 c001188:	e50b3014 	str	r3, [fp, #-20]	; 0xffffffec
 c00118c:	e1db30b6 	ldrh	r3, [fp, #6]
 c001190:	e1a02003 	mov	r2, r3
 c001194:	e51b3014 	ldr	r3, [fp, #-20]	; 0xffffffec
 c001198:	e1520003 	cmp	r2, r3
 c00119c:	8affffb6 	bhi	c00107c <BitmapView+0x3c>
void BitmapView (INT16U x, INT16U y, STRU_BITMAP Stru_Bitmap)
{
	INT32U i, j;
	INT8U ucColor;
	
	for (i =  0; i < Stru_Bitmap.usHeight; i++)
 c0011a0:	e51b3010 	ldr	r3, [fp, #-16]
 c0011a4:	e2833001 	add	r3, r3, #1
 c0011a8:	e50b3010 	str	r3, [fp, #-16]
 c0011ac:	e1db30b8 	ldrh	r3, [fp, #8]
 c0011b0:	e1a02003 	mov	r2, r3
 c0011b4:	e51b3010 	ldr	r3, [fp, #-16]
 c0011b8:	e1520003 	cmp	r2, r3
 c0011bc:	8affffab 	bhi	c001070 <BitmapView+0x30>
			{
				LCD_PutPixel(x + j, y + i, ucColor); 
			}
		}
	}
}
 c0011c0:	e24bd00c 	sub	sp, fp, #12
 c0011c4:	e89d6800 	ldm	sp, {fp, sp, lr}
 c0011c8:	e12fff1e 	bx	lr

0c0011cc <BitmapPush>:
* ret:		none
* modify:
* comment:		
*********************************************************************************************/
void BitmapPush (INT16U x, INT16U y, STRU_BITMAP Stru_Bitmap)
{
 c0011cc:	e1a0c00d 	mov	ip, sp
 c0011d0:	e24dd008 	sub	sp, sp, #8
 c0011d4:	e92dd800 	push	{fp, ip, lr, pc}
 c0011d8:	e24cb00c 	sub	fp, ip, #12
 c0011dc:	e24dd010 	sub	sp, sp, #16
 c0011e0:	e28bc004 	add	ip, fp, #4
 c0011e4:	e88c000c 	stm	ip, {r2, r3}
 c0011e8:	e14b01b6 	strh	r0, [fp, #-22]	; 0xffffffea
 c0011ec:	e14b11b8 	strh	r1, [fp, #-24]	; 0xffffffe8
	INT32U i, j;

	ulMouseX = x; 
 c0011f0:	e59f3234 	ldr	r3, [pc, #564]	; c00142c <BitmapPush+0x260>
 c0011f4:	e15b21b6 	ldrh	r2, [fp, #-22]	; 0xffffffea
 c0011f8:	e1c320b0 	strh	r2, [r3]
	ulMouseY = y;
 c0011fc:	e59f322c 	ldr	r3, [pc, #556]	; c001430 <BitmapPush+0x264>
 c001200:	e15b21b8 	ldrh	r2, [fp, #-24]	; 0xffffffe8
 c001204:	e1c320b0 	strh	r2, [r3]
	for (i =  0; i < Stru_Bitmap.usHeight; i++)
 c001208:	e3a03000 	mov	r3, #0
 c00120c:	e50b3010 	str	r3, [fp, #-16]
 c001210:	ea00007d 	b	c00140c <BitmapPush+0x240>
	{
		for (j = 0; j < Stru_Bitmap.usWidth; j+=2)
 c001214:	e3a03000 	mov	r3, #0
 c001218:	e50b3014 	str	r3, [fp, #-20]	; 0xffffffec
 c00121c:	ea000072 	b	c0013ec <BitmapPush+0x220>
		{
			if ((x + j)%2)
 c001220:	e15b21b6 	ldrh	r2, [fp, #-22]	; 0xffffffea
 c001224:	e51b3014 	ldr	r3, [fp, #-20]	; 0xffffffec
 c001228:	e0823003 	add	r3, r2, r3
 c00122c:	e2033001 	and	r3, r3, #1
 c001230:	e20330ff 	and	r3, r3, #255	; 0xff
 c001234:	e3530000 	cmp	r3, #0
 c001238:	0a000044 	beq	c001350 <BitmapPush+0x184>
			{
				ucCursorBackUp[i][j/2] =
 c00123c:	e51b3014 	ldr	r3, [fp, #-20]	; 0xffffffec
 c001240:	e1a0c0a3 	lsr	ip, r3, #1
				(((*(INT8U*)(LCD_ACTIVE_BUFFER + (y + i) * SCR_XSIZE / 2 + (x + j) / 8 * 4  + 3 - ((x + j)%8) / 2)) << 4) & 0xf0) + 
 c001244:	e15b21b8 	ldrh	r2, [fp, #-24]	; 0xffffffe8
 c001248:	e51b3010 	ldr	r3, [fp, #-16]
 c00124c:	e0822003 	add	r2, r2, r3
 c001250:	e1a03002 	mov	r3, r2
 c001254:	e1a03103 	lsl	r3, r3, #2
 c001258:	e0833002 	add	r3, r3, r2
 c00125c:	e1a03303 	lsl	r3, r3, #6
 c001260:	e1a020a3 	lsr	r2, r3, #1
 c001264:	e15b11b6 	ldrh	r1, [fp, #-22]	; 0xffffffea
 c001268:	e51b3014 	ldr	r3, [fp, #-20]	; 0xffffffec
 c00126c:	e0813003 	add	r3, r1, r3
 c001270:	e1a031a3 	lsr	r3, r3, #3
 c001274:	e1a03103 	lsl	r3, r3, #2
 c001278:	e0822003 	add	r2, r2, r3
 c00127c:	e15b11b6 	ldrh	r1, [fp, #-22]	; 0xffffffea
 c001280:	e51b3014 	ldr	r3, [fp, #-20]	; 0xffffffec
 c001284:	e0813003 	add	r3, r1, r3
 c001288:	e2033007 	and	r3, r3, #7
 c00128c:	e1a030a3 	lsr	r3, r3, #1
 c001290:	e2633000 	rsb	r3, r3, #0
 c001294:	e0823003 	add	r3, r2, r3
 c001298:	e28336c3 	add	r3, r3, #204472320	; 0xc300000
 c00129c:	e2833003 	add	r3, r3, #3
 c0012a0:	e5d33000 	ldrb	r3, [r3]
 c0012a4:	e1a03203 	lsl	r3, r3, #4
	{
		for (j = 0; j < Stru_Bitmap.usWidth; j+=2)
		{
			if ((x + j)%2)
			{
				ucCursorBackUp[i][j/2] =
 c0012a8:	e20310ff 	and	r1, r3, #255	; 0xff
				(((*(INT8U*)(LCD_ACTIVE_BUFFER + (y + i) * SCR_XSIZE / 2 + (x + j) / 8 * 4  + 3 - ((x + j)%8) / 2)) << 4) & 0xf0) + 
				(((*(INT8U*)(LCD_ACTIVE_BUFFER + (y + i) * SCR_XSIZE / 2 + (x + j+1) / 8 * 4  + 3 - ((x + j+1)%8) / 2)) >> 4) & 0x0f);
 c0012ac:	e15b21b8 	ldrh	r2, [fp, #-24]	; 0xffffffe8
 c0012b0:	e51b3010 	ldr	r3, [fp, #-16]
 c0012b4:	e0822003 	add	r2, r2, r3
 c0012b8:	e1a03002 	mov	r3, r2
 c0012bc:	e1a03103 	lsl	r3, r3, #2
 c0012c0:	e0833002 	add	r3, r3, r2
 c0012c4:	e1a03303 	lsl	r3, r3, #6
 c0012c8:	e1a020a3 	lsr	r2, r3, #1
 c0012cc:	e15b01b6 	ldrh	r0, [fp, #-22]	; 0xffffffea
 c0012d0:	e51b3014 	ldr	r3, [fp, #-20]	; 0xffffffec
 c0012d4:	e0803003 	add	r3, r0, r3
 c0012d8:	e2833001 	add	r3, r3, #1
 c0012dc:	e1a031a3 	lsr	r3, r3, #3
 c0012e0:	e1a03103 	lsl	r3, r3, #2
 c0012e4:	e0822003 	add	r2, r2, r3
 c0012e8:	e15b01b6 	ldrh	r0, [fp, #-22]	; 0xffffffea
 c0012ec:	e51b3014 	ldr	r3, [fp, #-20]	; 0xffffffec
 c0012f0:	e0803003 	add	r3, r0, r3
 c0012f4:	e2833001 	add	r3, r3, #1
 c0012f8:	e2033007 	and	r3, r3, #7
 c0012fc:	e1a030a3 	lsr	r3, r3, #1
 c001300:	e2633000 	rsb	r3, r3, #0
 c001304:	e0823003 	add	r3, r2, r3
 c001308:	e28336c3 	add	r3, r3, #204472320	; 0xc300000
 c00130c:	e2833003 	add	r3, r3, #3
 c001310:	e5d33000 	ldrb	r3, [r3]
	{
		for (j = 0; j < Stru_Bitmap.usWidth; j+=2)
		{
			if ((x + j)%2)
			{
				ucCursorBackUp[i][j/2] =
 c001314:	e1a03223 	lsr	r3, r3, #4
 c001318:	e20330ff 	and	r3, r3, #255	; 0xff
 c00131c:	e0813003 	add	r3, r1, r3
 c001320:	e20310ff 	and	r1, r3, #255	; 0xff
 c001324:	e59f0108 	ldr	r0, [pc, #264]	; c001434 <BitmapPush+0x268>
 c001328:	e51b2010 	ldr	r2, [fp, #-16]
 c00132c:	e1a03002 	mov	r3, r2
 c001330:	e1a03083 	lsl	r3, r3, #1
 c001334:	e0833002 	add	r3, r3, r2
 c001338:	e1a03083 	lsl	r3, r3, #1
 c00133c:	e083300c 	add	r3, r3, ip
 c001340:	e0803003 	add	r3, r0, r3
 c001344:	e1a02001 	mov	r2, r1
 c001348:	e5c32000 	strb	r2, [r3]
 c00134c:	ea000023 	b	c0013e0 <BitmapPush+0x214>
				(((*(INT8U*)(LCD_ACTIVE_BUFFER + (y + i) * SCR_XSIZE / 2 + (x + j) / 8 * 4  + 3 - ((x + j)%8) / 2)) << 4) & 0xf0) + 
				(((*(INT8U*)(LCD_ACTIVE_BUFFER + (y + i) * SCR_XSIZE / 2 + (x + j+1) / 8 * 4  + 3 - ((x + j+1)%8) / 2)) >> 4) & 0x0f);
			}
			else
			{
				ucCursorBackUp[i][j/2] = (*(INT8U*)(LCD_ACTIVE_BUFFER + (y + i) * SCR_XSIZE / 2 + (x + j) / 8 * 4  + 3 - ((x + j)%8) / 2));
 c001350:	e51b3014 	ldr	r3, [fp, #-20]	; 0xffffffec
 c001354:	e1a0c0a3 	lsr	ip, r3, #1
 c001358:	e15b21b8 	ldrh	r2, [fp, #-24]	; 0xffffffe8
 c00135c:	e51b3010 	ldr	r3, [fp, #-16]
 c001360:	e0822003 	add	r2, r2, r3
 c001364:	e1a03002 	mov	r3, r2
 c001368:	e1a03103 	lsl	r3, r3, #2
 c00136c:	e0833002 	add	r3, r3, r2
 c001370:	e1a03303 	lsl	r3, r3, #6
 c001374:	e1a020a3 	lsr	r2, r3, #1
 c001378:	e15b11b6 	ldrh	r1, [fp, #-22]	; 0xffffffea
 c00137c:	e51b3014 	ldr	r3, [fp, #-20]	; 0xffffffec
 c001380:	e0813003 	add	r3, r1, r3
 c001384:	e1a031a3 	lsr	r3, r3, #3
 c001388:	e1a03103 	lsl	r3, r3, #2
 c00138c:	e0822003 	add	r2, r2, r3
 c001390:	e15b11b6 	ldrh	r1, [fp, #-22]	; 0xffffffea
 c001394:	e51b3014 	ldr	r3, [fp, #-20]	; 0xffffffec
 c001398:	e0813003 	add	r3, r1, r3
 c00139c:	e2033007 	and	r3, r3, #7
 c0013a0:	e1a030a3 	lsr	r3, r3, #1
 c0013a4:	e2633000 	rsb	r3, r3, #0
 c0013a8:	e0823003 	add	r3, r2, r3
 c0013ac:	e28336c3 	add	r3, r3, #204472320	; 0xc300000
 c0013b0:	e2833003 	add	r3, r3, #3
 c0013b4:	e5d31000 	ldrb	r1, [r3]
 c0013b8:	e59f0074 	ldr	r0, [pc, #116]	; c001434 <BitmapPush+0x268>
 c0013bc:	e51b2010 	ldr	r2, [fp, #-16]
 c0013c0:	e1a03002 	mov	r3, r2
 c0013c4:	e1a03083 	lsl	r3, r3, #1
 c0013c8:	e0833002 	add	r3, r3, r2
 c0013cc:	e1a03083 	lsl	r3, r3, #1
 c0013d0:	e083300c 	add	r3, r3, ip
 c0013d4:	e0803003 	add	r3, r0, r3
 c0013d8:	e1a02001 	mov	r2, r1
 c0013dc:	e5c32000 	strb	r2, [r3]

	ulMouseX = x; 
	ulMouseY = y;
	for (i =  0; i < Stru_Bitmap.usHeight; i++)
	{
		for (j = 0; j < Stru_Bitmap.usWidth; j+=2)
 c0013e0:	e51b3014 	ldr	r3, [fp, #-20]	; 0xffffffec
 c0013e4:	e2833002 	add	r3, r3, #2
 c0013e8:	e50b3014 	str	r3, [fp, #-20]	; 0xffffffec
 c0013ec:	e1db30b6 	ldrh	r3, [fp, #6]
 c0013f0:	e1a02003 	mov	r2, r3
 c0013f4:	e51b3014 	ldr	r3, [fp, #-20]	; 0xffffffec
 c0013f8:	e1520003 	cmp	r2, r3
 c0013fc:	8affff87 	bhi	c001220 <BitmapPush+0x54>
{
	INT32U i, j;

	ulMouseX = x; 
	ulMouseY = y;
	for (i =  0; i < Stru_Bitmap.usHeight; i++)
 c001400:	e51b3010 	ldr	r3, [fp, #-16]
 c001404:	e2833001 	add	r3, r3, #1
 c001408:	e50b3010 	str	r3, [fp, #-16]
 c00140c:	e1db30b8 	ldrh	r3, [fp, #8]
 c001410:	e1a02003 	mov	r2, r3
 c001414:	e51b3010 	ldr	r3, [fp, #-16]
 c001418:	e1520003 	cmp	r2, r3
 c00141c:	8affff7c 	bhi	c001214 <BitmapPush+0x48>
			{
				ucCursorBackUp[i][j/2] = (*(INT8U*)(LCD_ACTIVE_BUFFER + (y + i) * SCR_XSIZE / 2 + (x + j) / 8 * 4  + 3 - ((x + j)%8) / 2));
			}
		}
	}
}
 c001420:	e24bd00c 	sub	sp, fp, #12
 c001424:	e89d6800 	ldm	sp, {fp, sp, lr}
 c001428:	e12fff1e 	bx	lr
 c00142c:	0c00cdf2 	.word	0x0c00cdf2
 c001430:	0c00cdf0 	.word	0x0c00cdf0
 c001434:	0c00cd78 	.word	0x0c00cd78

0c001438 <BitmapPop>:
* ret:		none
* modify:
* comment:		
*********************************************************************************************/
void BitmapPop(INT16U x, INT16U y, STRU_BITMAP Stru_Bitmap)
{
 c001438:	e1a0c00d 	mov	ip, sp
 c00143c:	e24dd008 	sub	sp, sp, #8
 c001440:	e92dd810 	push	{r4, fp, ip, lr, pc}
 c001444:	e24cb00c 	sub	fp, ip, #12
 c001448:	e24dd01c 	sub	sp, sp, #28
 c00144c:	e28bc004 	add	ip, fp, #4
 c001450:	e88c000c 	stm	ip, {r2, r3}
 c001454:	e14b02b6 	strh	r0, [fp, #-38]	; 0xffffffda
 c001458:	e14b12b8 	strh	r1, [fp, #-40]	; 0xffffffd8
	INT32U i, j;
	INT32U ulAddr, ulAddr1;

	for (i =  0; i < Stru_Bitmap.usHeight; i++)
 c00145c:	e3a03000 	mov	r3, #0
 c001460:	e50b3018 	str	r3, [fp, #-24]	; 0xffffffe8
 c001464:	ea00008d 	b	c0016a0 <BitmapPop+0x268>
	{
		for (j = 0; j <Stru_Bitmap.usWidth; j+=2)
 c001468:	e3a03000 	mov	r3, #0
 c00146c:	e50b301c 	str	r3, [fp, #-28]	; 0xffffffe4
 c001470:	ea000082 	b	c001680 <BitmapPop+0x248>
		{
			ulAddr = LCD_ACTIVE_BUFFER + (y + i) * SCR_XSIZE / 2 + (x + j) / 8 * 4 + 3 - ((x + j)%8) / 2;
 c001474:	e15b22b8 	ldrh	r2, [fp, #-40]	; 0xffffffd8
 c001478:	e51b3018 	ldr	r3, [fp, #-24]	; 0xffffffe8
 c00147c:	e0822003 	add	r2, r2, r3
 c001480:	e1a03002 	mov	r3, r2
 c001484:	e1a03103 	lsl	r3, r3, #2
 c001488:	e0833002 	add	r3, r3, r2
 c00148c:	e1a03303 	lsl	r3, r3, #6
 c001490:	e1a020a3 	lsr	r2, r3, #1
 c001494:	e15b12b6 	ldrh	r1, [fp, #-38]	; 0xffffffda
 c001498:	e51b301c 	ldr	r3, [fp, #-28]	; 0xffffffe4
 c00149c:	e0813003 	add	r3, r1, r3
 c0014a0:	e1a031a3 	lsr	r3, r3, #3
 c0014a4:	e1a03103 	lsl	r3, r3, #2
 c0014a8:	e0822003 	add	r2, r2, r3
 c0014ac:	e15b12b6 	ldrh	r1, [fp, #-38]	; 0xffffffda
 c0014b0:	e51b301c 	ldr	r3, [fp, #-28]	; 0xffffffe4
 c0014b4:	e0813003 	add	r3, r1, r3
 c0014b8:	e2033007 	and	r3, r3, #7
 c0014bc:	e1a030a3 	lsr	r3, r3, #1
 c0014c0:	e2633000 	rsb	r3, r3, #0
 c0014c4:	e0823003 	add	r3, r2, r3
 c0014c8:	e28336c3 	add	r3, r3, #204472320	; 0xc300000
 c0014cc:	e2833003 	add	r3, r3, #3
 c0014d0:	e50b3020 	str	r3, [fp, #-32]	; 0xffffffe0
			ulAddr1 =LCD_ACTIVE_BUFFER + (y + i) * SCR_XSIZE / 2 + (x + j + 1) / 8 * 4 + 3 - ((x + j + 1)%8) / 2;
 c0014d4:	e15b22b8 	ldrh	r2, [fp, #-40]	; 0xffffffd8
 c0014d8:	e51b3018 	ldr	r3, [fp, #-24]	; 0xffffffe8
 c0014dc:	e0822003 	add	r2, r2, r3
 c0014e0:	e1a03002 	mov	r3, r2
 c0014e4:	e1a03103 	lsl	r3, r3, #2
 c0014e8:	e0833002 	add	r3, r3, r2
 c0014ec:	e1a03303 	lsl	r3, r3, #6
 c0014f0:	e1a020a3 	lsr	r2, r3, #1
 c0014f4:	e15b12b6 	ldrh	r1, [fp, #-38]	; 0xffffffda
 c0014f8:	e51b301c 	ldr	r3, [fp, #-28]	; 0xffffffe4
 c0014fc:	e0813003 	add	r3, r1, r3
 c001500:	e2833001 	add	r3, r3, #1
 c001504:	e1a031a3 	lsr	r3, r3, #3
 c001508:	e1a03103 	lsl	r3, r3, #2
 c00150c:	e0822003 	add	r2, r2, r3
 c001510:	e15b12b6 	ldrh	r1, [fp, #-38]	; 0xffffffda
 c001514:	e51b301c 	ldr	r3, [fp, #-28]	; 0xffffffe4
 c001518:	e0813003 	add	r3, r1, r3
 c00151c:	e2833001 	add	r3, r3, #1
 c001520:	e2033007 	and	r3, r3, #7
 c001524:	e1a030a3 	lsr	r3, r3, #1
 c001528:	e2633000 	rsb	r3, r3, #0
 c00152c:	e0823003 	add	r3, r2, r3
 c001530:	e28336c3 	add	r3, r3, #204472320	; 0xc300000
 c001534:	e2833003 	add	r3, r3, #3
 c001538:	e50b3024 	str	r3, [fp, #-36]	; 0xffffffdc
			if ((x + j)%2)
 c00153c:	e15b22b6 	ldrh	r2, [fp, #-38]	; 0xffffffda
 c001540:	e51b301c 	ldr	r3, [fp, #-28]	; 0xffffffe4
 c001544:	e0823003 	add	r3, r2, r3
 c001548:	e2033001 	and	r3, r3, #1
 c00154c:	e20330ff 	and	r3, r3, #255	; 0xff
 c001550:	e3530000 	cmp	r3, #0
 c001554:	0a000039 	beq	c001640 <BitmapPop+0x208>
			{
				
				(*(INT8U*)ulAddr) &= 0xf0;
 c001558:	e51b3020 	ldr	r3, [fp, #-32]	; 0xffffffe0
 c00155c:	e51b2020 	ldr	r2, [fp, #-32]	; 0xffffffe0
 c001560:	e5d22000 	ldrb	r2, [r2]
 c001564:	e3c2200f 	bic	r2, r2, #15
 c001568:	e20220ff 	and	r2, r2, #255	; 0xff
 c00156c:	e5c32000 	strb	r2, [r3]
				(*(INT8U*)ulAddr) |= ((ucCursorBackUp[i][j/2] >> 4) & 0x0f);
 c001570:	e51b1020 	ldr	r1, [fp, #-32]	; 0xffffffe0
 c001574:	e51b3020 	ldr	r3, [fp, #-32]	; 0xffffffe0
 c001578:	e5d33000 	ldrb	r3, [r3]
 c00157c:	e20300ff 	and	r0, r3, #255	; 0xff
 c001580:	e51b301c 	ldr	r3, [fp, #-28]	; 0xffffffe4
 c001584:	e1a040a3 	lsr	r4, r3, #1
 c001588:	e59fc130 	ldr	ip, [pc, #304]	; c0016c0 <BitmapPop+0x288>
 c00158c:	e51b2018 	ldr	r2, [fp, #-24]	; 0xffffffe8
 c001590:	e1a03002 	mov	r3, r2
 c001594:	e1a03083 	lsl	r3, r3, #1
 c001598:	e0833002 	add	r3, r3, r2
 c00159c:	e1a03083 	lsl	r3, r3, #1
 c0015a0:	e0833004 	add	r3, r3, r4
 c0015a4:	e08c3003 	add	r3, ip, r3
 c0015a8:	e5d33000 	ldrb	r3, [r3]
 c0015ac:	e1a03223 	lsr	r3, r3, #4
 c0015b0:	e20330ff 	and	r3, r3, #255	; 0xff
 c0015b4:	e20330ff 	and	r3, r3, #255	; 0xff
 c0015b8:	e1a02000 	mov	r2, r0
 c0015bc:	e1823003 	orr	r3, r2, r3
 c0015c0:	e20330ff 	and	r3, r3, #255	; 0xff
 c0015c4:	e20330ff 	and	r3, r3, #255	; 0xff
 c0015c8:	e5c13000 	strb	r3, [r1]
				(*(INT8U*)ulAddr1) &= 0x0f;
 c0015cc:	e51b3024 	ldr	r3, [fp, #-36]	; 0xffffffdc
 c0015d0:	e51b2024 	ldr	r2, [fp, #-36]	; 0xffffffdc
 c0015d4:	e5d22000 	ldrb	r2, [r2]
 c0015d8:	e202200f 	and	r2, r2, #15
 c0015dc:	e20220ff 	and	r2, r2, #255	; 0xff
 c0015e0:	e5c32000 	strb	r2, [r3]
				(*(INT8U*)ulAddr1) |= ((ucCursorBackUp[i][j/2] << 4) & 0xf0);
 c0015e4:	e51b1024 	ldr	r1, [fp, #-36]	; 0xffffffdc
 c0015e8:	e51b3024 	ldr	r3, [fp, #-36]	; 0xffffffdc
 c0015ec:	e5d33000 	ldrb	r3, [r3]
 c0015f0:	e20300ff 	and	r0, r3, #255	; 0xff
 c0015f4:	e51b301c 	ldr	r3, [fp, #-28]	; 0xffffffe4
 c0015f8:	e1a040a3 	lsr	r4, r3, #1
 c0015fc:	e59fc0bc 	ldr	ip, [pc, #188]	; c0016c0 <BitmapPop+0x288>
 c001600:	e51b2018 	ldr	r2, [fp, #-24]	; 0xffffffe8
 c001604:	e1a03002 	mov	r3, r2
 c001608:	e1a03083 	lsl	r3, r3, #1
 c00160c:	e0833002 	add	r3, r3, r2
 c001610:	e1a03083 	lsl	r3, r3, #1
 c001614:	e0833004 	add	r3, r3, r4
 c001618:	e08c3003 	add	r3, ip, r3
 c00161c:	e5d33000 	ldrb	r3, [r3]
 c001620:	e1a03203 	lsl	r3, r3, #4
 c001624:	e20330ff 	and	r3, r3, #255	; 0xff
 c001628:	e1a02000 	mov	r2, r0
 c00162c:	e1823003 	orr	r3, r2, r3
 c001630:	e20330ff 	and	r3, r3, #255	; 0xff
 c001634:	e20330ff 	and	r3, r3, #255	; 0xff
 c001638:	e5c13000 	strb	r3, [r1]
 c00163c:	ea00000c 	b	c001674 <BitmapPop+0x23c>
			}
			else
			{
				(*(INT8U*)ulAddr) = ucCursorBackUp[i][j/2];
 c001640:	e51b1020 	ldr	r1, [fp, #-32]	; 0xffffffe0
 c001644:	e51b301c 	ldr	r3, [fp, #-28]	; 0xffffffe4
 c001648:	e1a0c0a3 	lsr	ip, r3, #1
 c00164c:	e59f006c 	ldr	r0, [pc, #108]	; c0016c0 <BitmapPop+0x288>
 c001650:	e51b2018 	ldr	r2, [fp, #-24]	; 0xffffffe8
 c001654:	e1a03002 	mov	r3, r2
 c001658:	e1a03083 	lsl	r3, r3, #1
 c00165c:	e0833002 	add	r3, r3, r2
 c001660:	e1a03083 	lsl	r3, r3, #1
 c001664:	e083300c 	add	r3, r3, ip
 c001668:	e0803003 	add	r3, r0, r3
 c00166c:	e5d33000 	ldrb	r3, [r3]
 c001670:	e5c13000 	strb	r3, [r1]
	INT32U i, j;
	INT32U ulAddr, ulAddr1;

	for (i =  0; i < Stru_Bitmap.usHeight; i++)
	{
		for (j = 0; j <Stru_Bitmap.usWidth; j+=2)
 c001674:	e51b301c 	ldr	r3, [fp, #-28]	; 0xffffffe4
 c001678:	e2833002 	add	r3, r3, #2
 c00167c:	e50b301c 	str	r3, [fp, #-28]	; 0xffffffe4
 c001680:	e1db30b6 	ldrh	r3, [fp, #6]
 c001684:	e1a02003 	mov	r2, r3
 c001688:	e51b301c 	ldr	r3, [fp, #-28]	; 0xffffffe4
 c00168c:	e1520003 	cmp	r2, r3
 c001690:	8affff77 	bhi	c001474 <BitmapPop+0x3c>
void BitmapPop(INT16U x, INT16U y, STRU_BITMAP Stru_Bitmap)
{
	INT32U i, j;
	INT32U ulAddr, ulAddr1;

	for (i =  0; i < Stru_Bitmap.usHeight; i++)
 c001694:	e51b3018 	ldr	r3, [fp, #-24]	; 0xffffffe8
 c001698:	e2833001 	add	r3, r3, #1
 c00169c:	e50b3018 	str	r3, [fp, #-24]	; 0xffffffe8
 c0016a0:	e1db30b8 	ldrh	r3, [fp, #8]
 c0016a4:	e1a02003 	mov	r2, r3
 c0016a8:	e51b3018 	ldr	r3, [fp, #-24]	; 0xffffffe8
 c0016ac:	e1520003 	cmp	r2, r3
 c0016b0:	8affff6c 	bhi	c001468 <BitmapPop+0x30>
				(*(INT8U*)ulAddr) = ucCursorBackUp[i][j/2];
			}
			
		}
	}
}
 c0016b4:	e24bd010 	sub	sp, fp, #16
 c0016b8:	e89d6810 	ldm	sp, {r4, fp, sp, lr}
 c0016bc:	e12fff1e 	bx	lr
 c0016c0:	0c00cd78 	.word	0x0c00cd78

0c0016c4 <CursorInit>:
* ret:		none
* modify:
* comment:		
*********************************************************************************************/
void CursorInit(void)
{
 c0016c4:	e1a0c00d 	mov	ip, sp
 c0016c8:	e92dd800 	push	{fp, ip, lr, pc}
 c0016cc:	e24cb004 	sub	fp, ip, #4
	ulMouseX = 0;
 c0016d0:	e59f3038 	ldr	r3, [pc, #56]	; c001710 <CursorInit+0x4c>
 c0016d4:	e3a02000 	mov	r2, #0
 c0016d8:	e1c320b0 	strh	r2, [r3]
	ulMouseY = 0;
 c0016dc:	e59f3030 	ldr	r3, [pc, #48]	; c001714 <CursorInit+0x50>
 c0016e0:	e3a02000 	mov	r2, #0
 c0016e4:	e1c320b0 	strh	r2, [r3]
	CursorView(ulMouseX, ulMouseY);
 c0016e8:	e59f3020 	ldr	r3, [pc, #32]	; c001710 <CursorInit+0x4c>
 c0016ec:	e1d320b0 	ldrh	r2, [r3]
 c0016f0:	e59f301c 	ldr	r3, [pc, #28]	; c001714 <CursorInit+0x50>
 c0016f4:	e1d330b0 	ldrh	r3, [r3]
 c0016f8:	e1a00002 	mov	r0, r2
 c0016fc:	e1a01003 	mov	r1, r3
 c001700:	eb000032 	bl	c0017d0 <CursorView>
}
 c001704:	e24bd00c 	sub	sp, fp, #12
 c001708:	e89d6800 	ldm	sp, {fp, sp, lr}
 c00170c:	e12fff1e 	bx	lr
 c001710:	0c00cdf2 	.word	0x0c00cdf2
 c001714:	0c00cdf0 	.word	0x0c00cdf0

0c001718 <CursorPush>:
* ret:		none
* modify:
* comment:		
*********************************************************************************************/
void CursorPush(INT16U x, INT16U y)
{
 c001718:	e1a0c00d 	mov	ip, sp
 c00171c:	e92dd800 	push	{fp, ip, lr, pc}
 c001720:	e24cb004 	sub	fp, ip, #4
 c001724:	e24dd010 	sub	sp, sp, #16
 c001728:	e1a02000 	mov	r2, r0
 c00172c:	e1a03001 	mov	r3, r1
 c001730:	e14b20be 	strh	r2, [fp, #-14]
 c001734:	e14b31b0 	strh	r3, [fp, #-16]
	BitmapPush(x, y, Stru_Bitmap_gbMouse);
 c001738:	e15be0be 	ldrh	lr, [fp, #-14]
 c00173c:	e15bc1b0 	ldrh	ip, [fp, #-16]
 c001740:	e59f3028 	ldr	r3, [pc, #40]	; c001770 <CursorPush+0x58>
 c001744:	e1a0200d 	mov	r2, sp
 c001748:	e2831008 	add	r1, r3, #8
 c00174c:	e8910003 	ldm	r1, {r0, r1}
 c001750:	e8820003 	stm	r2, {r0, r1}
 c001754:	e893000c 	ldm	r3, {r2, r3}
 c001758:	e1a0000e 	mov	r0, lr
 c00175c:	e1a0100c 	mov	r1, ip
 c001760:	ebfffe99 	bl	c0011cc <BitmapPush>
}
 c001764:	e24bd00c 	sub	sp, fp, #12
 c001768:	e89d6800 	ldm	sp, {fp, sp, lr}
 c00176c:	e12fff1e 	bx	lr
 c001770:	0c00a418 	.word	0x0c00a418

0c001774 <CursorPop>:
* ret:		none
* modify:
* comment:		
*********************************************************************************************/
void CursorPop()
{
 c001774:	e1a0c00d 	mov	ip, sp
 c001778:	e92dd800 	push	{fp, ip, lr, pc}
 c00177c:	e24cb004 	sub	fp, ip, #4
 c001780:	e24dd008 	sub	sp, sp, #8
	BitmapPop(ulMouseX, ulMouseY, Stru_Bitmap_gbMouse);
 c001784:	e59f3038 	ldr	r3, [pc, #56]	; c0017c4 <CursorPop+0x50>
 c001788:	e1d3e0b0 	ldrh	lr, [r3]
 c00178c:	e59f3034 	ldr	r3, [pc, #52]	; c0017c8 <CursorPop+0x54>
 c001790:	e1d3c0b0 	ldrh	ip, [r3]
 c001794:	e59f3030 	ldr	r3, [pc, #48]	; c0017cc <CursorPop+0x58>
 c001798:	e1a0200d 	mov	r2, sp
 c00179c:	e2831008 	add	r1, r3, #8
 c0017a0:	e8910003 	ldm	r1, {r0, r1}
 c0017a4:	e8820003 	stm	r2, {r0, r1}
 c0017a8:	e893000c 	ldm	r3, {r2, r3}
 c0017ac:	e1a0000e 	mov	r0, lr
 c0017b0:	e1a0100c 	mov	r1, ip
 c0017b4:	ebffff1f 	bl	c001438 <BitmapPop>
}
 c0017b8:	e24bd00c 	sub	sp, fp, #12
 c0017bc:	e89d6800 	ldm	sp, {fp, sp, lr}
 c0017c0:	e12fff1e 	bx	lr
 c0017c4:	0c00cdf2 	.word	0x0c00cdf2
 c0017c8:	0c00cdf0 	.word	0x0c00cdf0
 c0017cc:	0c00a418 	.word	0x0c00a418

0c0017d0 <CursorView>:
* ret:		none
* modify:
* comment:		
*********************************************************************************************/
void CursorView(INT16U x, INT16U y)
{
 c0017d0:	e1a0c00d 	mov	ip, sp
 c0017d4:	e92dd800 	push	{fp, ip, lr, pc}
 c0017d8:	e24cb004 	sub	fp, ip, #4
 c0017dc:	e24dd010 	sub	sp, sp, #16
 c0017e0:	e1a02000 	mov	r2, r0
 c0017e4:	e1a03001 	mov	r3, r1
 c0017e8:	e14b20be 	strh	r2, [fp, #-14]
 c0017ec:	e14b31b0 	strh	r3, [fp, #-16]
	CursorPush(x, y);
 c0017f0:	e15b20be 	ldrh	r2, [fp, #-14]
 c0017f4:	e15b31b0 	ldrh	r3, [fp, #-16]
 c0017f8:	e1a00002 	mov	r0, r2
 c0017fc:	e1a01003 	mov	r1, r3
 c001800:	ebffffc4 	bl	c001718 <CursorPush>
	BitmapView(x, y, Stru_Bitmap_gbMouse);
 c001804:	e15be0be 	ldrh	lr, [fp, #-14]
 c001808:	e15bc1b0 	ldrh	ip, [fp, #-16]
 c00180c:	e59f3028 	ldr	r3, [pc, #40]	; c00183c <CursorView+0x6c>
 c001810:	e1a0200d 	mov	r2, sp
 c001814:	e2831008 	add	r1, r3, #8
 c001818:	e8910003 	ldm	r1, {r0, r1}
 c00181c:	e8820003 	stm	r2, {r0, r1}
 c001820:	e893000c 	ldm	r3, {r2, r3}
 c001824:	e1a0000e 	mov	r0, lr
 c001828:	e1a0100c 	mov	r1, ip
 c00182c:	ebfffe03 	bl	c001040 <BitmapView>
}
 c001830:	e24bd00c 	sub	sp, fp, #12
 c001834:	e89d6800 	ldm	sp, {fp, sp, lr}
 c001838:	e12fff1e 	bx	lr
 c00183c:	0c00a418 	.word	0x0c00a418

0c001840 <celda_poner_valor>:
    /* Poner a 1 el bit correspondiente para marcar NO candidato */
    *celdaptr |= (uint16_t)(1u << (BIT_CANDIDATOS + (valor - 1)));
}

static inline void celda_poner_valor(CELDA *celdaptr, uint8_t val)
{
 c001840:	e1a0c00d 	mov	ip, sp
 c001844:	e92dd800 	push	{fp, ip, lr, pc}
 c001848:	e24cb004 	sub	fp, ip, #4
 c00184c:	e24dd008 	sub	sp, sp, #8
 c001850:	e50b0010 	str	r0, [fp, #-16]
 c001854:	e1a03001 	mov	r3, r1
 c001858:	e54b3011 	strb	r3, [fp, #-17]	; 0xffffffef
    /* Mantener los bits altos (candidatos/flags) y escribir valor en bits [3:0] */
    *celdaptr = (uint16_t)((*celdaptr & 0xFFF0u) | (val & 0x0Fu));
 c00185c:	e51b3010 	ldr	r3, [fp, #-16]
 c001860:	e1d330b0 	ldrh	r3, [r3]
 c001864:	e3c3300f 	bic	r3, r3, #15
 c001868:	e1a03803 	lsl	r3, r3, #16
 c00186c:	e1a02823 	lsr	r2, r3, #16
 c001870:	e55b3011 	ldrb	r3, [fp, #-17]	; 0xffffffef
 c001874:	e1a03803 	lsl	r3, r3, #16
 c001878:	e1a03823 	lsr	r3, r3, #16
 c00187c:	e203300f 	and	r3, r3, #15
 c001880:	e1a03803 	lsl	r3, r3, #16
 c001884:	e1a03823 	lsr	r3, r3, #16
 c001888:	e1823003 	orr	r3, r2, r3
 c00188c:	e1a03803 	lsl	r3, r3, #16
 c001890:	e1a02823 	lsr	r2, r3, #16
 c001894:	e51b3010 	ldr	r3, [fp, #-16]
 c001898:	e1c320b0 	strh	r2, [r3]
}
 c00189c:	e24bd00c 	sub	sp, fp, #12
 c0018a0:	e89d6800 	ldm	sp, {fp, sp, lr}
 c0018a4:	e12fff1e 	bx	lr

0c0018a8 <Eint4567_ISR>:
/**
 * ISR EINT4567
 */
void Eint4567_ISR(void) __attribute__((interrupt("IRQ")));
void Eint4567_ISR(void)
{
 c0018a8:	e52dc004 	push	{ip}		; (str ip, [sp, #-4]!)
 c0018ac:	e1a0c00d 	mov	ip, sp
 c0018b0:	e92dd80f 	push	{r0, r1, r2, r3, fp, ip, lr, pc}
 c0018b4:	e24cb004 	sub	fp, ip, #4
 c0018b8:	e24dd008 	sub	sp, sp, #8
    int which_int = rEXTINTPND;
 c0018bc:	e59f3198 	ldr	r3, [pc, #408]	; c001a5c <Eint4567_ISR+0x1b4>
 c0018c0:	e5933000 	ldr	r3, [r3]
 c0018c4:	e50b3024 	str	r3, [fp, #-36]	; 0xffffffdc
    // Para el calculo del TRP y TRD
    tiempo_inicio = timer2_count();
 c0018c8:	eb001cfd 	bl	c008cc4 <timer2_count>
 c0018cc:	e1a02000 	mov	r2, r0
 c0018d0:	e59f3188 	ldr	r3, [pc, #392]	; c001a60 <Eint4567_ISR+0x1b8>
 c0018d4:	e5832000 	str	r2, [r3]

    int i;

    for (i = 0; i < NUM_BOTONES; i++)
 c0018d8:	e3a03000 	mov	r3, #0
 c0018dc:	e50b3020 	str	r3, [fp, #-32]	; 0xffffffe0
 c0018e0:	ea00004c 	b	c001a18 <Eint4567_ISR+0x170>
    {
        if (which_int == botones[i].codigo_int && botones[i].estado == e_reposo)
 c0018e4:	e59f0178 	ldr	r0, [pc, #376]	; c001a64 <Eint4567_ISR+0x1bc>
 c0018e8:	e51b2020 	ldr	r2, [fp, #-32]	; 0xffffffe0
 c0018ec:	e3a01008 	mov	r1, #8
 c0018f0:	e1a03002 	mov	r3, r2
 c0018f4:	e1a03083 	lsl	r3, r3, #1
 c0018f8:	e0833002 	add	r3, r3, r2
 c0018fc:	e1a03183 	lsl	r3, r3, #3
 c001900:	e0803003 	add	r3, r0, r3
 c001904:	e0833001 	add	r3, r3, r1
 c001908:	e5d33000 	ldrb	r3, [r3]
 c00190c:	e1a02003 	mov	r2, r3
 c001910:	e51b3024 	ldr	r3, [fp, #-36]	; 0xffffffdc
 c001914:	e1520003 	cmp	r2, r3
 c001918:	1a00003b 	bne	c001a0c <Eint4567_ISR+0x164>
 c00191c:	e59f1140 	ldr	r1, [pc, #320]	; c001a64 <Eint4567_ISR+0x1bc>
 c001920:	e51b2020 	ldr	r2, [fp, #-32]	; 0xffffffe0
 c001924:	e1a03002 	mov	r3, r2
 c001928:	e1a03083 	lsl	r3, r3, #1
 c00192c:	e0833002 	add	r3, r3, r2
 c001930:	e1a03183 	lsl	r3, r3, #3
 c001934:	e0813003 	add	r3, r1, r3
 c001938:	e5d33000 	ldrb	r3, [r3]
 c00193c:	e3530000 	cmp	r3, #0
 c001940:	1a000031 	bne	c001a0c <Eint4567_ISR+0x164>
        {
            // Para el calculo del TRP y TRD
            cola_depuracion(2, tiempo_inicio, 2);
 c001944:	e59f3114 	ldr	r3, [pc, #276]	; c001a60 <Eint4567_ISR+0x1b8>
 c001948:	e5933000 	ldr	r3, [r3]
 c00194c:	e3a00002 	mov	r0, #2
 c001950:	e1a01003 	mov	r1, r3
 c001954:	e3a02002 	mov	r2, #2
 c001958:	eb000c6f 	bl	c004b1c <cola_depuracion>

            botones[i].estado = e_entrando;
 c00195c:	e59f1100 	ldr	r1, [pc, #256]	; c001a64 <Eint4567_ISR+0x1bc>
 c001960:	e51b2020 	ldr	r2, [fp, #-32]	; 0xffffffe0
 c001964:	e1a03002 	mov	r3, r2
 c001968:	e1a03083 	lsl	r3, r3, #1
 c00196c:	e0833002 	add	r3, r3, r2
 c001970:	e1a03183 	lsl	r3, r3, #3
 c001974:	e0813003 	add	r3, r1, r3
 c001978:	e3a02001 	mov	r2, #1
 c00197c:	e5c32000 	strb	r2, [r3]

            rINTMSK |= BIT_EINT4567;
 c001980:	e59f30e0 	ldr	r3, [pc, #224]	; c001a68 <Eint4567_ISR+0x1c0>
 c001984:	e59f20dc 	ldr	r2, [pc, #220]	; c001a68 <Eint4567_ISR+0x1c0>
 c001988:	e5922000 	ldr	r2, [r2]
 c00198c:	e3822602 	orr	r2, r2, #2097152	; 0x200000
 c001990:	e5832000 	str	r2, [r3]
            botones[i].timer = timer2_count() + TRP;
 c001994:	eb001cca 	bl	c008cc4 <timer2_count>
 c001998:	e1a03000 	mov	r3, r0
 c00199c:	e2832bc3 	add	r2, r3, #199680	; 0x30c00
 c0019a0:	e2822d05 	add	r2, r2, #320	; 0x140
 c0019a4:	e59fc0b8 	ldr	ip, [pc, #184]	; c001a64 <Eint4567_ISR+0x1bc>
 c0019a8:	e51b1020 	ldr	r1, [fp, #-32]	; 0xffffffe0
 c0019ac:	e3a00004 	mov	r0, #4
 c0019b0:	e1a03001 	mov	r3, r1
 c0019b4:	e1a03083 	lsl	r3, r3, #1
 c0019b8:	e0833001 	add	r3, r3, r1
 c0019bc:	e1a03183 	lsl	r3, r3, #3
 c0019c0:	e08c3003 	add	r3, ip, r3
 c0019c4:	e0833000 	add	r3, r3, r0
 c0019c8:	e5832000 	str	r2, [r3]

            // CAMBIO: Cualquier botn puede iniciar el juego
            if (estado_juego == ESTADO_INICIAL)
 c0019cc:	e59f3098 	ldr	r3, [pc, #152]	; c001a6c <Eint4567_ISR+0x1c4>
 c0019d0:	e5d33000 	ldrb	r3, [r3]
 c0019d4:	e3530000 	cmp	r3, #0
 c0019d8:	1a000012 	bne	c001a28 <Eint4567_ISR+0x180>
            {
                juego_iniciado = 1;
 c0019dc:	e59f308c 	ldr	r3, [pc, #140]	; c001a70 <Eint4567_ISR+0x1c8>
 c0019e0:	e3a02001 	mov	r2, #1
 c0019e4:	e5c32000 	strb	r2, [r3]
                // Debug: mostrar qu botn inici
                if (i == BOTON_EINT6)
 c0019e8:	e51b3020 	ldr	r3, [fp, #-32]	; 0xffffffe0
 c0019ec:	e3530000 	cmp	r3, #0
 c0019f0:	1a000002 	bne	c001a00 <Eint4567_ISR+0x158>
                    D8Led_symbol(6); // Botn izquierdo
 c0019f4:	e3a00006 	mov	r0, #6
 c0019f8:	ebfffd7b 	bl	c000fec <D8Led_symbol>
                else
                    D8Led_symbol(7); // Botn derecho
            }

            break;
 c0019fc:	ea00000a 	b	c001a2c <Eint4567_ISR+0x184>
                juego_iniciado = 1;
                // Debug: mostrar qu botn inici
                if (i == BOTON_EINT6)
                    D8Led_symbol(6); // Botn izquierdo
                else
                    D8Led_symbol(7); // Botn derecho
 c001a00:	e3a00007 	mov	r0, #7
 c001a04:	ebfffd78 	bl	c000fec <D8Led_symbol>
            }

            break;
 c001a08:	ea000007 	b	c001a2c <Eint4567_ISR+0x184>
    // Para el calculo del TRP y TRD
    tiempo_inicio = timer2_count();

    int i;

    for (i = 0; i < NUM_BOTONES; i++)
 c001a0c:	e51b3020 	ldr	r3, [fp, #-32]	; 0xffffffe0
 c001a10:	e2833001 	add	r3, r3, #1
 c001a14:	e50b3020 	str	r3, [fp, #-32]	; 0xffffffe0
 c001a18:	e51b3020 	ldr	r3, [fp, #-32]	; 0xffffffe0
 c001a1c:	e3530001 	cmp	r3, #1
 c001a20:	daffffaf 	ble	c0018e4 <Eint4567_ISR+0x3c>
 c001a24:	ea000000 	b	c001a2c <Eint4567_ISR+0x184>
                    D8Led_symbol(6); // Botn izquierdo
                else
                    D8Led_symbol(7); // Botn derecho
            }

            break;
 c001a28:	e1a00000 	nop			; (mov r0, r0)
        }
    }

    rEXTINTPND = 0xf;
 c001a2c:	e59f3028 	ldr	r3, [pc, #40]	; c001a5c <Eint4567_ISR+0x1b4>
 c001a30:	e3a0200f 	mov	r2, #15
 c001a34:	e5832000 	str	r2, [r3]
    rI_ISPC |= BIT_EINT4567;
 c001a38:	e59f3034 	ldr	r3, [pc, #52]	; c001a74 <Eint4567_ISR+0x1cc>
 c001a3c:	e59f2030 	ldr	r2, [pc, #48]	; c001a74 <Eint4567_ISR+0x1cc>
 c001a40:	e5922000 	ldr	r2, [r2]
 c001a44:	e3822602 	orr	r2, r2, #2097152	; 0x200000
 c001a48:	e5832000 	str	r2, [r3]
}
 c001a4c:	e24bd01c 	sub	sp, fp, #28
 c001a50:	e89d680f 	ldm	sp, {r0, r1, r2, r3, fp, sp, lr}
 c001a54:	e49dc004 	pop	{ip}		; (ldr ip, [sp], #4)
 c001a58:	e25ef004 	subs	pc, lr, #4
 c001a5c:	01d20054 	.word	0x01d20054
 c001a60:	0c00cd3c 	.word	0x0c00cd3c
 c001a64:	0c00a428 	.word	0x0c00a428
 c001a68:	01e0000c 	.word	0x01e0000c
 c001a6c:	0c00cd28 	.word	0x0c00cd28
 c001a70:	0c00cd2d 	.word	0x0c00cd2d
 c001a74:	01e00024 	.word	0x01e00024

0c001a78 <Eint1_ISR>:
/**
 * ISR EINT1
 */
void Eint1_ISR(void) __attribute__((interrupt("IRQ")));
void Eint1_ISR(void)
{
 c001a78:	e52dc004 	push	{ip}		; (str ip, [sp, #-4]!)
 c001a7c:	e1a0c00d 	mov	ip, sp
 c001a80:	e92dd80f 	push	{r0, r1, r2, r3, fp, ip, lr, pc}
 c001a84:	e24cb004 	sub	fp, ip, #4
    // CAMBIO: Quitamos la condicin "estado_juego != ESTADO_INICIAL"
    // para que el teclado funcione al principio y pueda despertar el juego.
    if (estado_juego != ESTADO_MOSTRANDO_ERROR &&
 c001a88:	e59f3070 	ldr	r3, [pc, #112]	; c001b00 <Eint1_ISR+0x88>
 c001a8c:	e5d33000 	ldrb	r3, [r3]
 c001a90:	e3530004 	cmp	r3, #4
 c001a94:	0a00000c 	beq	c001acc <Eint1_ISR+0x54>
        teclado_estado == TECLADO_REPOSO)
 c001a98:	e59f3064 	ldr	r3, [pc, #100]	; c001b04 <Eint1_ISR+0x8c>
 c001a9c:	e5d33000 	ldrb	r3, [r3]
void Eint1_ISR(void) __attribute__((interrupt("IRQ")));
void Eint1_ISR(void)
{
    // CAMBIO: Quitamos la condicin "estado_juego != ESTADO_INICIAL"
    // para que el teclado funcione al principio y pueda despertar el juego.
    if (estado_juego != ESTADO_MOSTRANDO_ERROR &&
 c001aa0:	e3530000 	cmp	r3, #0
 c001aa4:	1a000008 	bne	c001acc <Eint1_ISR+0x54>
        teclado_estado == TECLADO_REPOSO)
    {
        teclado_estado = TECLADO_ESPERANDO_TRP;
 c001aa8:	e59f3054 	ldr	r3, [pc, #84]	; c001b04 <Eint1_ISR+0x8c>
 c001aac:	e3a02001 	mov	r2, #1
 c001ab0:	e5c32000 	strb	r2, [r3]
        teclado_timer = timer2_count() + TECLADO_TRP_US;
 c001ab4:	eb001c82 	bl	c008cc4 <timer2_count>
 c001ab8:	e1a03000 	mov	r3, r0
 c001abc:	e2833c4e 	add	r3, r3, #19968	; 0x4e00
 c001ac0:	e2833020 	add	r3, r3, #32
 c001ac4:	e59f203c 	ldr	r2, [pc, #60]	; c001b08 <Eint1_ISR+0x90>
 c001ac8:	e5823000 	str	r3, [r2]
    }

    rINTPND = BIT_EINT1;
 c001acc:	e59f3038 	ldr	r3, [pc, #56]	; c001b0c <Eint1_ISR+0x94>
 c001ad0:	e3a02401 	mov	r2, #16777216	; 0x1000000
 c001ad4:	e5832000 	str	r2, [r3]
    rEXTINTPND = (1 << 1);
 c001ad8:	e59f3030 	ldr	r3, [pc, #48]	; c001b10 <Eint1_ISR+0x98>
 c001adc:	e3a02002 	mov	r2, #2
 c001ae0:	e5832000 	str	r2, [r3]
    rI_ISPC = BIT_EINT1;
 c001ae4:	e59f3028 	ldr	r3, [pc, #40]	; c001b14 <Eint1_ISR+0x9c>
 c001ae8:	e3a02401 	mov	r2, #16777216	; 0x1000000
 c001aec:	e5832000 	str	r2, [r3]
}
 c001af0:	e24bd01c 	sub	sp, fp, #28
 c001af4:	e89d680f 	ldm	sp, {r0, r1, r2, r3, fp, sp, lr}
 c001af8:	e49dc004 	pop	{ip}		; (ldr ip, [sp], #4)
 c001afc:	e25ef004 	subs	pc, lr, #4
 c001b00:	0c00cd28 	.word	0x0c00cd28
 c001b04:	0c00cd36 	.word	0x0c00cd36
 c001b08:	0c00cd38 	.word	0x0c00cd38
 c001b0c:	01e00004 	.word	0x01e00004
 c001b10:	01d20054 	.word	0x01d20054
 c001b14:	01e00024 	.word	0x01e00024

0c001b18 <Eint4567_init>:
/**
 * Inicializacin general EINT y configuracin de pines
 * Llama a eint1_init() al final.
 */
void Eint4567_init(void)
{
 c001b18:	e1a0c00d 	mov	ip, sp
 c001b1c:	e92dd800 	push	{fp, ip, lr, pc}
 c001b20:	e24cb004 	sub	fp, ip, #4
    rI_ISPC = 0x3ffffff;
 c001b24:	e59f30a8 	ldr	r3, [pc, #168]	; c001bd4 <Eint4567_init+0xbc>
 c001b28:	e3e0233f 	mvn	r2, #-67108864	; 0xfc000000
 c001b2c:	e5832000 	str	r2, [r3]
    rEXTINTPND = 0xf;
 c001b30:	e59f30a0 	ldr	r3, [pc, #160]	; c001bd8 <Eint4567_init+0xc0>
 c001b34:	e3a0200f 	mov	r2, #15
 c001b38:	e5832000 	str	r2, [r3]
    rINTMOD = 0x0;
 c001b3c:	e59f3098 	ldr	r3, [pc, #152]	; c001bdc <Eint4567_init+0xc4>
 c001b40:	e3a02000 	mov	r2, #0
 c001b44:	e5832000 	str	r2, [r3]
    rINTCON = 0x1;
 c001b48:	e3a0361e 	mov	r3, #31457280	; 0x1e00000
 c001b4c:	e3a02001 	mov	r2, #1
 c001b50:	e5832000 	str	r2, [r3]
    rINTMSK &= ~(BIT_EINT4567);
 c001b54:	e59f3084 	ldr	r3, [pc, #132]	; c001be0 <Eint4567_init+0xc8>
 c001b58:	e59f2080 	ldr	r2, [pc, #128]	; c001be0 <Eint4567_init+0xc8>
 c001b5c:	e5922000 	ldr	r2, [r2]
 c001b60:	e3c22602 	bic	r2, r2, #2097152	; 0x200000
 c001b64:	e5832000 	str	r2, [r3]
    pISR_EINT4567 = (int)Eint4567_ISR;
 c001b68:	e59f3074 	ldr	r3, [pc, #116]	; c001be4 <Eint4567_init+0xcc>
 c001b6c:	e59f2074 	ldr	r2, [pc, #116]	; c001be8 <Eint4567_init+0xd0>
 c001b70:	e5832000 	str	r2, [r3]

    rPCONG = 0xffff;
 c001b74:	e59f3070 	ldr	r3, [pc, #112]	; c001bec <Eint4567_init+0xd4>
 c001b78:	e59f2070 	ldr	r2, [pc, #112]	; c001bf0 <Eint4567_init+0xd8>
 c001b7c:	e5832000 	str	r2, [r3]
    rPUPG = 0x0;
 c001b80:	e59f306c 	ldr	r3, [pc, #108]	; c001bf4 <Eint4567_init+0xdc>
 c001b84:	e3a02000 	mov	r2, #0
 c001b88:	e5832000 	str	r2, [r3]
    rEXTINT = rEXTINT | 0x22222222;
 c001b8c:	e59f2064 	ldr	r2, [pc, #100]	; c001bf8 <Eint4567_init+0xe0>
 c001b90:	e59f3060 	ldr	r3, [pc, #96]	; c001bf8 <Eint4567_init+0xe0>
 c001b94:	e5931000 	ldr	r1, [r3]
 c001b98:	e59f305c 	ldr	r3, [pc, #92]	; c001bfc <Eint4567_init+0xe4>
 c001b9c:	e1813003 	orr	r3, r1, r3
 c001ba0:	e5823000 	str	r3, [r2]

    rEXTINTPND = 0xf;
 c001ba4:	e59f302c 	ldr	r3, [pc, #44]	; c001bd8 <Eint4567_init+0xc0>
 c001ba8:	e3a0200f 	mov	r2, #15
 c001bac:	e5832000 	str	r2, [r3]
    rI_ISPC |= BIT_EINT4567;
 c001bb0:	e59f301c 	ldr	r3, [pc, #28]	; c001bd4 <Eint4567_init+0xbc>
 c001bb4:	e59f2018 	ldr	r2, [pc, #24]	; c001bd4 <Eint4567_init+0xbc>
 c001bb8:	e5922000 	ldr	r2, [r2]
 c001bbc:	e3822602 	orr	r2, r2, #2097152	; 0x200000
 c001bc0:	e5832000 	str	r2, [r3]

    eint1_init();
 c001bc4:	eb00000d 	bl	c001c00 <eint1_init>
}
 c001bc8:	e24bd00c 	sub	sp, fp, #12
 c001bcc:	e89d6800 	ldm	sp, {fp, sp, lr}
 c001bd0:	e12fff1e 	bx	lr
 c001bd4:	01e00024 	.word	0x01e00024
 c001bd8:	01d20054 	.word	0x01d20054
 c001bdc:	01e00008 	.word	0x01e00008
 c001be0:	01e0000c 	.word	0x01e0000c
 c001be4:	0c7fff74 	.word	0x0c7fff74
 c001be8:	0c0018a8 	.word	0x0c0018a8
 c001bec:	01d20040 	.word	0x01d20040
 c001bf0:	0000ffff 	.word	0x0000ffff
 c001bf4:	01d20048 	.word	0x01d20048
 c001bf8:	01d20050 	.word	0x01d20050
 c001bfc:	22222222 	.word	0x22222222

0c001c00 <eint1_init>:
/**
 * Inicializar submdulo teclado
 * Configura EINT1 y el manejo de filas para el escaneo.
 */
void eint1_init(void)
{
 c001c00:	e1a0c00d 	mov	ip, sp
 c001c04:	e92dd800 	push	{fp, ip, lr, pc}
 c001c08:	e24cb004 	sub	fp, ip, #4
    rEXTINT = (rEXTINT & ~(7 << 4)) | (2 << 4);
 c001c0c:	e59f3054 	ldr	r3, [pc, #84]	; c001c68 <eint1_init+0x68>
 c001c10:	e59f2050 	ldr	r2, [pc, #80]	; c001c68 <eint1_init+0x68>
 c001c14:	e5922000 	ldr	r2, [r2]
 c001c18:	e3c22070 	bic	r2, r2, #112	; 0x70
 c001c1c:	e3822020 	orr	r2, r2, #32
 c001c20:	e5832000 	str	r2, [r3]
    pISR_EINT1 = (int)Eint1_ISR;
 c001c24:	e59f3040 	ldr	r3, [pc, #64]	; c001c6c <eint1_init+0x6c>
 c001c28:	e59f2040 	ldr	r2, [pc, #64]	; c001c70 <eint1_init+0x70>
 c001c2c:	e5832000 	str	r2, [r3]
    rINTMSK &= ~BIT_EINT1;
 c001c30:	e59f303c 	ldr	r3, [pc, #60]	; c001c74 <eint1_init+0x74>
 c001c34:	e59f2038 	ldr	r2, [pc, #56]	; c001c74 <eint1_init+0x74>
 c001c38:	e5922000 	ldr	r2, [r2]
 c001c3c:	e3c22401 	bic	r2, r2, #16777216	; 0x1000000
 c001c40:	e5832000 	str	r2, [r3]
    rEXTINTPND = (1 << 1);
 c001c44:	e59f302c 	ldr	r3, [pc, #44]	; c001c78 <eint1_init+0x78>
 c001c48:	e3a02002 	mov	r2, #2
 c001c4c:	e5832000 	str	r2, [r3]
    rI_ISPC = BIT_EINT1;
 c001c50:	e59f3024 	ldr	r3, [pc, #36]	; c001c7c <eint1_init+0x7c>
 c001c54:	e3a02401 	mov	r2, #16777216	; 0x1000000
 c001c58:	e5832000 	str	r2, [r3]
}
 c001c5c:	e24bd00c 	sub	sp, fp, #12
 c001c60:	e89d6800 	ldm	sp, {fp, sp, lr}
 c001c64:	e12fff1e 	bx	lr
 c001c68:	01d20050 	.word	0x01d20050
 c001c6c:	0c7fff80 	.word	0x0c7fff80
 c001c70:	0c001a78 	.word	0x0c001a78
 c001c74:	01e0000c 	.word	0x01e0000c
 c001c78:	01d20054 	.word	0x01d20054
 c001c7c:	01e00024 	.word	0x01e00024

0c001c80 <procesar_rebote>:
 * Comportamiento:
 *  - implementa la mquina de estados del antirrebote (entrando, esperando, soltado)
 *  - genera evento_boton_derecho/evento_boton_izquierdo segn corresponda
 */
static void procesar_rebote(int boton)
{
 c001c80:	e1a0c00d 	mov	ip, sp
 c001c84:	e92dd800 	push	{fp, ip, lr, pc}
 c001c88:	e24cb004 	sub	fp, ip, #4
 c001c8c:	e24dd010 	sub	sp, sp, #16
 c001c90:	e50b0018 	str	r0, [fp, #-24]	; 0xffffffe8
    unsigned int ahora = timer2_count();
 c001c94:	eb001c0a 	bl	c008cc4 <timer2_count>
 c001c98:	e50b0010 	str	r0, [fp, #-16]
    contexto_boton_t *ctx = &botones[boton];
 c001c9c:	e51b2018 	ldr	r2, [fp, #-24]	; 0xffffffe8
 c001ca0:	e1a03002 	mov	r3, r2
 c001ca4:	e1a03083 	lsl	r3, r3, #1
 c001ca8:	e0833002 	add	r3, r3, r2
 c001cac:	e1a03183 	lsl	r3, r3, #3
 c001cb0:	e1a02003 	mov	r2, r3
 c001cb4:	e59f3280 	ldr	r3, [pc, #640]	; c001f3c <procesar_rebote+0x2bc>
 c001cb8:	e0823003 	add	r3, r2, r3
 c001cbc:	e50b3014 	str	r3, [fp, #-20]	; 0xffffffec

    switch (ctx->estado)
 c001cc0:	e51b3014 	ldr	r3, [fp, #-20]	; 0xffffffec
 c001cc4:	e5d33000 	ldrb	r3, [r3]
 c001cc8:	e3530003 	cmp	r3, #3
 c001ccc:	979ff103 	ldrls	pc, [pc, r3, lsl #2]
 c001cd0:	ea000096 	b	c001f30 <procesar_rebote+0x2b0>
 c001cd4:	0c001f30 	.word	0x0c001f30
 c001cd8:	0c001ce4 	.word	0x0c001ce4
 c001cdc:	0c001d88 	.word	0x0c001d88
 c001ce0:	0c001e68 	.word	0x0c001e68
    {
    case e_reposo:
        break;

    case e_entrando:
        tiempo_fin = timer2_count();
 c001ce4:	eb001bf6 	bl	c008cc4 <timer2_count>
 c001ce8:	e1a02000 	mov	r2, r0
 c001cec:	e59f324c 	ldr	r3, [pc, #588]	; c001f40 <procesar_rebote+0x2c0>
 c001cf0:	e5832000 	str	r2, [r3]

        resta = tiempo_fin - tiempo_inicio;
 c001cf4:	e59f3244 	ldr	r3, [pc, #580]	; c001f40 <procesar_rebote+0x2c0>
 c001cf8:	e5932000 	ldr	r2, [r3]
 c001cfc:	e59f3240 	ldr	r3, [pc, #576]	; c001f44 <procesar_rebote+0x2c4>
 c001d00:	e5933000 	ldr	r3, [r3]
 c001d04:	e0632002 	rsb	r2, r3, r2
 c001d08:	e59f3238 	ldr	r3, [pc, #568]	; c001f48 <procesar_rebote+0x2c8>
 c001d0c:	e5832000 	str	r2, [r3]
        if ((int)(ahora - ctx->timer) >= 0)
 c001d10:	e51b3014 	ldr	r3, [fp, #-20]	; 0xffffffec
 c001d14:	e5933004 	ldr	r3, [r3, #4]
 c001d18:	e51b2010 	ldr	r2, [fp, #-16]
 c001d1c:	e0633002 	rsb	r3, r3, r2
 c001d20:	e3530000 	cmp	r3, #0
 c001d24:	ba000072 	blt	c001ef4 <procesar_rebote+0x274>
        {
            cola_depuracion(4, resta, 4);
 c001d28:	e59f3218 	ldr	r3, [pc, #536]	; c001f48 <procesar_rebote+0x2c8>
 c001d2c:	e5933000 	ldr	r3, [r3]
 c001d30:	e3a00004 	mov	r0, #4
 c001d34:	e1a01003 	mov	r1, r3
 c001d38:	e3a02004 	mov	r2, #4
 c001d3c:	eb000b76 	bl	c004b1c <cola_depuracion>

            ctx->estado = e_esperando;
 c001d40:	e51b3014 	ldr	r3, [fp, #-20]	; 0xffffffec
 c001d44:	e3a02002 	mov	r2, #2
 c001d48:	e5c32000 	strb	r2, [r3]
            ctx->timer = ahora + TEP;
 c001d4c:	e51b3010 	ldr	r3, [fp, #-16]
 c001d50:	e2833b61 	add	r3, r3, #99328	; 0x18400
 c001d54:	e2833e2a 	add	r3, r3, #672	; 0x2a0
 c001d58:	e51b2014 	ldr	r2, [fp, #-20]	; 0xffffffec
 c001d5c:	e5823004 	str	r3, [r2, #4]
            ctx->inicio_pulsacion = ahora;
 c001d60:	e51b3014 	ldr	r3, [fp, #-20]	; 0xffffffec
 c001d64:	e51b2010 	ldr	r2, [fp, #-16]
 c001d68:	e583200c 	str	r2, [r3, #12]
            ctx->ultimo_auto = ahora;
 c001d6c:	e51b3014 	ldr	r3, [fp, #-20]	; 0xffffffec
 c001d70:	e51b2010 	ldr	r2, [fp, #-16]
 c001d74:	e5832010 	str	r2, [r3, #16]
            ctx->auto_iniciado = 0;
 c001d78:	e51b3014 	ldr	r3, [fp, #-20]	; 0xffffffec
 c001d7c:	e3a02000 	mov	r2, #0
 c001d80:	e5c32014 	strb	r2, [r3, #20]
        }
        break;
 c001d84:	ea000069 	b	c001f30 <procesar_rebote+0x2b0>

    case e_esperando:
        if ((int)(ahora - ctx->timer) >= 0)
 c001d88:	e51b3014 	ldr	r3, [fp, #-20]	; 0xffffffec
 c001d8c:	e5933004 	ldr	r3, [r3, #4]
 c001d90:	e51b2010 	ldr	r2, [fp, #-16]
 c001d94:	e0633002 	rsb	r3, r3, r2
 c001d98:	e3530000 	cmp	r3, #0
 c001d9c:	ba000056 	blt	c001efc <procesar_rebote+0x27c>
        {
            if (leer_estado_boton(boton))
 c001da0:	e51b0018 	ldr	r0, [fp, #-24]	; 0xffffffe8
 c001da4:	eb0000f7 	bl	c002188 <leer_estado_boton>
 c001da8:	e1a03000 	mov	r3, r0
 c001dac:	e3530000 	cmp	r3, #0
 c001db0:	0a000008 	beq	c001dd8 <procesar_rebote+0x158>
            {
                ctx->estado = e_soltado;
 c001db4:	e51b3014 	ldr	r3, [fp, #-20]	; 0xffffffec
 c001db8:	e3a02003 	mov	r2, #3
 c001dbc:	e5c32000 	strb	r2, [r3]
                ctx->timer = ahora + TRD;
 c001dc0:	e51b3010 	ldr	r3, [fp, #-16]
 c001dc4:	e2833cc3 	add	r3, r3, #49920	; 0xc300
 c001dc8:	e2833050 	add	r3, r3, #80	; 0x50
 c001dcc:	e51b2014 	ldr	r2, [fp, #-20]	; 0xffffffec
 c001dd0:	e5823004 	str	r3, [r2, #4]
                        evento_boton_derecho = 1;
                    }
                }
            }
        }
        break;
 c001dd4:	ea000055 	b	c001f30 <procesar_rebote+0x2b0>
                ctx->estado = e_soltado;
                ctx->timer = ahora + TRD;
            }
            else
            {
                ctx->timer = ahora + TEP;
 c001dd8:	e51b3010 	ldr	r3, [fp, #-16]
 c001ddc:	e2833b61 	add	r3, r3, #99328	; 0x18400
 c001de0:	e2833e2a 	add	r3, r3, #672	; 0x2a0
 c001de4:	e51b2014 	ldr	r2, [fp, #-20]	; 0xffffffec
 c001de8:	e5823004 	str	r3, [r2, #4]

                if (boton == BOTON_EINT7)
 c001dec:	e51b3018 	ldr	r3, [fp, #-24]	; 0xffffffe8
 c001df0:	e3530001 	cmp	r3, #1
 c001df4:	1a000042 	bne	c001f04 <procesar_rebote+0x284>
                {
                    if ((ahora - ctx->inicio_pulsacion) >= PULSACION_CORTA_US &&
 c001df8:	e51b3014 	ldr	r3, [fp, #-20]	; 0xffffffec
 c001dfc:	e593300c 	ldr	r3, [r3, #12]
 c001e00:	e51b2010 	ldr	r2, [fp, #-16]
 c001e04:	e0632002 	rsb	r2, r3, r2
 c001e08:	e59f313c 	ldr	r3, [pc, #316]	; c001f4c <procesar_rebote+0x2cc>
 c001e0c:	e1520003 	cmp	r2, r3
 c001e10:	9a00003d 	bls	c001f0c <procesar_rebote+0x28c>
                        (ahora - ctx->ultimo_auto) >= AUTOREP_T_US)
 c001e14:	e51b3014 	ldr	r3, [fp, #-20]	; 0xffffffec
 c001e18:	e5933010 	ldr	r3, [r3, #16]
 c001e1c:	e51b2010 	ldr	r2, [fp, #-16]
 c001e20:	e0632002 	rsb	r2, r3, r2
            {
                ctx->timer = ahora + TEP;

                if (boton == BOTON_EINT7)
                {
                    if ((ahora - ctx->inicio_pulsacion) >= PULSACION_CORTA_US &&
 c001e24:	e59f3124 	ldr	r3, [pc, #292]	; c001f50 <procesar_rebote+0x2d0>
 c001e28:	e1520003 	cmp	r2, r3
 c001e2c:	9a000038 	bls	c001f14 <procesar_rebote+0x294>
                        (ahora - ctx->ultimo_auto) >= AUTOREP_T_US)
                    {
                        ctx->ultimo_auto = ahora;
 c001e30:	e51b3014 	ldr	r3, [fp, #-20]	; 0xffffffec
 c001e34:	e51b2010 	ldr	r2, [fp, #-16]
 c001e38:	e5832010 	str	r2, [r3, #16]
                        if (!ctx->auto_iniciado)
 c001e3c:	e51b3014 	ldr	r3, [fp, #-20]	; 0xffffffec
 c001e40:	e5d33014 	ldrb	r3, [r3, #20]
 c001e44:	e3530000 	cmp	r3, #0
 c001e48:	1a000002 	bne	c001e58 <procesar_rebote+0x1d8>
                            ctx->auto_iniciado = 1;
 c001e4c:	e51b3014 	ldr	r3, [fp, #-20]	; 0xffffffec
 c001e50:	e3a02001 	mov	r2, #1
 c001e54:	e5c32014 	strb	r2, [r3, #20]
                        evento_boton_derecho = 1;
 c001e58:	e59f30f4 	ldr	r3, [pc, #244]	; c001f54 <procesar_rebote+0x2d4>
 c001e5c:	e3a02001 	mov	r2, #1
 c001e60:	e5c32000 	strb	r2, [r3]
                    }
                }
            }
        }
        break;
 c001e64:	ea000031 	b	c001f30 <procesar_rebote+0x2b0>

    case e_soltado:
        if ((int)(ahora - ctx->timer) >= 0)
 c001e68:	e51b3014 	ldr	r3, [fp, #-20]	; 0xffffffec
 c001e6c:	e5933004 	ldr	r3, [r3, #4]
 c001e70:	e51b2010 	ldr	r2, [fp, #-16]
 c001e74:	e0633002 	rsb	r3, r3, r2
 c001e78:	e3530000 	cmp	r3, #0
 c001e7c:	ba000026 	blt	c001f1c <procesar_rebote+0x29c>
        {
            ctx->estado = e_reposo;
 c001e80:	e51b3014 	ldr	r3, [fp, #-20]	; 0xffffffec
 c001e84:	e3a02000 	mov	r2, #0
 c001e88:	e5c32000 	strb	r2, [r3]
            rINTMSK &= ~BIT_EINT4567;
 c001e8c:	e59f30c4 	ldr	r3, [pc, #196]	; c001f58 <procesar_rebote+0x2d8>
 c001e90:	e59f20c0 	ldr	r2, [pc, #192]	; c001f58 <procesar_rebote+0x2d8>
 c001e94:	e5922000 	ldr	r2, [r2]
 c001e98:	e3c22602 	bic	r2, r2, #2097152	; 0x200000
 c001e9c:	e5832000 	str	r2, [r3]
            rEXTINTPND = 0xf;
 c001ea0:	e59f30b4 	ldr	r3, [pc, #180]	; c001f5c <procesar_rebote+0x2dc>
 c001ea4:	e3a0200f 	mov	r2, #15
 c001ea8:	e5832000 	str	r2, [r3]

            if (boton == BOTON_EINT7)
 c001eac:	e51b3018 	ldr	r3, [fp, #-24]	; 0xffffffe8
 c001eb0:	e3530001 	cmp	r3, #1
 c001eb4:	1a000007 	bne	c001ed8 <procesar_rebote+0x258>
            {
                if (!ctx->auto_iniciado)
 c001eb8:	e51b3014 	ldr	r3, [fp, #-20]	; 0xffffffec
 c001ebc:	e5d33014 	ldrb	r3, [r3, #20]
 c001ec0:	e3530000 	cmp	r3, #0
 c001ec4:	1a000016 	bne	c001f24 <procesar_rebote+0x2a4>
                    evento_boton_derecho = 1;
 c001ec8:	e59f3084 	ldr	r3, [pc, #132]	; c001f54 <procesar_rebote+0x2d4>
 c001ecc:	e3a02001 	mov	r2, #1
 c001ed0:	e5c32000 	strb	r2, [r3]
            else if (boton == BOTON_EINT6)
            {
                evento_boton_izquierdo = 1;
            }
        }
        break;
 c001ed4:	ea000015 	b	c001f30 <procesar_rebote+0x2b0>
            if (boton == BOTON_EINT7)
            {
                if (!ctx->auto_iniciado)
                    evento_boton_derecho = 1;
            }
            else if (boton == BOTON_EINT6)
 c001ed8:	e51b3018 	ldr	r3, [fp, #-24]	; 0xffffffe8
 c001edc:	e3530000 	cmp	r3, #0
 c001ee0:	1a000011 	bne	c001f2c <procesar_rebote+0x2ac>
            {
                evento_boton_izquierdo = 1;
 c001ee4:	e59f3074 	ldr	r3, [pc, #116]	; c001f60 <procesar_rebote+0x2e0>
 c001ee8:	e3a02001 	mov	r2, #1
 c001eec:	e5c32000 	strb	r2, [r3]
            }
        }
        break;
 c001ef0:	ea00000e 	b	c001f30 <procesar_rebote+0x2b0>
            ctx->timer = ahora + TEP;
            ctx->inicio_pulsacion = ahora;
            ctx->ultimo_auto = ahora;
            ctx->auto_iniciado = 0;
        }
        break;
 c001ef4:	e1a00000 	nop			; (mov r0, r0)
 c001ef8:	ea00000c 	b	c001f30 <procesar_rebote+0x2b0>
                        evento_boton_derecho = 1;
                    }
                }
            }
        }
        break;
 c001efc:	e1a00000 	nop			; (mov r0, r0)
 c001f00:	ea00000a 	b	c001f30 <procesar_rebote+0x2b0>
 c001f04:	e1a00000 	nop			; (mov r0, r0)
 c001f08:	ea000008 	b	c001f30 <procesar_rebote+0x2b0>
 c001f0c:	e1a00000 	nop			; (mov r0, r0)
 c001f10:	ea000006 	b	c001f30 <procesar_rebote+0x2b0>
 c001f14:	e1a00000 	nop			; (mov r0, r0)
 c001f18:	ea000004 	b	c001f30 <procesar_rebote+0x2b0>
            else if (boton == BOTON_EINT6)
            {
                evento_boton_izquierdo = 1;
            }
        }
        break;
 c001f1c:	e1a00000 	nop			; (mov r0, r0)
 c001f20:	ea000002 	b	c001f30 <procesar_rebote+0x2b0>
 c001f24:	e1a00000 	nop			; (mov r0, r0)
 c001f28:	ea000000 	b	c001f30 <procesar_rebote+0x2b0>
 c001f2c:	e1a00000 	nop			; (mov r0, r0)
    }
}
 c001f30:	e24bd00c 	sub	sp, fp, #12
 c001f34:	e89d6800 	ldm	sp, {fp, sp, lr}
 c001f38:	e12fff1e 	bx	lr
 c001f3c:	0c00a428 	.word	0x0c00a428
 c001f40:	0c00cd40 	.word	0x0c00cd40
 c001f44:	0c00cd3c 	.word	0x0c00cd3c
 c001f48:	0c00cd44 	.word	0x0c00cd44
 c001f4c:	0007a11f 	.word	0x0007a11f
 c001f50:	000493df 	.word	0x000493df
 c001f54:	0c00cd2b 	.word	0x0c00cd2b
 c001f58:	01e0000c 	.word	0x01e0000c
 c001f5c:	01d20054 	.word	0x01d20054
 c001f60:	0c00cd2c 	.word	0x0c00cd2c

0c001f64 <procesar_maquina_estados_botones>:
/**
 * Procesar mquina de estados del juego
 * Llama al manejador correspondiente segn estado_juego.
 */
void procesar_maquina_estados_botones(void)
{
 c001f64:	e1a0c00d 	mov	ip, sp
 c001f68:	e92dd800 	push	{fp, ip, lr, pc}
 c001f6c:	e24cb004 	sub	fp, ip, #4
    switch (estado_juego)
 c001f70:	e59f30c0 	ldr	r3, [pc, #192]	; c002038 <procesar_maquina_estados_botones+0xd4>
 c001f74:	e5d33000 	ldrb	r3, [r3]
 c001f78:	e3530004 	cmp	r3, #4
 c001f7c:	979ff103 	ldrls	pc, [pc, r3, lsl #2]
 c001f80:	ea000029 	b	c00202c <procesar_maquina_estados_botones+0xc8>
 c001f84:	0c001f98 	.word	0x0c001f98
 c001f88:	0c001fa0 	.word	0x0c001fa0
 c001f8c:	0c001fbc 	.word	0x0c001fbc
 c001f90:	0c001fd8 	.word	0x0c001fd8
 c001f94:	0c001ff4 	.word	0x0c001ff4
    {
    case ESTADO_INICIAL:
        estado_inicial();
 c001f98:	eb0000a9 	bl	c002244 <estado_inicial>
        break;
 c001f9c:	ea000022 	b	c00202c <procesar_maquina_estados_botones+0xc8>
    case ESTADO_SELEC_FILA:
        estado_selec_fila();
 c001fa0:	eb000167 	bl	c002544 <estado_selec_fila>
        // Actualizar tiempo durante el juego
        if (tiempo_inicio_partida > 0)
 c001fa4:	e59f3090 	ldr	r3, [pc, #144]	; c00203c <procesar_maquina_estados_botones+0xd8>
 c001fa8:	e5933000 	ldr	r3, [r3]
 c001fac:	e3530000 	cmp	r3, #0
 c001fb0:	0a000016 	beq	c002010 <procesar_maquina_estados_botones+0xac>
        {
            mostrar_tiempo_partida();
 c001fb4:	eb00055a 	bl	c003524 <mostrar_tiempo_partida>
        }
        break;
 c001fb8:	ea00001b 	b	c00202c <procesar_maquina_estados_botones+0xc8>
    case ESTADO_SELEC_COLUMNA:
        estado_selec_columna();
 c001fbc:	eb000273 	bl	c002990 <estado_selec_columna>
        if (tiempo_inicio_partida > 0)
 c001fc0:	e59f3074 	ldr	r3, [pc, #116]	; c00203c <procesar_maquina_estados_botones+0xd8>
 c001fc4:	e5933000 	ldr	r3, [r3]
 c001fc8:	e3530000 	cmp	r3, #0
 c001fcc:	0a000011 	beq	c002018 <procesar_maquina_estados_botones+0xb4>
        {
            mostrar_tiempo_partida();
 c001fd0:	eb000553 	bl	c003524 <mostrar_tiempo_partida>
        }
        break;
 c001fd4:	ea000014 	b	c00202c <procesar_maquina_estados_botones+0xc8>
    case ESTADO_SELEC_VALOR:
        estado_selec_valor();
 c001fd8:	eb00033f 	bl	c002cdc <estado_selec_valor>
        if (tiempo_inicio_partida > 0)
 c001fdc:	e59f3058 	ldr	r3, [pc, #88]	; c00203c <procesar_maquina_estados_botones+0xd8>
 c001fe0:	e5933000 	ldr	r3, [r3]
 c001fe4:	e3530000 	cmp	r3, #0
 c001fe8:	0a00000c 	beq	c002020 <procesar_maquina_estados_botones+0xbc>
        {
            mostrar_tiempo_partida();
 c001fec:	eb00054c 	bl	c003524 <mostrar_tiempo_partida>
        }
        break;
 c001ff0:	ea00000d 	b	c00202c <procesar_maquina_estados_botones+0xc8>
    case ESTADO_MOSTRANDO_ERROR:
        estado_mostrando_error();
 c001ff4:	eb00044a 	bl	c003124 <estado_mostrando_error>
        if (tiempo_inicio_partida > 0)
 c001ff8:	e59f303c 	ldr	r3, [pc, #60]	; c00203c <procesar_maquina_estados_botones+0xd8>
 c001ffc:	e5933000 	ldr	r3, [r3]
 c002000:	e3530000 	cmp	r3, #0
 c002004:	0a000007 	beq	c002028 <procesar_maquina_estados_botones+0xc4>
        {
            mostrar_tiempo_partida();
 c002008:	eb000545 	bl	c003524 <mostrar_tiempo_partida>
        }
        break;
 c00200c:	ea000006 	b	c00202c <procesar_maquina_estados_botones+0xc8>
        // Actualizar tiempo durante el juego
        if (tiempo_inicio_partida > 0)
        {
            mostrar_tiempo_partida();
        }
        break;
 c002010:	e1a00000 	nop			; (mov r0, r0)
 c002014:	ea000004 	b	c00202c <procesar_maquina_estados_botones+0xc8>
        estado_selec_columna();
        if (tiempo_inicio_partida > 0)
        {
            mostrar_tiempo_partida();
        }
        break;
 c002018:	e1a00000 	nop			; (mov r0, r0)
 c00201c:	ea000002 	b	c00202c <procesar_maquina_estados_botones+0xc8>
        estado_selec_valor();
        if (tiempo_inicio_partida > 0)
        {
            mostrar_tiempo_partida();
        }
        break;
 c002020:	e1a00000 	nop			; (mov r0, r0)
 c002024:	ea000000 	b	c00202c <procesar_maquina_estados_botones+0xc8>
        estado_mostrando_error();
        if (tiempo_inicio_partida > 0)
        {
            mostrar_tiempo_partida();
        }
        break;
 c002028:	e1a00000 	nop			; (mov r0, r0)
    }
}
 c00202c:	e24bd00c 	sub	sp, fp, #12
 c002030:	e89d6800 	ldm	sp, {fp, sp, lr}
 c002034:	e12fff1e 	bx	lr
 c002038:	0c00cd28 	.word	0x0c00cd28
 c00203c:	0c00cd48 	.word	0x0c00cd48

0c002040 <procesar_teclado>:
 * Debe llamarse peridicamente para:
 *  - pasar por los estados TRP/TRD y escanear teclas
 *  - publicar evento_teclado_digito cuando detecta un dgito
 */
void procesar_teclado(void)
{
 c002040:	e1a0c00d 	mov	ip, sp
 c002044:	e92dd800 	push	{fp, ip, lr, pc}
 c002048:	e24cb004 	sub	fp, ip, #4
 c00204c:	e24dd008 	sub	sp, sp, #8
    unsigned int ahora = timer2_count();
 c002050:	eb001b1b 	bl	c008cc4 <timer2_count>
 c002054:	e50b0010 	str	r0, [fp, #-16]
    uint8_t digito;

    // CAMBIO: Permitimos procesar teclado en ESTADO_INICIAL
    // Solo bloqueamos si estamos mostrando un error (parpadeo)
    if (estado_juego == ESTADO_MOSTRANDO_ERROR)
 c002058:	e59f3114 	ldr	r3, [pc, #276]	; c002174 <procesar_teclado+0x134>
 c00205c:	e5d33000 	ldrb	r3, [r3]
 c002060:	e3530004 	cmp	r3, #4
 c002064:	1a000003 	bne	c002078 <procesar_teclado+0x38>
    {
        teclado_estado = TECLADO_REPOSO;
 c002068:	e59f3108 	ldr	r3, [pc, #264]	; c002178 <procesar_teclado+0x138>
 c00206c:	e3a02000 	mov	r2, #0
 c002070:	e5c32000 	strb	r2, [r3]
        return;
 c002074:	ea00003b 	b	c002168 <procesar_teclado+0x128>
    }

    switch (teclado_estado)
 c002078:	e59f30f8 	ldr	r3, [pc, #248]	; c002178 <procesar_teclado+0x138>
 c00207c:	e5d33000 	ldrb	r3, [r3]
 c002080:	e3530003 	cmp	r3, #3
 c002084:	979ff103 	ldrls	pc, [pc, r3, lsl #2]
 c002088:	ea000036 	b	c002168 <procesar_teclado+0x128>
 c00208c:	0c002168 	.word	0x0c002168
 c002090:	0c00209c 	.word	0x0c00209c
 c002094:	0c0020c4 	.word	0x0c0020c4
 c002098:	0c002104 	.word	0x0c002104
    {
    case TECLADO_REPOSO:
        break;

    case TECLADO_ESPERANDO_TRP:
        if ((int)(ahora - teclado_timer) >= 0)
 c00209c:	e59f30d8 	ldr	r3, [pc, #216]	; c00217c <procesar_teclado+0x13c>
 c0020a0:	e5933000 	ldr	r3, [r3]
 c0020a4:	e51b2010 	ldr	r2, [fp, #-16]
 c0020a8:	e0633002 	rsb	r3, r3, r2
 c0020ac:	e3530000 	cmp	r3, #0
 c0020b0:	ba000027 	blt	c002154 <procesar_teclado+0x114>
            teclado_estado = TECLADO_ESCANEANDO;
 c0020b4:	e59f30bc 	ldr	r3, [pc, #188]	; c002178 <procesar_teclado+0x138>
 c0020b8:	e3a02002 	mov	r2, #2
 c0020bc:	e5c32000 	strb	r2, [r3]
        break;
 c0020c0:	ea000028 	b	c002168 <procesar_teclado+0x128>

    case TECLADO_ESCANEANDO:
        digito = teclado_escanear();
 c0020c4:	eb000493 	bl	c003318 <teclado_escanear>
 c0020c8:	e1a03000 	mov	r3, r0
 c0020cc:	e54b3011 	strb	r3, [fp, #-17]	; 0xffffffef
        if (digito != 0xFF)
 c0020d0:	e55b3011 	ldrb	r3, [fp, #-17]	; 0xffffffef
 c0020d4:	e35300ff 	cmp	r3, #255	; 0xff
 c0020d8:	0a00001f 	beq	c00215c <procesar_teclado+0x11c>
        {
            evento_teclado_digito = digito;
 c0020dc:	e59f309c 	ldr	r3, [pc, #156]	; c002180 <procesar_teclado+0x140>
 c0020e0:	e55b2011 	ldrb	r2, [fp, #-17]	; 0xffffffef
 c0020e4:	e5c32000 	strb	r2, [r3]
            teclado_timer = ahora;
 c0020e8:	e59f308c 	ldr	r3, [pc, #140]	; c00217c <procesar_teclado+0x13c>
 c0020ec:	e51b2010 	ldr	r2, [fp, #-16]
 c0020f0:	e5832000 	str	r2, [r3]
            teclado_estado = TECLADO_ESPERANDO_TRD;
 c0020f4:	e59f307c 	ldr	r3, [pc, #124]	; c002178 <procesar_teclado+0x138>
 c0020f8:	e3a02003 	mov	r2, #3
 c0020fc:	e5c32000 	strb	r2, [r3]
        }
        break;
 c002100:	ea000018 	b	c002168 <procesar_teclado+0x128>

    case TECLADO_ESPERANDO_TRD:
        if (teclado_soltado())
 c002104:	eb000475 	bl	c0032e0 <teclado_soltado>
 c002108:	e1a03000 	mov	r3, r0
 c00210c:	e3530000 	cmp	r3, #0
 c002110:	0a00000b 	beq	c002144 <procesar_teclado+0x104>
        {
            if ((int)(ahora - teclado_timer) >= TECLADO_TRD_US)
 c002114:	e59f3060 	ldr	r3, [pc, #96]	; c00217c <procesar_teclado+0x13c>
 c002118:	e5933000 	ldr	r3, [r3]
 c00211c:	e51b2010 	ldr	r2, [fp, #-16]
 c002120:	e0633002 	rsb	r3, r3, r2
 c002124:	e1a02003 	mov	r2, r3
 c002128:	e59f3054 	ldr	r3, [pc, #84]	; c002184 <procesar_teclado+0x144>
 c00212c:	e1520003 	cmp	r2, r3
 c002130:	da00000b 	ble	c002164 <procesar_teclado+0x124>
                teclado_estado = TECLADO_REPOSO;
 c002134:	e59f303c 	ldr	r3, [pc, #60]	; c002178 <procesar_teclado+0x138>
 c002138:	e3a02000 	mov	r2, #0
 c00213c:	e5c32000 	strb	r2, [r3]
        }
        else
        {
            teclado_timer = ahora;
        }
        break;
 c002140:	ea000008 	b	c002168 <procesar_teclado+0x128>
            if ((int)(ahora - teclado_timer) >= TECLADO_TRD_US)
                teclado_estado = TECLADO_REPOSO;
        }
        else
        {
            teclado_timer = ahora;
 c002144:	e59f3030 	ldr	r3, [pc, #48]	; c00217c <procesar_teclado+0x13c>
 c002148:	e51b2010 	ldr	r2, [fp, #-16]
 c00214c:	e5832000 	str	r2, [r3]
        }
        break;
 c002150:	ea000004 	b	c002168 <procesar_teclado+0x128>
        break;

    case TECLADO_ESPERANDO_TRP:
        if ((int)(ahora - teclado_timer) >= 0)
            teclado_estado = TECLADO_ESCANEANDO;
        break;
 c002154:	e1a00000 	nop			; (mov r0, r0)
 c002158:	ea000002 	b	c002168 <procesar_teclado+0x128>
        {
            evento_teclado_digito = digito;
            teclado_timer = ahora;
            teclado_estado = TECLADO_ESPERANDO_TRD;
        }
        break;
 c00215c:	e1a00000 	nop			; (mov r0, r0)
 c002160:	ea000000 	b	c002168 <procesar_teclado+0x128>
        }
        else
        {
            teclado_timer = ahora;
        }
        break;
 c002164:	e1a00000 	nop			; (mov r0, r0)
    }
}
 c002168:	e24bd00c 	sub	sp, fp, #12
 c00216c:	e89d6800 	ldm	sp, {fp, sp, lr}
 c002170:	e12fff1e 	bx	lr
 c002174:	0c00cd28 	.word	0x0c00cd28
 c002178:	0c00cd36 	.word	0x0c00cd36
 c00217c:	0c00cd38 	.word	0x0c00cd38
 c002180:	0c00a459 	.word	0x0c00a459
 c002184:	0001869f 	.word	0x0001869f

0c002188 <leer_estado_boton>:
 *  - boton: ndice in el array botones
 * Retorno:
 *  - 1 si el pin asociado est a 1 (libre), 0 si est a 0 (pulsado)
 */
inline int leer_estado_boton(int boton)
{
 c002188:	e1a0c00d 	mov	ip, sp
 c00218c:	e92dd800 	push	{fp, ip, lr, pc}
 c002190:	e24cb004 	sub	fp, ip, #4
 c002194:	e24dd008 	sub	sp, sp, #8
 c002198:	e50b0010 	str	r0, [fp, #-16]
    return (rPDATG & (1 << botones[boton].bit_pin)) ? 1 : 0;
 c00219c:	e59f3050 	ldr	r3, [pc, #80]	; c0021f4 <leer_estado_boton+0x6c>
 c0021a0:	e5931000 	ldr	r1, [r3]
 c0021a4:	e59fc04c 	ldr	ip, [pc, #76]	; c0021f8 <leer_estado_boton+0x70>
 c0021a8:	e51b2010 	ldr	r2, [fp, #-16]
 c0021ac:	e3a00008 	mov	r0, #8
 c0021b0:	e1a03002 	mov	r3, r2
 c0021b4:	e1a03083 	lsl	r3, r3, #1
 c0021b8:	e0833002 	add	r3, r3, r2
 c0021bc:	e1a03183 	lsl	r3, r3, #3
 c0021c0:	e08c3003 	add	r3, ip, r3
 c0021c4:	e0833000 	add	r3, r3, r0
 c0021c8:	e5d33001 	ldrb	r3, [r3, #1]
 c0021cc:	e3a02001 	mov	r2, #1
 c0021d0:	e1a03312 	lsl	r3, r2, r3
 c0021d4:	e0013003 	and	r3, r1, r3
 c0021d8:	e3530000 	cmp	r3, #0
 c0021dc:	03a03000 	moveq	r3, #0
 c0021e0:	13a03001 	movne	r3, #1
}
 c0021e4:	e1a00003 	mov	r0, r3
 c0021e8:	e24bd00c 	sub	sp, fp, #12
 c0021ec:	e89d6800 	ldm	sp, {fp, sp, lr}
 c0021f0:	e12fff1e 	bx	lr
 c0021f4:	01d20044 	.word	0x01d20044
 c0021f8:	0c00a428 	.word	0x0c00a428

0c0021fc <procesar_antirebote_botones>:
/**
 * Procesar antirrebote de todos los botones
 * Debe llamarse peridicamente (ej. desde el timer).
 */
void procesar_antirebote_botones(void)
{
 c0021fc:	e1a0c00d 	mov	ip, sp
 c002200:	e92dd800 	push	{fp, ip, lr, pc}
 c002204:	e24cb004 	sub	fp, ip, #4
 c002208:	e24dd008 	sub	sp, sp, #8
    int i;
    for (i = 0; i < NUM_BOTONES; i++)
 c00220c:	e3a03000 	mov	r3, #0
 c002210:	e50b3010 	str	r3, [fp, #-16]
 c002214:	ea000004 	b	c00222c <procesar_antirebote_botones+0x30>
        procesar_rebote(i);
 c002218:	e51b0010 	ldr	r0, [fp, #-16]
 c00221c:	ebfffe97 	bl	c001c80 <procesar_rebote>
 * Debe llamarse peridicamente (ej. desde el timer).
 */
void procesar_antirebote_botones(void)
{
    int i;
    for (i = 0; i < NUM_BOTONES; i++)
 c002220:	e51b3010 	ldr	r3, [fp, #-16]
 c002224:	e2833001 	add	r3, r3, #1
 c002228:	e50b3010 	str	r3, [fp, #-16]
 c00222c:	e51b3010 	ldr	r3, [fp, #-16]
 c002230:	e3530001 	cmp	r3, #1
 c002234:	dafffff7 	ble	c002218 <procesar_antirebote_botones+0x1c>
        procesar_rebote(i);
}
 c002238:	e24bd00c 	sub	sp, fp, #12
 c00223c:	e89d6800 	ldm	sp, {fp, sp, lr}
 c002240:	e12fff1e 	bx	lr

0c002244 <estado_inicial>:
/**
 * Estado: inicial del juego
 * Arranca el juego cuando se detect inicio (cualquier botn o tecla del teclado matricial).
 */
static void estado_inicial(void)
{
 c002244:	e1a0c00d 	mov	ip, sp
 c002248:	e92dd800 	push	{fp, ip, lr, pc}
 c00224c:	e24cb004 	sub	fp, ip, #4
 c002250:	e24dd008 	sub	sp, sp, #8
    int i, j;

    // 1. Mostrar pantalla inicial si an no se ha hecho
    if (!pantalla_inicial_mostrada)
 c002254:	e59f32a0 	ldr	r3, [pc, #672]	; c0024fc <estado_inicial+0x2b8>
 c002258:	e5d33000 	ldrb	r3, [r3]
 c00225c:	e3530000 	cmp	r3, #0
 c002260:	1a000019 	bne	c0022cc <estado_inicial+0x88>
    {
        sudoku_mostrar_pantalla_inicial();
 c002264:	eb0015a7 	bl	c007908 <sudoku_mostrar_pantalla_inicial>
        pantalla_inicial_mostrada = 1;
 c002268:	e59f328c 	ldr	r3, [pc, #652]	; c0024fc <estado_inicial+0x2b8>
 c00226c:	e3a02001 	mov	r2, #1
 c002270:	e5c32000 	strb	r2, [r3]

        // NUEVO: Ofrecer calibracin del touchpad
        Lcd_DspAscII6x8(20, 170, BLACK, (INT8U *)"BOTON IZQ: Calibrar touchpad");
 c002274:	e3a00014 	mov	r0, #20
 c002278:	e3a010aa 	mov	r1, #170	; 0xaa
 c00227c:	e3a0200f 	mov	r2, #15
 c002280:	e59f3278 	ldr	r3, [pc, #632]	; c002500 <estado_inicial+0x2bc>
 c002284:	eb00122e 	bl	c006b44 <Lcd_DspAscII6x8>
        Lcd_Dma_Trans();
 c002288:	eb0012eb 	bl	c006e3c <Lcd_Dma_Trans>

        // Reseteamos variables para asegurar un estado limpio
        resetear_tiempo_partida();
 c00228c:	eb00052a 	bl	c00373c <resetear_tiempo_partida>
        juego_iniciado = 0;
 c002290:	e59f326c 	ldr	r3, [pc, #620]	; c002504 <estado_inicial+0x2c0>
 c002294:	e3a02000 	mov	r2, #0
 c002298:	e5c32000 	strb	r2, [r3]
        evento_boton_derecho = 0;
 c00229c:	e59f3264 	ldr	r3, [pc, #612]	; c002508 <estado_inicial+0x2c4>
 c0022a0:	e3a02000 	mov	r2, #0
 c0022a4:	e5c32000 	strb	r2, [r3]
        evento_boton_izquierdo = 0;
 c0022a8:	e59f325c 	ldr	r3, [pc, #604]	; c00250c <estado_inicial+0x2c8>
 c0022ac:	e3a02000 	mov	r2, #0
 c0022b0:	e5c32000 	strb	r2, [r3]
        evento_teclado_digito = 0xFF; // Limpiar eventos del teclado
 c0022b4:	e59f3254 	ldr	r3, [pc, #596]	; c002510 <estado_inicial+0x2cc>
 c0022b8:	e3e02000 	mvn	r2, #0
 c0022bc:	e5c32000 	strb	r2, [r3]
        D8Led_symbol(0x0);
 c0022c0:	e3a00000 	mov	r0, #0
 c0022c4:	ebfffb48 	bl	c000fec <D8Led_symbol>
        return;
 c0022c8:	ea000088 	b	c0024f0 <estado_inicial+0x2ac>
    }

    // 2. Comprobar si se ha pulsado algn botn o tecla para empezar
    if (juego_iniciado || evento_teclado_digito != 0xFF)
 c0022cc:	e59f3230 	ldr	r3, [pc, #560]	; c002504 <estado_inicial+0x2c0>
 c0022d0:	e5d33000 	ldrb	r3, [r3]
 c0022d4:	e20330ff 	and	r3, r3, #255	; 0xff
 c0022d8:	e3530000 	cmp	r3, #0
 c0022dc:	1a000004 	bne	c0022f4 <estado_inicial+0xb0>
 c0022e0:	e59f3228 	ldr	r3, [pc, #552]	; c002510 <estado_inicial+0x2cc>
 c0022e4:	e5d33000 	ldrb	r3, [r3]
 c0022e8:	e20330ff 	and	r3, r3, #255	; 0xff
 c0022ec:	e35300ff 	cmp	r3, #255	; 0xff
 c0022f0:	0a00003f 	beq	c0023f4 <estado_inicial+0x1b0>
    {
        // NUEVO: Si se presion botn izquierdo, activar calibracin
        if (evento_boton_izquierdo && !juego_iniciado)
 c0022f4:	e59f3210 	ldr	r3, [pc, #528]	; c00250c <estado_inicial+0x2c8>
 c0022f8:	e5d33000 	ldrb	r3, [r3]
 c0022fc:	e20330ff 	and	r3, r3, #255	; 0xff
 c002300:	e3530000 	cmp	r3, #0
 c002304:	0a00000b 	beq	c002338 <estado_inicial+0xf4>
 c002308:	e59f31f4 	ldr	r3, [pc, #500]	; c002504 <estado_inicial+0x2c0>
 c00230c:	e5d33000 	ldrb	r3, [r3]
 c002310:	e20330ff 	and	r3, r3, #255	; 0xff
 c002314:	e3530000 	cmp	r3, #0
 c002318:	1a000006 	bne	c002338 <estado_inicial+0xf4>
        {
            evento_boton_izquierdo = 0;
 c00231c:	e59f31e8 	ldr	r3, [pc, #488]	; c00250c <estado_inicial+0x2c8>
 c002320:	e3a02000 	mov	r2, #0
 c002324:	e5c32000 	strb	r2, [r3]
            pantalla_inicial_mostrada = 0; // Volver a mostrar pantalla inicial
 c002328:	e59f31cc 	ldr	r3, [pc, #460]	; c0024fc <estado_inicial+0x2b8>
 c00232c:	e3a02000 	mov	r2, #0
 c002330:	e5c32000 	strb	r2, [r3]
            return;
 c002334:	ea00006d 	b	c0024f0 <estado_inicial+0x2ac>
        // --- CORRECCIN CLAVE ---
        // Si el juego ha sido iniciado (flag de interrupcin activado),
        // NO avanzamos hasta que la mquina de estados de los botones confirme
        // que el botn se ha soltado y ha vuelto al estado de reposo.
        // Esto evita que el evento "soltar botn" se cuele en el siguiente estado.
        if (botones[BOTON_EINT6].estado != e_reposo ||
 c002338:	e59f31d4 	ldr	r3, [pc, #468]	; c002514 <estado_inicial+0x2d0>
 c00233c:	e5d33000 	ldrb	r3, [r3]
 c002340:	e3530000 	cmp	r3, #0
 c002344:	1a000064 	bne	c0024dc <estado_inicial+0x298>
            botones[BOTON_EINT7].estado != e_reposo ||
 c002348:	e59f31c4 	ldr	r3, [pc, #452]	; c002514 <estado_inicial+0x2d0>
 c00234c:	e5d33018 	ldrb	r3, [r3, #24]
        // --- CORRECCIN CLAVE ---
        // Si el juego ha sido iniciado (flag de interrupcin activado),
        // NO avanzamos hasta que la mquina de estados de los botones confirme
        // que el botn se ha soltado y ha vuelto al estado de reposo.
        // Esto evita que el evento "soltar botn" se cuele en el siguiente estado.
        if (botones[BOTON_EINT6].estado != e_reposo ||
 c002350:	e3530000 	cmp	r3, #0
 c002354:	1a000062 	bne	c0024e4 <estado_inicial+0x2a0>
            botones[BOTON_EINT7].estado != e_reposo ||
            teclado_estado != TECLADO_REPOSO)
 c002358:	e59f31b8 	ldr	r3, [pc, #440]	; c002518 <estado_inicial+0x2d4>
 c00235c:	e5d33000 	ldrb	r3, [r3]
        // Si el juego ha sido iniciado (flag de interrupcin activado),
        // NO avanzamos hasta que la mquina de estados de los botones confirme
        // que el botn se ha soltado y ha vuelto al estado de reposo.
        // Esto evita que el evento "soltar botn" se cuele en el siguiente estado.
        if (botones[BOTON_EINT6].estado != e_reposo ||
            botones[BOTON_EINT7].estado != e_reposo ||
 c002360:	e3530000 	cmp	r3, #0
 c002364:	1a000060 	bne	c0024ec <estado_inicial+0x2a8>
        {
            return; // Esperamos en este estado hasta que se suelten los botones/teclas
        }

        // Feedback visual de arranque (opcional)
        D8Led_symbol(0xF);
 c002368:	e3a0000f 	mov	r0, #15
 c00236c:	ebfffb1e 	bl	c000fec <D8Led_symbol>

    // 3. Inicializacin de la Partida
    // Si llegamos aqu, es porque juego_iniciado = 1 O hay evento de teclado Y los inputs ya estn sueltos.

    // Limpiamos el flag de inicio para la prxima vez
    juego_iniciado = 0;
 c002370:	e59f318c 	ldr	r3, [pc, #396]	; c002504 <estado_inicial+0x2c0>
 c002374:	e3a02000 	mov	r2, #0
 c002378:	e5c32000 	strb	r2, [r3]

    // IMPORTANTE: Borramos los eventos acumulados.
    // Como ya hemos validado el inicio, no necesitamos procesar estos eventos
    // en el siguiente estado.
    evento_boton_derecho = 0;
 c00237c:	e59f3184 	ldr	r3, [pc, #388]	; c002508 <estado_inicial+0x2c4>
 c002380:	e3a02000 	mov	r2, #0
 c002384:	e5c32000 	strb	r2, [r3]
    evento_boton_izquierdo = 0;
 c002388:	e59f317c 	ldr	r3, [pc, #380]	; c00250c <estado_inicial+0x2c8>
 c00238c:	e3a02000 	mov	r2, #0
 c002390:	e5c32000 	strb	r2, [r3]
    evento_teclado_digito = 0xFF; // Limpiar eventos del teclado
 c002394:	e59f3174 	ldr	r3, [pc, #372]	; c002510 <estado_inicial+0x2cc>
 c002398:	e3e02000 	mvn	r2, #0
 c00239c:	e5c32000 	strb	r2, [r3]

    // Configurar estado siguiente
    estado_juego = ESTADO_SELEC_FILA;
 c0023a0:	e59f3174 	ldr	r3, [pc, #372]	; c00251c <estado_inicial+0x2d8>
 c0023a4:	e3a02001 	mov	r2, #1
 c0023a8:	e5c32000 	strb	r2, [r3]

    // Variables de control de interfaz
    tablero_dibujado = 0; // Forzar redibujado del tablero
 c0023ac:	e59f316c 	ldr	r3, [pc, #364]	; c002520 <estado_inicial+0x2dc>
 c0023b0:	e3a02000 	mov	r2, #0
 c0023b4:	e5c32000 	strb	r2, [r3]

    // Variables de lgica de juego
    numero_actual = 0; // Empezamos pidiendo fila 0 (o la que seleccione)
 c0023b8:	e59f3164 	ldr	r3, [pc, #356]	; c002524 <estado_inicial+0x2e0>
 c0023bc:	e3a02000 	mov	r2, #0
 c0023c0:	e5c32000 	strb	r2, [r3]
    fila_seleccionada = 0;
 c0023c4:	e59f315c 	ldr	r3, [pc, #348]	; c002528 <estado_inicial+0x2e4>
 c0023c8:	e3a02000 	mov	r2, #0
 c0023cc:	e5c32000 	strb	r2, [r3]
    columna_seleccionada = 0;
 c0023d0:	e59f3154 	ldr	r3, [pc, #340]	; c00252c <estado_inicial+0x2e8>
 c0023d4:	e3a02000 	mov	r2, #0
 c0023d8:	e5c32000 	strb	r2, [r3]
    contador_error = 0;
 c0023dc:	e59f314c 	ldr	r3, [pc, #332]	; c002530 <estado_inicial+0x2ec>
 c0023e0:	e3a02000 	mov	r2, #0
 c0023e4:	e5832000 	str	r2, [r3]

    // 4. Copiar el tablero inicial (ARM -> C)
    // Restauramos el tablero original para empezar la partida limpia
    for (i = 0; i < NUM_FILAS; i++)
 c0023e8:	e3a03000 	mov	r3, #0
 c0023ec:	e50b3010 	str	r3, [fp, #-16]
 c0023f0:	ea00001e 	b	c002470 <estado_inicial+0x22c>
        D8Led_symbol(0xF);
    }
    else
    {
        // Si no se ha pulsado nada, seguimos esperando
        D8Led_symbol(0x0);
 c0023f4:	e3a00000 	mov	r0, #0
 c0023f8:	ebfffafb 	bl	c000fec <D8Led_symbol>
        return;
 c0023fc:	ea00003b 	b	c0024f0 <estado_inicial+0x2ac>

    // 4. Copiar el tablero inicial (ARM -> C)
    // Restauramos el tablero original para empezar la partida limpia
    for (i = 0; i < NUM_FILAS; i++)
    {
        for (j = 0; j < 9; j++)
 c002400:	e3a03000 	mov	r3, #0
 c002404:	e50b3014 	str	r3, [fp, #-20]	; 0xffffffec
 c002408:	ea000012 	b	c002458 <estado_inicial+0x214>
        {
            cuadricula_C_C[i][j] = cuadricula_C_ARM[i][j];
 c00240c:	e59f2120 	ldr	r2, [pc, #288]	; c002534 <estado_inicial+0x2f0>
 c002410:	e51b3010 	ldr	r3, [fp, #-16]
 c002414:	e1a01203 	lsl	r1, r3, #4
 c002418:	e51b3014 	ldr	r3, [fp, #-20]	; 0xffffffec
 c00241c:	e0813003 	add	r3, r1, r3
 c002420:	e1a03083 	lsl	r3, r3, #1
 c002424:	e0823003 	add	r3, r2, r3
 c002428:	e1d320b0 	ldrh	r2, [r3]
 c00242c:	e59f1104 	ldr	r1, [pc, #260]	; c002538 <estado_inicial+0x2f4>
 c002430:	e51b3010 	ldr	r3, [fp, #-16]
 c002434:	e1a00203 	lsl	r0, r3, #4
 c002438:	e51b3014 	ldr	r3, [fp, #-20]	; 0xffffffec
 c00243c:	e0803003 	add	r3, r0, r3
 c002440:	e1a03083 	lsl	r3, r3, #1
 c002444:	e0813003 	add	r3, r1, r3
 c002448:	e1c320b0 	strh	r2, [r3]

    // 4. Copiar el tablero inicial (ARM -> C)
    // Restauramos el tablero original para empezar la partida limpia
    for (i = 0; i < NUM_FILAS; i++)
    {
        for (j = 0; j < 9; j++)
 c00244c:	e51b3014 	ldr	r3, [fp, #-20]	; 0xffffffec
 c002450:	e2833001 	add	r3, r3, #1
 c002454:	e50b3014 	str	r3, [fp, #-20]	; 0xffffffec
 c002458:	e51b3014 	ldr	r3, [fp, #-20]	; 0xffffffec
 c00245c:	e3530008 	cmp	r3, #8
 c002460:	daffffe9 	ble	c00240c <estado_inicial+0x1c8>
    columna_seleccionada = 0;
    contador_error = 0;

    // 4. Copiar el tablero inicial (ARM -> C)
    // Restauramos el tablero original para empezar la partida limpia
    for (i = 0; i < NUM_FILAS; i++)
 c002464:	e51b3010 	ldr	r3, [fp, #-16]
 c002468:	e2833001 	add	r3, r3, #1
 c00246c:	e50b3010 	str	r3, [fp, #-16]
 c002470:	e51b3010 	ldr	r3, [fp, #-16]
 c002474:	e3530008 	cmp	r3, #8
 c002478:	daffffe0 	ble	c002400 <estado_inicial+0x1bc>
            cuadricula_C_C[i][j] = cuadricula_C_ARM[i][j];
        }
    }

    // Limpiar cualquier error previo
    limpiar_marcas_error();
 c00247c:	eb000742 	bl	c00418c <limpiar_marcas_error>

    // Inicializar tiempo de partida
    tiempo_inicio_partida = timer2_count();
 c002480:	eb001a0f 	bl	c008cc4 <timer2_count>
 c002484:	e1a02000 	mov	r2, r0
 c002488:	e59f30ac 	ldr	r3, [pc, #172]	; c00253c <estado_inicial+0x2f8>
 c00248c:	e5832000 	str	r2, [r3]
    ultimo_tiempo_mostrado = 0;
 c002490:	e59f30a8 	ldr	r3, [pc, #168]	; c002540 <estado_inicial+0x2fc>
 c002494:	e3a02000 	mov	r2, #0
 c002498:	e5832000 	str	r2, [r3]

    // Marcar las pistas antes de actualizar candidatos
    marcar_pistas_iniciales(cuadricula_C_C);
 c00249c:	e59f0094 	ldr	r0, [pc, #148]	; c002538 <estado_inicial+0x2f4>
 c0024a0:	eb0003e5 	bl	c00343c <marcar_pistas_iniciales>

    candidatos_actualizar_c(cuadricula_C_C);
 c0024a4:	e59f008c 	ldr	r0, [pc, #140]	; c002538 <estado_inicial+0x2f4>
 c0024a8:	eb00145e 	bl	c007628 <candidatos_actualizar_c>

    // Dibujar el tablero completo
    sudoku_dibujar_tablero_completo(cuadricula_C_C);
 c0024ac:	e59f0084 	ldr	r0, [pc, #132]	; c002538 <estado_inicial+0x2f4>
 c0024b0:	eb001841 	bl	c0085bc <sudoku_dibujar_tablero_completo>
    tablero_dibujado = 1;
 c0024b4:	e59f3064 	ldr	r3, [pc, #100]	; c002520 <estado_inicial+0x2dc>
 c0024b8:	e3a02001 	mov	r2, #1
 c0024bc:	e5c32000 	strb	r2, [r3]

    numero_actual = 0;
 c0024c0:	e59f305c 	ldr	r3, [pc, #92]	; c002524 <estado_inicial+0x2e0>
 c0024c4:	e3a02000 	mov	r2, #0
 c0024c8:	e5c32000 	strb	r2, [r3]
    D8Led_symbol(0x0);
 c0024cc:	e3a00000 	mov	r0, #0
 c0024d0:	ebfffac5 	bl	c000fec <D8Led_symbol>

    // Mostrar tiempo inicial
    mostrar_tiempo_partida();
 c0024d4:	eb000412 	bl	c003524 <mostrar_tiempo_partida>
 c0024d8:	ea000004 	b	c0024f0 <estado_inicial+0x2ac>
        // Esto evita que el evento "soltar botn" se cuele en el siguiente estado.
        if (botones[BOTON_EINT6].estado != e_reposo ||
            botones[BOTON_EINT7].estado != e_reposo ||
            teclado_estado != TECLADO_REPOSO)
        {
            return; // Esperamos en este estado hasta que se suelten los botones/teclas
 c0024dc:	e1a00000 	nop			; (mov r0, r0)
 c0024e0:	ea000002 	b	c0024f0 <estado_inicial+0x2ac>
 c0024e4:	e1a00000 	nop			; (mov r0, r0)
 c0024e8:	ea000000 	b	c0024f0 <estado_inicial+0x2ac>
 c0024ec:	e1a00000 	nop			; (mov r0, r0)
    numero_actual = 0;
    D8Led_symbol(0x0);

    // Mostrar tiempo inicial
    mostrar_tiempo_partida();
}
 c0024f0:	e24bd00c 	sub	sp, fp, #12
 c0024f4:	e89d6800 	ldm	sp, {fp, sp, lr}
 c0024f8:	e12fff1e 	bx	lr
 c0024fc:	0c00cd34 	.word	0x0c00cd34
 c002500:	0c00cb24 	.word	0x0c00cb24
 c002504:	0c00cd2d 	.word	0x0c00cd2d
 c002508:	0c00cd2b 	.word	0x0c00cd2b
 c00250c:	0c00cd2c 	.word	0x0c00cd2c
 c002510:	0c00a459 	.word	0x0c00a459
 c002514:	0c00a428 	.word	0x0c00a428
 c002518:	0c00cd36 	.word	0x0c00cd36
 c00251c:	0c00cd28 	.word	0x0c00cd28
 c002520:	0c00cd35 	.word	0x0c00cd35
 c002524:	0c00a458 	.word	0x0c00a458
 c002528:	0c00cd29 	.word	0x0c00cd29
 c00252c:	0c00cd2a 	.word	0x0c00cd2a
 c002530:	0c00cd30 	.word	0x0c00cd30
 c002534:	0c00a5a0 	.word	0x0c00a5a0
 c002538:	0c00a480 	.word	0x0c00a480
 c00253c:	0c00cd48 	.word	0x0c00cd48
 c002540:	0c00cd4c 	.word	0x0c00cd4c

0c002544 <estado_selec_fila>:
 * Estado: seleccionar fila
 * Gestiona eventos de teclado y botones para elegir la fila.
 * Permite fila 0 para acabar la partida.
 */
static void estado_selec_fila(void)
{
 c002544:	e1a0c00d 	mov	ip, sp
 c002548:	e92dd800 	push	{fp, ip, lr, pc}
 c00254c:	e24cb004 	sub	fp, ip, #4
 c002550:	e24dd008 	sub	sp, sp, #8
    static uint8_t fila_anterior = 0xFF;

    if (evento_teclado_digito != 0xFF)
 c002554:	e59f3400 	ldr	r3, [pc, #1024]	; c00295c <estado_selec_fila+0x418>
 c002558:	e5d33000 	ldrb	r3, [r3]
 c00255c:	e20330ff 	and	r3, r3, #255	; 0xff
 c002560:	e35300ff 	cmp	r3, #255	; 0xff
 c002564:	0a000013 	beq	c0025b8 <estado_selec_fila+0x74>
    {
        // Permitir dgitos del 0 al 9 (0 para salir)
        if (evento_teclado_digito >= 0 && evento_teclado_digito <= 9)
 c002568:	e59f33ec 	ldr	r3, [pc, #1004]	; c00295c <estado_selec_fila+0x418>
 c00256c:	e5d33000 	ldrb	r3, [r3]
 c002570:	e59f33e4 	ldr	r3, [pc, #996]	; c00295c <estado_selec_fila+0x418>
 c002574:	e5d33000 	ldrb	r3, [r3]
 c002578:	e20330ff 	and	r3, r3, #255	; 0xff
 c00257c:	e3530009 	cmp	r3, #9
 c002580:	8a0000f1 	bhi	c00294c <estado_selec_fila+0x408>
        {
            numero_actual = evento_teclado_digito;
 c002584:	e59f33d0 	ldr	r3, [pc, #976]	; c00295c <estado_selec_fila+0x418>
 c002588:	e5d33000 	ldrb	r3, [r3]
 c00258c:	e20320ff 	and	r2, r3, #255	; 0xff
 c002590:	e59f33c8 	ldr	r3, [pc, #968]	; c002960 <estado_selec_fila+0x41c>
 c002594:	e5c32000 	strb	r2, [r3]
            evento_teclado_digito = 0xFF;
 c002598:	e59f33bc 	ldr	r3, [pc, #956]	; c00295c <estado_selec_fila+0x418>
 c00259c:	e3e02000 	mvn	r2, #0
 c0025a0:	e5c32000 	strb	r2, [r3]
            D8Led_symbol(numero_actual);
 c0025a4:	e59f33b4 	ldr	r3, [pc, #948]	; c002960 <estado_selec_fila+0x41c>
 c0025a8:	e5d33000 	ldrb	r3, [r3]
 c0025ac:	e1a00003 	mov	r0, r3
 c0025b0:	ebfffa8d 	bl	c000fec <D8Led_symbol>
        }
        return;
 c0025b4:	ea0000e5 	b	c002950 <estado_selec_fila+0x40c>
    }

    if (evento_boton_derecho)
 c0025b8:	e59f33a4 	ldr	r3, [pc, #932]	; c002964 <estado_selec_fila+0x420>
 c0025bc:	e5d33000 	ldrb	r3, [r3]
 c0025c0:	e20330ff 	and	r3, r3, #255	; 0xff
 c0025c4:	e3530000 	cmp	r3, #0
 c0025c8:	0a000057 	beq	c00272c <estado_selec_fila+0x1e8>
    {
        evento_boton_derecho = 0;
 c0025cc:	e59f3390 	ldr	r3, [pc, #912]	; c002964 <estado_selec_fila+0x420>
 c0025d0:	e3a02000 	mov	r2, #0
 c0025d4:	e5c32000 	strb	r2, [r3]

        // Quitar resaltado de fila anterior si exista y no era fila 0
        if (fila_anterior != 0xFF && numero_actual >= 1 && numero_actual <= 9)
 c0025d8:	e59f3388 	ldr	r3, [pc, #904]	; c002968 <estado_selec_fila+0x424>
 c0025dc:	e5d33000 	ldrb	r3, [r3]
 c0025e0:	e35300ff 	cmp	r3, #255	; 0xff
 c0025e4:	0a000019 	beq	c002650 <estado_selec_fila+0x10c>
 c0025e8:	e59f3370 	ldr	r3, [pc, #880]	; c002960 <estado_selec_fila+0x41c>
 c0025ec:	e5d33000 	ldrb	r3, [r3]
 c0025f0:	e3530000 	cmp	r3, #0
 c0025f4:	0a000015 	beq	c002650 <estado_selec_fila+0x10c>
 c0025f8:	e59f3360 	ldr	r3, [pc, #864]	; c002960 <estado_selec_fila+0x41c>
 c0025fc:	e5d33000 	ldrb	r3, [r3]
 c002600:	e3530009 	cmp	r3, #9
 c002604:	8a000011 	bhi	c002650 <estado_selec_fila+0x10c>
        {
            uint8_t col;
            for (col = 0; col < 9; col++)
 c002608:	e3a03000 	mov	r3, #0
 c00260c:	e54b300d 	strb	r3, [fp, #-13]
 c002610:	ea00000b 	b	c002644 <estado_selec_fila+0x100>
            {
                sudoku_resaltar_celda(numero_actual - 1, col, 0);
 c002614:	e59f3344 	ldr	r3, [pc, #836]	; c002960 <estado_selec_fila+0x41c>
 c002618:	e5d33000 	ldrb	r3, [r3]
 c00261c:	e2433001 	sub	r3, r3, #1
 c002620:	e20320ff 	and	r2, r3, #255	; 0xff
 c002624:	e55b300d 	ldrb	r3, [fp, #-13]
 c002628:	e1a00002 	mov	r0, r2
 c00262c:	e1a01003 	mov	r1, r3
 c002630:	e3a02000 	mov	r2, #0
 c002634:	eb00177c 	bl	c00842c <sudoku_resaltar_celda>

        // Quitar resaltado de fila anterior si exista y no era fila 0
        if (fila_anterior != 0xFF && numero_actual >= 1 && numero_actual <= 9)
        {
            uint8_t col;
            for (col = 0; col < 9; col++)
 c002638:	e55b300d 	ldrb	r3, [fp, #-13]
 c00263c:	e2833001 	add	r3, r3, #1
 c002640:	e54b300d 	strb	r3, [fp, #-13]
 c002644:	e55b300d 	ldrb	r3, [fp, #-13]
 c002648:	e3530008 	cmp	r3, #8
 c00264c:	9afffff0 	bls	c002614 <estado_selec_fila+0xd0>
            {
                sudoku_resaltar_celda(numero_actual - 1, col, 0);
            }
        }

        numero_actual++;
 c002650:	e59f3308 	ldr	r3, [pc, #776]	; c002960 <estado_selec_fila+0x41c>
 c002654:	e5d33000 	ldrb	r3, [r3]
 c002658:	e2833001 	add	r3, r3, #1
 c00265c:	e20320ff 	and	r2, r3, #255	; 0xff
 c002660:	e59f32f8 	ldr	r3, [pc, #760]	; c002960 <estado_selec_fila+0x41c>
 c002664:	e5c32000 	strb	r2, [r3]
        if (numero_actual > 9)
 c002668:	e59f32f0 	ldr	r3, [pc, #752]	; c002960 <estado_selec_fila+0x41c>
 c00266c:	e5d33000 	ldrb	r3, [r3]
 c002670:	e3530009 	cmp	r3, #9
 c002674:	9a000002 	bls	c002684 <estado_selec_fila+0x140>
            numero_actual = 0; // Cambio: ahora permite ir a 0
 c002678:	e59f32e0 	ldr	r3, [pc, #736]	; c002960 <estado_selec_fila+0x41c>
 c00267c:	e3a02000 	mov	r2, #0
 c002680:	e5c32000 	strb	r2, [r3]
        D8Led_symbol(numero_actual);
 c002684:	e59f32d4 	ldr	r3, [pc, #724]	; c002960 <estado_selec_fila+0x41c>
 c002688:	e5d33000 	ldrb	r3, [r3]
 c00268c:	e1a00003 	mov	r0, r3
 c002690:	ebfffa55 	bl	c000fec <D8Led_symbol>

        // Resaltar nueva fila (solo si no es 0)
        if (numero_actual >= 1 && numero_actual <= 9)
 c002694:	e59f32c4 	ldr	r3, [pc, #708]	; c002960 <estado_selec_fila+0x41c>
 c002698:	e5d33000 	ldrb	r3, [r3]
 c00269c:	e3530000 	cmp	r3, #0
 c0026a0:	0a00001d 	beq	c00271c <estado_selec_fila+0x1d8>
 c0026a4:	e59f32b4 	ldr	r3, [pc, #692]	; c002960 <estado_selec_fila+0x41c>
 c0026a8:	e5d33000 	ldrb	r3, [r3]
 c0026ac:	e3530009 	cmp	r3, #9
 c0026b0:	8a000019 	bhi	c00271c <estado_selec_fila+0x1d8>
        {
            uint8_t col;
            for (col = 0; col < 9; col++)
 c0026b4:	e3a03000 	mov	r3, #0
 c0026b8:	e54b300e 	strb	r3, [fp, #-14]
 c0026bc:	ea00000b 	b	c0026f0 <estado_selec_fila+0x1ac>
            {
                sudoku_resaltar_celda(numero_actual - 1, col, 1);
 c0026c0:	e59f3298 	ldr	r3, [pc, #664]	; c002960 <estado_selec_fila+0x41c>
 c0026c4:	e5d33000 	ldrb	r3, [r3]
 c0026c8:	e2433001 	sub	r3, r3, #1
 c0026cc:	e20320ff 	and	r2, r3, #255	; 0xff
 c0026d0:	e55b300e 	ldrb	r3, [fp, #-14]
 c0026d4:	e1a00002 	mov	r0, r2
 c0026d8:	e1a01003 	mov	r1, r3
 c0026dc:	e3a02001 	mov	r2, #1
 c0026e0:	eb001751 	bl	c00842c <sudoku_resaltar_celda>

        // Resaltar nueva fila (solo si no es 0)
        if (numero_actual >= 1 && numero_actual <= 9)
        {
            uint8_t col;
            for (col = 0; col < 9; col++)
 c0026e4:	e55b300e 	ldrb	r3, [fp, #-14]
 c0026e8:	e2833001 	add	r3, r3, #1
 c0026ec:	e54b300e 	strb	r3, [fp, #-14]
 c0026f0:	e55b300e 	ldrb	r3, [fp, #-14]
 c0026f4:	e3530008 	cmp	r3, #8
 c0026f8:	9afffff0 	bls	c0026c0 <estado_selec_fila+0x17c>
            {
                sudoku_resaltar_celda(numero_actual - 1, col, 1);
            }
            fila_anterior = numero_actual - 1;
 c0026fc:	e59f325c 	ldr	r3, [pc, #604]	; c002960 <estado_selec_fila+0x41c>
 c002700:	e5d33000 	ldrb	r3, [r3]
 c002704:	e2433001 	sub	r3, r3, #1
 c002708:	e20320ff 	and	r2, r3, #255	; 0xff
 c00270c:	e59f3254 	ldr	r3, [pc, #596]	; c002968 <estado_selec_fila+0x424>
 c002710:	e5c32000 	strb	r2, [r3]
            numero_actual = 0; // Cambio: ahora permite ir a 0
        D8Led_symbol(numero_actual);

        // Resaltar nueva fila (solo si no es 0)
        if (numero_actual >= 1 && numero_actual <= 9)
        {
 c002714:	e1a00000 	nop			; (mov r0, r0)
        else
        {
            fila_anterior = 0xFF; // No hay fila resaltada para fila 0
        }

        return;
 c002718:	ea00008c 	b	c002950 <estado_selec_fila+0x40c>
            }
            fila_anterior = numero_actual - 1;
        }
        else
        {
            fila_anterior = 0xFF; // No hay fila resaltada para fila 0
 c00271c:	e59f3244 	ldr	r3, [pc, #580]	; c002968 <estado_selec_fila+0x424>
 c002720:	e3e02000 	mvn	r2, #0
 c002724:	e5c32000 	strb	r2, [r3]
        }

        return;
 c002728:	ea000088 	b	c002950 <estado_selec_fila+0x40c>
    }

    if (evento_boton_izquierdo)
 c00272c:	e59f3238 	ldr	r3, [pc, #568]	; c00296c <estado_selec_fila+0x428>
 c002730:	e5d33000 	ldrb	r3, [r3]
 c002734:	e20330ff 	and	r3, r3, #255	; 0xff
 c002738:	e3530000 	cmp	r3, #0
 c00273c:	0a000083 	beq	c002950 <estado_selec_fila+0x40c>
    {
        evento_boton_izquierdo = 0;
 c002740:	e59f3224 	ldr	r3, [pc, #548]	; c00296c <estado_selec_fila+0x428>
 c002744:	e3a02000 	mov	r2, #0
 c002748:	e5c32000 	strb	r2, [r3]

        // Si se seleccion fila 0, acabar la partida
        if (numero_actual == 0)
 c00274c:	e59f320c 	ldr	r3, [pc, #524]	; c002960 <estado_selec_fila+0x41c>
 c002750:	e5d33000 	ldrb	r3, [r3]
 c002754:	e3530000 	cmp	r3, #0
 c002758:	1a000053 	bne	c0028ac <estado_selec_fila+0x368>
        {
            // Limpiar resaltados si los hay
            if (fila_anterior != 0xFF)
 c00275c:	e59f3204 	ldr	r3, [pc, #516]	; c002968 <estado_selec_fila+0x424>
 c002760:	e5d33000 	ldrb	r3, [r3]
 c002764:	e35300ff 	cmp	r3, #255	; 0xff
 c002768:	0a00000f 	beq	c0027ac <estado_selec_fila+0x268>
            {
                uint8_t col;
                for (col = 0; col < 9; col++)
 c00276c:	e3a03000 	mov	r3, #0
 c002770:	e54b300f 	strb	r3, [fp, #-15]
 c002774:	ea000009 	b	c0027a0 <estado_selec_fila+0x25c>
                {
                    sudoku_resaltar_celda(fila_anterior, col, 0);
 c002778:	e59f31e8 	ldr	r3, [pc, #488]	; c002968 <estado_selec_fila+0x424>
 c00277c:	e5d32000 	ldrb	r2, [r3]
 c002780:	e55b300f 	ldrb	r3, [fp, #-15]
 c002784:	e1a00002 	mov	r0, r2
 c002788:	e1a01003 	mov	r1, r3
 c00278c:	e3a02000 	mov	r2, #0
 c002790:	eb001725 	bl	c00842c <sudoku_resaltar_celda>
        {
            // Limpiar resaltados si los hay
            if (fila_anterior != 0xFF)
            {
                uint8_t col;
                for (col = 0; col < 9; col++)
 c002794:	e55b300f 	ldrb	r3, [fp, #-15]
 c002798:	e2833001 	add	r3, r3, #1
 c00279c:	e54b300f 	strb	r3, [fp, #-15]
 c0027a0:	e55b300f 	ldrb	r3, [fp, #-15]
 c0027a4:	e3530008 	cmp	r3, #8
 c0027a8:	9afffff2 	bls	c002778 <estado_selec_fila+0x234>
                    sudoku_resaltar_celda(fila_anterior, col, 0);
                }
            }

            // Mostrar resultado de partida terminada con tiempo
            mostrar_partida_terminada();
 c0027ac:	eb000476 	bl	c00398c <mostrar_partida_terminada>

            // REINICIO COMPLETO igual que en victoria
            estado_juego = ESTADO_INICIAL;
 c0027b0:	e59f31b8 	ldr	r3, [pc, #440]	; c002970 <estado_selec_fila+0x42c>
 c0027b4:	e3a02000 	mov	r2, #0
 c0027b8:	e5c32000 	strb	r2, [r3]
            pantalla_inicial_mostrada = 0; // Forzar mostrar pantalla inicial
 c0027bc:	e59f31b0 	ldr	r3, [pc, #432]	; c002974 <estado_selec_fila+0x430>
 c0027c0:	e3a02000 	mov	r2, #0
 c0027c4:	e5c32000 	strb	r2, [r3]
            tablero_dibujado = 0;
 c0027c8:	e59f31a8 	ldr	r3, [pc, #424]	; c002978 <estado_selec_fila+0x434>
 c0027cc:	e3a02000 	mov	r2, #0
 c0027d0:	e5c32000 	strb	r2, [r3]
            resetear_tiempo_partida();
 c0027d4:	eb0003d8 	bl	c00373c <resetear_tiempo_partida>
            numero_actual = 0;
 c0027d8:	e59f3180 	ldr	r3, [pc, #384]	; c002960 <estado_selec_fila+0x41c>
 c0027dc:	e3a02000 	mov	r2, #0
 c0027e0:	e5c32000 	strb	r2, [r3]
            fila_seleccionada = 0;
 c0027e4:	e59f3190 	ldr	r3, [pc, #400]	; c00297c <estado_selec_fila+0x438>
 c0027e8:	e3a02000 	mov	r2, #0
 c0027ec:	e5c32000 	strb	r2, [r3]
            columna_seleccionada = 0;
 c0027f0:	e59f3188 	ldr	r3, [pc, #392]	; c002980 <estado_selec_fila+0x43c>
 c0027f4:	e3a02000 	mov	r2, #0
 c0027f8:	e5c32000 	strb	r2, [r3]
            contador_error = 0;
 c0027fc:	e59f3180 	ldr	r3, [pc, #384]	; c002984 <estado_selec_fila+0x440>
 c002800:	e3a02000 	mov	r2, #0
 c002804:	e5832000 	str	r2, [r3]
            fila_anterior = 0xFF;
 c002808:	e59f3158 	ldr	r3, [pc, #344]	; c002968 <estado_selec_fila+0x424>
 c00280c:	e3e02000 	mvn	r2, #0
 c002810:	e5c32000 	strb	r2, [r3]

            // LIMPIAR TODOS los eventos y estados
            limpiar_todos_eventos();
 c002814:	eb000718 	bl	c00447c <limpiar_todos_eventos>

            // RESTAURAR tablero original
            uint8_t i, j;
            for (i = 0; i < NUM_FILAS; i++)
 c002818:	e3a03000 	mov	r3, #0
 c00281c:	e54b3010 	strb	r3, [fp, #-16]
 c002820:	ea00001b 	b	c002894 <estado_selec_fila+0x350>
            {
                for (j = 0; j < 9; j++)
 c002824:	e3a03000 	mov	r3, #0
 c002828:	e54b3011 	strb	r3, [fp, #-17]	; 0xffffffef
 c00282c:	ea000012 	b	c00287c <estado_selec_fila+0x338>
                {
                    cuadricula_C_C[i][j] = cuadricula_C_ARM[i][j];
 c002830:	e55b0010 	ldrb	r0, [fp, #-16]
 c002834:	e55b3011 	ldrb	r3, [fp, #-17]	; 0xffffffef
 c002838:	e55bc010 	ldrb	ip, [fp, #-16]
 c00283c:	e55b2011 	ldrb	r2, [fp, #-17]	; 0xffffffef
 c002840:	e59f1140 	ldr	r1, [pc, #320]	; c002988 <estado_selec_fila+0x444>
 c002844:	e1a0c20c 	lsl	ip, ip, #4
 c002848:	e08c2002 	add	r2, ip, r2
 c00284c:	e1a02082 	lsl	r2, r2, #1
 c002850:	e0812002 	add	r2, r1, r2
 c002854:	e1d220b0 	ldrh	r2, [r2]
 c002858:	e59f112c 	ldr	r1, [pc, #300]	; c00298c <estado_selec_fila+0x448>
 c00285c:	e1a00200 	lsl	r0, r0, #4
 c002860:	e0803003 	add	r3, r0, r3
 c002864:	e1a03083 	lsl	r3, r3, #1
 c002868:	e0813003 	add	r3, r1, r3
 c00286c:	e1c320b0 	strh	r2, [r3]

            // RESTAURAR tablero original
            uint8_t i, j;
            for (i = 0; i < NUM_FILAS; i++)
            {
                for (j = 0; j < 9; j++)
 c002870:	e55b3011 	ldrb	r3, [fp, #-17]	; 0xffffffef
 c002874:	e2833001 	add	r3, r3, #1
 c002878:	e54b3011 	strb	r3, [fp, #-17]	; 0xffffffef
 c00287c:	e55b3011 	ldrb	r3, [fp, #-17]	; 0xffffffef
 c002880:	e3530008 	cmp	r3, #8
 c002884:	9affffe9 	bls	c002830 <estado_selec_fila+0x2ec>
            // LIMPIAR TODOS los eventos y estados
            limpiar_todos_eventos();

            // RESTAURAR tablero original
            uint8_t i, j;
            for (i = 0; i < NUM_FILAS; i++)
 c002888:	e55b3010 	ldrb	r3, [fp, #-16]
 c00288c:	e2833001 	add	r3, r3, #1
 c002890:	e54b3010 	strb	r3, [fp, #-16]
 c002894:	e55b3010 	ldrb	r3, [fp, #-16]
 c002898:	e3530008 	cmp	r3, #8
 c00289c:	9affffe0 	bls	c002824 <estado_selec_fila+0x2e0>
                {
                    cuadricula_C_C[i][j] = cuadricula_C_ARM[i][j];
                }
            }

            D8Led_symbol(0x0);
 c0028a0:	e3a00000 	mov	r0, #0
 c0028a4:	ebfff9d0 	bl	c000fec <D8Led_symbol>
            return;
 c0028a8:	ea000028 	b	c002950 <estado_selec_fila+0x40c>
        }

        // Funcionalidad normal para filas 1-9
        fila_seleccionada = numero_actual - 1;
 c0028ac:	e59f30ac 	ldr	r3, [pc, #172]	; c002960 <estado_selec_fila+0x41c>
 c0028b0:	e5d33000 	ldrb	r3, [r3]
 c0028b4:	e2433001 	sub	r3, r3, #1
 c0028b8:	e20320ff 	and	r2, r3, #255	; 0xff
 c0028bc:	e59f30b8 	ldr	r3, [pc, #184]	; c00297c <estado_selec_fila+0x438>
 c0028c0:	e5c32000 	strb	r2, [r3]

        // Quitar resaltado de toda la fila
        uint8_t col;
        for (col = 0; col < 9; col++)
 c0028c4:	e3a03000 	mov	r3, #0
 c0028c8:	e54b3012 	strb	r3, [fp, #-18]	; 0xffffffee
 c0028cc:	ea000009 	b	c0028f8 <estado_selec_fila+0x3b4>
        {
            sudoku_resaltar_celda(fila_seleccionada, col, 0);
 c0028d0:	e59f30a4 	ldr	r3, [pc, #164]	; c00297c <estado_selec_fila+0x438>
 c0028d4:	e5d32000 	ldrb	r2, [r3]
 c0028d8:	e55b3012 	ldrb	r3, [fp, #-18]	; 0xffffffee
 c0028dc:	e1a00002 	mov	r0, r2
 c0028e0:	e1a01003 	mov	r1, r3
 c0028e4:	e3a02000 	mov	r2, #0
 c0028e8:	eb0016cf 	bl	c00842c <sudoku_resaltar_celda>
        // Funcionalidad normal para filas 1-9
        fila_seleccionada = numero_actual - 1;

        // Quitar resaltado de toda la fila
        uint8_t col;
        for (col = 0; col < 9; col++)
 c0028ec:	e55b3012 	ldrb	r3, [fp, #-18]	; 0xffffffee
 c0028f0:	e2833001 	add	r3, r3, #1
 c0028f4:	e54b3012 	strb	r3, [fp, #-18]	; 0xffffffee
 c0028f8:	e55b3012 	ldrb	r3, [fp, #-18]	; 0xffffffee
 c0028fc:	e3530008 	cmp	r3, #8
 c002900:	9afffff2 	bls	c0028d0 <estado_selec_fila+0x38c>
        {
            sudoku_resaltar_celda(fila_seleccionada, col, 0);
        }
        fila_anterior = 0xFF;
 c002904:	e59f305c 	ldr	r3, [pc, #92]	; c002968 <estado_selec_fila+0x424>
 c002908:	e3e02000 	mvn	r2, #0
 c00290c:	e5c32000 	strb	r2, [r3]

        estado_juego = ESTADO_SELEC_COLUMNA;
 c002910:	e59f3058 	ldr	r3, [pc, #88]	; c002970 <estado_selec_fila+0x42c>
 c002914:	e3a02002 	mov	r2, #2
 c002918:	e5c32000 	strb	r2, [r3]
        numero_actual = 1;
 c00291c:	e59f303c 	ldr	r3, [pc, #60]	; c002960 <estado_selec_fila+0x41c>
 c002920:	e3a02001 	mov	r2, #1
 c002924:	e5c32000 	strb	r2, [r3]
        D8Led_symbol(0xC);
 c002928:	e3a0000c 	mov	r0, #12
 c00292c:	ebfff9ae 	bl	c000fec <D8Led_symbol>

        // Resaltar primera columna de la fila seleccionada
        sudoku_resaltar_celda(fila_seleccionada, 0, 1);
 c002930:	e59f3044 	ldr	r3, [pc, #68]	; c00297c <estado_selec_fila+0x438>
 c002934:	e5d33000 	ldrb	r3, [r3]
 c002938:	e1a00003 	mov	r0, r3
 c00293c:	e3a01000 	mov	r1, #0
 c002940:	e3a02001 	mov	r2, #1
 c002944:	eb0016b8 	bl	c00842c <sudoku_resaltar_celda>
 c002948:	ea000000 	b	c002950 <estado_selec_fila+0x40c>
        {
            numero_actual = evento_teclado_digito;
            evento_teclado_digito = 0xFF;
            D8Led_symbol(numero_actual);
        }
        return;
 c00294c:	e1a00000 	nop			; (mov r0, r0)
        D8Led_symbol(0xC);

        // Resaltar primera columna de la fila seleccionada
        sudoku_resaltar_celda(fila_seleccionada, 0, 1);
    }
}
 c002950:	e24bd00c 	sub	sp, fp, #12
 c002954:	e89d6800 	ldm	sp, {fp, sp, lr}
 c002958:	e12fff1e 	bx	lr
 c00295c:	0c00a459 	.word	0x0c00a459
 c002960:	0c00a458 	.word	0x0c00a458
 c002964:	0c00cd2b 	.word	0x0c00cd2b
 c002968:	0c00a45a 	.word	0x0c00a45a
 c00296c:	0c00cd2c 	.word	0x0c00cd2c
 c002970:	0c00cd28 	.word	0x0c00cd28
 c002974:	0c00cd34 	.word	0x0c00cd34
 c002978:	0c00cd35 	.word	0x0c00cd35
 c00297c:	0c00cd29 	.word	0x0c00cd29
 c002980:	0c00cd2a 	.word	0x0c00cd2a
 c002984:	0c00cd30 	.word	0x0c00cd30
 c002988:	0c00a5a0 	.word	0x0c00a5a0
 c00298c:	0c00a480 	.word	0x0c00a480

0c002990 <estado_selec_columna>:
/**
 * Estado: seleccionar columna
 * Gestiona eventos para elegir la columna y valida precondiciones.
 */
static void estado_selec_columna(void)
{
 c002990:	e1a0c00d 	mov	ip, sp
 c002994:	e92dd800 	push	{fp, ip, lr, pc}
 c002998:	e24cb004 	sub	fp, ip, #4
 c00299c:	e24dd008 	sub	sp, sp, #8
    uint8_t valor_previo;
    uint16_t candidatos;
    uint8_t es_pista;
    static uint8_t columna_anterior = 0;

    if (evento_teclado_digito != 0xFF)
 c0029a0:	e59f330c 	ldr	r3, [pc, #780]	; c002cb4 <estado_selec_columna+0x324>
 c0029a4:	e5d33000 	ldrb	r3, [r3]
 c0029a8:	e20330ff 	and	r3, r3, #255	; 0xff
 c0029ac:	e35300ff 	cmp	r3, #255	; 0xff
 c0029b0:	0a000016 	beq	c002a10 <estado_selec_columna+0x80>
    {
        if (evento_teclado_digito >= 1 && evento_teclado_digito <= 9)
 c0029b4:	e59f32f8 	ldr	r3, [pc, #760]	; c002cb4 <estado_selec_columna+0x324>
 c0029b8:	e5d33000 	ldrb	r3, [r3]
 c0029bc:	e20330ff 	and	r3, r3, #255	; 0xff
 c0029c0:	e3530000 	cmp	r3, #0
 c0029c4:	0a0000b2 	beq	c002c94 <estado_selec_columna+0x304>
 c0029c8:	e59f32e4 	ldr	r3, [pc, #740]	; c002cb4 <estado_selec_columna+0x324>
 c0029cc:	e5d33000 	ldrb	r3, [r3]
 c0029d0:	e20330ff 	and	r3, r3, #255	; 0xff
 c0029d4:	e3530009 	cmp	r3, #9
 c0029d8:	8a0000af 	bhi	c002c9c <estado_selec_columna+0x30c>
        {
            numero_actual = evento_teclado_digito;
 c0029dc:	e59f32d0 	ldr	r3, [pc, #720]	; c002cb4 <estado_selec_columna+0x324>
 c0029e0:	e5d33000 	ldrb	r3, [r3]
 c0029e4:	e20320ff 	and	r2, r3, #255	; 0xff
 c0029e8:	e59f32c8 	ldr	r3, [pc, #712]	; c002cb8 <estado_selec_columna+0x328>
 c0029ec:	e5c32000 	strb	r2, [r3]
            evento_teclado_digito = 0xFF;
 c0029f0:	e59f32bc 	ldr	r3, [pc, #700]	; c002cb4 <estado_selec_columna+0x324>
 c0029f4:	e3e02000 	mvn	r2, #0
 c0029f8:	e5c32000 	strb	r2, [r3]
            D8Led_symbol(numero_actual);
 c0029fc:	e59f32b4 	ldr	r3, [pc, #692]	; c002cb8 <estado_selec_columna+0x328>
 c002a00:	e5d33000 	ldrb	r3, [r3]
 c002a04:	e1a00003 	mov	r0, r3
 c002a08:	ebfff977 	bl	c000fec <D8Led_symbol>
        }
        return;
 c002a0c:	ea0000a5 	b	c002ca8 <estado_selec_columna+0x318>
    }

    if (evento_boton_derecho)
 c002a10:	e59f32a4 	ldr	r3, [pc, #676]	; c002cbc <estado_selec_columna+0x32c>
 c002a14:	e5d33000 	ldrb	r3, [r3]
 c002a18:	e20330ff 	and	r3, r3, #255	; 0xff
 c002a1c:	e3530000 	cmp	r3, #0
 c002a20:	0a00002a 	beq	c002ad0 <estado_selec_columna+0x140>
    {
        evento_boton_derecho = 0;
 c002a24:	e59f3290 	ldr	r3, [pc, #656]	; c002cbc <estado_selec_columna+0x32c>
 c002a28:	e3a02000 	mov	r2, #0
 c002a2c:	e5c32000 	strb	r2, [r3]

        // Quitar resaltado de columna anterior
        sudoku_resaltar_celda(fila_seleccionada, columna_anterior, 0);
 c002a30:	e59f3288 	ldr	r3, [pc, #648]	; c002cc0 <estado_selec_columna+0x330>
 c002a34:	e5d32000 	ldrb	r2, [r3]
 c002a38:	e59f3284 	ldr	r3, [pc, #644]	; c002cc4 <estado_selec_columna+0x334>
 c002a3c:	e5d33000 	ldrb	r3, [r3]
 c002a40:	e1a00002 	mov	r0, r2
 c002a44:	e1a01003 	mov	r1, r3
 c002a48:	e3a02000 	mov	r2, #0
 c002a4c:	eb001676 	bl	c00842c <sudoku_resaltar_celda>

        numero_actual++;
 c002a50:	e59f3260 	ldr	r3, [pc, #608]	; c002cb8 <estado_selec_columna+0x328>
 c002a54:	e5d33000 	ldrb	r3, [r3]
 c002a58:	e2833001 	add	r3, r3, #1
 c002a5c:	e20320ff 	and	r2, r3, #255	; 0xff
 c002a60:	e59f3250 	ldr	r3, [pc, #592]	; c002cb8 <estado_selec_columna+0x328>
 c002a64:	e5c32000 	strb	r2, [r3]
        if (numero_actual > 9)
 c002a68:	e59f3248 	ldr	r3, [pc, #584]	; c002cb8 <estado_selec_columna+0x328>
 c002a6c:	e5d33000 	ldrb	r3, [r3]
 c002a70:	e3530009 	cmp	r3, #9
 c002a74:	9a000002 	bls	c002a84 <estado_selec_columna+0xf4>
            numero_actual = 1;
 c002a78:	e59f3238 	ldr	r3, [pc, #568]	; c002cb8 <estado_selec_columna+0x328>
 c002a7c:	e3a02001 	mov	r2, #1
 c002a80:	e5c32000 	strb	r2, [r3]
        D8Led_symbol(numero_actual);
 c002a84:	e59f322c 	ldr	r3, [pc, #556]	; c002cb8 <estado_selec_columna+0x328>
 c002a88:	e5d33000 	ldrb	r3, [r3]
 c002a8c:	e1a00003 	mov	r0, r3
 c002a90:	ebfff955 	bl	c000fec <D8Led_symbol>

        // Resaltar nueva columna
        columna_anterior = numero_actual - 1;
 c002a94:	e59f321c 	ldr	r3, [pc, #540]	; c002cb8 <estado_selec_columna+0x328>
 c002a98:	e5d33000 	ldrb	r3, [r3]
 c002a9c:	e2433001 	sub	r3, r3, #1
 c002aa0:	e20320ff 	and	r2, r3, #255	; 0xff
 c002aa4:	e59f3218 	ldr	r3, [pc, #536]	; c002cc4 <estado_selec_columna+0x334>
 c002aa8:	e5c32000 	strb	r2, [r3]
        sudoku_resaltar_celda(fila_seleccionada, columna_anterior, 1);
 c002aac:	e59f320c 	ldr	r3, [pc, #524]	; c002cc0 <estado_selec_columna+0x330>
 c002ab0:	e5d32000 	ldrb	r2, [r3]
 c002ab4:	e59f3208 	ldr	r3, [pc, #520]	; c002cc4 <estado_selec_columna+0x334>
 c002ab8:	e5d33000 	ldrb	r3, [r3]
 c002abc:	e1a00002 	mov	r0, r2
 c002ac0:	e1a01003 	mov	r1, r3
 c002ac4:	e3a02001 	mov	r2, #1
 c002ac8:	eb001657 	bl	c00842c <sudoku_resaltar_celda>

        return;
 c002acc:	ea000075 	b	c002ca8 <estado_selec_columna+0x318>
    }

    if (!evento_boton_izquierdo)
 c002ad0:	e59f31f0 	ldr	r3, [pc, #496]	; c002cc8 <estado_selec_columna+0x338>
 c002ad4:	e5d33000 	ldrb	r3, [r3]
 c002ad8:	e20330ff 	and	r3, r3, #255	; 0xff
 c002adc:	e3530000 	cmp	r3, #0
 c002ae0:	0a00006f 	beq	c002ca4 <estado_selec_columna+0x314>
        return;

    evento_boton_izquierdo = 0;
 c002ae4:	e59f31dc 	ldr	r3, [pc, #476]	; c002cc8 <estado_selec_columna+0x338>
 c002ae8:	e3a02000 	mov	r2, #0
 c002aec:	e5c32000 	strb	r2, [r3]
    columna_seleccionada = numero_actual - 1;
 c002af0:	e59f31c0 	ldr	r3, [pc, #448]	; c002cb8 <estado_selec_columna+0x328>
 c002af4:	e5d33000 	ldrb	r3, [r3]
 c002af8:	e2433001 	sub	r3, r3, #1
 c002afc:	e20320ff 	and	r2, r3, #255	; 0xff
 c002b00:	e59f31c4 	ldr	r3, [pc, #452]	; c002ccc <estado_selec_columna+0x33c>
 c002b04:	e5c32000 	strb	r2, [r3]

    // Quitar resaltado
    sudoku_resaltar_celda(fila_seleccionada, columna_seleccionada, 0);
 c002b08:	e59f31b0 	ldr	r3, [pc, #432]	; c002cc0 <estado_selec_columna+0x330>
 c002b0c:	e5d32000 	ldrb	r2, [r3]
 c002b10:	e59f31b4 	ldr	r3, [pc, #436]	; c002ccc <estado_selec_columna+0x33c>
 c002b14:	e5d33000 	ldrb	r3, [r3]
 c002b18:	e1a00002 	mov	r0, r2
 c002b1c:	e1a01003 	mov	r1, r3
 c002b20:	e3a02000 	mov	r2, #0
 c002b24:	eb001640 	bl	c00842c <sudoku_resaltar_celda>

    // Verificar si la celda es una pista (bit 4 = 1)
    es_pista = (cuadricula_C_C[fila_seleccionada][columna_seleccionada] & (1 << 4)) ? 1 : 0;
 c002b28:	e59f3190 	ldr	r3, [pc, #400]	; c002cc0 <estado_selec_columna+0x330>
 c002b2c:	e5d33000 	ldrb	r3, [r3]
 c002b30:	e1a01003 	mov	r1, r3
 c002b34:	e59f3190 	ldr	r3, [pc, #400]	; c002ccc <estado_selec_columna+0x33c>
 c002b38:	e5d33000 	ldrb	r3, [r3]
 c002b3c:	e59f218c 	ldr	r2, [pc, #396]	; c002cd0 <estado_selec_columna+0x340>
 c002b40:	e1a01201 	lsl	r1, r1, #4
 c002b44:	e0813003 	add	r3, r1, r3
 c002b48:	e1a03083 	lsl	r3, r3, #1
 c002b4c:	e0823003 	add	r3, r2, r3
 c002b50:	e1d330b0 	ldrh	r3, [r3]
 c002b54:	e2033010 	and	r3, r3, #16
 c002b58:	e3530000 	cmp	r3, #0
 c002b5c:	03a03000 	moveq	r3, #0
 c002b60:	13a03001 	movne	r3, #1
 c002b64:	e54b300d 	strb	r3, [fp, #-13]

    // Si es pista, no se puede modificar - volver a seleccin de fila
    if (es_pista)
 c002b68:	e55b300d 	ldrb	r3, [fp, #-13]
 c002b6c:	e3530000 	cmp	r3, #0
 c002b70:	0a000008 	beq	c002b98 <estado_selec_columna+0x208>
    {
        estado_juego = ESTADO_SELEC_FILA;
 c002b74:	e59f3158 	ldr	r3, [pc, #344]	; c002cd4 <estado_selec_columna+0x344>
 c002b78:	e3a02001 	mov	r2, #1
 c002b7c:	e5c32000 	strb	r2, [r3]
        numero_actual = 1;
 c002b80:	e59f3130 	ldr	r3, [pc, #304]	; c002cb8 <estado_selec_columna+0x328>
 c002b84:	e3a02001 	mov	r2, #1
 c002b88:	e5c32000 	strb	r2, [r3]
        D8Led_symbol(0xF);
 c002b8c:	e3a0000f 	mov	r0, #15
 c002b90:	ebfff915 	bl	c000fec <D8Led_symbol>
        return;
 c002b94:	ea000043 	b	c002ca8 <estado_selec_columna+0x318>
    }

    valor_previo = celda_leer_valor(cuadricula_C_C[fila_seleccionada][columna_seleccionada]);
 c002b98:	e59f3120 	ldr	r3, [pc, #288]	; c002cc0 <estado_selec_columna+0x330>
 c002b9c:	e5d33000 	ldrb	r3, [r3]
 c002ba0:	e1a01003 	mov	r1, r3
 c002ba4:	e59f3120 	ldr	r3, [pc, #288]	; c002ccc <estado_selec_columna+0x33c>
 c002ba8:	e5d33000 	ldrb	r3, [r3]
 c002bac:	e59f211c 	ldr	r2, [pc, #284]	; c002cd0 <estado_selec_columna+0x340>
 c002bb0:	e1a01201 	lsl	r1, r1, #4
 c002bb4:	e0813003 	add	r3, r1, r3
 c002bb8:	e1a03083 	lsl	r3, r3, #1
 c002bbc:	e0823003 	add	r3, r2, r3
 c002bc0:	e1d330b0 	ldrh	r3, [r3]
 c002bc4:	e1a00003 	mov	r0, r3
 c002bc8:	eb00078d 	bl	c004a04 <celda_leer_valor>
 c002bcc:	e1a03000 	mov	r3, r0
 c002bd0:	e54b300e 	strb	r3, [fp, #-14]
    candidatos = (cuadricula_C_C[fila_seleccionada][columna_seleccionada] >> BIT_CANDIDATOS) & 0x1FF;
 c002bd4:	e59f30e4 	ldr	r3, [pc, #228]	; c002cc0 <estado_selec_columna+0x330>
 c002bd8:	e5d33000 	ldrb	r3, [r3]
 c002bdc:	e1a01003 	mov	r1, r3
 c002be0:	e59f30e4 	ldr	r3, [pc, #228]	; c002ccc <estado_selec_columna+0x33c>
 c002be4:	e5d33000 	ldrb	r3, [r3]
 c002be8:	e59f20e0 	ldr	r2, [pc, #224]	; c002cd0 <estado_selec_columna+0x340>
 c002bec:	e1a01201 	lsl	r1, r1, #4
 c002bf0:	e0813003 	add	r3, r1, r3
 c002bf4:	e1a03083 	lsl	r3, r3, #1
 c002bf8:	e0823003 	add	r3, r2, r3
 c002bfc:	e1d330b0 	ldrh	r3, [r3]
 c002c00:	e1a033a3 	lsr	r3, r3, #7
 c002c04:	e14b31b0 	strh	r3, [fp, #-16]

    // Esta verificacin adicional es para celdas que tienen un valor pero no son pistas
    // (valores introducidos por el usuario anteriormente)
    if (valor_previo > 0 && candidatos == 0x1FF)
 c002c08:	e55b300e 	ldrb	r3, [fp, #-14]
 c002c0c:	e3530000 	cmp	r3, #0
 c002c10:	0a00000c 	beq	c002c48 <estado_selec_columna+0x2b8>
 c002c14:	e15b21b0 	ldrh	r2, [fp, #-16]
 c002c18:	e59f30b8 	ldr	r3, [pc, #184]	; c002cd8 <estado_selec_columna+0x348>
 c002c1c:	e1520003 	cmp	r2, r3
 c002c20:	1a000008 	bne	c002c48 <estado_selec_columna+0x2b8>
    {
        estado_juego = ESTADO_SELEC_FILA;
 c002c24:	e59f30a8 	ldr	r3, [pc, #168]	; c002cd4 <estado_selec_columna+0x344>
 c002c28:	e3a02001 	mov	r2, #1
 c002c2c:	e5c32000 	strb	r2, [r3]
        numero_actual = 1;
 c002c30:	e59f3080 	ldr	r3, [pc, #128]	; c002cb8 <estado_selec_columna+0x328>
 c002c34:	e3a02001 	mov	r2, #1
 c002c38:	e5c32000 	strb	r2, [r3]
        D8Led_symbol(0xF);
 c002c3c:	e3a0000f 	mov	r0, #15
 c002c40:	ebfff8e9 	bl	c000fec <D8Led_symbol>
        return;
 c002c44:	ea000017 	b	c002ca8 <estado_selec_columna+0x318>
    }

    // Resaltar celda seleccionada para edicin
    sudoku_resaltar_celda(fila_seleccionada, columna_seleccionada, 1);
 c002c48:	e59f3070 	ldr	r3, [pc, #112]	; c002cc0 <estado_selec_columna+0x330>
 c002c4c:	e5d32000 	ldrb	r2, [r3]
 c002c50:	e59f3074 	ldr	r3, [pc, #116]	; c002ccc <estado_selec_columna+0x33c>
 c002c54:	e5d33000 	ldrb	r3, [r3]
 c002c58:	e1a00002 	mov	r0, r2
 c002c5c:	e1a01003 	mov	r1, r3
 c002c60:	e3a02001 	mov	r2, #1
 c002c64:	eb0015f0 	bl	c00842c <sudoku_resaltar_celda>

    estado_juego = ESTADO_SELEC_VALOR;
 c002c68:	e59f3064 	ldr	r3, [pc, #100]	; c002cd4 <estado_selec_columna+0x344>
 c002c6c:	e3a02003 	mov	r2, #3
 c002c70:	e5c32000 	strb	r2, [r3]
    numero_actual = 0;
 c002c74:	e59f303c 	ldr	r3, [pc, #60]	; c002cb8 <estado_selec_columna+0x328>
 c002c78:	e3a02000 	mov	r2, #0
 c002c7c:	e5c32000 	strb	r2, [r3]
    D8Led_symbol(numero_actual);
 c002c80:	e59f3030 	ldr	r3, [pc, #48]	; c002cb8 <estado_selec_columna+0x328>
 c002c84:	e5d33000 	ldrb	r3, [r3]
 c002c88:	e1a00003 	mov	r0, r3
 c002c8c:	ebfff8d6 	bl	c000fec <D8Led_symbol>
 c002c90:	ea000004 	b	c002ca8 <estado_selec_columna+0x318>
        {
            numero_actual = evento_teclado_digito;
            evento_teclado_digito = 0xFF;
            D8Led_symbol(numero_actual);
        }
        return;
 c002c94:	e1a00000 	nop			; (mov r0, r0)
 c002c98:	ea000002 	b	c002ca8 <estado_selec_columna+0x318>
 c002c9c:	e1a00000 	nop			; (mov r0, r0)
 c002ca0:	ea000000 	b	c002ca8 <estado_selec_columna+0x318>

        return;
    }

    if (!evento_boton_izquierdo)
        return;
 c002ca4:	e1a00000 	nop			; (mov r0, r0)
    sudoku_resaltar_celda(fila_seleccionada, columna_seleccionada, 1);

    estado_juego = ESTADO_SELEC_VALOR;
    numero_actual = 0;
    D8Led_symbol(numero_actual);
}
 c002ca8:	e24bd00c 	sub	sp, fp, #12
 c002cac:	e89d6800 	ldm	sp, {fp, sp, lr}
 c002cb0:	e12fff1e 	bx	lr
 c002cb4:	0c00a459 	.word	0x0c00a459
 c002cb8:	0c00a458 	.word	0x0c00a458
 c002cbc:	0c00cd2b 	.word	0x0c00cd2b
 c002cc0:	0c00cd29 	.word	0x0c00cd29
 c002cc4:	0c00cd54 	.word	0x0c00cd54
 c002cc8:	0c00cd2c 	.word	0x0c00cd2c
 c002ccc:	0c00cd2a 	.word	0x0c00cd2a
 c002cd0:	0c00a480 	.word	0x0c00a480
 c002cd4:	0c00cd28 	.word	0x0c00cd28
 c002cd8:	000001ff 	.word	0x000001ff

0c002cdc <estado_selec_valor>:
 * Estado: seleccionar valor
 * Gestiona la insercin de un valor en la celda seleccionada,
 * detecta errores y verifica si la partida est completa.
 */
static void estado_selec_valor(void)
{
 c002cdc:	e1a0c00d 	mov	ip, sp
 c002ce0:	e92dd800 	push	{fp, ip, lr, pc}
 c002ce4:	e24cb004 	sub	fp, ip, #4
 c002ce8:	e24dd008 	sub	sp, sp, #8
    uint8_t valor_previo;
    int error_detectado = 0;
 c002cec:	e3a03000 	mov	r3, #0
 c002cf0:	e50b3010 	str	r3, [fp, #-16]

    // --- Manejo de Entrada (Teclado y Botn Derecho) ---
    if (evento_teclado_digito != 0xFF)
 c002cf4:	e59f33fc 	ldr	r3, [pc, #1020]	; c0030f8 <estado_selec_valor+0x41c>
 c002cf8:	e5d33000 	ldrb	r3, [r3]
 c002cfc:	e20330ff 	and	r3, r3, #255	; 0xff
 c002d00:	e35300ff 	cmp	r3, #255	; 0xff
 c002d04:	0a00000c 	beq	c002d3c <estado_selec_valor+0x60>
    {
        numero_actual = evento_teclado_digito;
 c002d08:	e59f33e8 	ldr	r3, [pc, #1000]	; c0030f8 <estado_selec_valor+0x41c>
 c002d0c:	e5d33000 	ldrb	r3, [r3]
 c002d10:	e20320ff 	and	r2, r3, #255	; 0xff
 c002d14:	e59f33e0 	ldr	r3, [pc, #992]	; c0030fc <estado_selec_valor+0x420>
 c002d18:	e5c32000 	strb	r2, [r3]
        evento_teclado_digito = 0xFF;
 c002d1c:	e59f33d4 	ldr	r3, [pc, #980]	; c0030f8 <estado_selec_valor+0x41c>
 c002d20:	e3e02000 	mvn	r2, #0
 c002d24:	e5c32000 	strb	r2, [r3]
        D8Led_symbol(numero_actual);
 c002d28:	e59f33cc 	ldr	r3, [pc, #972]	; c0030fc <estado_selec_valor+0x420>
 c002d2c:	e5d33000 	ldrb	r3, [r3]
 c002d30:	e1a00003 	mov	r0, r3
 c002d34:	ebfff8ac 	bl	c000fec <D8Led_symbol>
        return;
 c002d38:	ea0000eb 	b	c0030ec <estado_selec_valor+0x410>
    }

    if (evento_boton_derecho)
 c002d3c:	e59f33bc 	ldr	r3, [pc, #956]	; c003100 <estado_selec_valor+0x424>
 c002d40:	e5d33000 	ldrb	r3, [r3]
 c002d44:	e20330ff 	and	r3, r3, #255	; 0xff
 c002d48:	e3530000 	cmp	r3, #0
 c002d4c:	0a000014 	beq	c002da4 <estado_selec_valor+0xc8>
    {
        evento_boton_derecho = 0;
 c002d50:	e59f33a8 	ldr	r3, [pc, #936]	; c003100 <estado_selec_valor+0x424>
 c002d54:	e3a02000 	mov	r2, #0
 c002d58:	e5c32000 	strb	r2, [r3]
        numero_actual++;
 c002d5c:	e59f3398 	ldr	r3, [pc, #920]	; c0030fc <estado_selec_valor+0x420>
 c002d60:	e5d33000 	ldrb	r3, [r3]
 c002d64:	e2833001 	add	r3, r3, #1
 c002d68:	e20320ff 	and	r2, r3, #255	; 0xff
 c002d6c:	e59f3388 	ldr	r3, [pc, #904]	; c0030fc <estado_selec_valor+0x420>
 c002d70:	e5c32000 	strb	r2, [r3]
        if (numero_actual > 9)
 c002d74:	e59f3380 	ldr	r3, [pc, #896]	; c0030fc <estado_selec_valor+0x420>
 c002d78:	e5d33000 	ldrb	r3, [r3]
 c002d7c:	e3530009 	cmp	r3, #9
 c002d80:	9a000002 	bls	c002d90 <estado_selec_valor+0xb4>
            numero_actual = 0;
 c002d84:	e59f3370 	ldr	r3, [pc, #880]	; c0030fc <estado_selec_valor+0x420>
 c002d88:	e3a02000 	mov	r2, #0
 c002d8c:	e5c32000 	strb	r2, [r3]
        D8Led_symbol(numero_actual);
 c002d90:	e59f3364 	ldr	r3, [pc, #868]	; c0030fc <estado_selec_valor+0x420>
 c002d94:	e5d33000 	ldrb	r3, [r3]
 c002d98:	e1a00003 	mov	r0, r3
 c002d9c:	ebfff892 	bl	c000fec <D8Led_symbol>
        return;
 c002da0:	ea0000d1 	b	c0030ec <estado_selec_valor+0x410>
    }

    // --- Confirmacin (Botn Izquierdo) ---
    if (!evento_boton_izquierdo)
 c002da4:	e59f3358 	ldr	r3, [pc, #856]	; c003104 <estado_selec_valor+0x428>
 c002da8:	e5d33000 	ldrb	r3, [r3]
 c002dac:	e20330ff 	and	r3, r3, #255	; 0xff
 c002db0:	e3530000 	cmp	r3, #0
 c002db4:	0a0000cb 	beq	c0030e8 <estado_selec_valor+0x40c>
        return;

    evento_boton_izquierdo = 0;
 c002db8:	e59f3344 	ldr	r3, [pc, #836]	; c003104 <estado_selec_valor+0x428>
 c002dbc:	e3a02000 	mov	r2, #0
 c002dc0:	e5c32000 	strb	r2, [r3]
    valor_previo = celda_leer_valor(cuadricula_C_C[fila_seleccionada][columna_seleccionada]);
 c002dc4:	e59f333c 	ldr	r3, [pc, #828]	; c003108 <estado_selec_valor+0x42c>
 c002dc8:	e5d33000 	ldrb	r3, [r3]
 c002dcc:	e1a01003 	mov	r1, r3
 c002dd0:	e59f3334 	ldr	r3, [pc, #820]	; c00310c <estado_selec_valor+0x430>
 c002dd4:	e5d33000 	ldrb	r3, [r3]
 c002dd8:	e59f2330 	ldr	r2, [pc, #816]	; c003110 <estado_selec_valor+0x434>
 c002ddc:	e1a01201 	lsl	r1, r1, #4
 c002de0:	e0813003 	add	r3, r1, r3
 c002de4:	e1a03083 	lsl	r3, r3, #1
 c002de8:	e0823003 	add	r3, r2, r3
 c002dec:	e1d330b0 	ldrh	r3, [r3]
 c002df0:	e1a00003 	mov	r0, r3
 c002df4:	eb000702 	bl	c004a04 <celda_leer_valor>
 c002df8:	e1a03000 	mov	r3, r0
 c002dfc:	e54b3011 	strb	r3, [fp, #-17]	; 0xffffffef

    // Caso A: Borrar celda (Valor 0)
    if (numero_actual == 0)
 c002e00:	e59f32f4 	ldr	r3, [pc, #756]	; c0030fc <estado_selec_valor+0x420>
 c002e04:	e5d33000 	ldrb	r3, [r3]
 c002e08:	e3530000 	cmp	r3, #0
 c002e0c:	1a00002a 	bne	c002ebc <estado_selec_valor+0x1e0>
    {
        cuadricula_C_C[fila_seleccionada][columna_seleccionada] &= 0xFF80; // Borrar valor y candidatos
 c002e10:	e59f32f0 	ldr	r3, [pc, #752]	; c003108 <estado_selec_valor+0x42c>
 c002e14:	e5d33000 	ldrb	r3, [r3]
 c002e18:	e1a00003 	mov	r0, r3
 c002e1c:	e59f32e8 	ldr	r3, [pc, #744]	; c00310c <estado_selec_valor+0x430>
 c002e20:	e5d33000 	ldrb	r3, [r3]
 c002e24:	e59f22dc 	ldr	r2, [pc, #732]	; c003108 <estado_selec_valor+0x42c>
 c002e28:	e5d22000 	ldrb	r2, [r2]
 c002e2c:	e1a0c002 	mov	ip, r2
 c002e30:	e59f22d4 	ldr	r2, [pc, #724]	; c00310c <estado_selec_valor+0x430>
 c002e34:	e5d22000 	ldrb	r2, [r2]
 c002e38:	e59f12d0 	ldr	r1, [pc, #720]	; c003110 <estado_selec_valor+0x434>
 c002e3c:	e1a0c20c 	lsl	ip, ip, #4
 c002e40:	e08c2002 	add	r2, ip, r2
 c002e44:	e1a02082 	lsl	r2, r2, #1
 c002e48:	e0812002 	add	r2, r1, r2
 c002e4c:	e1d220b0 	ldrh	r2, [r2]
 c002e50:	e3c2207f 	bic	r2, r2, #127	; 0x7f
 c002e54:	e1a02802 	lsl	r2, r2, #16
 c002e58:	e1a02822 	lsr	r2, r2, #16
 c002e5c:	e59f12ac 	ldr	r1, [pc, #684]	; c003110 <estado_selec_valor+0x434>
 c002e60:	e1a00200 	lsl	r0, r0, #4
 c002e64:	e0803003 	add	r3, r0, r3
 c002e68:	e1a03083 	lsl	r3, r3, #1
 c002e6c:	e0813003 	add	r3, r1, r3
 c002e70:	e1c320b0 	strh	r2, [r3]

        // CORRECCIN: Actualizar todos los candidatos del tablero cuando se borra un valor
        candidatos_actualizar_c(cuadricula_C_C);
 c002e74:	e59f0294 	ldr	r0, [pc, #660]	; c003110 <estado_selec_valor+0x434>
 c002e78:	eb0011ea 	bl	c007628 <candidatos_actualizar_c>

        // CORRECCIN: Redibujar TODO el tablero para actualizar candidatos visualmente
        sudoku_dibujar_tablero_completo(cuadricula_C_C);
 c002e7c:	e59f028c 	ldr	r0, [pc, #652]	; c003110 <estado_selec_valor+0x434>
 c002e80:	eb0015cd 	bl	c0085bc <sudoku_dibujar_tablero_completo>

        // Quitar resaltado de seleccin
        sudoku_resaltar_celda(fila_seleccionada, columna_seleccionada, 0);
 c002e84:	e59f327c 	ldr	r3, [pc, #636]	; c003108 <estado_selec_valor+0x42c>
 c002e88:	e5d32000 	ldrb	r2, [r3]
 c002e8c:	e59f3278 	ldr	r3, [pc, #632]	; c00310c <estado_selec_valor+0x430>
 c002e90:	e5d33000 	ldrb	r3, [r3]
 c002e94:	e1a00002 	mov	r0, r2
 c002e98:	e1a01003 	mov	r1, r3
 c002e9c:	e3a02000 	mov	r2, #0
 c002ea0:	eb001561 	bl	c00842c <sudoku_resaltar_celda>

        // Volver a pedir fila
        estado_juego = ESTADO_SELEC_FILA;
 c002ea4:	e59f3268 	ldr	r3, [pc, #616]	; c003114 <estado_selec_valor+0x438>
 c002ea8:	e3a02001 	mov	r2, #1
 c002eac:	e5c32000 	strb	r2, [r3]
        D8Led_symbol(0x0);
 c002eb0:	e3a00000 	mov	r0, #0
 c002eb4:	ebfff84c 	bl	c000fec <D8Led_symbol>
        return;
 c002eb8:	ea00008b 	b	c0030ec <estado_selec_valor+0x410>
    }

    // Caso B: Introducir valor (1-9) - VERIFICACIN DE ERROR
    // Primero comprobamos si este valor choca con otros
    error_detectado = detectar_y_marcar_errores_celda(fila_seleccionada, columna_seleccionada, numero_actual);
 c002ebc:	e59f3244 	ldr	r3, [pc, #580]	; c003108 <estado_selec_valor+0x42c>
 c002ec0:	e5d31000 	ldrb	r1, [r3]
 c002ec4:	e59f3240 	ldr	r3, [pc, #576]	; c00310c <estado_selec_valor+0x430>
 c002ec8:	e5d32000 	ldrb	r2, [r3]
 c002ecc:	e59f3228 	ldr	r3, [pc, #552]	; c0030fc <estado_selec_valor+0x420>
 c002ed0:	e5d33000 	ldrb	r3, [r3]
 c002ed4:	e1a00001 	mov	r0, r1
 c002ed8:	e1a01002 	mov	r1, r2
 c002edc:	e1a02003 	mov	r2, r3
 c002ee0:	eb0005a3 	bl	c004574 <detectar_y_marcar_errores_celda>
 c002ee4:	e50b0010 	str	r0, [fp, #-16]

    if (error_detectado)
 c002ee8:	e51b3010 	ldr	r3, [fp, #-16]
 c002eec:	e3530000 	cmp	r3, #0
 c002ef0:	0a000047 	beq	c003014 <estado_selec_valor+0x338>
    {
        // 1. Marcar tambin la celda actual como error
        cuadricula_C_C[fila_seleccionada][columna_seleccionada] |= 0x0020;
 c002ef4:	e59f320c 	ldr	r3, [pc, #524]	; c003108 <estado_selec_valor+0x42c>
 c002ef8:	e5d33000 	ldrb	r3, [r3]
 c002efc:	e1a00003 	mov	r0, r3
 c002f00:	e59f3204 	ldr	r3, [pc, #516]	; c00310c <estado_selec_valor+0x430>
 c002f04:	e5d33000 	ldrb	r3, [r3]
 c002f08:	e59f21f8 	ldr	r2, [pc, #504]	; c003108 <estado_selec_valor+0x42c>
 c002f0c:	e5d22000 	ldrb	r2, [r2]
 c002f10:	e1a0c002 	mov	ip, r2
 c002f14:	e59f21f0 	ldr	r2, [pc, #496]	; c00310c <estado_selec_valor+0x430>
 c002f18:	e5d22000 	ldrb	r2, [r2]
 c002f1c:	e59f11ec 	ldr	r1, [pc, #492]	; c003110 <estado_selec_valor+0x434>
 c002f20:	e1a0c20c 	lsl	ip, ip, #4
 c002f24:	e08c2002 	add	r2, ip, r2
 c002f28:	e1a02082 	lsl	r2, r2, #1
 c002f2c:	e0812002 	add	r2, r1, r2
 c002f30:	e1d220b0 	ldrh	r2, [r2]
 c002f34:	e3822020 	orr	r2, r2, #32
 c002f38:	e1a02802 	lsl	r2, r2, #16
 c002f3c:	e1a02822 	lsr	r2, r2, #16
 c002f40:	e59f11c8 	ldr	r1, [pc, #456]	; c003110 <estado_selec_valor+0x434>
 c002f44:	e1a00200 	lsl	r0, r0, #4
 c002f48:	e0803003 	add	r3, r0, r3
 c002f4c:	e1a03083 	lsl	r3, r3, #1
 c002f50:	e0813003 	add	r3, r1, r3
 c002f54:	e1c320b0 	strh	r2, [r3]

        // 2. Escribir el numero temporalmente para que se vea (en estilo error)
        celda_poner_valor(&cuadricula_C_C[fila_seleccionada][columna_seleccionada], numero_actual);
 c002f58:	e59f21b0 	ldr	r2, [pc, #432]	; c003110 <estado_selec_valor+0x434>
 c002f5c:	e59f31a4 	ldr	r3, [pc, #420]	; c003108 <estado_selec_valor+0x42c>
 c002f60:	e5d33000 	ldrb	r3, [r3]
 c002f64:	e1a01203 	lsl	r1, r3, #4
 c002f68:	e59f319c 	ldr	r3, [pc, #412]	; c00310c <estado_selec_valor+0x430>
 c002f6c:	e5d33000 	ldrb	r3, [r3]
 c002f70:	e0813003 	add	r3, r1, r3
 c002f74:	e1a03083 	lsl	r3, r3, #1
 c002f78:	e0822003 	add	r2, r2, r3
 c002f7c:	e59f3178 	ldr	r3, [pc, #376]	; c0030fc <estado_selec_valor+0x420>
 c002f80:	e5d33000 	ldrb	r3, [r3]
 c002f84:	e1a00002 	mov	r0, r2
 c002f88:	e1a01003 	mov	r1, r3
 c002f8c:	ebfffa2b 	bl	c001840 <celda_poner_valor>

        // 3. Quitar el recuadro de seleccin azul/verde para que se vea bien el rojo/negro de error
        sudoku_resaltar_celda(fila_seleccionada, columna_seleccionada, 0);
 c002f90:	e59f3170 	ldr	r3, [pc, #368]	; c003108 <estado_selec_valor+0x42c>
 c002f94:	e5d32000 	ldrb	r2, [r3]
 c002f98:	e59f316c 	ldr	r3, [pc, #364]	; c00310c <estado_selec_valor+0x430>
 c002f9c:	e5d33000 	ldrb	r3, [r3]
 c002fa0:	e1a00002 	mov	r0, r2
 c002fa4:	e1a01003 	mov	r1, r3
 c002fa8:	e3a02000 	mov	r2, #0
 c002fac:	eb00151e 	bl	c00842c <sudoku_resaltar_celda>

        // 4. Actualizar visualmente la celda actual
        sudoku_actualizar_celda(cuadricula_C_C, fila_seleccionada, columna_seleccionada);
 c002fb0:	e59f3150 	ldr	r3, [pc, #336]	; c003108 <estado_selec_valor+0x42c>
 c002fb4:	e5d32000 	ldrb	r2, [r3]
 c002fb8:	e59f314c 	ldr	r3, [pc, #332]	; c00310c <estado_selec_valor+0x430>
 c002fbc:	e5d33000 	ldrb	r3, [r3]
 c002fc0:	e59f0148 	ldr	r0, [pc, #328]	; c003110 <estado_selec_valor+0x434>
 c002fc4:	e1a01002 	mov	r1, r2
 c002fc8:	e1a02003 	mov	r2, r3
 c002fcc:	eb0015d0 	bl	c008714 <sudoku_actualizar_celda>

        // 5. Cambiar a estado de error para esperar un tiempo y luego limpiar
        contador_error = TICKS_MOSTRAR_ERROR;
 c002fd0:	e59f3140 	ldr	r3, [pc, #320]	; c003118 <estado_selec_valor+0x43c>
 c002fd4:	e3a02f4b 	mov	r2, #300	; 0x12c
 c002fd8:	e5832000 	str	r2, [r3]
        estado_juego = ESTADO_MOSTRANDO_ERROR;
 c002fdc:	e59f3130 	ldr	r3, [pc, #304]	; c003114 <estado_selec_valor+0x438>
 c002fe0:	e3a02004 	mov	r2, #4
 c002fe4:	e5c32000 	strb	r2, [r3]

        // Feedback MEJORADO en 8Led - ms tiempo de parpadeo
        D8Led_symbol(0xE);
 c002fe8:	e3a0000e 	mov	r0, #14
 c002fec:	ebfff7fe 	bl	c000fec <D8Led_symbol>
        Delay(30000); // Mayor duracin inicial
 c002ff0:	e59f0124 	ldr	r0, [pc, #292]	; c00311c <estado_selec_valor+0x440>
 c002ff4:	ebfff5c4 	bl	c00070c <Delay>
        D8Led_symbol(0x0);
 c002ff8:	e3a00000 	mov	r0, #0
 c002ffc:	ebfff7fa 	bl	c000fec <D8Led_symbol>
        Delay(15000);
 c003000:	e59f0118 	ldr	r0, [pc, #280]	; c003120 <estado_selec_valor+0x444>
 c003004:	ebfff5c0 	bl	c00070c <Delay>
        D8Led_symbol(0xE);
 c003008:	e3a0000e 	mov	r0, #14
 c00300c:	ebfff7f6 	bl	c000fec <D8Led_symbol>
        return;
 c003010:	ea000035 	b	c0030ec <estado_selec_valor+0x410>
    }

    // Caso C: Valor Vlido
    celda_poner_valor(&cuadricula_C_C[fila_seleccionada][columna_seleccionada], numero_actual);
 c003014:	e59f20f4 	ldr	r2, [pc, #244]	; c003110 <estado_selec_valor+0x434>
 c003018:	e59f30e8 	ldr	r3, [pc, #232]	; c003108 <estado_selec_valor+0x42c>
 c00301c:	e5d33000 	ldrb	r3, [r3]
 c003020:	e1a01203 	lsl	r1, r3, #4
 c003024:	e59f30e0 	ldr	r3, [pc, #224]	; c00310c <estado_selec_valor+0x430>
 c003028:	e5d33000 	ldrb	r3, [r3]
 c00302c:	e0813003 	add	r3, r1, r3
 c003030:	e1a03083 	lsl	r3, r3, #1
 c003034:	e0822003 	add	r2, r2, r3
 c003038:	e59f30bc 	ldr	r3, [pc, #188]	; c0030fc <estado_selec_valor+0x420>
 c00303c:	e5d33000 	ldrb	r3, [r3]
 c003040:	e1a00002 	mov	r0, r2
 c003044:	e1a01003 	mov	r1, r3
 c003048:	ebfff9fc 	bl	c001840 <celda_poner_valor>

    // CORRECCIN: Actualizar candidatos correctamente
    if (valor_previo != 0)
 c00304c:	e55b3011 	ldrb	r3, [fp, #-17]	; 0xffffffef
 c003050:	e3530000 	cmp	r3, #0
 c003054:	0a000002 	beq	c003064 <estado_selec_valor+0x388>
    {
        // Si haba un valor previo, recalcular todos los candidatos
        candidatos_actualizar_c(cuadricula_C_C);
 c003058:	e59f00b0 	ldr	r0, [pc, #176]	; c003110 <estado_selec_valor+0x434>
 c00305c:	eb001171 	bl	c007628 <candidatos_actualizar_c>
 c003060:	ea000007 	b	c003084 <estado_selec_valor+0x3a8>
    }
    else
    {
        // Si era una celda vaca, propagar la eliminacin de candidatos
        candidatos_propagar_c(cuadricula_C_C, fila_seleccionada, columna_seleccionada);
 c003064:	e59f309c 	ldr	r3, [pc, #156]	; c003108 <estado_selec_valor+0x42c>
 c003068:	e5d32000 	ldrb	r2, [r3]
 c00306c:	e59f3098 	ldr	r3, [pc, #152]	; c00310c <estado_selec_valor+0x430>
 c003070:	e5d33000 	ldrb	r3, [r3]
 c003074:	e59f0094 	ldr	r0, [pc, #148]	; c003110 <estado_selec_valor+0x434>
 c003078:	e1a01002 	mov	r1, r2
 c00307c:	e1a02003 	mov	r2, r3
 c003080:	eb0010d4 	bl	c0073d8 <candidatos_propagar_c>
    }

    // CORRECCIN: Redibujar TODO el tablero para mostrar cambios en candidatos
    sudoku_dibujar_tablero_completo(cuadricula_C_C);
 c003084:	e59f0084 	ldr	r0, [pc, #132]	; c003110 <estado_selec_valor+0x434>
 c003088:	eb00154b 	bl	c0085bc <sudoku_dibujar_tablero_completo>

    // Quitar resaltado
    sudoku_resaltar_celda(fila_seleccionada, columna_seleccionada, 0);
 c00308c:	e59f3074 	ldr	r3, [pc, #116]	; c003108 <estado_selec_valor+0x42c>
 c003090:	e5d32000 	ldrb	r2, [r3]
 c003094:	e59f3070 	ldr	r3, [pc, #112]	; c00310c <estado_selec_valor+0x430>
 c003098:	e5d33000 	ldrb	r3, [r3]
 c00309c:	e1a00002 	mov	r0, r2
 c0030a0:	e1a01003 	mov	r1, r3
 c0030a4:	e3a02000 	mov	r2, #0
 c0030a8:	eb0014df 	bl	c00842c <sudoku_resaltar_celda>

    // Verificar Victoria
    if (verificar_tablero_completo())
 c0030ac:	eb000463 	bl	c004240 <verificar_tablero_completo>
 c0030b0:	e1a03000 	mov	r3, r0
 c0030b4:	e3530000 	cmp	r3, #0
 c0030b8:	0a000001 	beq	c0030c4 <estado_selec_valor+0x3e8>
    {
        finalizar_partida_completa();
 c0030bc:	eb00048c 	bl	c0042f4 <finalizar_partida_completa>
        return;
 c0030c0:	ea000009 	b	c0030ec <estado_selec_valor+0x410>
    }

    // Siguiente jugada
    estado_juego = ESTADO_SELEC_FILA;
 c0030c4:	e59f3048 	ldr	r3, [pc, #72]	; c003114 <estado_selec_valor+0x438>
 c0030c8:	e3a02001 	mov	r2, #1
 c0030cc:	e5c32000 	strb	r2, [r3]
    numero_actual = 0;
 c0030d0:	e59f3024 	ldr	r3, [pc, #36]	; c0030fc <estado_selec_valor+0x420>
 c0030d4:	e3a02000 	mov	r2, #0
 c0030d8:	e5c32000 	strb	r2, [r3]
    D8Led_symbol(0x0);
 c0030dc:	e3a00000 	mov	r0, #0
 c0030e0:	ebfff7c1 	bl	c000fec <D8Led_symbol>
 c0030e4:	ea000000 	b	c0030ec <estado_selec_valor+0x410>
        return;
    }

    // --- Confirmacin (Botn Izquierdo) ---
    if (!evento_boton_izquierdo)
        return;
 c0030e8:	e1a00000 	nop			; (mov r0, r0)

    // Siguiente jugada
    estado_juego = ESTADO_SELEC_FILA;
    numero_actual = 0;
    D8Led_symbol(0x0);
}
 c0030ec:	e24bd00c 	sub	sp, fp, #12
 c0030f0:	e89d6800 	ldm	sp, {fp, sp, lr}
 c0030f4:	e12fff1e 	bx	lr
 c0030f8:	0c00a459 	.word	0x0c00a459
 c0030fc:	0c00a458 	.word	0x0c00a458
 c003100:	0c00cd2b 	.word	0x0c00cd2b
 c003104:	0c00cd2c 	.word	0x0c00cd2c
 c003108:	0c00cd29 	.word	0x0c00cd29
 c00310c:	0c00cd2a 	.word	0x0c00cd2a
 c003110:	0c00a480 	.word	0x0c00a480
 c003114:	0c00cd28 	.word	0x0c00cd28
 c003118:	0c00cd30 	.word	0x0c00cd30
 c00311c:	00007530 	.word	0x00007530
 c003120:	00003a98 	.word	0x00003a98

0c003124 <estado_mostrando_error>:
/**
 * Estado: mostrando error
 * Temporiza la visualizacin del error y vuelve al estado de seleccin.
 */
static void estado_mostrando_error(void)
{
 c003124:	e1a0c00d 	mov	ip, sp
 c003128:	e92dd800 	push	{fp, ip, lr, pc}
 c00312c:	e24cb004 	sub	fp, ip, #4
    if (contador_error > 0)
 c003130:	e59f3154 	ldr	r3, [pc, #340]	; c00328c <estado_mostrando_error+0x168>
 c003134:	e5933000 	ldr	r3, [r3]
 c003138:	e3530000 	cmp	r3, #0
 c00313c:	da000027 	ble	c0031e0 <estado_mostrando_error+0xbc>
    {
        contador_error--;
 c003140:	e59f3144 	ldr	r3, [pc, #324]	; c00328c <estado_mostrando_error+0x168>
 c003144:	e5933000 	ldr	r3, [r3]
 c003148:	e2432001 	sub	r2, r3, #1
 c00314c:	e59f3138 	ldr	r3, [pc, #312]	; c00328c <estado_mostrando_error+0x168>
 c003150:	e5832000 	str	r2, [r3]

        // Efecto visual MEJORADO en LEDs con ms tiempo visible
        if ((contador_error % 30) == 0) // Cambiado de 20 a 30
 c003154:	e59f3130 	ldr	r3, [pc, #304]	; c00328c <estado_mostrando_error+0x168>
 c003158:	e5931000 	ldr	r1, [r3]
 c00315c:	e59f312c 	ldr	r3, [pc, #300]	; c003290 <estado_mostrando_error+0x16c>
 c003160:	e0c32391 	smull	r2, r3, r1, r3
 c003164:	e0833001 	add	r3, r3, r1
 c003168:	e1a02243 	asr	r2, r3, #4
 c00316c:	e1a03fc1 	asr	r3, r1, #31
 c003170:	e0632002 	rsb	r2, r3, r2
 c003174:	e1a03002 	mov	r3, r2
 c003178:	e1a03203 	lsl	r3, r3, #4
 c00317c:	e0623003 	rsb	r3, r2, r3
 c003180:	e1a03083 	lsl	r3, r3, #1
 c003184:	e0632001 	rsb	r2, r3, r1
 c003188:	e3520000 	cmp	r2, #0
 c00318c:	1a000002 	bne	c00319c <estado_mostrando_error+0x78>
            D8Led_symbol(0xE);
 c003190:	e3a0000e 	mov	r0, #14
 c003194:	ebfff794 	bl	c000fec <D8Led_symbol>
        else if ((contador_error % 15) == 0) // Cambiado de 10 a 15
            D8Led_symbol(0x0);

        return;
 c003198:	ea000038 	b	c003280 <estado_mostrando_error+0x15c>
        contador_error--;

        // Efecto visual MEJORADO en LEDs con ms tiempo visible
        if ((contador_error % 30) == 0) // Cambiado de 20 a 30
            D8Led_symbol(0xE);
        else if ((contador_error % 15) == 0) // Cambiado de 10 a 15
 c00319c:	e59f30e8 	ldr	r3, [pc, #232]	; c00328c <estado_mostrando_error+0x168>
 c0031a0:	e5931000 	ldr	r1, [r3]
 c0031a4:	e59f30e4 	ldr	r3, [pc, #228]	; c003290 <estado_mostrando_error+0x16c>
 c0031a8:	e0c32391 	smull	r2, r3, r1, r3
 c0031ac:	e0833001 	add	r3, r3, r1
 c0031b0:	e1a021c3 	asr	r2, r3, #3
 c0031b4:	e1a03fc1 	asr	r3, r1, #31
 c0031b8:	e0632002 	rsb	r2, r3, r2
 c0031bc:	e1a03002 	mov	r3, r2
 c0031c0:	e1a03203 	lsl	r3, r3, #4
 c0031c4:	e0623003 	rsb	r3, r2, r3
 c0031c8:	e0632001 	rsb	r2, r3, r1
 c0031cc:	e3520000 	cmp	r2, #0
 c0031d0:	1a000029 	bne	c00327c <estado_mostrando_error+0x158>
            D8Led_symbol(0x0);
 c0031d4:	e3a00000 	mov	r0, #0
 c0031d8:	ebfff783 	bl	c000fec <D8Led_symbol>

        return;
 c0031dc:	ea000027 	b	c003280 <estado_mostrando_error+0x15c>
    }

    // Cuando acaba el tiempo de mostrar error:

    // 1. Limpiar TODAS las celdas marcadas con error (la actual y las que chocaban)
    limpiar_errores_visuales();
 c0031e0:	eb0005c7 	bl	c004904 <limpiar_errores_visuales>

    // 2. Revertir el valor invlido de la celda del usuario a 0 (o al valor previo si prefieres)
    // Aqu asumimos que si fall, se vaca.
    cuadricula_C_C[fila_seleccionada][columna_seleccionada] &= 0xFF80; // Limpiar valor
 c0031e4:	e59f30a8 	ldr	r3, [pc, #168]	; c003294 <estado_mostrando_error+0x170>
 c0031e8:	e5d33000 	ldrb	r3, [r3]
 c0031ec:	e1a00003 	mov	r0, r3
 c0031f0:	e59f30a0 	ldr	r3, [pc, #160]	; c003298 <estado_mostrando_error+0x174>
 c0031f4:	e5d33000 	ldrb	r3, [r3]
 c0031f8:	e59f2094 	ldr	r2, [pc, #148]	; c003294 <estado_mostrando_error+0x170>
 c0031fc:	e5d22000 	ldrb	r2, [r2]
 c003200:	e1a0c002 	mov	ip, r2
 c003204:	e59f208c 	ldr	r2, [pc, #140]	; c003298 <estado_mostrando_error+0x174>
 c003208:	e5d22000 	ldrb	r2, [r2]
 c00320c:	e59f1088 	ldr	r1, [pc, #136]	; c00329c <estado_mostrando_error+0x178>
 c003210:	e1a0c20c 	lsl	ip, ip, #4
 c003214:	e08c2002 	add	r2, ip, r2
 c003218:	e1a02082 	lsl	r2, r2, #1
 c00321c:	e0812002 	add	r2, r1, r2
 c003220:	e1d220b0 	ldrh	r2, [r2]
 c003224:	e3c2207f 	bic	r2, r2, #127	; 0x7f
 c003228:	e1a02802 	lsl	r2, r2, #16
 c00322c:	e1a02822 	lsr	r2, r2, #16
 c003230:	e59f1064 	ldr	r1, [pc, #100]	; c00329c <estado_mostrando_error+0x178>
 c003234:	e1a00200 	lsl	r0, r0, #4
 c003238:	e0803003 	add	r3, r0, r3
 c00323c:	e1a03083 	lsl	r3, r3, #1
 c003240:	e0813003 	add	r3, r1, r3
 c003244:	e1c320b0 	strh	r2, [r3]

    // CORRECCIN: Actualizar candidatos despus de limpiar el valor errneo
    candidatos_actualizar_c(cuadricula_C_C);
 c003248:	e59f004c 	ldr	r0, [pc, #76]	; c00329c <estado_mostrando_error+0x178>
 c00324c:	eb0010f5 	bl	c007628 <candidatos_actualizar_c>

    // CORRECCIN: Redibujar todo el tablero para actualizar candidatos
    sudoku_dibujar_tablero_completo(cuadricula_C_C);
 c003250:	e59f0044 	ldr	r0, [pc, #68]	; c00329c <estado_mostrando_error+0x178>
 c003254:	eb0014d8 	bl	c0085bc <sudoku_dibujar_tablero_completo>

    // 3. Volver al juego
    estado_juego = ESTADO_SELEC_FILA;
 c003258:	e59f3040 	ldr	r3, [pc, #64]	; c0032a0 <estado_mostrando_error+0x17c>
 c00325c:	e3a02001 	mov	r2, #1
 c003260:	e5c32000 	strb	r2, [r3]
    numero_actual = 0;
 c003264:	e59f3038 	ldr	r3, [pc, #56]	; c0032a4 <estado_mostrando_error+0x180>
 c003268:	e3a02000 	mov	r2, #0
 c00326c:	e5c32000 	strb	r2, [r3]
    D8Led_symbol(0x0);
 c003270:	e3a00000 	mov	r0, #0
 c003274:	ebfff75c 	bl	c000fec <D8Led_symbol>
 c003278:	ea000000 	b	c003280 <estado_mostrando_error+0x15c>
        if ((contador_error % 30) == 0) // Cambiado de 20 a 30
            D8Led_symbol(0xE);
        else if ((contador_error % 15) == 0) // Cambiado de 10 a 15
            D8Led_symbol(0x0);

        return;
 c00327c:	e1a00000 	nop			; (mov r0, r0)

    // 3. Volver al juego
    estado_juego = ESTADO_SELEC_FILA;
    numero_actual = 0;
    D8Led_symbol(0x0);
}
 c003280:	e24bd00c 	sub	sp, fp, #12
 c003284:	e89d6800 	ldm	sp, {fp, sp, lr}
 c003288:	e12fff1e 	bx	lr
 c00328c:	0c00cd30 	.word	0x0c00cd30
 c003290:	88888889 	.word	0x88888889
 c003294:	0c00cd29 	.word	0x0c00cd29
 c003298:	0c00cd2a 	.word	0x0c00cd2a
 c00329c:	0c00a480 	.word	0x0c00a480
 c0032a0:	0c00cd28 	.word	0x0c00cd28
 c0032a4:	0c00a458 	.word	0x0c00a458

0c0032a8 <teclado_leer_columnas>:

/**
 * TECLADO MATRICIAL - FUNCIONES
 */
static inline uint8_t teclado_leer_columnas(volatile uint8_t *addr)
{
 c0032a8:	e1a0c00d 	mov	ip, sp
 c0032ac:	e92dd800 	push	{fp, ip, lr, pc}
 c0032b0:	e24cb004 	sub	fp, ip, #4
 c0032b4:	e24dd008 	sub	sp, sp, #8
 c0032b8:	e50b0010 	str	r0, [fp, #-16]
    return (*addr) & 0x0F;
 c0032bc:	e51b3010 	ldr	r3, [fp, #-16]
 c0032c0:	e5d33000 	ldrb	r3, [r3]
 c0032c4:	e20330ff 	and	r3, r3, #255	; 0xff
 c0032c8:	e203300f 	and	r3, r3, #15
 c0032cc:	e20330ff 	and	r3, r3, #255	; 0xff
}
 c0032d0:	e1a00003 	mov	r0, r3
 c0032d4:	e24bd00c 	sub	sp, fp, #12
 c0032d8:	e89d6800 	ldm	sp, {fp, sp, lr}
 c0032dc:	e12fff1e 	bx	lr

0c0032e0 <teclado_soltado>:
 * Indica si el teclado est suelto (pin de fila 1)
 * Retorno:
 *  - 1 si suelto, 0 si pulsado
 */
inline int teclado_soltado(void)
{
 c0032e0:	e1a0c00d 	mov	ip, sp
 c0032e4:	e92dd800 	push	{fp, ip, lr, pc}
 c0032e8:	e24cb004 	sub	fp, ip, #4
    return (rPDATG & (1 << 1)) ? 1 : 0;
 c0032ec:	e59f3020 	ldr	r3, [pc, #32]	; c003314 <teclado_soltado+0x34>
 c0032f0:	e5933000 	ldr	r3, [r3]
 c0032f4:	e2033002 	and	r3, r3, #2
 c0032f8:	e3530000 	cmp	r3, #0
 c0032fc:	03a03000 	moveq	r3, #0
 c003300:	13a03001 	movne	r3, #1
}
 c003304:	e1a00003 	mov	r0, r3
 c003308:	e24bd00c 	sub	sp, fp, #12
 c00330c:	e89d6800 	ldm	sp, {fp, sp, lr}
 c003310:	e12fff1e 	bx	lr
 c003314:	01d20044 	.word	0x01d20044

0c003318 <teclado_escanear>:
 *
 * Retorno:
 *  - dgito (0..9) si hay tecla detectable, 0xFF si no hay tecla.
 */
static uint8_t teclado_escanear(void)
{
 c003318:	e1a0c00d 	mov	ip, sp
 c00331c:	e92dd800 	push	{fp, ip, lr, pc}
 c003320:	e24cb004 	sub	fp, ip, #4
 c003324:	e24dd018 	sub	sp, sp, #24
    uint8_t fila, col, columnas_leidas;
    volatile uint8_t *direcciones[4] = {
 c003328:	e59f3100 	ldr	r3, [pc, #256]	; c003430 <teclado_escanear+0x118>
 c00332c:	e24bc020 	sub	ip, fp, #32
 c003330:	e893000f 	ldm	r3, {r0, r1, r2, r3}
 c003334:	e88c000f 	stm	ip, {r0, r1, r2, r3}
        (volatile uint8_t *)TECLADO_FILA0,
        (volatile uint8_t *)TECLADO_FILA1,
        (volatile uint8_t *)TECLADO_FILA2,
        (volatile uint8_t *)TECLADO_FILA3};

    for (fila = 0; fila < 4; fila++)
 c003338:	e3a03000 	mov	r3, #0
 c00333c:	e54b300d 	strb	r3, [fp, #-13]
 c003340:	ea000032 	b	c003410 <teclado_escanear+0xf8>
    {
        columnas_leidas = teclado_leer_columnas(direcciones[fila]);
 c003344:	e55b200d 	ldrb	r2, [fp, #-13]
 c003348:	e3e03013 	mvn	r3, #19
 c00334c:	e1a02102 	lsl	r2, r2, #2
 c003350:	e24b100c 	sub	r1, fp, #12
 c003354:	e0812002 	add	r2, r1, r2
 c003358:	e0823003 	add	r3, r2, r3
 c00335c:	e5933000 	ldr	r3, [r3]
 c003360:	e1a00003 	mov	r0, r3
 c003364:	ebffffcf 	bl	c0032a8 <teclado_leer_columnas>
 c003368:	e1a03000 	mov	r3, r0
 c00336c:	e54b300f 	strb	r3, [fp, #-15]

        if (columnas_leidas != 0x0F)
 c003370:	e55b300f 	ldrb	r3, [fp, #-15]
 c003374:	e353000f 	cmp	r3, #15
 c003378:	0a000021 	beq	c003404 <teclado_escanear+0xec>
        {
            uint8_t mask_col[4] = {0x7, 0xB, 0xD, 0xE};
 c00337c:	e59f30b0 	ldr	r3, [pc, #176]	; c003434 <teclado_escanear+0x11c>
 c003380:	e5933000 	ldr	r3, [r3]
 c003384:	e50b3024 	str	r3, [fp, #-36]	; 0xffffffdc
            for (col = 0; col < 4; col++)
 c003388:	e3a03000 	mov	r3, #0
 c00338c:	e54b300e 	strb	r3, [fp, #-14]
 c003390:	ea000018 	b	c0033f8 <teclado_escanear+0xe0>
            {
                if (columnas_leidas == mask_col[col])
 c003394:	e55b200e 	ldrb	r2, [fp, #-14]
 c003398:	e3e03017 	mvn	r3, #23
 c00339c:	e24b100c 	sub	r1, fp, #12
 c0033a0:	e0812002 	add	r2, r1, r2
 c0033a4:	e0823003 	add	r3, r2, r3
 c0033a8:	e5d33000 	ldrb	r3, [r3]
 c0033ac:	e55b200f 	ldrb	r2, [fp, #-15]
 c0033b0:	e1520003 	cmp	r2, r3
 c0033b4:	1a00000c 	bne	c0033ec <teclado_escanear+0xd4>
                {
                    uint8_t digito = tecla_mapa[fila][col];
 c0033b8:	e55b100d 	ldrb	r1, [fp, #-13]
 c0033bc:	e55b300e 	ldrb	r3, [fp, #-14]
 c0033c0:	e59f2070 	ldr	r2, [pc, #112]	; c003438 <teclado_escanear+0x120>
 c0033c4:	e1a01101 	lsl	r1, r1, #2
 c0033c8:	e0813003 	add	r3, r1, r3
 c0033cc:	e0823003 	add	r3, r2, r3
 c0033d0:	e5d33000 	ldrb	r3, [r3]
 c0033d4:	e54b3010 	strb	r3, [fp, #-16]
                    if (digito != 0xFF)
 c0033d8:	e55b3010 	ldrb	r3, [fp, #-16]
 c0033dc:	e35300ff 	cmp	r3, #255	; 0xff
 c0033e0:	0a000001 	beq	c0033ec <teclado_escanear+0xd4>
                        return digito;
 c0033e4:	e55b3010 	ldrb	r3, [fp, #-16]
 c0033e8:	ea00000c 	b	c003420 <teclado_escanear+0x108>
        columnas_leidas = teclado_leer_columnas(direcciones[fila]);

        if (columnas_leidas != 0x0F)
        {
            uint8_t mask_col[4] = {0x7, 0xB, 0xD, 0xE};
            for (col = 0; col < 4; col++)
 c0033ec:	e55b300e 	ldrb	r3, [fp, #-14]
 c0033f0:	e2833001 	add	r3, r3, #1
 c0033f4:	e54b300e 	strb	r3, [fp, #-14]
 c0033f8:	e55b300e 	ldrb	r3, [fp, #-14]
 c0033fc:	e3530003 	cmp	r3, #3
 c003400:	9affffe3 	bls	c003394 <teclado_escanear+0x7c>
        (volatile uint8_t *)TECLADO_FILA0,
        (volatile uint8_t *)TECLADO_FILA1,
        (volatile uint8_t *)TECLADO_FILA2,
        (volatile uint8_t *)TECLADO_FILA3};

    for (fila = 0; fila < 4; fila++)
 c003404:	e55b300d 	ldrb	r3, [fp, #-13]
 c003408:	e2833001 	add	r3, r3, #1
 c00340c:	e54b300d 	strb	r3, [fp, #-13]
 c003410:	e55b300d 	ldrb	r3, [fp, #-13]
 c003414:	e3530003 	cmp	r3, #3
 c003418:	9affffc9 	bls	c003344 <teclado_escanear+0x2c>
                        return digito;
                }
            }
        }
    }
    return 0xFF;
 c00341c:	e3a030ff 	mov	r3, #255	; 0xff
}
 c003420:	e1a00003 	mov	r0, r3
 c003424:	e24bd00c 	sub	sp, fp, #12
 c003428:	e89d6800 	ldm	sp, {fp, sp, lr}
 c00342c:	e12fff1e 	bx	lr
 c003430:	0c00cbb0 	.word	0x0c00cbb0
 c003434:	0c00cbc0 	.word	0x0c00cbc0
 c003438:	0c00cb14 	.word	0x0c00cb14

0c00343c <marcar_pistas_iniciales>:

/**
 * Marca como pistas todas las celdas que tienen valor inicial
 */
void marcar_pistas_iniciales(CELDA cuadricula[NUM_FILAS][NUM_COLUMNAS])
{
 c00343c:	e1a0c00d 	mov	ip, sp
 c003440:	e92dd800 	push	{fp, ip, lr, pc}
 c003444:	e24cb004 	sub	fp, ip, #4
 c003448:	e24dd010 	sub	sp, sp, #16
 c00344c:	e50b0018 	str	r0, [fp, #-24]	; 0xffffffe8
    uint8_t i, j;

    for (i = 0; i < NUM_FILAS; i++)
 c003450:	e3a03000 	mov	r3, #0
 c003454:	e54b300d 	strb	r3, [fp, #-13]
 c003458:	ea00002b 	b	c00350c <marcar_pistas_iniciales+0xd0>
    {
        for (j = 0; j < 9; j++) // Solo las 9 primeras columnas
 c00345c:	e3a03000 	mov	r3, #0
 c003460:	e54b300e 	strb	r3, [fp, #-14]
 c003464:	ea000022 	b	c0034f4 <marcar_pistas_iniciales+0xb8>
        {
            // Si la celda tiene un valor (no es 0), marcarla como pista
            if (celda_leer_valor(cuadricula[i][j]) > 0)
 c003468:	e55b300d 	ldrb	r3, [fp, #-13]
 c00346c:	e1a03283 	lsl	r3, r3, #5
 c003470:	e51b2018 	ldr	r2, [fp, #-24]	; 0xffffffe8
 c003474:	e0822003 	add	r2, r2, r3
 c003478:	e55b300e 	ldrb	r3, [fp, #-14]
 c00347c:	e1a03083 	lsl	r3, r3, #1
 c003480:	e0823003 	add	r3, r2, r3
 c003484:	e1d330b0 	ldrh	r3, [r3]
 c003488:	e1a00003 	mov	r0, r3
 c00348c:	eb00055c 	bl	c004a04 <celda_leer_valor>
 c003490:	e1a03000 	mov	r3, r0
 c003494:	e3530000 	cmp	r3, #0
 c003498:	0a000012 	beq	c0034e8 <marcar_pistas_iniciales+0xac>
            {
                cuadricula[i][j] |= (1 << 4); // Activar bit de pista
 c00349c:	e55b300d 	ldrb	r3, [fp, #-13]
 c0034a0:	e1a03283 	lsl	r3, r3, #5
 c0034a4:	e51b2018 	ldr	r2, [fp, #-24]	; 0xffffffe8
 c0034a8:	e0821003 	add	r1, r2, r3
 c0034ac:	e55b300e 	ldrb	r3, [fp, #-14]
 c0034b0:	e55b200d 	ldrb	r2, [fp, #-13]
 c0034b4:	e1a02282 	lsl	r2, r2, #5
 c0034b8:	e51b0018 	ldr	r0, [fp, #-24]	; 0xffffffe8
 c0034bc:	e0800002 	add	r0, r0, r2
 c0034c0:	e55b200e 	ldrb	r2, [fp, #-14]
 c0034c4:	e1a02082 	lsl	r2, r2, #1
 c0034c8:	e0802002 	add	r2, r0, r2
 c0034cc:	e1d220b0 	ldrh	r2, [r2]
 c0034d0:	e3822010 	orr	r2, r2, #16
 c0034d4:	e1a02802 	lsl	r2, r2, #16
 c0034d8:	e1a02822 	lsr	r2, r2, #16
 c0034dc:	e1a03083 	lsl	r3, r3, #1
 c0034e0:	e0813003 	add	r3, r1, r3
 c0034e4:	e1c320b0 	strh	r2, [r3]
{
    uint8_t i, j;

    for (i = 0; i < NUM_FILAS; i++)
    {
        for (j = 0; j < 9; j++) // Solo las 9 primeras columnas
 c0034e8:	e55b300e 	ldrb	r3, [fp, #-14]
 c0034ec:	e2833001 	add	r3, r3, #1
 c0034f0:	e54b300e 	strb	r3, [fp, #-14]
 c0034f4:	e55b300e 	ldrb	r3, [fp, #-14]
 c0034f8:	e3530008 	cmp	r3, #8
 c0034fc:	9affffd9 	bls	c003468 <marcar_pistas_iniciales+0x2c>
 */
void marcar_pistas_iniciales(CELDA cuadricula[NUM_FILAS][NUM_COLUMNAS])
{
    uint8_t i, j;

    for (i = 0; i < NUM_FILAS; i++)
 c003500:	e55b300d 	ldrb	r3, [fp, #-13]
 c003504:	e2833001 	add	r3, r3, #1
 c003508:	e54b300d 	strb	r3, [fp, #-13]
 c00350c:	e55b300d 	ldrb	r3, [fp, #-13]
 c003510:	e3530008 	cmp	r3, #8
 c003514:	9affffd0 	bls	c00345c <marcar_pistas_iniciales+0x20>
            {
                cuadricula[i][j] |= (1 << 4); // Activar bit de pista
            }
        }
    }
}
 c003518:	e24bd00c 	sub	sp, fp, #12
 c00351c:	e89d6800 	ldm	sp, {fp, sp, lr}
 c003520:	e12fff1e 	bx	lr

0c003524 <mostrar_tiempo_partida>:

/**
 * Muestra el tiempo transcurrido de la partida en la esquina superior derecha
 */
static void mostrar_tiempo_partida(void)
{
 c003524:	e1a0c00d 	mov	ip, sp
 c003528:	e92dd800 	push	{fp, ip, lr, pc}
 c00352c:	e24cb004 	sub	fp, ip, #4
 c003530:	e24dd028 	sub	sp, sp, #40	; 0x28
    static uint32_t ultimo_segundo_mostrado = 0;

    // CORRECCIN: Verificar que el tiempo de inicio es vlido
    if (tiempo_inicio_partida == 0)
 c003534:	e59f31e4 	ldr	r3, [pc, #484]	; c003720 <mostrar_tiempo_partida+0x1fc>
 c003538:	e5933000 	ldr	r3, [r3]
 c00353c:	e3530000 	cmp	r3, #0
 c003540:	0a000070 	beq	c003708 <mostrar_tiempo_partida+0x1e4>
        return;

    uint32_t tiempo_actual = timer2_count();
 c003544:	eb0015de 	bl	c008cc4 <timer2_count>
 c003548:	e50b0018 	str	r0, [fp, #-24]	; 0xffffffe8

    // CORRECCIN: Verificar que el tiempo actual es mayor que el de inicio
    if (tiempo_actual < tiempo_inicio_partida)
 c00354c:	e59f31cc 	ldr	r3, [pc, #460]	; c003720 <mostrar_tiempo_partida+0x1fc>
 c003550:	e5933000 	ldr	r3, [r3]
 c003554:	e51b2018 	ldr	r2, [fp, #-24]	; 0xffffffe8
 c003558:	e1520003 	cmp	r2, r3
 c00355c:	3a00006b 	bcc	c003710 <mostrar_tiempo_partida+0x1ec>
        return;

    uint32_t tiempo_transcurrido_us = tiempo_actual - tiempo_inicio_partida;
 c003560:	e59f31b8 	ldr	r3, [pc, #440]	; c003720 <mostrar_tiempo_partida+0x1fc>
 c003564:	e5933000 	ldr	r3, [r3]
 c003568:	e51b2018 	ldr	r2, [fp, #-24]	; 0xffffffe8
 c00356c:	e0633002 	rsb	r3, r3, r2
 c003570:	e50b301c 	str	r3, [fp, #-28]	; 0xffffffe4
    uint32_t segundos_actuales = tiempo_transcurrido_us / 1000000;
 c003574:	e51b201c 	ldr	r2, [fp, #-28]	; 0xffffffe4
 c003578:	e59f31a4 	ldr	r3, [pc, #420]	; c003724 <mostrar_tiempo_partida+0x200>
 c00357c:	e0831392 	umull	r1, r3, r2, r3
 c003580:	e1a03923 	lsr	r3, r3, #18
 c003584:	e50b3020 	str	r3, [fp, #-32]	; 0xffffffe0

    // Solo actualizar si ha cambiado el segundo
    if (segundos_actuales != ultimo_segundo_mostrado)
 c003588:	e59f3198 	ldr	r3, [pc, #408]	; c003728 <mostrar_tiempo_partida+0x204>
 c00358c:	e5933000 	ldr	r3, [r3]
 c003590:	e51b2020 	ldr	r2, [fp, #-32]	; 0xffffffe0
 c003594:	e1520003 	cmp	r2, r3
 c003598:	0a00005d 	beq	c003714 <mostrar_tiempo_partida+0x1f0>
    {
        uint32_t minutos = segundos_actuales / 60;
 c00359c:	e51b2020 	ldr	r2, [fp, #-32]	; 0xffffffe0
 c0035a0:	e59f3184 	ldr	r3, [pc, #388]	; c00372c <mostrar_tiempo_partida+0x208>
 c0035a4:	e0831392 	umull	r1, r3, r2, r3
 c0035a8:	e1a032a3 	lsr	r3, r3, #5
 c0035ac:	e50b3010 	str	r3, [fp, #-16]
        uint32_t segundos = segundos_actuales % 60;
 c0035b0:	e51b2020 	ldr	r2, [fp, #-32]	; 0xffffffe0
 c0035b4:	e59f3170 	ldr	r3, [pc, #368]	; c00372c <mostrar_tiempo_partida+0x208>
 c0035b8:	e0831392 	umull	r1, r3, r2, r3
 c0035bc:	e1a012a3 	lsr	r1, r3, #5
 c0035c0:	e1a03001 	mov	r3, r1
 c0035c4:	e1a03203 	lsl	r3, r3, #4
 c0035c8:	e0613003 	rsb	r3, r1, r3
 c0035cc:	e1a03103 	lsl	r3, r3, #2
 c0035d0:	e0633002 	rsb	r3, r3, r2
 c0035d4:	e50b3014 	str	r3, [fp, #-20]	; 0xffffffec

        char tiempo_str[8];

        // Formatear tiempo como MM:SS
        if (minutos > 99)
 c0035d8:	e51b3010 	ldr	r3, [fp, #-16]
 c0035dc:	e3530063 	cmp	r3, #99	; 0x63
 c0035e0:	9a000003 	bls	c0035f4 <mostrar_tiempo_partida+0xd0>
        {
            // Si pasa de 99 minutos, mostrar solo "99:59"
            minutos = 99;
 c0035e4:	e3a03063 	mov	r3, #99	; 0x63
 c0035e8:	e50b3010 	str	r3, [fp, #-16]
            segundos = 59;
 c0035ec:	e3a0303b 	mov	r3, #59	; 0x3b
 c0035f0:	e50b3014 	str	r3, [fp, #-20]	; 0xffffffec
        }

        // CORRECCIN: Validar valores antes de formatear
        if (minutos < 100 && segundos < 60)
 c0035f4:	e51b3010 	ldr	r3, [fp, #-16]
 c0035f8:	e3530063 	cmp	r3, #99	; 0x63
 c0035fc:	8a000044 	bhi	c003714 <mostrar_tiempo_partida+0x1f0>
 c003600:	e51b3014 	ldr	r3, [fp, #-20]	; 0xffffffec
 c003604:	e353003b 	cmp	r3, #59	; 0x3b
 c003608:	8a000041 	bhi	c003714 <mostrar_tiempo_partida+0x1f0>
        {
            // Crear string manualmente (sin sprintf por compatibilidad)
            tiempo_str[0] = (minutos / 10) + '0';
 c00360c:	e51b2010 	ldr	r2, [fp, #-16]
 c003610:	e59f3118 	ldr	r3, [pc, #280]	; c003730 <mostrar_tiempo_partida+0x20c>
 c003614:	e0831392 	umull	r1, r3, r2, r3
 c003618:	e1a031a3 	lsr	r3, r3, #3
 c00361c:	e20330ff 	and	r3, r3, #255	; 0xff
 c003620:	e2833030 	add	r3, r3, #48	; 0x30
 c003624:	e20330ff 	and	r3, r3, #255	; 0xff
 c003628:	e54b3028 	strb	r3, [fp, #-40]	; 0xffffffd8
            tiempo_str[1] = (minutos % 10) + '0';
 c00362c:	e51b1010 	ldr	r1, [fp, #-16]
 c003630:	e59f30f8 	ldr	r3, [pc, #248]	; c003730 <mostrar_tiempo_partida+0x20c>
 c003634:	e0832391 	umull	r2, r3, r1, r3
 c003638:	e1a021a3 	lsr	r2, r3, #3
 c00363c:	e1a03002 	mov	r3, r2
 c003640:	e1a03103 	lsl	r3, r3, #2
 c003644:	e0833002 	add	r3, r3, r2
 c003648:	e1a03083 	lsl	r3, r3, #1
 c00364c:	e0632001 	rsb	r2, r3, r1
 c003650:	e20230ff 	and	r3, r2, #255	; 0xff
 c003654:	e2833030 	add	r3, r3, #48	; 0x30
 c003658:	e20330ff 	and	r3, r3, #255	; 0xff
 c00365c:	e54b3027 	strb	r3, [fp, #-39]	; 0xffffffd9
            tiempo_str[2] = ':';
 c003660:	e3a0303a 	mov	r3, #58	; 0x3a
 c003664:	e54b3026 	strb	r3, [fp, #-38]	; 0xffffffda
            tiempo_str[3] = (segundos / 10) + '0';
 c003668:	e51b2014 	ldr	r2, [fp, #-20]	; 0xffffffec
 c00366c:	e59f30bc 	ldr	r3, [pc, #188]	; c003730 <mostrar_tiempo_partida+0x20c>
 c003670:	e0831392 	umull	r1, r3, r2, r3
 c003674:	e1a031a3 	lsr	r3, r3, #3
 c003678:	e20330ff 	and	r3, r3, #255	; 0xff
 c00367c:	e2833030 	add	r3, r3, #48	; 0x30
 c003680:	e20330ff 	and	r3, r3, #255	; 0xff
 c003684:	e54b3025 	strb	r3, [fp, #-37]	; 0xffffffdb
            tiempo_str[4] = (segundos % 10) + '0';
 c003688:	e51b1014 	ldr	r1, [fp, #-20]	; 0xffffffec
 c00368c:	e59f309c 	ldr	r3, [pc, #156]	; c003730 <mostrar_tiempo_partida+0x20c>
 c003690:	e0832391 	umull	r2, r3, r1, r3
 c003694:	e1a021a3 	lsr	r2, r3, #3
 c003698:	e1a03002 	mov	r3, r2
 c00369c:	e1a03103 	lsl	r3, r3, #2
 c0036a0:	e0833002 	add	r3, r3, r2
 c0036a4:	e1a03083 	lsl	r3, r3, #1
 c0036a8:	e0632001 	rsb	r2, r3, r1
 c0036ac:	e20230ff 	and	r3, r2, #255	; 0xff
 c0036b0:	e2833030 	add	r3, r3, #48	; 0x30
 c0036b4:	e20330ff 	and	r3, r3, #255	; 0xff
 c0036b8:	e54b3024 	strb	r3, [fp, #-36]	; 0xffffffdc
            tiempo_str[5] = '\0';
 c0036bc:	e3a03000 	mov	r3, #0
 c0036c0:	e54b3023 	strb	r3, [fp, #-35]	; 0xffffffdd

            // Limpiar rea del tiempo (solo el rea del tiempo, no la etiqueta)
            LcdClrRect(275, 12, 315, 20, WHITE);
 c0036c4:	e3a03000 	mov	r3, #0
 c0036c8:	e58d3000 	str	r3, [sp]
 c0036cc:	e59f0060 	ldr	r0, [pc, #96]	; c003734 <mostrar_tiempo_partida+0x210>
 c0036d0:	e3a0100c 	mov	r1, #12
 c0036d4:	e59f205c 	ldr	r2, [pc, #92]	; c003738 <mostrar_tiempo_partida+0x214>
 c0036d8:	e3a03014 	mov	r3, #20
 c0036dc:	eb000727 	bl	c005380 <LcdClrRect>

            // Mostrar el tiempo actualizado
            Lcd_DspAscII6x8(275, 12, BLACK, (INT8U *)tiempo_str);
 c0036e0:	e24b3028 	sub	r3, fp, #40	; 0x28
 c0036e4:	e59f0048 	ldr	r0, [pc, #72]	; c003734 <mostrar_tiempo_partida+0x210>
 c0036e8:	e3a0100c 	mov	r1, #12
 c0036ec:	e3a0200f 	mov	r2, #15
 c0036f0:	eb000d13 	bl	c006b44 <Lcd_DspAscII6x8>

            // Transferir al LCD
            Lcd_Dma_Trans();
 c0036f4:	eb000dd0 	bl	c006e3c <Lcd_Dma_Trans>

            ultimo_segundo_mostrado = segundos_actuales;
 c0036f8:	e59f3028 	ldr	r3, [pc, #40]	; c003728 <mostrar_tiempo_partida+0x204>
 c0036fc:	e51b2020 	ldr	r2, [fp, #-32]	; 0xffffffe0
 c003700:	e5832000 	str	r2, [r3]
 c003704:	ea000002 	b	c003714 <mostrar_tiempo_partida+0x1f0>
{
    static uint32_t ultimo_segundo_mostrado = 0;

    // CORRECCIN: Verificar que el tiempo de inicio es vlido
    if (tiempo_inicio_partida == 0)
        return;
 c003708:	e1a00000 	nop			; (mov r0, r0)
 c00370c:	ea000000 	b	c003714 <mostrar_tiempo_partida+0x1f0>

    uint32_t tiempo_actual = timer2_count();

    // CORRECCIN: Verificar que el tiempo actual es mayor que el de inicio
    if (tiempo_actual < tiempo_inicio_partida)
        return;
 c003710:	e1a00000 	nop			; (mov r0, r0)
            Lcd_Dma_Trans();

            ultimo_segundo_mostrado = segundos_actuales;
        }
    }
}
 c003714:	e24bd00c 	sub	sp, fp, #12
 c003718:	e89d6800 	ldm	sp, {fp, sp, lr}
 c00371c:	e12fff1e 	bx	lr
 c003720:	0c00cd48 	.word	0x0c00cd48
 c003724:	431bde83 	.word	0x431bde83
 c003728:	0c00cd50 	.word	0x0c00cd50
 c00372c:	88888889 	.word	0x88888889
 c003730:	cccccccd 	.word	0xcccccccd
 c003734:	00000113 	.word	0x00000113
 c003738:	0000013b 	.word	0x0000013b

0c00373c <resetear_tiempo_partida>:

/**
 * Resetea las variables de tiempo de partida
 */
static void resetear_tiempo_partida(void)
{
 c00373c:	e1a0c00d 	mov	ip, sp
 c003740:	e92dd800 	push	{fp, ip, lr, pc}
 c003744:	e24cb004 	sub	fp, ip, #4
    tiempo_inicio_partida = 0;
 c003748:	e59f301c 	ldr	r3, [pc, #28]	; c00376c <resetear_tiempo_partida+0x30>
 c00374c:	e3a02000 	mov	r2, #0
 c003750:	e5832000 	str	r2, [r3]
    ultimo_tiempo_mostrado = 0;
 c003754:	e59f3014 	ldr	r3, [pc, #20]	; c003770 <resetear_tiempo_partida+0x34>
 c003758:	e3a02000 	mov	r2, #0
 c00375c:	e5832000 	str	r2, [r3]
}
 c003760:	e24bd00c 	sub	sp, fp, #12
 c003764:	e89d6800 	ldm	sp, {fp, sp, lr}
 c003768:	e12fff1e 	bx	lr
 c00376c:	0c00cd48 	.word	0x0c00cd48
 c003770:	0c00cd4c 	.word	0x0c00cd4c

0c003774 <mostrar_victoria_con_tiempo>:

/**
 * Muestra mensaje de victoria incluyendo el tiempo final
 */
static void mostrar_victoria_con_tiempo(void)
{
 c003774:	e1a0c00d 	mov	ip, sp
 c003778:	e92dd800 	push	{fp, ip, lr, pc}
 c00377c:	e24cb004 	sub	fp, ip, #4
 c003780:	e24dd030 	sub	sp, sp, #48	; 0x30
    uint32_t tiempo_actual = timer2_count();
 c003784:	eb00154e 	bl	c008cc4 <timer2_count>
 c003788:	e50b0010 	str	r0, [fp, #-16]
    uint32_t tiempo_transcurrido_us = tiempo_actual - tiempo_inicio_partida;
 c00378c:	e59f31d4 	ldr	r3, [pc, #468]	; c003968 <mostrar_victoria_con_tiempo+0x1f4>
 c003790:	e5933000 	ldr	r3, [r3]
 c003794:	e51b2010 	ldr	r2, [fp, #-16]
 c003798:	e0633002 	rsb	r3, r3, r2
 c00379c:	e50b3014 	str	r3, [fp, #-20]	; 0xffffffec
    uint32_t segundos_totales = tiempo_transcurrido_us / 1000000;
 c0037a0:	e51b2014 	ldr	r2, [fp, #-20]	; 0xffffffec
 c0037a4:	e59f31c0 	ldr	r3, [pc, #448]	; c00396c <mostrar_victoria_con_tiempo+0x1f8>
 c0037a8:	e0831392 	umull	r1, r3, r2, r3
 c0037ac:	e1a03923 	lsr	r3, r3, #18
 c0037b0:	e50b3018 	str	r3, [fp, #-24]	; 0xffffffe8
    uint32_t minutos = segundos_totales / 60;
 c0037b4:	e51b2018 	ldr	r2, [fp, #-24]	; 0xffffffe8
 c0037b8:	e59f31b0 	ldr	r3, [pc, #432]	; c003970 <mostrar_victoria_con_tiempo+0x1fc>
 c0037bc:	e0831392 	umull	r1, r3, r2, r3
 c0037c0:	e1a032a3 	lsr	r3, r3, #5
 c0037c4:	e50b301c 	str	r3, [fp, #-28]	; 0xffffffe4
    uint32_t segundos = segundos_totales % 60;
 c0037c8:	e51b2018 	ldr	r2, [fp, #-24]	; 0xffffffe8
 c0037cc:	e59f319c 	ldr	r3, [pc, #412]	; c003970 <mostrar_victoria_con_tiempo+0x1fc>
 c0037d0:	e0831392 	umull	r1, r3, r2, r3
 c0037d4:	e1a012a3 	lsr	r1, r3, #5
 c0037d8:	e1a03001 	mov	r3, r1
 c0037dc:	e1a03203 	lsl	r3, r3, #4
 c0037e0:	e0613003 	rsb	r3, r1, r3
 c0037e4:	e1a03103 	lsl	r3, r3, #2
 c0037e8:	e0633002 	rsb	r3, r3, r2
 c0037ec:	e50b3020 	str	r3, [fp, #-32]	; 0xffffffe0

    char tiempo_final_str[25];

    // Crear mensaje de tiempo final
    tiempo_final_str[0] = 'T';
 c0037f0:	e3a03054 	mov	r3, #84	; 0x54
 c0037f4:	e54b303c 	strb	r3, [fp, #-60]	; 0xffffffc4
    tiempo_final_str[1] = 'i';
 c0037f8:	e3a03069 	mov	r3, #105	; 0x69
 c0037fc:	e54b303b 	strb	r3, [fp, #-59]	; 0xffffffc5
    tiempo_final_str[2] = 'e';
 c003800:	e3a03065 	mov	r3, #101	; 0x65
 c003804:	e54b303a 	strb	r3, [fp, #-58]	; 0xffffffc6
    tiempo_final_str[3] = 'm';
 c003808:	e3a0306d 	mov	r3, #109	; 0x6d
 c00380c:	e54b3039 	strb	r3, [fp, #-57]	; 0xffffffc7
    tiempo_final_str[4] = 'p';
 c003810:	e3a03070 	mov	r3, #112	; 0x70
 c003814:	e54b3038 	strb	r3, [fp, #-56]	; 0xffffffc8
    tiempo_final_str[5] = 'o';
 c003818:	e3a0306f 	mov	r3, #111	; 0x6f
 c00381c:	e54b3037 	strb	r3, [fp, #-55]	; 0xffffffc9
    tiempo_final_str[6] = ':';
 c003820:	e3a0303a 	mov	r3, #58	; 0x3a
 c003824:	e54b3036 	strb	r3, [fp, #-54]	; 0xffffffca
    tiempo_final_str[7] = ' ';
 c003828:	e3a03020 	mov	r3, #32
 c00382c:	e54b3035 	strb	r3, [fp, #-53]	; 0xffffffcb
    tiempo_final_str[8] = (minutos / 10) + '0';
 c003830:	e51b201c 	ldr	r2, [fp, #-28]	; 0xffffffe4
 c003834:	e59f3138 	ldr	r3, [pc, #312]	; c003974 <mostrar_victoria_con_tiempo+0x200>
 c003838:	e0831392 	umull	r1, r3, r2, r3
 c00383c:	e1a031a3 	lsr	r3, r3, #3
 c003840:	e20330ff 	and	r3, r3, #255	; 0xff
 c003844:	e2833030 	add	r3, r3, #48	; 0x30
 c003848:	e20330ff 	and	r3, r3, #255	; 0xff
 c00384c:	e54b3034 	strb	r3, [fp, #-52]	; 0xffffffcc
    tiempo_final_str[9] = (minutos % 10) + '0';
 c003850:	e51b101c 	ldr	r1, [fp, #-28]	; 0xffffffe4
 c003854:	e59f3118 	ldr	r3, [pc, #280]	; c003974 <mostrar_victoria_con_tiempo+0x200>
 c003858:	e0832391 	umull	r2, r3, r1, r3
 c00385c:	e1a021a3 	lsr	r2, r3, #3
 c003860:	e1a03002 	mov	r3, r2
 c003864:	e1a03103 	lsl	r3, r3, #2
 c003868:	e0833002 	add	r3, r3, r2
 c00386c:	e1a03083 	lsl	r3, r3, #1
 c003870:	e0632001 	rsb	r2, r3, r1
 c003874:	e20230ff 	and	r3, r2, #255	; 0xff
 c003878:	e2833030 	add	r3, r3, #48	; 0x30
 c00387c:	e20330ff 	and	r3, r3, #255	; 0xff
 c003880:	e54b3033 	strb	r3, [fp, #-51]	; 0xffffffcd
    tiempo_final_str[10] = ':';
 c003884:	e3a0303a 	mov	r3, #58	; 0x3a
 c003888:	e54b3032 	strb	r3, [fp, #-50]	; 0xffffffce
    tiempo_final_str[11] = (segundos / 10) + '0';
 c00388c:	e51b2020 	ldr	r2, [fp, #-32]	; 0xffffffe0
 c003890:	e59f30dc 	ldr	r3, [pc, #220]	; c003974 <mostrar_victoria_con_tiempo+0x200>
 c003894:	e0831392 	umull	r1, r3, r2, r3
 c003898:	e1a031a3 	lsr	r3, r3, #3
 c00389c:	e20330ff 	and	r3, r3, #255	; 0xff
 c0038a0:	e2833030 	add	r3, r3, #48	; 0x30
 c0038a4:	e20330ff 	and	r3, r3, #255	; 0xff
 c0038a8:	e54b3031 	strb	r3, [fp, #-49]	; 0xffffffcf
    tiempo_final_str[12] = (segundos % 10) + '0';
 c0038ac:	e51b1020 	ldr	r1, [fp, #-32]	; 0xffffffe0
 c0038b0:	e59f30bc 	ldr	r3, [pc, #188]	; c003974 <mostrar_victoria_con_tiempo+0x200>
 c0038b4:	e0832391 	umull	r2, r3, r1, r3
 c0038b8:	e1a021a3 	lsr	r2, r3, #3
 c0038bc:	e1a03002 	mov	r3, r2
 c0038c0:	e1a03103 	lsl	r3, r3, #2
 c0038c4:	e0833002 	add	r3, r3, r2
 c0038c8:	e1a03083 	lsl	r3, r3, #1
 c0038cc:	e0632001 	rsb	r2, r3, r1
 c0038d0:	e20230ff 	and	r3, r2, #255	; 0xff
 c0038d4:	e2833030 	add	r3, r3, #48	; 0x30
 c0038d8:	e20330ff 	and	r3, r3, #255	; 0xff
 c0038dc:	e54b3030 	strb	r3, [fp, #-48]	; 0xffffffd0
    tiempo_final_str[13] = '\0';
 c0038e0:	e3a03000 	mov	r3, #0
 c0038e4:	e54b302f 	strb	r3, [fp, #-47]	; 0xffffffd1

    // Limpiar pantalla
    Lcd_Clr();
 c0038e8:	eb000689 	bl	c005314 <Lcd_Clr>

    /* Mensaje de victoria MS GRANDE */
    Lcd_DspAscII8x16(60, 60, BLACK, (INT8U *)"FELICIDADES!");
 c0038ec:	e3a0003c 	mov	r0, #60	; 0x3c
 c0038f0:	e3a0103c 	mov	r1, #60	; 0x3c
 c0038f4:	e3a0200f 	mov	r2, #15
 c0038f8:	e59f3078 	ldr	r3, [pc, #120]	; c003978 <mostrar_victoria_con_tiempo+0x204>
 c0038fc:	eb000bcb 	bl	c006830 <Lcd_DspAscII8x16>
    Lcd_DspAscII8x16(40, 90, BLACK, (INT8U *)"Sudoku completado");
 c003900:	e3a00028 	mov	r0, #40	; 0x28
 c003904:	e3a0105a 	mov	r1, #90	; 0x5a
 c003908:	e3a0200f 	mov	r2, #15
 c00390c:	e59f3068 	ldr	r3, [pc, #104]	; c00397c <mostrar_victoria_con_tiempo+0x208>
 c003910:	eb000bc6 	bl	c006830 <Lcd_DspAscII8x16>

    /* Mostrar tiempo final MS GRANDE */
    Lcd_DspAscII8x16(80, 120, BLACK, (INT8U *)tiempo_final_str);
 c003914:	e24b303c 	sub	r3, fp, #60	; 0x3c
 c003918:	e3a00050 	mov	r0, #80	; 0x50
 c00391c:	e3a01078 	mov	r1, #120	; 0x78
 c003920:	e3a0200f 	mov	r2, #15
 c003924:	eb000bc1 	bl	c006830 <Lcd_DspAscII8x16>

    /* Instruccin para continuar MS VISIBLE */
    Lcd_DspAscII8x16(50, 160, BLACK, (INT8U *)"Pulse un boton");
 c003928:	e3a00032 	mov	r0, #50	; 0x32
 c00392c:	e3a010a0 	mov	r1, #160	; 0xa0
 c003930:	e3a0200f 	mov	r2, #15
 c003934:	e59f3044 	ldr	r3, [pc, #68]	; c003980 <mostrar_victoria_con_tiempo+0x20c>
 c003938:	eb000bbc 	bl	c006830 <Lcd_DspAscII8x16>
    Lcd_DspAscII8x16(70, 180, BLACK, (INT8U *)"para jugar");
 c00393c:	e3a00046 	mov	r0, #70	; 0x46
 c003940:	e3a010b4 	mov	r1, #180	; 0xb4
 c003944:	e3a0200f 	mov	r2, #15
 c003948:	e59f3034 	ldr	r3, [pc, #52]	; c003984 <mostrar_victoria_con_tiempo+0x210>
 c00394c:	eb000bb7 	bl	c006830 <Lcd_DspAscII8x16>

    Lcd_Dma_Trans();
 c003950:	eb000d39 	bl	c006e3c <Lcd_Dma_Trans>

    // ESPERAR MS TIEMPO antes de permitir continuar
    Delay(50000); // Pausa para poder leer el mensaje
 c003954:	e59f002c 	ldr	r0, [pc, #44]	; c003988 <mostrar_victoria_con_tiempo+0x214>
 c003958:	ebfff36b 	bl	c00070c <Delay>
}
 c00395c:	e24bd00c 	sub	sp, fp, #12
 c003960:	e89d6800 	ldm	sp, {fp, sp, lr}
 c003964:	e12fff1e 	bx	lr
 c003968:	0c00cd48 	.word	0x0c00cd48
 c00396c:	431bde83 	.word	0x431bde83
 c003970:	88888889 	.word	0x88888889
 c003974:	cccccccd 	.word	0xcccccccd
 c003978:	0c00cb44 	.word	0x0c00cb44
 c00397c:	0c00cb54 	.word	0x0c00cb54
 c003980:	0c00cb68 	.word	0x0c00cb68
 c003984:	0c00cb78 	.word	0x0c00cb78
 c003988:	0000c350 	.word	0x0000c350

0c00398c <mostrar_partida_terminada>:

/**
 * Muestra mensaje cuando la partida termina prematuramente (fila 0)
 */
static void mostrar_partida_terminada(void)
{
 c00398c:	e1a0c00d 	mov	ip, sp
 c003990:	e92dd800 	push	{fp, ip, lr, pc}
 c003994:	e24cb004 	sub	fp, ip, #4
 c003998:	e24dd030 	sub	sp, sp, #48	; 0x30
    uint32_t tiempo_actual = timer2_count();
 c00399c:	eb0014c8 	bl	c008cc4 <timer2_count>
 c0039a0:	e50b0010 	str	r0, [fp, #-16]
    uint32_t tiempo_transcurrido_us = tiempo_actual - tiempo_inicio_partida;
 c0039a4:	e59f31d4 	ldr	r3, [pc, #468]	; c003b80 <mostrar_partida_terminada+0x1f4>
 c0039a8:	e5933000 	ldr	r3, [r3]
 c0039ac:	e51b2010 	ldr	r2, [fp, #-16]
 c0039b0:	e0633002 	rsb	r3, r3, r2
 c0039b4:	e50b3014 	str	r3, [fp, #-20]	; 0xffffffec
    uint32_t segundos_totales = tiempo_transcurrido_us / 1000000;
 c0039b8:	e51b2014 	ldr	r2, [fp, #-20]	; 0xffffffec
 c0039bc:	e59f31c0 	ldr	r3, [pc, #448]	; c003b84 <mostrar_partida_terminada+0x1f8>
 c0039c0:	e0831392 	umull	r1, r3, r2, r3
 c0039c4:	e1a03923 	lsr	r3, r3, #18
 c0039c8:	e50b3018 	str	r3, [fp, #-24]	; 0xffffffe8
    uint32_t minutos = segundos_totales / 60;
 c0039cc:	e51b2018 	ldr	r2, [fp, #-24]	; 0xffffffe8
 c0039d0:	e59f31b0 	ldr	r3, [pc, #432]	; c003b88 <mostrar_partida_terminada+0x1fc>
 c0039d4:	e0831392 	umull	r1, r3, r2, r3
 c0039d8:	e1a032a3 	lsr	r3, r3, #5
 c0039dc:	e50b301c 	str	r3, [fp, #-28]	; 0xffffffe4
    uint32_t segundos = segundos_totales % 60;
 c0039e0:	e51b2018 	ldr	r2, [fp, #-24]	; 0xffffffe8
 c0039e4:	e59f319c 	ldr	r3, [pc, #412]	; c003b88 <mostrar_partida_terminada+0x1fc>
 c0039e8:	e0831392 	umull	r1, r3, r2, r3
 c0039ec:	e1a012a3 	lsr	r1, r3, #5
 c0039f0:	e1a03001 	mov	r3, r1
 c0039f4:	e1a03203 	lsl	r3, r3, #4
 c0039f8:	e0613003 	rsb	r3, r1, r3
 c0039fc:	e1a03103 	lsl	r3, r3, #2
 c003a00:	e0633002 	rsb	r3, r3, r2
 c003a04:	e50b3020 	str	r3, [fp, #-32]	; 0xffffffe0

    char tiempo_final_str[25];

    // Crear mensaje de tiempo final
    tiempo_final_str[0] = 'T';
 c003a08:	e3a03054 	mov	r3, #84	; 0x54
 c003a0c:	e54b303c 	strb	r3, [fp, #-60]	; 0xffffffc4
    tiempo_final_str[1] = 'i';
 c003a10:	e3a03069 	mov	r3, #105	; 0x69
 c003a14:	e54b303b 	strb	r3, [fp, #-59]	; 0xffffffc5
    tiempo_final_str[2] = 'e';
 c003a18:	e3a03065 	mov	r3, #101	; 0x65
 c003a1c:	e54b303a 	strb	r3, [fp, #-58]	; 0xffffffc6
    tiempo_final_str[3] = 'm';
 c003a20:	e3a0306d 	mov	r3, #109	; 0x6d
 c003a24:	e54b3039 	strb	r3, [fp, #-57]	; 0xffffffc7
    tiempo_final_str[4] = 'p';
 c003a28:	e3a03070 	mov	r3, #112	; 0x70
 c003a2c:	e54b3038 	strb	r3, [fp, #-56]	; 0xffffffc8
    tiempo_final_str[5] = 'o';
 c003a30:	e3a0306f 	mov	r3, #111	; 0x6f
 c003a34:	e54b3037 	strb	r3, [fp, #-55]	; 0xffffffc9
    tiempo_final_str[6] = ':';
 c003a38:	e3a0303a 	mov	r3, #58	; 0x3a
 c003a3c:	e54b3036 	strb	r3, [fp, #-54]	; 0xffffffca
    tiempo_final_str[7] = ' ';
 c003a40:	e3a03020 	mov	r3, #32
 c003a44:	e54b3035 	strb	r3, [fp, #-53]	; 0xffffffcb
    tiempo_final_str[8] = (minutos / 10) + '0';
 c003a48:	e51b201c 	ldr	r2, [fp, #-28]	; 0xffffffe4
 c003a4c:	e59f3138 	ldr	r3, [pc, #312]	; c003b8c <mostrar_partida_terminada+0x200>
 c003a50:	e0831392 	umull	r1, r3, r2, r3
 c003a54:	e1a031a3 	lsr	r3, r3, #3
 c003a58:	e20330ff 	and	r3, r3, #255	; 0xff
 c003a5c:	e2833030 	add	r3, r3, #48	; 0x30
 c003a60:	e20330ff 	and	r3, r3, #255	; 0xff
 c003a64:	e54b3034 	strb	r3, [fp, #-52]	; 0xffffffcc
    tiempo_final_str[9] = (minutos % 10) + '0';
 c003a68:	e51b101c 	ldr	r1, [fp, #-28]	; 0xffffffe4
 c003a6c:	e59f3118 	ldr	r3, [pc, #280]	; c003b8c <mostrar_partida_terminada+0x200>
 c003a70:	e0832391 	umull	r2, r3, r1, r3
 c003a74:	e1a021a3 	lsr	r2, r3, #3
 c003a78:	e1a03002 	mov	r3, r2
 c003a7c:	e1a03103 	lsl	r3, r3, #2
 c003a80:	e0833002 	add	r3, r3, r2
 c003a84:	e1a03083 	lsl	r3, r3, #1
 c003a88:	e0632001 	rsb	r2, r3, r1
 c003a8c:	e20230ff 	and	r3, r2, #255	; 0xff
 c003a90:	e2833030 	add	r3, r3, #48	; 0x30
 c003a94:	e20330ff 	and	r3, r3, #255	; 0xff
 c003a98:	e54b3033 	strb	r3, [fp, #-51]	; 0xffffffcd
    tiempo_final_str[10] = ':';
 c003a9c:	e3a0303a 	mov	r3, #58	; 0x3a
 c003aa0:	e54b3032 	strb	r3, [fp, #-50]	; 0xffffffce
    tiempo_final_str[11] = (segundos / 10) + '0';
 c003aa4:	e51b2020 	ldr	r2, [fp, #-32]	; 0xffffffe0
 c003aa8:	e59f30dc 	ldr	r3, [pc, #220]	; c003b8c <mostrar_partida_terminada+0x200>
 c003aac:	e0831392 	umull	r1, r3, r2, r3
 c003ab0:	e1a031a3 	lsr	r3, r3, #3
 c003ab4:	e20330ff 	and	r3, r3, #255	; 0xff
 c003ab8:	e2833030 	add	r3, r3, #48	; 0x30
 c003abc:	e20330ff 	and	r3, r3, #255	; 0xff
 c003ac0:	e54b3031 	strb	r3, [fp, #-49]	; 0xffffffcf
    tiempo_final_str[12] = (segundos % 10) + '0';
 c003ac4:	e51b1020 	ldr	r1, [fp, #-32]	; 0xffffffe0
 c003ac8:	e59f30bc 	ldr	r3, [pc, #188]	; c003b8c <mostrar_partida_terminada+0x200>
 c003acc:	e0832391 	umull	r2, r3, r1, r3
 c003ad0:	e1a021a3 	lsr	r2, r3, #3
 c003ad4:	e1a03002 	mov	r3, r2
 c003ad8:	e1a03103 	lsl	r3, r3, #2
 c003adc:	e0833002 	add	r3, r3, r2
 c003ae0:	e1a03083 	lsl	r3, r3, #1
 c003ae4:	e0632001 	rsb	r2, r3, r1
 c003ae8:	e20230ff 	and	r3, r2, #255	; 0xff
 c003aec:	e2833030 	add	r3, r3, #48	; 0x30
 c003af0:	e20330ff 	and	r3, r3, #255	; 0xff
 c003af4:	e54b3030 	strb	r3, [fp, #-48]	; 0xffffffd0
    tiempo_final_str[13] = '\0';
 c003af8:	e3a03000 	mov	r3, #0
 c003afc:	e54b302f 	strb	r3, [fp, #-47]	; 0xffffffd1

    // Limpiar pantalla
    Lcd_Clr();
 c003b00:	eb000603 	bl	c005314 <Lcd_Clr>

    /* Mensaje de partida terminada */
    Lcd_DspAscII8x16(40, 60, BLACK, (INT8U *)"Partida terminada");
 c003b04:	e3a00028 	mov	r0, #40	; 0x28
 c003b08:	e3a0103c 	mov	r1, #60	; 0x3c
 c003b0c:	e3a0200f 	mov	r2, #15
 c003b10:	e59f3078 	ldr	r3, [pc, #120]	; c003b90 <mostrar_partida_terminada+0x204>
 c003b14:	eb000b45 	bl	c006830 <Lcd_DspAscII8x16>
    Lcd_DspAscII6x8(60, 90, BLACK, (INT8U *)"Salida por el usuario");
 c003b18:	e3a0003c 	mov	r0, #60	; 0x3c
 c003b1c:	e3a0105a 	mov	r1, #90	; 0x5a
 c003b20:	e3a0200f 	mov	r2, #15
 c003b24:	e59f3068 	ldr	r3, [pc, #104]	; c003b94 <mostrar_partida_terminada+0x208>
 c003b28:	eb000c05 	bl	c006b44 <Lcd_DspAscII6x8>

    /* Mostrar tiempo transcurrido MS GRANDE */
    Lcd_DspAscII8x16(80, 120, BLACK, (INT8U *)tiempo_final_str);
 c003b2c:	e24b303c 	sub	r3, fp, #60	; 0x3c
 c003b30:	e3a00050 	mov	r0, #80	; 0x50
 c003b34:	e3a01078 	mov	r1, #120	; 0x78
 c003b38:	e3a0200f 	mov	r2, #15
 c003b3c:	eb000b3b 	bl	c006830 <Lcd_DspAscII8x16>

    /* Instruccin para continuar */
    Lcd_DspAscII8x16(50, 160, BLACK, (INT8U *)"Pulse un boton");
 c003b40:	e3a00032 	mov	r0, #50	; 0x32
 c003b44:	e3a010a0 	mov	r1, #160	; 0xa0
 c003b48:	e3a0200f 	mov	r2, #15
 c003b4c:	e59f3044 	ldr	r3, [pc, #68]	; c003b98 <mostrar_partida_terminada+0x20c>
 c003b50:	eb000b36 	bl	c006830 <Lcd_DspAscII8x16>
    Lcd_DspAscII8x16(70, 180, BLACK, (INT8U *)"para jugar");
 c003b54:	e3a00046 	mov	r0, #70	; 0x46
 c003b58:	e3a010b4 	mov	r1, #180	; 0xb4
 c003b5c:	e3a0200f 	mov	r2, #15
 c003b60:	e59f3034 	ldr	r3, [pc, #52]	; c003b9c <mostrar_partida_terminada+0x210>
 c003b64:	eb000b31 	bl	c006830 <Lcd_DspAscII8x16>

    Lcd_Dma_Trans();
 c003b68:	eb000cb3 	bl	c006e3c <Lcd_Dma_Trans>

    // ESPERAR MS TIEMPO antes de permitir continuar
    Delay(50000); // Pausa para poder leer el mensaje
 c003b6c:	e59f002c 	ldr	r0, [pc, #44]	; c003ba0 <mostrar_partida_terminada+0x214>
 c003b70:	ebfff2e5 	bl	c00070c <Delay>
}
 c003b74:	e24bd00c 	sub	sp, fp, #12
 c003b78:	e89d6800 	ldm	sp, {fp, sp, lr}
 c003b7c:	e12fff1e 	bx	lr
 c003b80:	0c00cd48 	.word	0x0c00cd48
 c003b84:	431bde83 	.word	0x431bde83
 c003b88:	88888889 	.word	0x88888889
 c003b8c:	cccccccd 	.word	0xcccccccd
 c003b90:	0c00cb84 	.word	0x0c00cb84
 c003b94:	0c00cb98 	.word	0x0c00cb98
 c003b98:	0c00cb68 	.word	0x0c00cb68
 c003b9c:	0c00cb78 	.word	0x0c00cb78
 c003ba0:	0000c350 	.word	0x0000c350

0c003ba4 <detectar_y_marcar_errores>:
 * Detectar y marcar errores en el tablero
 * Recorre el tablero y marca las celdas con errores evidentes
 * (por ejemplo, celdas con valores fuera de rango o duplicados en fila/columna)
 */
static void detectar_y_marcar_errores(void)
{
 c003ba4:	e1a0c00d 	mov	ip, sp
 c003ba8:	e92dd800 	push	{fp, ip, lr, pc}
 c003bac:	e24cb004 	sub	fp, ip, #4
 c003bb0:	e24dd038 	sub	sp, sp, #56	; 0x38
    uint8_t i, j, k, l;
    uint8_t fila[9], columna[9];
    uint16_t bloque[3][3];

    // Limpiar marcas de error anteriores
    limpiar_marcas_error();
 c003bb4:	eb000174 	bl	c00418c <limpiar_marcas_error>

    // Recorre todas las celdas
    for (i = 0; i < 9; i++)
 c003bb8:	e3a03000 	mov	r3, #0
 c003bbc:	e54b300d 	strb	r3, [fp, #-13]
 c003bc0:	ea000169 	b	c00416c <detectar_y_marcar_errores+0x5c8>
    {
        for (j = 0; j < 9; j++)
 c003bc4:	e3a03000 	mov	r3, #0
 c003bc8:	e54b300e 	strb	r3, [fp, #-14]
 c003bcc:	ea000160 	b	c004154 <detectar_y_marcar_errores+0x5b0>
        {
            // Leer valor y verificar si es pista (bit 4 = 1)
            uint8_t valor = celda_leer_valor(cuadricula_C_C[i][j]);
 c003bd0:	e55b100d 	ldrb	r1, [fp, #-13]
 c003bd4:	e55b300e 	ldrb	r3, [fp, #-14]
 c003bd8:	e59f25a4 	ldr	r2, [pc, #1444]	; c004184 <detectar_y_marcar_errores+0x5e0>
 c003bdc:	e1a01201 	lsl	r1, r1, #4
 c003be0:	e0813003 	add	r3, r1, r3
 c003be4:	e1a03083 	lsl	r3, r3, #1
 c003be8:	e0823003 	add	r3, r2, r3
 c003bec:	e1d330b0 	ldrh	r3, [r3]
 c003bf0:	e1a00003 	mov	r0, r3
 c003bf4:	eb000382 	bl	c004a04 <celda_leer_valor>
 c003bf8:	e1a03000 	mov	r3, r0
 c003bfc:	e54b3011 	strb	r3, [fp, #-17]	; 0xffffffef
            uint8_t es_pista = (cuadricula_C_C[i][j] & (1 << 4)) ? 1 : 0;
 c003c00:	e55b100d 	ldrb	r1, [fp, #-13]
 c003c04:	e55b300e 	ldrb	r3, [fp, #-14]
 c003c08:	e59f2574 	ldr	r2, [pc, #1396]	; c004184 <detectar_y_marcar_errores+0x5e0>
 c003c0c:	e1a01201 	lsl	r1, r1, #4
 c003c10:	e0813003 	add	r3, r1, r3
 c003c14:	e1a03083 	lsl	r3, r3, #1
 c003c18:	e0823003 	add	r3, r2, r3
 c003c1c:	e1d330b0 	ldrh	r3, [r3]
 c003c20:	e2033010 	and	r3, r3, #16
 c003c24:	e3530000 	cmp	r3, #0
 c003c28:	03a03000 	moveq	r3, #0
 c003c2c:	13a03001 	movne	r3, #1
 c003c30:	e54b3012 	strb	r3, [fp, #-18]	; 0xffffffee

            // Si la celda es una pista, continuar (no marcar error)
            if (es_pista)
 c003c34:	e55b3012 	ldrb	r3, [fp, #-18]	; 0xffffffee
 c003c38:	e3530000 	cmp	r3, #0
 c003c3c:	1a000140 	bne	c004144 <detectar_y_marcar_errores+0x5a0>
                continue;

            // Reiniciar datos de fila, columna y bloque
            for (k = 0; k < 9; k++)
 c003c40:	e3a03000 	mov	r3, #0
 c003c44:	e54b300f 	strb	r3, [fp, #-15]
 c003c48:	ea000010 	b	c003c90 <detectar_y_marcar_errores+0xec>
            {
                fila[k] = 0;
 c003c4c:	e55b200f 	ldrb	r2, [fp, #-15]
 c003c50:	e3e03013 	mvn	r3, #19
 c003c54:	e24b000c 	sub	r0, fp, #12
 c003c58:	e0802002 	add	r2, r0, r2
 c003c5c:	e0823003 	add	r3, r2, r3
 c003c60:	e3a02000 	mov	r2, #0
 c003c64:	e5c32000 	strb	r2, [r3]
                columna[k] = 0;
 c003c68:	e55b200f 	ldrb	r2, [fp, #-15]
 c003c6c:	e3e0301f 	mvn	r3, #31
 c003c70:	e24b100c 	sub	r1, fp, #12
 c003c74:	e0812002 	add	r2, r1, r2
 c003c78:	e0823003 	add	r3, r2, r3
 c003c7c:	e3a02000 	mov	r2, #0
 c003c80:	e5c32000 	strb	r2, [r3]
            // Si la celda es una pista, continuar (no marcar error)
            if (es_pista)
                continue;

            // Reiniciar datos de fila, columna y bloque
            for (k = 0; k < 9; k++)
 c003c84:	e55b300f 	ldrb	r3, [fp, #-15]
 c003c88:	e2833001 	add	r3, r3, #1
 c003c8c:	e54b300f 	strb	r3, [fp, #-15]
 c003c90:	e55b300f 	ldrb	r3, [fp, #-15]
 c003c94:	e3530008 	cmp	r3, #8
 c003c98:	9affffeb 	bls	c003c4c <detectar_y_marcar_errores+0xa8>
            {
                fila[k] = 0;
                columna[k] = 0;
            }
            for (k = 0; k < 3; k++)
 c003c9c:	e3a03000 	mov	r3, #0
 c003ca0:	e54b300f 	strb	r3, [fp, #-15]
 c003ca4:	ea000018 	b	c003d0c <detectar_y_marcar_errores+0x168>
                for (l = 0; l < 3; l++)
 c003ca8:	e3a03000 	mov	r3, #0
 c003cac:	e54b3010 	strb	r3, [fp, #-16]
 c003cb0:	ea00000f 	b	c003cf4 <detectar_y_marcar_errores+0x150>
                    bloque[k][l] = 0;
 c003cb4:	e55b200f 	ldrb	r2, [fp, #-15]
 c003cb8:	e55b1010 	ldrb	r1, [fp, #-16]
 c003cbc:	e1a03002 	mov	r3, r2
 c003cc0:	e1a03083 	lsl	r3, r3, #1
 c003cc4:	e0833002 	add	r3, r3, r2
 c003cc8:	e0832001 	add	r2, r3, r1
 c003ccc:	e3e03033 	mvn	r3, #51	; 0x33
 c003cd0:	e1a02082 	lsl	r2, r2, #1
 c003cd4:	e24b000c 	sub	r0, fp, #12
 c003cd8:	e0802002 	add	r2, r0, r2
 c003cdc:	e0823003 	add	r3, r2, r3
 c003ce0:	e3a02000 	mov	r2, #0
 c003ce4:	e1c320b0 	strh	r2, [r3]
            {
                fila[k] = 0;
                columna[k] = 0;
            }
            for (k = 0; k < 3; k++)
                for (l = 0; l < 3; l++)
 c003ce8:	e55b3010 	ldrb	r3, [fp, #-16]
 c003cec:	e2833001 	add	r3, r3, #1
 c003cf0:	e54b3010 	strb	r3, [fp, #-16]
 c003cf4:	e55b3010 	ldrb	r3, [fp, #-16]
 c003cf8:	e3530002 	cmp	r3, #2
 c003cfc:	9affffec 	bls	c003cb4 <detectar_y_marcar_errores+0x110>
            for (k = 0; k < 9; k++)
            {
                fila[k] = 0;
                columna[k] = 0;
            }
            for (k = 0; k < 3; k++)
 c003d00:	e55b300f 	ldrb	r3, [fp, #-15]
 c003d04:	e2833001 	add	r3, r3, #1
 c003d08:	e54b300f 	strb	r3, [fp, #-15]
 c003d0c:	e55b300f 	ldrb	r3, [fp, #-15]
 c003d10:	e3530002 	cmp	r3, #2
 c003d14:	9affffe3 	bls	c003ca8 <detectar_y_marcar_errores+0x104>
                for (l = 0; l < 3; l++)
                    bloque[k][l] = 0;

            // Volver a recorrer para detectar errores
            for (k = 0; k < 9; k++)
 c003d18:	e3a03000 	mov	r3, #0
 c003d1c:	e54b300f 	strb	r3, [fp, #-15]
 c003d20:	ea000103 	b	c004134 <detectar_y_marcar_errores+0x590>
            {
                // Verificar fila
                uint8_t valor_fila = celda_leer_valor(cuadricula_C_C[i][k]);
 c003d24:	e55b100d 	ldrb	r1, [fp, #-13]
 c003d28:	e55b300f 	ldrb	r3, [fp, #-15]
 c003d2c:	e59f2450 	ldr	r2, [pc, #1104]	; c004184 <detectar_y_marcar_errores+0x5e0>
 c003d30:	e1a01201 	lsl	r1, r1, #4
 c003d34:	e0813003 	add	r3, r1, r3
 c003d38:	e1a03083 	lsl	r3, r3, #1
 c003d3c:	e0823003 	add	r3, r2, r3
 c003d40:	e1d330b0 	ldrh	r3, [r3]
 c003d44:	e1a00003 	mov	r0, r3
 c003d48:	eb00032d 	bl	c004a04 <celda_leer_valor>
 c003d4c:	e1a03000 	mov	r3, r0
 c003d50:	e54b3013 	strb	r3, [fp, #-19]	; 0xffffffed
                if (valor_fila > 0 && valor_fila < 10)
 c003d54:	e55b3013 	ldrb	r3, [fp, #-19]	; 0xffffffed
 c003d58:	e3530000 	cmp	r3, #0
 c003d5c:	0a00002d 	beq	c003e18 <detectar_y_marcar_errores+0x274>
 c003d60:	e55b3013 	ldrb	r3, [fp, #-19]	; 0xffffffed
 c003d64:	e3530009 	cmp	r3, #9
 c003d68:	8a00002a 	bhi	c003e18 <detectar_y_marcar_errores+0x274>
                {
                    if (fila[valor_fila - 1] == 0)
 c003d6c:	e55b3013 	ldrb	r3, [fp, #-19]	; 0xffffffed
 c003d70:	e2432001 	sub	r2, r3, #1
 c003d74:	e3e03013 	mvn	r3, #19
 c003d78:	e24b100c 	sub	r1, fp, #12
 c003d7c:	e0812002 	add	r2, r1, r2
 c003d80:	e0823003 	add	r3, r2, r3
 c003d84:	e5d33000 	ldrb	r3, [r3]
 c003d88:	e3530000 	cmp	r3, #0
 c003d8c:	1a000008 	bne	c003db4 <detectar_y_marcar_errores+0x210>
                        fila[valor_fila - 1] = 1;
 c003d90:	e55b3013 	ldrb	r3, [fp, #-19]	; 0xffffffed
 c003d94:	e2432001 	sub	r2, r3, #1
 c003d98:	e3e03013 	mvn	r3, #19
 c003d9c:	e24b000c 	sub	r0, fp, #12
 c003da0:	e0802002 	add	r2, r0, r2
 c003da4:	e0823003 	add	r3, r2, r3
 c003da8:	e3a02001 	mov	r2, #1
 c003dac:	e5c32000 	strb	r2, [r3]
 c003db0:	ea000018 	b	c003e18 <detectar_y_marcar_errores+0x274>
                    else
                    {
                        cuadricula_C_C[i][k] |= 0x0020;
 c003db4:	e55b000d 	ldrb	r0, [fp, #-13]
 c003db8:	e55b300f 	ldrb	r3, [fp, #-15]
 c003dbc:	e55bc00d 	ldrb	ip, [fp, #-13]
 c003dc0:	e55b200f 	ldrb	r2, [fp, #-15]
 c003dc4:	e59f13b8 	ldr	r1, [pc, #952]	; c004184 <detectar_y_marcar_errores+0x5e0>
 c003dc8:	e1a0c20c 	lsl	ip, ip, #4
 c003dcc:	e08c2002 	add	r2, ip, r2
 c003dd0:	e1a02082 	lsl	r2, r2, #1
 c003dd4:	e0812002 	add	r2, r1, r2
 c003dd8:	e1d220b0 	ldrh	r2, [r2]
 c003ddc:	e3822020 	orr	r2, r2, #32
 c003de0:	e1a02802 	lsl	r2, r2, #16
 c003de4:	e1a02822 	lsr	r2, r2, #16
 c003de8:	e59f1394 	ldr	r1, [pc, #916]	; c004184 <detectar_y_marcar_errores+0x5e0>
 c003dec:	e1a00200 	lsl	r0, r0, #4
 c003df0:	e0803003 	add	r3, r0, r3
 c003df4:	e1a03083 	lsl	r3, r3, #1
 c003df8:	e0813003 	add	r3, r1, r3
 c003dfc:	e1c320b0 	strh	r2, [r3]
                        sudoku_actualizar_celda(cuadricula_C_C, i, k);
 c003e00:	e55b200d 	ldrb	r2, [fp, #-13]
 c003e04:	e55b300f 	ldrb	r3, [fp, #-15]
 c003e08:	e59f0374 	ldr	r0, [pc, #884]	; c004184 <detectar_y_marcar_errores+0x5e0>
 c003e0c:	e1a01002 	mov	r1, r2
 c003e10:	e1a02003 	mov	r2, r3
 c003e14:	eb00123e 	bl	c008714 <sudoku_actualizar_celda>
                    }
                }

                // Verificar columna
                uint8_t valor_columna = celda_leer_valor(cuadricula_C_C[k][j]);
 c003e18:	e55b100f 	ldrb	r1, [fp, #-15]
 c003e1c:	e55b300e 	ldrb	r3, [fp, #-14]
 c003e20:	e59f235c 	ldr	r2, [pc, #860]	; c004184 <detectar_y_marcar_errores+0x5e0>
 c003e24:	e1a01201 	lsl	r1, r1, #4
 c003e28:	e0813003 	add	r3, r1, r3
 c003e2c:	e1a03083 	lsl	r3, r3, #1
 c003e30:	e0823003 	add	r3, r2, r3
 c003e34:	e1d330b0 	ldrh	r3, [r3]
 c003e38:	e1a00003 	mov	r0, r3
 c003e3c:	eb0002f0 	bl	c004a04 <celda_leer_valor>
 c003e40:	e1a03000 	mov	r3, r0
 c003e44:	e54b3014 	strb	r3, [fp, #-20]	; 0xffffffec
                if (valor_columna > 0 && valor_columna < 10)
 c003e48:	e55b3014 	ldrb	r3, [fp, #-20]	; 0xffffffec
 c003e4c:	e3530000 	cmp	r3, #0
 c003e50:	0a00002d 	beq	c003f0c <detectar_y_marcar_errores+0x368>
 c003e54:	e55b3014 	ldrb	r3, [fp, #-20]	; 0xffffffec
 c003e58:	e3530009 	cmp	r3, #9
 c003e5c:	8a00002a 	bhi	c003f0c <detectar_y_marcar_errores+0x368>
                {
                    if (columna[valor_columna - 1] == 0)
 c003e60:	e55b3014 	ldrb	r3, [fp, #-20]	; 0xffffffec
 c003e64:	e2432001 	sub	r2, r3, #1
 c003e68:	e3e0301f 	mvn	r3, #31
 c003e6c:	e24b100c 	sub	r1, fp, #12
 c003e70:	e0812002 	add	r2, r1, r2
 c003e74:	e0823003 	add	r3, r2, r3
 c003e78:	e5d33000 	ldrb	r3, [r3]
 c003e7c:	e3530000 	cmp	r3, #0
 c003e80:	1a000008 	bne	c003ea8 <detectar_y_marcar_errores+0x304>
                        columna[valor_columna - 1] = 1;
 c003e84:	e55b3014 	ldrb	r3, [fp, #-20]	; 0xffffffec
 c003e88:	e2432001 	sub	r2, r3, #1
 c003e8c:	e3e0301f 	mvn	r3, #31
 c003e90:	e24b000c 	sub	r0, fp, #12
 c003e94:	e0802002 	add	r2, r0, r2
 c003e98:	e0823003 	add	r3, r2, r3
 c003e9c:	e3a02001 	mov	r2, #1
 c003ea0:	e5c32000 	strb	r2, [r3]
 c003ea4:	ea000018 	b	c003f0c <detectar_y_marcar_errores+0x368>
                    else
                    {
                        cuadricula_C_C[k][j] |= 0x0020;
 c003ea8:	e55b000f 	ldrb	r0, [fp, #-15]
 c003eac:	e55b300e 	ldrb	r3, [fp, #-14]
 c003eb0:	e55bc00f 	ldrb	ip, [fp, #-15]
 c003eb4:	e55b200e 	ldrb	r2, [fp, #-14]
 c003eb8:	e59f12c4 	ldr	r1, [pc, #708]	; c004184 <detectar_y_marcar_errores+0x5e0>
 c003ebc:	e1a0c20c 	lsl	ip, ip, #4
 c003ec0:	e08c2002 	add	r2, ip, r2
 c003ec4:	e1a02082 	lsl	r2, r2, #1
 c003ec8:	e0812002 	add	r2, r1, r2
 c003ecc:	e1d220b0 	ldrh	r2, [r2]
 c003ed0:	e3822020 	orr	r2, r2, #32
 c003ed4:	e1a02802 	lsl	r2, r2, #16
 c003ed8:	e1a02822 	lsr	r2, r2, #16
 c003edc:	e59f12a0 	ldr	r1, [pc, #672]	; c004184 <detectar_y_marcar_errores+0x5e0>
 c003ee0:	e1a00200 	lsl	r0, r0, #4
 c003ee4:	e0803003 	add	r3, r0, r3
 c003ee8:	e1a03083 	lsl	r3, r3, #1
 c003eec:	e0813003 	add	r3, r1, r3
 c003ef0:	e1c320b0 	strh	r2, [r3]
                        sudoku_actualizar_celda(cuadricula_C_C, k, j);
 c003ef4:	e55b200f 	ldrb	r2, [fp, #-15]
 c003ef8:	e55b300e 	ldrb	r3, [fp, #-14]
 c003efc:	e59f0280 	ldr	r0, [pc, #640]	; c004184 <detectar_y_marcar_errores+0x5e0>
 c003f00:	e1a01002 	mov	r1, r2
 c003f04:	e1a02003 	mov	r2, r3
 c003f08:	eb001201 	bl	c008714 <sudoku_actualizar_celda>
                    }
                }

                // Verificar bloque 3x3
                uint8_t fila_bloque = i / 3 * 3 + k / 3;
 c003f0c:	e55b200d 	ldrb	r2, [fp, #-13]
 c003f10:	e59f3270 	ldr	r3, [pc, #624]	; c004188 <detectar_y_marcar_errores+0x5e4>
 c003f14:	e0831392 	umull	r1, r3, r2, r3
 c003f18:	e1a030a3 	lsr	r3, r3, #1
 c003f1c:	e20330ff 	and	r3, r3, #255	; 0xff
 c003f20:	e1a02003 	mov	r2, r3
 c003f24:	e1a02082 	lsl	r2, r2, #1
 c003f28:	e0823003 	add	r3, r2, r3
 c003f2c:	e20320ff 	and	r2, r3, #255	; 0xff
 c003f30:	e55b100f 	ldrb	r1, [fp, #-15]
 c003f34:	e59f324c 	ldr	r3, [pc, #588]	; c004188 <detectar_y_marcar_errores+0x5e4>
 c003f38:	e0830391 	umull	r0, r3, r1, r3
 c003f3c:	e1a030a3 	lsr	r3, r3, #1
 c003f40:	e20330ff 	and	r3, r3, #255	; 0xff
 c003f44:	e0823003 	add	r3, r2, r3
 c003f48:	e54b3015 	strb	r3, [fp, #-21]	; 0xffffffeb
                uint8_t columna_bloque = j / 3 * 3 + k % 3;
 c003f4c:	e55b200e 	ldrb	r2, [fp, #-14]
 c003f50:	e59f3230 	ldr	r3, [pc, #560]	; c004188 <detectar_y_marcar_errores+0x5e4>
 c003f54:	e0831392 	umull	r1, r3, r2, r3
 c003f58:	e1a030a3 	lsr	r3, r3, #1
 c003f5c:	e20330ff 	and	r3, r3, #255	; 0xff
 c003f60:	e1a02003 	mov	r2, r3
 c003f64:	e1a02082 	lsl	r2, r2, #1
 c003f68:	e0823003 	add	r3, r2, r3
 c003f6c:	e20300ff 	and	r0, r3, #255	; 0xff
 c003f70:	e55b200f 	ldrb	r2, [fp, #-15]
 c003f74:	e59f320c 	ldr	r3, [pc, #524]	; c004188 <detectar_y_marcar_errores+0x5e4>
 c003f78:	e0831392 	umull	r1, r3, r2, r3
 c003f7c:	e1a010a3 	lsr	r1, r3, #1
 c003f80:	e1a03001 	mov	r3, r1
 c003f84:	e1a03083 	lsl	r3, r3, #1
 c003f88:	e0833001 	add	r3, r3, r1
 c003f8c:	e0633002 	rsb	r3, r3, r2
 c003f90:	e20330ff 	and	r3, r3, #255	; 0xff
 c003f94:	e0803003 	add	r3, r0, r3
 c003f98:	e54b3016 	strb	r3, [fp, #-22]	; 0xffffffea
                uint8_t valor_bloque = celda_leer_valor(cuadricula_C_C[fila_bloque][columna_bloque]);
 c003f9c:	e55b1015 	ldrb	r1, [fp, #-21]	; 0xffffffeb
 c003fa0:	e55b3016 	ldrb	r3, [fp, #-22]	; 0xffffffea
 c003fa4:	e59f21d8 	ldr	r2, [pc, #472]	; c004184 <detectar_y_marcar_errores+0x5e0>
 c003fa8:	e1a01201 	lsl	r1, r1, #4
 c003fac:	e0813003 	add	r3, r1, r3
 c003fb0:	e1a03083 	lsl	r3, r3, #1
 c003fb4:	e0823003 	add	r3, r2, r3
 c003fb8:	e1d330b0 	ldrh	r3, [r3]
 c003fbc:	e1a00003 	mov	r0, r3
 c003fc0:	eb00028f 	bl	c004a04 <celda_leer_valor>
 c003fc4:	e1a03000 	mov	r3, r0
 c003fc8:	e54b3017 	strb	r3, [fp, #-23]	; 0xffffffe9
                if (valor_bloque > 0 && valor_bloque < 10)
 c003fcc:	e55b3017 	ldrb	r3, [fp, #-23]	; 0xffffffe9
 c003fd0:	e3530000 	cmp	r3, #0
 c003fd4:	0a000053 	beq	c004128 <detectar_y_marcar_errores+0x584>
 c003fd8:	e55b3017 	ldrb	r3, [fp, #-23]	; 0xffffffe9
 c003fdc:	e3530009 	cmp	r3, #9
 c003fe0:	8a000050 	bhi	c004128 <detectar_y_marcar_errores+0x584>
                {
                    if (bloque[k / 3][k % 3] == 0)
 c003fe4:	e55b200f 	ldrb	r2, [fp, #-15]
 c003fe8:	e59f3198 	ldr	r3, [pc, #408]	; c004188 <detectar_y_marcar_errores+0x5e4>
 c003fec:	e0830392 	umull	r0, r3, r2, r3
 c003ff0:	e1a030a3 	lsr	r3, r3, #1
 c003ff4:	e20330ff 	and	r3, r3, #255	; 0xff
 c003ff8:	e1a02003 	mov	r2, r3
 c003ffc:	e55b100f 	ldrb	r1, [fp, #-15]
 c004000:	e59f3180 	ldr	r3, [pc, #384]	; c004188 <detectar_y_marcar_errores+0x5e4>
 c004004:	e0830391 	umull	r0, r3, r1, r3
 c004008:	e1a000a3 	lsr	r0, r3, #1
 c00400c:	e1a03000 	mov	r3, r0
 c004010:	e1a03083 	lsl	r3, r3, #1
 c004014:	e0833000 	add	r3, r3, r0
 c004018:	e0633001 	rsb	r3, r3, r1
 c00401c:	e20330ff 	and	r3, r3, #255	; 0xff
 c004020:	e1a01003 	mov	r1, r3
 c004024:	e1a03002 	mov	r3, r2
 c004028:	e1a03083 	lsl	r3, r3, #1
 c00402c:	e0833002 	add	r3, r3, r2
 c004030:	e0832001 	add	r2, r3, r1
 c004034:	e3e03033 	mvn	r3, #51	; 0x33
 c004038:	e1a02082 	lsl	r2, r2, #1
 c00403c:	e24b100c 	sub	r1, fp, #12
 c004040:	e0812002 	add	r2, r1, r2
 c004044:	e0823003 	add	r3, r2, r3
 c004048:	e1d330b0 	ldrh	r3, [r3]
 c00404c:	e3530000 	cmp	r3, #0
 c004050:	1a00001b 	bne	c0040c4 <detectar_y_marcar_errores+0x520>
                        bloque[k / 3][k % 3] = 1;
 c004054:	e55b200f 	ldrb	r2, [fp, #-15]
 c004058:	e59f3128 	ldr	r3, [pc, #296]	; c004188 <detectar_y_marcar_errores+0x5e4>
 c00405c:	e0830392 	umull	r0, r3, r2, r3
 c004060:	e1a030a3 	lsr	r3, r3, #1
 c004064:	e20330ff 	and	r3, r3, #255	; 0xff
 c004068:	e1a02003 	mov	r2, r3
 c00406c:	e55b100f 	ldrb	r1, [fp, #-15]
 c004070:	e59f3110 	ldr	r3, [pc, #272]	; c004188 <detectar_y_marcar_errores+0x5e4>
 c004074:	e0830391 	umull	r0, r3, r1, r3
 c004078:	e1a000a3 	lsr	r0, r3, #1
 c00407c:	e1a03000 	mov	r3, r0
 c004080:	e1a03083 	lsl	r3, r3, #1
 c004084:	e0833000 	add	r3, r3, r0
 c004088:	e0633001 	rsb	r3, r3, r1
 c00408c:	e20330ff 	and	r3, r3, #255	; 0xff
 c004090:	e1a01003 	mov	r1, r3
 c004094:	e1a03002 	mov	r3, r2
 c004098:	e1a03083 	lsl	r3, r3, #1
 c00409c:	e0833002 	add	r3, r3, r2
 c0040a0:	e0832001 	add	r2, r3, r1
 c0040a4:	e3e03033 	mvn	r3, #51	; 0x33
 c0040a8:	e1a02082 	lsl	r2, r2, #1
 c0040ac:	e24b100c 	sub	r1, fp, #12
 c0040b0:	e0812002 	add	r2, r1, r2
 c0040b4:	e0823003 	add	r3, r2, r3
 c0040b8:	e3a02001 	mov	r2, #1
 c0040bc:	e1c320b0 	strh	r2, [r3]
 c0040c0:	ea000018 	b	c004128 <detectar_y_marcar_errores+0x584>
                    else
                    {
                        cuadricula_C_C[fila_bloque][columna_bloque] |= 0x0020;
 c0040c4:	e55b0015 	ldrb	r0, [fp, #-21]	; 0xffffffeb
 c0040c8:	e55b3016 	ldrb	r3, [fp, #-22]	; 0xffffffea
 c0040cc:	e55bc015 	ldrb	ip, [fp, #-21]	; 0xffffffeb
 c0040d0:	e55b2016 	ldrb	r2, [fp, #-22]	; 0xffffffea
 c0040d4:	e59f10a8 	ldr	r1, [pc, #168]	; c004184 <detectar_y_marcar_errores+0x5e0>
 c0040d8:	e1a0c20c 	lsl	ip, ip, #4
 c0040dc:	e08c2002 	add	r2, ip, r2
 c0040e0:	e1a02082 	lsl	r2, r2, #1
 c0040e4:	e0812002 	add	r2, r1, r2
 c0040e8:	e1d220b0 	ldrh	r2, [r2]
 c0040ec:	e3822020 	orr	r2, r2, #32
 c0040f0:	e1a02802 	lsl	r2, r2, #16
 c0040f4:	e1a02822 	lsr	r2, r2, #16
 c0040f8:	e59f1084 	ldr	r1, [pc, #132]	; c004184 <detectar_y_marcar_errores+0x5e0>
 c0040fc:	e1a00200 	lsl	r0, r0, #4
 c004100:	e0803003 	add	r3, r0, r3
 c004104:	e1a03083 	lsl	r3, r3, #1
 c004108:	e0813003 	add	r3, r1, r3
 c00410c:	e1c320b0 	strh	r2, [r3]
                        sudoku_actualizar_celda(cuadricula_C_C, fila_bloque, columna_bloque);
 c004110:	e55b2015 	ldrb	r2, [fp, #-21]	; 0xffffffeb
 c004114:	e55b3016 	ldrb	r3, [fp, #-22]	; 0xffffffea
 c004118:	e59f0064 	ldr	r0, [pc, #100]	; c004184 <detectar_y_marcar_errores+0x5e0>
 c00411c:	e1a01002 	mov	r1, r2
 c004120:	e1a02003 	mov	r2, r3
 c004124:	eb00117a 	bl	c008714 <sudoku_actualizar_celda>
            for (k = 0; k < 3; k++)
                for (l = 0; l < 3; l++)
                    bloque[k][l] = 0;

            // Volver a recorrer para detectar errores
            for (k = 0; k < 9; k++)
 c004128:	e55b300f 	ldrb	r3, [fp, #-15]
 c00412c:	e2833001 	add	r3, r3, #1
 c004130:	e54b300f 	strb	r3, [fp, #-15]
 c004134:	e55b300f 	ldrb	r3, [fp, #-15]
 c004138:	e3530008 	cmp	r3, #8
 c00413c:	9afffef8 	bls	c003d24 <detectar_y_marcar_errores+0x180>
 c004140:	ea000000 	b	c004148 <detectar_y_marcar_errores+0x5a4>
            uint8_t valor = celda_leer_valor(cuadricula_C_C[i][j]);
            uint8_t es_pista = (cuadricula_C_C[i][j] & (1 << 4)) ? 1 : 0;

            // Si la celda es una pista, continuar (no marcar error)
            if (es_pista)
                continue;
 c004144:	e1a00000 	nop			; (mov r0, r0)
    limpiar_marcas_error();

    // Recorre todas las celdas
    for (i = 0; i < 9; i++)
    {
        for (j = 0; j < 9; j++)
 c004148:	e55b300e 	ldrb	r3, [fp, #-14]
 c00414c:	e2833001 	add	r3, r3, #1
 c004150:	e54b300e 	strb	r3, [fp, #-14]
 c004154:	e55b300e 	ldrb	r3, [fp, #-14]
 c004158:	e3530008 	cmp	r3, #8
 c00415c:	9afffe9b 	bls	c003bd0 <detectar_y_marcar_errores+0x2c>

    // Limpiar marcas de error anteriores
    limpiar_marcas_error();

    // Recorre todas las celdas
    for (i = 0; i < 9; i++)
 c004160:	e55b300d 	ldrb	r3, [fp, #-13]
 c004164:	e2833001 	add	r3, r3, #1
 c004168:	e54b300d 	strb	r3, [fp, #-13]
 c00416c:	e55b300d 	ldrb	r3, [fp, #-13]
 c004170:	e3530008 	cmp	r3, #8
 c004174:	9afffe92 	bls	c003bc4 <detectar_y_marcar_errores+0x20>
                    }
                }
            }
        }
    }
}
 c004178:	e24bd00c 	sub	sp, fp, #12
 c00417c:	e89d6800 	ldm	sp, {fp, sp, lr}
 c004180:	e12fff1e 	bx	lr
 c004184:	0c00a480 	.word	0x0c00a480
 c004188:	aaaaaaab 	.word	0xaaaaaaab

0c00418c <limpiar_marcas_error>:
/**
 * Limpiar marcas de error en el tablero
 * Elimina las marcas de error (bit 5) en todas las celdas del tablero.
 */
static void limpiar_marcas_error(void)
{
 c00418c:	e1a0c00d 	mov	ip, sp
 c004190:	e92dd800 	push	{fp, ip, lr, pc}
 c004194:	e24cb004 	sub	fp, ip, #4
 c004198:	e24dd008 	sub	sp, sp, #8
    uint8_t i, j;

    for (i = 0; i < NUM_FILAS; i++)
 c00419c:	e3a03000 	mov	r3, #0
 c0041a0:	e54b300d 	strb	r3, [fp, #-13]
 c0041a4:	ea00001e 	b	c004224 <limpiar_marcas_error+0x98>
    {
        for (j = 0; j < NUM_COLUMNAS; j++)
 c0041a8:	e3a03000 	mov	r3, #0
 c0041ac:	e54b300e 	strb	r3, [fp, #-14]
 c0041b0:	ea000015 	b	c00420c <limpiar_marcas_error+0x80>
        {
            cuadricula_C_C[i][j] &= ~(1 << 5); // Limpiar bit 5 (marca de error)
 c0041b4:	e55b000d 	ldrb	r0, [fp, #-13]
 c0041b8:	e55b300e 	ldrb	r3, [fp, #-14]
 c0041bc:	e55bc00d 	ldrb	ip, [fp, #-13]
 c0041c0:	e55b200e 	ldrb	r2, [fp, #-14]
 c0041c4:	e59f1070 	ldr	r1, [pc, #112]	; c00423c <limpiar_marcas_error+0xb0>
 c0041c8:	e1a0c20c 	lsl	ip, ip, #4
 c0041cc:	e08c2002 	add	r2, ip, r2
 c0041d0:	e1a02082 	lsl	r2, r2, #1
 c0041d4:	e0812002 	add	r2, r1, r2
 c0041d8:	e1d220b0 	ldrh	r2, [r2]
 c0041dc:	e3c22020 	bic	r2, r2, #32
 c0041e0:	e1a02802 	lsl	r2, r2, #16
 c0041e4:	e1a02822 	lsr	r2, r2, #16
 c0041e8:	e59f104c 	ldr	r1, [pc, #76]	; c00423c <limpiar_marcas_error+0xb0>
 c0041ec:	e1a00200 	lsl	r0, r0, #4
 c0041f0:	e0803003 	add	r3, r0, r3
 c0041f4:	e1a03083 	lsl	r3, r3, #1
 c0041f8:	e0813003 	add	r3, r1, r3
 c0041fc:	e1c320b0 	strh	r2, [r3]
{
    uint8_t i, j;

    for (i = 0; i < NUM_FILAS; i++)
    {
        for (j = 0; j < NUM_COLUMNAS; j++)
 c004200:	e55b300e 	ldrb	r3, [fp, #-14]
 c004204:	e2833001 	add	r3, r3, #1
 c004208:	e54b300e 	strb	r3, [fp, #-14]
 c00420c:	e55b300e 	ldrb	r3, [fp, #-14]
 c004210:	e353000f 	cmp	r3, #15
 c004214:	9affffe6 	bls	c0041b4 <limpiar_marcas_error+0x28>
 */
static void limpiar_marcas_error(void)
{
    uint8_t i, j;

    for (i = 0; i < NUM_FILAS; i++)
 c004218:	e55b300d 	ldrb	r3, [fp, #-13]
 c00421c:	e2833001 	add	r3, r3, #1
 c004220:	e54b300d 	strb	r3, [fp, #-13]
 c004224:	e55b300d 	ldrb	r3, [fp, #-13]
 c004228:	e3530008 	cmp	r3, #8
 c00422c:	9affffdd 	bls	c0041a8 <limpiar_marcas_error+0x1c>
        for (j = 0; j < NUM_COLUMNAS; j++)
        {
            cuadricula_C_C[i][j] &= ~(1 << 5); // Limpiar bit 5 (marca de error)
        }
    }
}
 c004230:	e24bd00c 	sub	sp, fp, #12
 c004234:	e89d6800 	ldm	sp, {fp, sp, lr}
 c004238:	e12fff1e 	bx	lr
 c00423c:	0c00a480 	.word	0x0c00a480

0c004240 <verificar_tablero_completo>:
 * Verificar si el tablero est completo
 * Retorno:
 *  - 1 si el tablero est completo (sin celdas vacas), 0 si hay celdas vacas
 */
static uint8_t verificar_tablero_completo(void)
{
 c004240:	e1a0c00d 	mov	ip, sp
 c004244:	e92dd800 	push	{fp, ip, lr, pc}
 c004248:	e24cb004 	sub	fp, ip, #4
 c00424c:	e24dd008 	sub	sp, sp, #8
    uint8_t i, j;
    for (i = 0; i < NUM_FILAS; i++)
 c004250:	e3a03000 	mov	r3, #0
 c004254:	e54b300d 	strb	r3, [fp, #-13]
 c004258:	ea00001c 	b	c0042d0 <verificar_tablero_completo+0x90>
    {
        for (j = 0; j < NUM_COLUMNAS; j++)
 c00425c:	e3a03000 	mov	r3, #0
 c004260:	e54b300e 	strb	r3, [fp, #-14]
 c004264:	ea000013 	b	c0042b8 <verificar_tablero_completo+0x78>
        {
            uint8_t valor = celda_leer_valor(cuadricula_C_C[i][j]);
 c004268:	e55b100d 	ldrb	r1, [fp, #-13]
 c00426c:	e55b300e 	ldrb	r3, [fp, #-14]
 c004270:	e59f2078 	ldr	r2, [pc, #120]	; c0042f0 <verificar_tablero_completo+0xb0>
 c004274:	e1a01201 	lsl	r1, r1, #4
 c004278:	e0813003 	add	r3, r1, r3
 c00427c:	e1a03083 	lsl	r3, r3, #1
 c004280:	e0823003 	add	r3, r2, r3
 c004284:	e1d330b0 	ldrh	r3, [r3]
 c004288:	e1a00003 	mov	r0, r3
 c00428c:	eb0001dc 	bl	c004a04 <celda_leer_valor>
 c004290:	e1a03000 	mov	r3, r0
 c004294:	e54b300f 	strb	r3, [fp, #-15]
            // Si se encuentra una celda vaca (valor 0), retornar 0
            if (valor == 0)
 c004298:	e55b300f 	ldrb	r3, [fp, #-15]
 c00429c:	e3530000 	cmp	r3, #0
 c0042a0:	1a000001 	bne	c0042ac <verificar_tablero_completo+0x6c>
                return 0;
 c0042a4:	e3a03000 	mov	r3, #0
 c0042a8:	ea00000c 	b	c0042e0 <verificar_tablero_completo+0xa0>
static uint8_t verificar_tablero_completo(void)
{
    uint8_t i, j;
    for (i = 0; i < NUM_FILAS; i++)
    {
        for (j = 0; j < NUM_COLUMNAS; j++)
 c0042ac:	e55b300e 	ldrb	r3, [fp, #-14]
 c0042b0:	e2833001 	add	r3, r3, #1
 c0042b4:	e54b300e 	strb	r3, [fp, #-14]
 c0042b8:	e55b300e 	ldrb	r3, [fp, #-14]
 c0042bc:	e353000f 	cmp	r3, #15
 c0042c0:	9affffe8 	bls	c004268 <verificar_tablero_completo+0x28>
 *  - 1 si el tablero est completo (sin celdas vacas), 0 si hay celdas vacas
 */
static uint8_t verificar_tablero_completo(void)
{
    uint8_t i, j;
    for (i = 0; i < NUM_FILAS; i++)
 c0042c4:	e55b300d 	ldrb	r3, [fp, #-13]
 c0042c8:	e2833001 	add	r3, r3, #1
 c0042cc:	e54b300d 	strb	r3, [fp, #-13]
 c0042d0:	e55b300d 	ldrb	r3, [fp, #-13]
 c0042d4:	e3530008 	cmp	r3, #8
 c0042d8:	9affffdf 	bls	c00425c <verificar_tablero_completo+0x1c>
            if (valor == 0)
                return 0;
        }
    }
    // Si no se encontraron celdas vacas, retornar 1
    return 1;
 c0042dc:	e3a03001 	mov	r3, #1
}
 c0042e0:	e1a00003 	mov	r0, r3
 c0042e4:	e24bd00c 	sub	sp, fp, #12
 c0042e8:	e89d6800 	ldm	sp, {fp, sp, lr}
 c0042ec:	e12fff1e 	bx	lr
 c0042f0:	0c00a480 	.word	0x0c00a480

0c0042f4 <finalizar_partida_completa>:
 * Finalizar partida completa
 * Se llama cuando el tablero est completo y se ha verificado que no hay errores.
 * Muestra un mensaje de victoria y el tiempo de la partida.
 */
static void finalizar_partida_completa(void)
{
 c0042f4:	e1a0c00d 	mov	ip, sp
 c0042f8:	e92dd800 	push	{fp, ip, lr, pc}
 c0042fc:	e24cb004 	sub	fp, ip, #4
 c004300:	e24dd008 	sub	sp, sp, #8
    uint8_t i, j;
    // Limpiar resaltados en el tablero
    for (i = 0; i < NUM_FILAS; i++)
 c004304:	e3a03000 	mov	r3, #0
 c004308:	e54b300d 	strb	r3, [fp, #-13]
 c00430c:	ea000011 	b	c004358 <finalizar_partida_completa+0x64>
    {
        for (j = 0; j < NUM_COLUMNAS; j++)
 c004310:	e3a03000 	mov	r3, #0
 c004314:	e54b300e 	strb	r3, [fp, #-14]
 c004318:	ea000008 	b	c004340 <finalizar_partida_completa+0x4c>
        {
            sudoku_resaltar_celda(i, j, 0);
 c00431c:	e55b200d 	ldrb	r2, [fp, #-13]
 c004320:	e55b300e 	ldrb	r3, [fp, #-14]
 c004324:	e1a00002 	mov	r0, r2
 c004328:	e1a01003 	mov	r1, r3
 c00432c:	e3a02000 	mov	r2, #0
 c004330:	eb00103d 	bl	c00842c <sudoku_resaltar_celda>
{
    uint8_t i, j;
    // Limpiar resaltados en el tablero
    for (i = 0; i < NUM_FILAS; i++)
    {
        for (j = 0; j < NUM_COLUMNAS; j++)
 c004334:	e55b300e 	ldrb	r3, [fp, #-14]
 c004338:	e2833001 	add	r3, r3, #1
 c00433c:	e54b300e 	strb	r3, [fp, #-14]
 c004340:	e55b300e 	ldrb	r3, [fp, #-14]
 c004344:	e353000f 	cmp	r3, #15
 c004348:	9afffff3 	bls	c00431c <finalizar_partida_completa+0x28>
 */
static void finalizar_partida_completa(void)
{
    uint8_t i, j;
    // Limpiar resaltados en el tablero
    for (i = 0; i < NUM_FILAS; i++)
 c00434c:	e55b300d 	ldrb	r3, [fp, #-13]
 c004350:	e2833001 	add	r3, r3, #1
 c004354:	e54b300d 	strb	r3, [fp, #-13]
 c004358:	e55b300d 	ldrb	r3, [fp, #-13]
 c00435c:	e3530008 	cmp	r3, #8
 c004360:	9affffea 	bls	c004310 <finalizar_partida_completa+0x1c>
            sudoku_resaltar_celda(i, j, 0);
        }
    }

    // Mostrar tiempo de la partida
    mostrar_victoria_con_tiempo();
 c004364:	ebfffd02 	bl	c003774 <mostrar_victoria_con_tiempo>

    // REINICIO COMPLETO - resetear TODAS las variables de estado
    estado_juego = ESTADO_INICIAL;
 c004368:	e59f30e8 	ldr	r3, [pc, #232]	; c004458 <finalizar_partida_completa+0x164>
 c00436c:	e3a02000 	mov	r2, #0
 c004370:	e5c32000 	strb	r2, [r3]
    pantalla_inicial_mostrada = 0; // Forzar mostrar pantalla inicial
 c004374:	e59f30e0 	ldr	r3, [pc, #224]	; c00445c <finalizar_partida_completa+0x168>
 c004378:	e3a02000 	mov	r2, #0
 c00437c:	e5c32000 	strb	r2, [r3]
    tablero_dibujado = 0;
 c004380:	e59f30d8 	ldr	r3, [pc, #216]	; c004460 <finalizar_partida_completa+0x16c>
 c004384:	e3a02000 	mov	r2, #0
 c004388:	e5c32000 	strb	r2, [r3]
    resetear_tiempo_partida();
 c00438c:	ebfffcea 	bl	c00373c <resetear_tiempo_partida>
    numero_actual = 0;
 c004390:	e59f30cc 	ldr	r3, [pc, #204]	; c004464 <finalizar_partida_completa+0x170>
 c004394:	e3a02000 	mov	r2, #0
 c004398:	e5c32000 	strb	r2, [r3]
    fila_seleccionada = 0;
 c00439c:	e59f30c4 	ldr	r3, [pc, #196]	; c004468 <finalizar_partida_completa+0x174>
 c0043a0:	e3a02000 	mov	r2, #0
 c0043a4:	e5c32000 	strb	r2, [r3]
    columna_seleccionada = 0;
 c0043a8:	e59f30bc 	ldr	r3, [pc, #188]	; c00446c <finalizar_partida_completa+0x178>
 c0043ac:	e3a02000 	mov	r2, #0
 c0043b0:	e5c32000 	strb	r2, [r3]
    contador_error = 0;
 c0043b4:	e59f30b4 	ldr	r3, [pc, #180]	; c004470 <finalizar_partida_completa+0x17c>
 c0043b8:	e3a02000 	mov	r2, #0
 c0043bc:	e5832000 	str	r2, [r3]

    // LIMPIAR TODOS los eventos y estados
    limpiar_todos_eventos();
 c0043c0:	eb00002d 	bl	c00447c <limpiar_todos_eventos>

    // RESTAURAR tablero original
    for (i = 0; i < NUM_FILAS; i++)
 c0043c4:	e3a03000 	mov	r3, #0
 c0043c8:	e54b300d 	strb	r3, [fp, #-13]
 c0043cc:	ea00001b 	b	c004440 <finalizar_partida_completa+0x14c>
    {
        for (j = 0; j < 9; j++)
 c0043d0:	e3a03000 	mov	r3, #0
 c0043d4:	e54b300e 	strb	r3, [fp, #-14]
 c0043d8:	ea000012 	b	c004428 <finalizar_partida_completa+0x134>
        {
            cuadricula_C_C[i][j] = cuadricula_C_ARM[i][j];
 c0043dc:	e55b000d 	ldrb	r0, [fp, #-13]
 c0043e0:	e55b300e 	ldrb	r3, [fp, #-14]
 c0043e4:	e55bc00d 	ldrb	ip, [fp, #-13]
 c0043e8:	e55b200e 	ldrb	r2, [fp, #-14]
 c0043ec:	e59f1080 	ldr	r1, [pc, #128]	; c004474 <finalizar_partida_completa+0x180>
 c0043f0:	e1a0c20c 	lsl	ip, ip, #4
 c0043f4:	e08c2002 	add	r2, ip, r2
 c0043f8:	e1a02082 	lsl	r2, r2, #1
 c0043fc:	e0812002 	add	r2, r1, r2
 c004400:	e1d220b0 	ldrh	r2, [r2]
 c004404:	e59f106c 	ldr	r1, [pc, #108]	; c004478 <finalizar_partida_completa+0x184>
 c004408:	e1a00200 	lsl	r0, r0, #4
 c00440c:	e0803003 	add	r3, r0, r3
 c004410:	e1a03083 	lsl	r3, r3, #1
 c004414:	e0813003 	add	r3, r1, r3
 c004418:	e1c320b0 	strh	r2, [r3]
    limpiar_todos_eventos();

    // RESTAURAR tablero original
    for (i = 0; i < NUM_FILAS; i++)
    {
        for (j = 0; j < 9; j++)
 c00441c:	e55b300e 	ldrb	r3, [fp, #-14]
 c004420:	e2833001 	add	r3, r3, #1
 c004424:	e54b300e 	strb	r3, [fp, #-14]
 c004428:	e55b300e 	ldrb	r3, [fp, #-14]
 c00442c:	e3530008 	cmp	r3, #8
 c004430:	9affffe9 	bls	c0043dc <finalizar_partida_completa+0xe8>

    // LIMPIAR TODOS los eventos y estados
    limpiar_todos_eventos();

    // RESTAURAR tablero original
    for (i = 0; i < NUM_FILAS; i++)
 c004434:	e55b300d 	ldrb	r3, [fp, #-13]
 c004438:	e2833001 	add	r3, r3, #1
 c00443c:	e54b300d 	strb	r3, [fp, #-13]
 c004440:	e55b300d 	ldrb	r3, [fp, #-13]
 c004444:	e3530008 	cmp	r3, #8
 c004448:	9affffe0 	bls	c0043d0 <finalizar_partida_completa+0xdc>
        for (j = 0; j < 9; j++)
        {
            cuadricula_C_C[i][j] = cuadricula_C_ARM[i][j];
        }
    }
}
 c00444c:	e24bd00c 	sub	sp, fp, #12
 c004450:	e89d6800 	ldm	sp, {fp, sp, lr}
 c004454:	e12fff1e 	bx	lr
 c004458:	0c00cd28 	.word	0x0c00cd28
 c00445c:	0c00cd34 	.word	0x0c00cd34
 c004460:	0c00cd35 	.word	0x0c00cd35
 c004464:	0c00a458 	.word	0x0c00a458
 c004468:	0c00cd29 	.word	0x0c00cd29
 c00446c:	0c00cd2a 	.word	0x0c00cd2a
 c004470:	0c00cd30 	.word	0x0c00cd30
 c004474:	0c00a5a0 	.word	0x0c00a5a0
 c004478:	0c00a480 	.word	0x0c00a480

0c00447c <limpiar_todos_eventos>:

/**
 * Agregar funcin para limpiar todos los eventos
 */
static void limpiar_todos_eventos(void)
{
 c00447c:	e1a0c00d 	mov	ip, sp
 c004480:	e92dd800 	push	{fp, ip, lr, pc}
 c004484:	e24cb004 	sub	fp, ip, #4
 c004488:	e24dd008 	sub	sp, sp, #8
    evento_boton_derecho = 0;
 c00448c:	e59f30c4 	ldr	r3, [pc, #196]	; c004558 <limpiar_todos_eventos+0xdc>
 c004490:	e3a02000 	mov	r2, #0
 c004494:	e5c32000 	strb	r2, [r3]
    evento_boton_izquierdo = 0;
 c004498:	e59f30bc 	ldr	r3, [pc, #188]	; c00455c <limpiar_todos_eventos+0xe0>
 c00449c:	e3a02000 	mov	r2, #0
 c0044a0:	e5c32000 	strb	r2, [r3]
    juego_iniciado = 0;
 c0044a4:	e59f30b4 	ldr	r3, [pc, #180]	; c004560 <limpiar_todos_eventos+0xe4>
 c0044a8:	e3a02000 	mov	r2, #0
 c0044ac:	e5c32000 	strb	r2, [r3]
    evento_teclado_digito = 0xFF;
 c0044b0:	e59f30ac 	ldr	r3, [pc, #172]	; c004564 <limpiar_todos_eventos+0xe8>
 c0044b4:	e3e02000 	mvn	r2, #0
 c0044b8:	e5c32000 	strb	r2, [r3]

    // Tambin resetear estados de botones si estn en proceso
    int i;
    for (i = 0; i < NUM_BOTONES; i++)
 c0044bc:	e3a03000 	mov	r3, #0
 c0044c0:	e50b3010 	str	r3, [fp, #-16]
 c0044c4:	ea000015 	b	c004520 <limpiar_todos_eventos+0xa4>
    {
        if (botones[i].estado != e_reposo)
 c0044c8:	e59f1098 	ldr	r1, [pc, #152]	; c004568 <limpiar_todos_eventos+0xec>
 c0044cc:	e51b2010 	ldr	r2, [fp, #-16]
 c0044d0:	e1a03002 	mov	r3, r2
 c0044d4:	e1a03083 	lsl	r3, r3, #1
 c0044d8:	e0833002 	add	r3, r3, r2
 c0044dc:	e1a03183 	lsl	r3, r3, #3
 c0044e0:	e0813003 	add	r3, r1, r3
 c0044e4:	e5d33000 	ldrb	r3, [r3]
 c0044e8:	e3530000 	cmp	r3, #0
 c0044ec:	0a000008 	beq	c004514 <limpiar_todos_eventos+0x98>
        {
            botones[i].estado = e_reposo;
 c0044f0:	e59f1070 	ldr	r1, [pc, #112]	; c004568 <limpiar_todos_eventos+0xec>
 c0044f4:	e51b2010 	ldr	r2, [fp, #-16]
 c0044f8:	e1a03002 	mov	r3, r2
 c0044fc:	e1a03083 	lsl	r3, r3, #1
 c004500:	e0833002 	add	r3, r3, r2
 c004504:	e1a03183 	lsl	r3, r3, #3
 c004508:	e0813003 	add	r3, r1, r3
 c00450c:	e3a02000 	mov	r2, #0
 c004510:	e5c32000 	strb	r2, [r3]
    juego_iniciado = 0;
    evento_teclado_digito = 0xFF;

    // Tambin resetear estados de botones si estn en proceso
    int i;
    for (i = 0; i < NUM_BOTONES; i++)
 c004514:	e51b3010 	ldr	r3, [fp, #-16]
 c004518:	e2833001 	add	r3, r3, #1
 c00451c:	e50b3010 	str	r3, [fp, #-16]
 c004520:	e51b3010 	ldr	r3, [fp, #-16]
 c004524:	e3530001 	cmp	r3, #1
 c004528:	daffffe6 	ble	c0044c8 <limpiar_todos_eventos+0x4c>
            botones[i].estado = e_reposo;
        }
    }

    // Limpiar interrupciones pendientes
    rEXTINTPND = 0xf;
 c00452c:	e59f3038 	ldr	r3, [pc, #56]	; c00456c <limpiar_todos_eventos+0xf0>
 c004530:	e3a0200f 	mov	r2, #15
 c004534:	e5832000 	str	r2, [r3]
    rINTMSK &= ~BIT_EINT4567; // Habilitar interrupciones
 c004538:	e59f3030 	ldr	r3, [pc, #48]	; c004570 <limpiar_todos_eventos+0xf4>
 c00453c:	e59f202c 	ldr	r2, [pc, #44]	; c004570 <limpiar_todos_eventos+0xf4>
 c004540:	e5922000 	ldr	r2, [r2]
 c004544:	e3c22602 	bic	r2, r2, #2097152	; 0x200000
 c004548:	e5832000 	str	r2, [r3]
}
 c00454c:	e24bd00c 	sub	sp, fp, #12
 c004550:	e89d6800 	ldm	sp, {fp, sp, lr}
 c004554:	e12fff1e 	bx	lr
 c004558:	0c00cd2b 	.word	0x0c00cd2b
 c00455c:	0c00cd2c 	.word	0x0c00cd2c
 c004560:	0c00cd2d 	.word	0x0c00cd2d
 c004564:	0c00a459 	.word	0x0c00a459
 c004568:	0c00a428 	.word	0x0c00a428
 c00456c:	01d20054 	.word	0x01d20054
 c004570:	01e0000c 	.word	0x01e0000c

0c004574 <detectar_y_marcar_errores_celda>:
 * 1. Marca la celda conflictiva (la vieja) con el bit de error.
 * 2. Actualiza visualmente la celda conflictiva.
 * 3. Devuelve 1 para indicar que hubo error.
 */
static int detectar_y_marcar_errores_celda(uint8_t f, uint8_t c, uint8_t valor)
{
 c004574:	e1a0c00d 	mov	ip, sp
 c004578:	e92dd800 	push	{fp, ip, lr, pc}
 c00457c:	e24cb004 	sub	fp, ip, #4
 c004580:	e24dd020 	sub	sp, sp, #32
 c004584:	e1a03002 	mov	r3, r2
 c004588:	e1a02000 	mov	r2, r0
 c00458c:	e54b2025 	strb	r2, [fp, #-37]	; 0xffffffdb
 c004590:	e1a02001 	mov	r2, r1
 c004594:	e54b2026 	strb	r2, [fp, #-38]	; 0xffffffda
 c004598:	e54b3027 	strb	r3, [fp, #-39]	; 0xffffffd9
    int hay_error = 0;
 c00459c:	e3a03000 	mov	r3, #0
 c0045a0:	e50b3010 	str	r3, [fp, #-16]
    int k, l;

    // 1. Comprobar Fila
    for (k = 0; k < 9; k++)
 c0045a4:	e3a03000 	mov	r3, #0
 c0045a8:	e50b3014 	str	r3, [fp, #-20]	; 0xffffffec
 c0045ac:	ea000032 	b	c00467c <detectar_y_marcar_errores_celda+0x108>
    {
        if (k == c)
 c0045b0:	e55b2026 	ldrb	r2, [fp, #-38]	; 0xffffffda
 c0045b4:	e51b3014 	ldr	r3, [fp, #-20]	; 0xffffffec
 c0045b8:	e1520003 	cmp	r2, r3
 c0045bc:	0a00002a 	beq	c00466c <detectar_y_marcar_errores_celda+0xf8>
            continue; // No compararse consigo mismo

        // Leemos el valor de la celda vecina
        if (celda_leer_valor(cuadricula_C_C[f][k]) == valor)
 c0045c0:	e55b3025 	ldrb	r3, [fp, #-37]	; 0xffffffdb
 c0045c4:	e59f2330 	ldr	r2, [pc, #816]	; c0048fc <detectar_y_marcar_errores_celda+0x388>
 c0045c8:	e1a01203 	lsl	r1, r3, #4
 c0045cc:	e51b3014 	ldr	r3, [fp, #-20]	; 0xffffffec
 c0045d0:	e0813003 	add	r3, r1, r3
 c0045d4:	e1a03083 	lsl	r3, r3, #1
 c0045d8:	e0823003 	add	r3, r2, r3
 c0045dc:	e1d330b0 	ldrh	r3, [r3]
 c0045e0:	e1a00003 	mov	r0, r3
 c0045e4:	eb000106 	bl	c004a04 <celda_leer_valor>
 c0045e8:	e1a03000 	mov	r3, r0
 c0045ec:	e55b2027 	ldrb	r2, [fp, #-39]	; 0xffffffd9
 c0045f0:	e1520003 	cmp	r2, r3
 c0045f4:	1a00001d 	bne	c004670 <detectar_y_marcar_errores_celda+0xfc>
        {
            // Conflicto encontrado!
            cuadricula_C_C[f][k] |= 0x0020;                // Activar Bit Error
 c0045f8:	e55b3025 	ldrb	r3, [fp, #-37]	; 0xffffffdb
 c0045fc:	e55b2025 	ldrb	r2, [fp, #-37]	; 0xffffffdb
 c004600:	e59f12f4 	ldr	r1, [pc, #756]	; c0048fc <detectar_y_marcar_errores_celda+0x388>
 c004604:	e1a00202 	lsl	r0, r2, #4
 c004608:	e51b2014 	ldr	r2, [fp, #-20]	; 0xffffffec
 c00460c:	e0802002 	add	r2, r0, r2
 c004610:	e1a02082 	lsl	r2, r2, #1
 c004614:	e0812002 	add	r2, r1, r2
 c004618:	e1d220b0 	ldrh	r2, [r2]
 c00461c:	e3822020 	orr	r2, r2, #32
 c004620:	e1a02802 	lsl	r2, r2, #16
 c004624:	e1a02822 	lsr	r2, r2, #16
 c004628:	e59f12cc 	ldr	r1, [pc, #716]	; c0048fc <detectar_y_marcar_errores_celda+0x388>
 c00462c:	e1a00203 	lsl	r0, r3, #4
 c004630:	e51b3014 	ldr	r3, [fp, #-20]	; 0xffffffec
 c004634:	e0803003 	add	r3, r0, r3
 c004638:	e1a03083 	lsl	r3, r3, #1
 c00463c:	e0813003 	add	r3, r1, r3
 c004640:	e1c320b0 	strh	r2, [r3]
            sudoku_actualizar_celda(cuadricula_C_C, f, k); // Repintar invertido
 c004644:	e51b3014 	ldr	r3, [fp, #-20]	; 0xffffffec
 c004648:	e20330ff 	and	r3, r3, #255	; 0xff
 c00464c:	e55b2025 	ldrb	r2, [fp, #-37]	; 0xffffffdb
 c004650:	e59f02a4 	ldr	r0, [pc, #676]	; c0048fc <detectar_y_marcar_errores_celda+0x388>
 c004654:	e1a01002 	mov	r1, r2
 c004658:	e1a02003 	mov	r2, r3
 c00465c:	eb00102c 	bl	c008714 <sudoku_actualizar_celda>
            hay_error = 1;
 c004660:	e3a03001 	mov	r3, #1
 c004664:	e50b3010 	str	r3, [fp, #-16]
 c004668:	ea000000 	b	c004670 <detectar_y_marcar_errores_celda+0xfc>

    // 1. Comprobar Fila
    for (k = 0; k < 9; k++)
    {
        if (k == c)
            continue; // No compararse consigo mismo
 c00466c:	e1a00000 	nop			; (mov r0, r0)
{
    int hay_error = 0;
    int k, l;

    // 1. Comprobar Fila
    for (k = 0; k < 9; k++)
 c004670:	e51b3014 	ldr	r3, [fp, #-20]	; 0xffffffec
 c004674:	e2833001 	add	r3, r3, #1
 c004678:	e50b3014 	str	r3, [fp, #-20]	; 0xffffffec
 c00467c:	e51b3014 	ldr	r3, [fp, #-20]	; 0xffffffec
 c004680:	e3530008 	cmp	r3, #8
 c004684:	daffffc9 	ble	c0045b0 <detectar_y_marcar_errores_celda+0x3c>
            hay_error = 1;
        }
    }

    // 2. Comprobar Columna
    for (k = 0; k < 9; k++)
 c004688:	e3a03000 	mov	r3, #0
 c00468c:	e50b3014 	str	r3, [fp, #-20]	; 0xffffffec
 c004690:	ea000032 	b	c004760 <detectar_y_marcar_errores_celda+0x1ec>
    {
        if (k == f)
 c004694:	e55b2025 	ldrb	r2, [fp, #-37]	; 0xffffffdb
 c004698:	e51b3014 	ldr	r3, [fp, #-20]	; 0xffffffec
 c00469c:	e1520003 	cmp	r2, r3
 c0046a0:	0a00002a 	beq	c004750 <detectar_y_marcar_errores_celda+0x1dc>
            continue;

        if (celda_leer_valor(cuadricula_C_C[k][c]) == valor)
 c0046a4:	e55b3026 	ldrb	r3, [fp, #-38]	; 0xffffffda
 c0046a8:	e59f224c 	ldr	r2, [pc, #588]	; c0048fc <detectar_y_marcar_errores_celda+0x388>
 c0046ac:	e51b1014 	ldr	r1, [fp, #-20]	; 0xffffffec
 c0046b0:	e1a01201 	lsl	r1, r1, #4
 c0046b4:	e0813003 	add	r3, r1, r3
 c0046b8:	e1a03083 	lsl	r3, r3, #1
 c0046bc:	e0823003 	add	r3, r2, r3
 c0046c0:	e1d330b0 	ldrh	r3, [r3]
 c0046c4:	e1a00003 	mov	r0, r3
 c0046c8:	eb0000cd 	bl	c004a04 <celda_leer_valor>
 c0046cc:	e1a03000 	mov	r3, r0
 c0046d0:	e55b2027 	ldrb	r2, [fp, #-39]	; 0xffffffd9
 c0046d4:	e1520003 	cmp	r2, r3
 c0046d8:	1a00001d 	bne	c004754 <detectar_y_marcar_errores_celda+0x1e0>
        {
            cuadricula_C_C[k][c] |= 0x0020;
 c0046dc:	e55b3026 	ldrb	r3, [fp, #-38]	; 0xffffffda
 c0046e0:	e55b2026 	ldrb	r2, [fp, #-38]	; 0xffffffda
 c0046e4:	e59f1210 	ldr	r1, [pc, #528]	; c0048fc <detectar_y_marcar_errores_celda+0x388>
 c0046e8:	e51b0014 	ldr	r0, [fp, #-20]	; 0xffffffec
 c0046ec:	e1a00200 	lsl	r0, r0, #4
 c0046f0:	e0802002 	add	r2, r0, r2
 c0046f4:	e1a02082 	lsl	r2, r2, #1
 c0046f8:	e0812002 	add	r2, r1, r2
 c0046fc:	e1d220b0 	ldrh	r2, [r2]
 c004700:	e3822020 	orr	r2, r2, #32
 c004704:	e1a02802 	lsl	r2, r2, #16
 c004708:	e1a02822 	lsr	r2, r2, #16
 c00470c:	e59f11e8 	ldr	r1, [pc, #488]	; c0048fc <detectar_y_marcar_errores_celda+0x388>
 c004710:	e51b0014 	ldr	r0, [fp, #-20]	; 0xffffffec
 c004714:	e1a00200 	lsl	r0, r0, #4
 c004718:	e0803003 	add	r3, r0, r3
 c00471c:	e1a03083 	lsl	r3, r3, #1
 c004720:	e0813003 	add	r3, r1, r3
 c004724:	e1c320b0 	strh	r2, [r3]
            sudoku_actualizar_celda(cuadricula_C_C, k, c);
 c004728:	e51b3014 	ldr	r3, [fp, #-20]	; 0xffffffec
 c00472c:	e20320ff 	and	r2, r3, #255	; 0xff
 c004730:	e55b3026 	ldrb	r3, [fp, #-38]	; 0xffffffda
 c004734:	e59f01c0 	ldr	r0, [pc, #448]	; c0048fc <detectar_y_marcar_errores_celda+0x388>
 c004738:	e1a01002 	mov	r1, r2
 c00473c:	e1a02003 	mov	r2, r3
 c004740:	eb000ff3 	bl	c008714 <sudoku_actualizar_celda>
            hay_error = 1;
 c004744:	e3a03001 	mov	r3, #1
 c004748:	e50b3010 	str	r3, [fp, #-16]
 c00474c:	ea000000 	b	c004754 <detectar_y_marcar_errores_celda+0x1e0>

    // 2. Comprobar Columna
    for (k = 0; k < 9; k++)
    {
        if (k == f)
            continue;
 c004750:	e1a00000 	nop			; (mov r0, r0)
            hay_error = 1;
        }
    }

    // 2. Comprobar Columna
    for (k = 0; k < 9; k++)
 c004754:	e51b3014 	ldr	r3, [fp, #-20]	; 0xffffffec
 c004758:	e2833001 	add	r3, r3, #1
 c00475c:	e50b3014 	str	r3, [fp, #-20]	; 0xffffffec
 c004760:	e51b3014 	ldr	r3, [fp, #-20]	; 0xffffffec
 c004764:	e3530008 	cmp	r3, #8
 c004768:	daffffc9 	ble	c004694 <detectar_y_marcar_errores_celda+0x120>
            hay_error = 1;
        }
    }

    // 3. Comprobar Recuadro 3x3
    int inicio_f = (f / 3) * 3;
 c00476c:	e55b2025 	ldrb	r2, [fp, #-37]	; 0xffffffdb
 c004770:	e59f3188 	ldr	r3, [pc, #392]	; c004900 <detectar_y_marcar_errores_celda+0x38c>
 c004774:	e0831392 	umull	r1, r3, r2, r3
 c004778:	e1a030a3 	lsr	r3, r3, #1
 c00477c:	e20330ff 	and	r3, r3, #255	; 0xff
 c004780:	e1a02003 	mov	r2, r3
 c004784:	e1a03002 	mov	r3, r2
 c004788:	e1a03083 	lsl	r3, r3, #1
 c00478c:	e0833002 	add	r3, r3, r2
 c004790:	e50b301c 	str	r3, [fp, #-28]	; 0xffffffe4
    int inicio_c = (c / 3) * 3;
 c004794:	e55b2026 	ldrb	r2, [fp, #-38]	; 0xffffffda
 c004798:	e59f3160 	ldr	r3, [pc, #352]	; c004900 <detectar_y_marcar_errores_celda+0x38c>
 c00479c:	e0831392 	umull	r1, r3, r2, r3
 c0047a0:	e1a030a3 	lsr	r3, r3, #1
 c0047a4:	e20330ff 	and	r3, r3, #255	; 0xff
 c0047a8:	e1a02003 	mov	r2, r3
 c0047ac:	e1a03002 	mov	r3, r2
 c0047b0:	e1a03083 	lsl	r3, r3, #1
 c0047b4:	e0833002 	add	r3, r3, r2
 c0047b8:	e50b3020 	str	r3, [fp, #-32]	; 0xffffffe0

    for (k = inicio_f; k < inicio_f + 3; k++)
 c0047bc:	e51b301c 	ldr	r3, [fp, #-28]	; 0xffffffe4
 c0047c0:	e50b3014 	str	r3, [fp, #-20]	; 0xffffffec
 c0047c4:	ea000042 	b	c0048d4 <detectar_y_marcar_errores_celda+0x360>
    {
        for (l = inicio_c; l < inicio_c + 3; l++)
 c0047c8:	e51b3020 	ldr	r3, [fp, #-32]	; 0xffffffe0
 c0047cc:	e50b3018 	str	r3, [fp, #-24]	; 0xffffffe8
 c0047d0:	ea000037 	b	c0048b4 <detectar_y_marcar_errores_celda+0x340>
        {
            if (k == f && l == c)
 c0047d4:	e55b2025 	ldrb	r2, [fp, #-37]	; 0xffffffdb
 c0047d8:	e51b3014 	ldr	r3, [fp, #-20]	; 0xffffffec
 c0047dc:	e1520003 	cmp	r2, r3
 c0047e0:	1a000003 	bne	c0047f4 <detectar_y_marcar_errores_celda+0x280>
 c0047e4:	e55b2026 	ldrb	r2, [fp, #-38]	; 0xffffffda
 c0047e8:	e51b3018 	ldr	r3, [fp, #-24]	; 0xffffffe8
 c0047ec:	e1520003 	cmp	r2, r3
 c0047f0:	0a00002b 	beq	c0048a4 <detectar_y_marcar_errores_celda+0x330>
                continue;

            if (celda_leer_valor(cuadricula_C_C[k][l]) == valor)
 c0047f4:	e59f2100 	ldr	r2, [pc, #256]	; c0048fc <detectar_y_marcar_errores_celda+0x388>
 c0047f8:	e51b3014 	ldr	r3, [fp, #-20]	; 0xffffffec
 c0047fc:	e1a01203 	lsl	r1, r3, #4
 c004800:	e51b3018 	ldr	r3, [fp, #-24]	; 0xffffffe8
 c004804:	e0813003 	add	r3, r1, r3
 c004808:	e1a03083 	lsl	r3, r3, #1
 c00480c:	e0823003 	add	r3, r2, r3
 c004810:	e1d330b0 	ldrh	r3, [r3]
 c004814:	e1a00003 	mov	r0, r3
 c004818:	eb000079 	bl	c004a04 <celda_leer_valor>
 c00481c:	e1a03000 	mov	r3, r0
 c004820:	e55b2027 	ldrb	r2, [fp, #-39]	; 0xffffffd9
 c004824:	e1520003 	cmp	r2, r3
 c004828:	1a00001e 	bne	c0048a8 <detectar_y_marcar_errores_celda+0x334>
            {
                cuadricula_C_C[k][l] |= 0x0020;
 c00482c:	e59f20c8 	ldr	r2, [pc, #200]	; c0048fc <detectar_y_marcar_errores_celda+0x388>
 c004830:	e51b3014 	ldr	r3, [fp, #-20]	; 0xffffffec
 c004834:	e1a01203 	lsl	r1, r3, #4
 c004838:	e51b3018 	ldr	r3, [fp, #-24]	; 0xffffffe8
 c00483c:	e0813003 	add	r3, r1, r3
 c004840:	e1a03083 	lsl	r3, r3, #1
 c004844:	e0823003 	add	r3, r2, r3
 c004848:	e1d330b0 	ldrh	r3, [r3]
 c00484c:	e3833020 	orr	r3, r3, #32
 c004850:	e1a03803 	lsl	r3, r3, #16
 c004854:	e1a02823 	lsr	r2, r3, #16
 c004858:	e59f109c 	ldr	r1, [pc, #156]	; c0048fc <detectar_y_marcar_errores_celda+0x388>
 c00485c:	e51b3014 	ldr	r3, [fp, #-20]	; 0xffffffec
 c004860:	e1a00203 	lsl	r0, r3, #4
 c004864:	e51b3018 	ldr	r3, [fp, #-24]	; 0xffffffe8
 c004868:	e0803003 	add	r3, r0, r3
 c00486c:	e1a03083 	lsl	r3, r3, #1
 c004870:	e0813003 	add	r3, r1, r3
 c004874:	e1c320b0 	strh	r2, [r3]
                sudoku_actualizar_celda(cuadricula_C_C, k, l);
 c004878:	e51b3014 	ldr	r3, [fp, #-20]	; 0xffffffec
 c00487c:	e20320ff 	and	r2, r3, #255	; 0xff
 c004880:	e51b3018 	ldr	r3, [fp, #-24]	; 0xffffffe8
 c004884:	e20330ff 	and	r3, r3, #255	; 0xff
 c004888:	e59f006c 	ldr	r0, [pc, #108]	; c0048fc <detectar_y_marcar_errores_celda+0x388>
 c00488c:	e1a01002 	mov	r1, r2
 c004890:	e1a02003 	mov	r2, r3
 c004894:	eb000f9e 	bl	c008714 <sudoku_actualizar_celda>
                hay_error = 1;
 c004898:	e3a03001 	mov	r3, #1
 c00489c:	e50b3010 	str	r3, [fp, #-16]
 c0048a0:	ea000000 	b	c0048a8 <detectar_y_marcar_errores_celda+0x334>
    for (k = inicio_f; k < inicio_f + 3; k++)
    {
        for (l = inicio_c; l < inicio_c + 3; l++)
        {
            if (k == f && l == c)
                continue;
 c0048a4:	e1a00000 	nop			; (mov r0, r0)
    int inicio_f = (f / 3) * 3;
    int inicio_c = (c / 3) * 3;

    for (k = inicio_f; k < inicio_f + 3; k++)
    {
        for (l = inicio_c; l < inicio_c + 3; l++)
 c0048a8:	e51b3018 	ldr	r3, [fp, #-24]	; 0xffffffe8
 c0048ac:	e2833001 	add	r3, r3, #1
 c0048b0:	e50b3018 	str	r3, [fp, #-24]	; 0xffffffe8
 c0048b4:	e51b3020 	ldr	r3, [fp, #-32]	; 0xffffffe0
 c0048b8:	e2832003 	add	r2, r3, #3
 c0048bc:	e51b3018 	ldr	r3, [fp, #-24]	; 0xffffffe8
 c0048c0:	e1520003 	cmp	r2, r3
 c0048c4:	caffffc2 	bgt	c0047d4 <detectar_y_marcar_errores_celda+0x260>

    // 3. Comprobar Recuadro 3x3
    int inicio_f = (f / 3) * 3;
    int inicio_c = (c / 3) * 3;

    for (k = inicio_f; k < inicio_f + 3; k++)
 c0048c8:	e51b3014 	ldr	r3, [fp, #-20]	; 0xffffffec
 c0048cc:	e2833001 	add	r3, r3, #1
 c0048d0:	e50b3014 	str	r3, [fp, #-20]	; 0xffffffec
 c0048d4:	e51b301c 	ldr	r3, [fp, #-28]	; 0xffffffe4
 c0048d8:	e2832003 	add	r2, r3, #3
 c0048dc:	e51b3014 	ldr	r3, [fp, #-20]	; 0xffffffec
 c0048e0:	e1520003 	cmp	r2, r3
 c0048e4:	caffffb7 	bgt	c0047c8 <detectar_y_marcar_errores_celda+0x254>
                hay_error = 1;
            }
        }
    }

    return hay_error;
 c0048e8:	e51b3010 	ldr	r3, [fp, #-16]
}
 c0048ec:	e1a00003 	mov	r0, r3
 c0048f0:	e24bd00c 	sub	sp, fp, #12
 c0048f4:	e89d6800 	ldm	sp, {fp, sp, lr}
 c0048f8:	e12fff1e 	bx	lr
 c0048fc:	0c00a480 	.word	0x0c00a480
 c004900:	aaaaaaab 	.word	0xaaaaaaab

0c004904 <limpiar_errores_visuales>:
/**
 * Limpia el bit de error de TODAS las celdas del tablero
 * y las redibuja para restaurar su estado normal.
 */
static void limpiar_errores_visuales(void)
{
 c004904:	e1a0c00d 	mov	ip, sp
 c004908:	e92dd800 	push	{fp, ip, lr, pc}
 c00490c:	e24cb004 	sub	fp, ip, #4
 c004910:	e24dd008 	sub	sp, sp, #8
    int i, j;
    for (i = 0; i < 9; i++)
 c004914:	e3a03000 	mov	r3, #0
 c004918:	e50b3010 	str	r3, [fp, #-16]
 c00491c:	ea000031 	b	c0049e8 <limpiar_errores_visuales+0xe4>
    {
        for (j = 0; j < 9; j++)
 c004920:	e3a03000 	mov	r3, #0
 c004924:	e50b3014 	str	r3, [fp, #-20]	; 0xffffffec
 c004928:	ea000028 	b	c0049d0 <limpiar_errores_visuales+0xcc>
        {
            // Si la celda tiene el bit de error activo (0x20)
            if (cuadricula_C_C[i][j] & 0x0020)
 c00492c:	e59f20cc 	ldr	r2, [pc, #204]	; c004a00 <limpiar_errores_visuales+0xfc>
 c004930:	e51b3010 	ldr	r3, [fp, #-16]
 c004934:	e1a01203 	lsl	r1, r3, #4
 c004938:	e51b3014 	ldr	r3, [fp, #-20]	; 0xffffffec
 c00493c:	e0813003 	add	r3, r1, r3
 c004940:	e1a03083 	lsl	r3, r3, #1
 c004944:	e0823003 	add	r3, r2, r3
 c004948:	e1d330b0 	ldrh	r3, [r3]
 c00494c:	e2033020 	and	r3, r3, #32
 c004950:	e3530000 	cmp	r3, #0
 c004954:	0a00001a 	beq	c0049c4 <limpiar_errores_visuales+0xc0>
            {
                cuadricula_C_C[i][j] &= ~0x0020;               // Apagar bit error
 c004958:	e59f20a0 	ldr	r2, [pc, #160]	; c004a00 <limpiar_errores_visuales+0xfc>
 c00495c:	e51b3010 	ldr	r3, [fp, #-16]
 c004960:	e1a01203 	lsl	r1, r3, #4
 c004964:	e51b3014 	ldr	r3, [fp, #-20]	; 0xffffffec
 c004968:	e0813003 	add	r3, r1, r3
 c00496c:	e1a03083 	lsl	r3, r3, #1
 c004970:	e0823003 	add	r3, r2, r3
 c004974:	e1d330b0 	ldrh	r3, [r3]
 c004978:	e3c33020 	bic	r3, r3, #32
 c00497c:	e1a03803 	lsl	r3, r3, #16
 c004980:	e1a02823 	lsr	r2, r3, #16
 c004984:	e59f1074 	ldr	r1, [pc, #116]	; c004a00 <limpiar_errores_visuales+0xfc>
 c004988:	e51b3010 	ldr	r3, [fp, #-16]
 c00498c:	e1a00203 	lsl	r0, r3, #4
 c004990:	e51b3014 	ldr	r3, [fp, #-20]	; 0xffffffec
 c004994:	e0803003 	add	r3, r0, r3
 c004998:	e1a03083 	lsl	r3, r3, #1
 c00499c:	e0813003 	add	r3, r1, r3
 c0049a0:	e1c320b0 	strh	r2, [r3]
                sudoku_actualizar_celda(cuadricula_C_C, i, j); // Repintar normal
 c0049a4:	e51b3010 	ldr	r3, [fp, #-16]
 c0049a8:	e20320ff 	and	r2, r3, #255	; 0xff
 c0049ac:	e51b3014 	ldr	r3, [fp, #-20]	; 0xffffffec
 c0049b0:	e20330ff 	and	r3, r3, #255	; 0xff
 c0049b4:	e59f0044 	ldr	r0, [pc, #68]	; c004a00 <limpiar_errores_visuales+0xfc>
 c0049b8:	e1a01002 	mov	r1, r2
 c0049bc:	e1a02003 	mov	r2, r3
 c0049c0:	eb000f53 	bl	c008714 <sudoku_actualizar_celda>
static void limpiar_errores_visuales(void)
{
    int i, j;
    for (i = 0; i < 9; i++)
    {
        for (j = 0; j < 9; j++)
 c0049c4:	e51b3014 	ldr	r3, [fp, #-20]	; 0xffffffec
 c0049c8:	e2833001 	add	r3, r3, #1
 c0049cc:	e50b3014 	str	r3, [fp, #-20]	; 0xffffffec
 c0049d0:	e51b3014 	ldr	r3, [fp, #-20]	; 0xffffffec
 c0049d4:	e3530008 	cmp	r3, #8
 c0049d8:	daffffd3 	ble	c00492c <limpiar_errores_visuales+0x28>
 * y las redibuja para restaurar su estado normal.
 */
static void limpiar_errores_visuales(void)
{
    int i, j;
    for (i = 0; i < 9; i++)
 c0049dc:	e51b3010 	ldr	r3, [fp, #-16]
 c0049e0:	e2833001 	add	r3, r3, #1
 c0049e4:	e50b3010 	str	r3, [fp, #-16]
 c0049e8:	e51b3010 	ldr	r3, [fp, #-16]
 c0049ec:	e3530008 	cmp	r3, #8
 c0049f0:	daffffca 	ble	c004920 <limpiar_errores_visuales+0x1c>
                cuadricula_C_C[i][j] &= ~0x0020;               // Apagar bit error
                sudoku_actualizar_celda(cuadricula_C_C, i, j); // Repintar normal
            }
        }
    }
}
 c0049f4:	e24bd00c 	sub	sp, fp, #12
 c0049f8:	e89d6800 	ldm	sp, {fp, sp, lr}
 c0049fc:	e12fff1e 	bx	lr
 c004a00:	0c00a480 	.word	0x0c00a480

0c004a04 <celda_leer_valor>:
 */

#include "celda.h"

uint8_t celda_leer_valor(CELDA celda)
{
 c004a04:	e1a0c00d 	mov	ip, sp
 c004a08:	e92dd800 	push	{fp, ip, lr, pc}
 c004a0c:	e24cb004 	sub	fp, ip, #4
 c004a10:	e24dd008 	sub	sp, sp, #8
 c004a14:	e1a03000 	mov	r3, r0
 c004a18:	e14b30be 	strh	r3, [fp, #-14]
    return (uint8_t)(celda & 0x0Fu);
 c004a1c:	e15b30be 	ldrh	r3, [fp, #-14]
 c004a20:	e20330ff 	and	r3, r3, #255	; 0xff
 c004a24:	e203300f 	and	r3, r3, #15
 c004a28:	e20330ff 	and	r3, r3, #255	; 0xff
 c004a2c:	e1a00003 	mov	r0, r3
 c004a30:	e24bd00c 	sub	sp, fp, #12
 c004a34:	e89d6800 	ldm	sp, {fp, sp, lr}
 c004a38:	e12fff1e 	bx	lr

0c004a3c <cola_init>:
 * Comportamiento:
 *  - Marca todos los eventos del buffer a cero.
 *  - Resetea los ndices internos.
 */
void cola_init(void)
{
 c004a3c:	e1a0c00d 	mov	ip, sp
 c004a40:	e92dd800 	push	{fp, ip, lr, pc}
 c004a44:	e24cb004 	sub	fp, ip, #4
 c004a48:	e24dd008 	sub	sp, sp, #8
    uint32_t i;

    for (i = 0; i < COLA_MAX_EVENTOS; i++)
 c004a4c:	e3a03000 	mov	r3, #0
 c004a50:	e50b3010 	str	r3, [fp, #-16]
 c004a54:	ea000021 	b	c004ae0 <cola_init+0xa4>
    {
        cola_buffer[i].ID_evento = 0;
 c004a58:	e59f10b0 	ldr	r1, [pc, #176]	; c004b10 <cola_init+0xd4>
 c004a5c:	e51b2010 	ldr	r2, [fp, #-16]
 c004a60:	e1a03002 	mov	r3, r2
 c004a64:	e1a03083 	lsl	r3, r3, #1
 c004a68:	e0833002 	add	r3, r3, r2
 c004a6c:	e1a03103 	lsl	r3, r3, #2
 c004a70:	e0813003 	add	r3, r1, r3
 c004a74:	e3a02000 	mov	r2, #0
 c004a78:	e5c32000 	strb	r2, [r3]
        cola_buffer[i].instant = 0;
 c004a7c:	e59f008c 	ldr	r0, [pc, #140]	; c004b10 <cola_init+0xd4>
 c004a80:	e51b2010 	ldr	r2, [fp, #-16]
 c004a84:	e3a01004 	mov	r1, #4
 c004a88:	e1a03002 	mov	r3, r2
 c004a8c:	e1a03083 	lsl	r3, r3, #1
 c004a90:	e0833002 	add	r3, r3, r2
 c004a94:	e1a03103 	lsl	r3, r3, #2
 c004a98:	e0803003 	add	r3, r0, r3
 c004a9c:	e0833001 	add	r3, r3, r1
 c004aa0:	e3a02000 	mov	r2, #0
 c004aa4:	e5832000 	str	r2, [r3]
        cola_buffer[i].auxData = 0;
 c004aa8:	e59f0060 	ldr	r0, [pc, #96]	; c004b10 <cola_init+0xd4>
 c004aac:	e51b2010 	ldr	r2, [fp, #-16]
 c004ab0:	e3a01008 	mov	r1, #8
 c004ab4:	e1a03002 	mov	r3, r2
 c004ab8:	e1a03083 	lsl	r3, r3, #1
 c004abc:	e0833002 	add	r3, r3, r2
 c004ac0:	e1a03103 	lsl	r3, r3, #2
 c004ac4:	e0803003 	add	r3, r0, r3
 c004ac8:	e0833001 	add	r3, r3, r1
 c004acc:	e3a02000 	mov	r2, #0
 c004ad0:	e5832000 	str	r2, [r3]
 */
void cola_init(void)
{
    uint32_t i;

    for (i = 0; i < COLA_MAX_EVENTOS; i++)
 c004ad4:	e51b3010 	ldr	r3, [fp, #-16]
 c004ad8:	e2833001 	add	r3, r3, #1
 c004adc:	e50b3010 	str	r3, [fp, #-16]
 c004ae0:	e51b3010 	ldr	r3, [fp, #-16]
 c004ae4:	e35300ff 	cmp	r3, #255	; 0xff
 c004ae8:	9affffda 	bls	c004a58 <cola_init+0x1c>
    {
        cola_buffer[i].ID_evento = 0;
        cola_buffer[i].instant = 0;
        cola_buffer[i].auxData = 0;
    }
    cola_indice_esc = 0;
 c004aec:	e59f3020 	ldr	r3, [pc, #32]	; c004b14 <cola_init+0xd8>
 c004af0:	e3a02000 	mov	r2, #0
 c004af4:	e5832000 	str	r2, [r3]
    cola_num_eventos = 0;
 c004af8:	e59f3018 	ldr	r3, [pc, #24]	; c004b18 <cola_init+0xdc>
 c004afc:	e3a02000 	mov	r2, #0
 c004b00:	e5832000 	str	r2, [r3]
}
 c004b04:	e24bd00c 	sub	sp, fp, #12
 c004b08:	e89d6800 	ldm	sp, {fp, sp, lr}
 c004b0c:	e12fff1e 	bx	lr
 c004b10:	0c00aa20 	.word	0x0c00aa20
 c004b14:	0c00cd58 	.word	0x0c00cd58
 c004b18:	0c00cd5c 	.word	0x0c00cd5c

0c004b1c <cola_depuracion>:
 *  - ID_evento: identificador del evento (1 byte).
 *  - instant: timestamp (por ejemplo microsegundos) asociado al evento.
 *  - auxData: dato auxiliar (p.ej. valor ledo, ticks, etc.).
 */
void cola_depuracion(uint8_t ID_evento, uint32_t instant, uint32_t auxData)
{
 c004b1c:	e1a0c00d 	mov	ip, sp
 c004b20:	e92dd800 	push	{fp, ip, lr, pc}
 c004b24:	e24cb004 	sub	fp, ip, #4
 c004b28:	e24dd010 	sub	sp, sp, #16
 c004b2c:	e1a03000 	mov	r3, r0
 c004b30:	e50b1014 	str	r1, [fp, #-20]	; 0xffffffec
 c004b34:	e50b2018 	str	r2, [fp, #-24]	; 0xffffffe8
 c004b38:	e54b300d 	strb	r3, [fp, #-13]
    cola_buffer[cola_indice_esc].ID_evento = ID_evento;
 c004b3c:	e59f30bc 	ldr	r3, [pc, #188]	; c004c00 <cola_depuracion+0xe4>
 c004b40:	e5932000 	ldr	r2, [r3]
 c004b44:	e59f10b8 	ldr	r1, [pc, #184]	; c004c04 <cola_depuracion+0xe8>
 c004b48:	e1a03002 	mov	r3, r2
 c004b4c:	e1a03083 	lsl	r3, r3, #1
 c004b50:	e0833002 	add	r3, r3, r2
 c004b54:	e1a03103 	lsl	r3, r3, #2
 c004b58:	e0813003 	add	r3, r1, r3
 c004b5c:	e55b200d 	ldrb	r2, [fp, #-13]
 c004b60:	e5c32000 	strb	r2, [r3]
    cola_buffer[cola_indice_esc].instant = instant;
 c004b64:	e59f3094 	ldr	r3, [pc, #148]	; c004c00 <cola_depuracion+0xe4>
 c004b68:	e5932000 	ldr	r2, [r3]
 c004b6c:	e59f0090 	ldr	r0, [pc, #144]	; c004c04 <cola_depuracion+0xe8>
 c004b70:	e3a01004 	mov	r1, #4
 c004b74:	e1a03002 	mov	r3, r2
 c004b78:	e1a03083 	lsl	r3, r3, #1
 c004b7c:	e0833002 	add	r3, r3, r2
 c004b80:	e1a03103 	lsl	r3, r3, #2
 c004b84:	e0803003 	add	r3, r0, r3
 c004b88:	e0833001 	add	r3, r3, r1
 c004b8c:	e51b2014 	ldr	r2, [fp, #-20]	; 0xffffffec
 c004b90:	e5832000 	str	r2, [r3]
    cola_buffer[cola_indice_esc].auxData = auxData;
 c004b94:	e59f3064 	ldr	r3, [pc, #100]	; c004c00 <cola_depuracion+0xe4>
 c004b98:	e5932000 	ldr	r2, [r3]
 c004b9c:	e59f0060 	ldr	r0, [pc, #96]	; c004c04 <cola_depuracion+0xe8>
 c004ba0:	e3a01008 	mov	r1, #8
 c004ba4:	e1a03002 	mov	r3, r2
 c004ba8:	e1a03083 	lsl	r3, r3, #1
 c004bac:	e0833002 	add	r3, r3, r2
 c004bb0:	e1a03103 	lsl	r3, r3, #2
 c004bb4:	e0803003 	add	r3, r0, r3
 c004bb8:	e0833001 	add	r3, r3, r1
 c004bbc:	e51b2018 	ldr	r2, [fp, #-24]	; 0xffffffe8
 c004bc0:	e5832000 	str	r2, [r3]

    cola_indice_esc++;
 c004bc4:	e59f3034 	ldr	r3, [pc, #52]	; c004c00 <cola_depuracion+0xe4>
 c004bc8:	e5933000 	ldr	r3, [r3]
 c004bcc:	e2832001 	add	r2, r3, #1
 c004bd0:	e59f3028 	ldr	r3, [pc, #40]	; c004c00 <cola_depuracion+0xe4>
 c004bd4:	e5832000 	str	r2, [r3]

    if (cola_indice_esc >= COLA_MAX_EVENTOS)
 c004bd8:	e59f3020 	ldr	r3, [pc, #32]	; c004c00 <cola_depuracion+0xe4>
 c004bdc:	e5933000 	ldr	r3, [r3]
 c004be0:	e35300ff 	cmp	r3, #255	; 0xff
 c004be4:	9a000002 	bls	c004bf4 <cola_depuracion+0xd8>
    {
        cola_indice_esc = 0;
 c004be8:	e59f3010 	ldr	r3, [pc, #16]	; c004c00 <cola_depuracion+0xe4>
 c004bec:	e3a02000 	mov	r2, #0
 c004bf0:	e5832000 	str	r2, [r3]
    }
}
 c004bf4:	e24bd00c 	sub	sp, fp, #12
 c004bf8:	e89d6800 	ldm	sp, {fp, sp, lr}
 c004bfc:	e12fff1e 	bx	lr
 c004c00:	0c00cd58 	.word	0x0c00cd58
 c004c04:	0c00aa20 	.word	0x0c00aa20

0c004c08 <candidatos_propagar_arm>:
@ VALOR DEVUELTO: Ninguno (void)
@ NOTA: Utiliza BL para llamar a recorrer_fila, recorrer_columna y recorrer_region
@ =============================================================================

candidatos_propagar_arm:
        MOV     IP, SP                        
 c004c08:	e1a0c00d 	mov	ip, sp
        STMDB   SP!, {r4-r10,FP,IP,LR,PC}     
 c004c0c:	e92ddff0 	push	{r4, r5, r6, r7, r8, r9, sl, fp, ip, lr, pc}
        SUB     FP, IP, #4                   
 c004c10:	e24cb004 	sub	fp, ip, #4

        MOV     r4, r0         
 c004c14:	e1a04000 	mov	r4, r0
        MOV     r9, r1       
 c004c18:	e1a09001 	mov	r9, r1
        MOV     r10, r2        
 c004c1c:	e1a0a002 	mov	sl, r2
        ADD     r3, r10, r9, LSL #4  
 c004c20:	e08a3209 	add	r3, sl, r9, lsl #4
        LSL     r3, r3, #1           
 c004c24:	e1a03083 	lsl	r3, r3, #1
        LDRH    r6, [r4, r3]   
 c004c28:	e19460b3 	ldrh	r6, [r4, r3]
        AND     r8, r6, #0xF     
 c004c2c:	e206800f 	and	r8, r6, #15
        ADD     r5, r8, #6     
 c004c30:	e2885006 	add	r5, r8, #6
        MOV     r7, #1          
 c004c34:	e3a07001 	mov	r7, #1
        LSL     r7, r7, r5       
 c004c38:	e1a07517 	lsl	r7, r7, r5
        ORR     r6, r6, r7       
 c004c3c:	e1866007 	orr	r6, r6, r7
        STRH    r6, [r4, r3]     
 c004c40:	e18460b3 	strh	r6, [r4, r3]

        BL      recorrer_fila
 c004c44:	eb000002 	bl	c004c54 <recorrer_fila>
        BL      recorrer_columna
 c004c48:	eb00000e 	bl	c004c88 <recorrer_columna>
        BL      recorrer_region
 c004c4c:	eb00001a 	bl	c004cbc <recorrer_region>

        LDMDB   FP, {r4-r10,FP,SP,PC}          
 c004c50:	e91baff0 	ldmdb	fp, {r4, r5, r6, r7, r8, r9, sl, fp, sp, pc}

0c004c54 <recorrer_fila>:

recorrer_fila:
        MOV     r3, #0          
 c004c54:	e3a03000 	mov	r3, #0

0c004c58 <bucle_fila>:

        bucle_fila:
                CMP     r3, #9
 c004c58:	e3530009 	cmp	r3, #9
                BGE     fin_fila
 c004c5c:	aa000008 	bge	c004c84 <fin_fila>
                CMP     r3, r10       
 c004c60:	e153000a 	cmp	r3, sl
                BEQ     skip_fila_mem   
 c004c64:	0a000004 	beq	c004c7c <skip_fila_mem>

                ADD     r1, r3, r9, LSL #4     
 c004c68:	e0831209 	add	r1, r3, r9, lsl #4
                LSL     r1, r1, #1            
 c004c6c:	e1a01081 	lsl	r1, r1, #1
                LDRH    r2, [r4, r1]    
 c004c70:	e19420b1 	ldrh	r2, [r4, r1]
                ORR     r2, r2, r7       
 c004c74:	e1822007 	orr	r2, r2, r7
                STRH    r2, [r4, r1]     
 c004c78:	e18420b1 	strh	r2, [r4, r1]

0c004c7c <skip_fila_mem>:

                skip_fila_mem:
                        ADD     r3, r3, #1
 c004c7c:	e2833001 	add	r3, r3, #1
                        B       bucle_fila
 c004c80:	eafffff4 	b	c004c58 <bucle_fila>

0c004c84 <fin_fila>:

                fin_fila:
                        BX      lr
 c004c84:	e12fff1e 	bx	lr

0c004c88 <recorrer_columna>:

recorrer_columna:
        MOV     r3, #0          
 c004c88:	e3a03000 	mov	r3, #0

0c004c8c <bucle_columna>:

        bucle_columna:
                CMP     r3, #9
 c004c8c:	e3530009 	cmp	r3, #9
                BGE     fin_columna
 c004c90:	aa000008 	bge	c004cb8 <fin_columna>
                CMP     r3, r9       
 c004c94:	e1530009 	cmp	r3, r9
                BEQ     skip_col_mem    
 c004c98:	0a000004 	beq	c004cb0 <skip_col_mem>

                ADD     r1, r10, r3, LSL #4    
 c004c9c:	e08a1203 	add	r1, sl, r3, lsl #4
                LSL     r1, r1, #1           
 c004ca0:	e1a01081 	lsl	r1, r1, #1
                LDRH    r2, [r4, r1]     
 c004ca4:	e19420b1 	ldrh	r2, [r4, r1]
                ORR     r2, r2, r7       
 c004ca8:	e1822007 	orr	r2, r2, r7
                STRH    r2, [r4, r1]   
 c004cac:	e18420b1 	strh	r2, [r4, r1]

0c004cb0 <skip_col_mem>:

                skip_col_mem:
                        ADD     r3, r3, #1
 c004cb0:	e2833001 	add	r3, r3, #1
                        B       bucle_columna
 c004cb4:	eafffff4 	b	c004c8c <bucle_columna>

0c004cb8 <fin_columna>:

                fin_columna:
                        BX      lr
 c004cb8:	e12fff1e 	bx	lr

0c004cbc <recorrer_region>:

recorrer_region:
        LDR     r1, =init_region
 c004cbc:	e59f1380 	ldr	r1, [pc, #896]	; c005044 <fin_bucle_filas_all+0x8>
        LDRB    r2, [r1, r9]       
 c004cc0:	e7d12009 	ldrb	r2, [r1, r9]
        LDRB    r3, [r1, r10]      
 c004cc4:	e7d1300a 	ldrb	r3, [r1, sl]
        
        ADD     r5, r2, #3         
 c004cc8:	e2825003 	add	r5, r2, #3
        ADD     r6, r3, #3     
 c004ccc:	e2836003 	add	r6, r3, #3
        MOV     r1, r2            
 c004cd0:	e1a01002 	mov	r1, r2

0c004cd4 <bucle_region_i>:

        bucle_region_i:
                CMP     r1, r5
 c004cd4:	e1510005 	cmp	r1, r5
                BGE     fin_region
 c004cd8:	aa00000f 	bge	c004d1c <fin_region>
                MOV     r2, r3        
 c004cdc:	e1a02003 	mov	r2, r3

0c004ce0 <bucle_region_j>:

        bucle_region_j:
                CMP     r2, r6
 c004ce0:	e1520006 	cmp	r2, r6
                BGE     fin_region_j
 c004ce4:	aa00000a 	bge	c004d14 <fin_region_j>
                CMP     r1, r9
 c004ce8:	e1510009 	cmp	r1, r9
                BNE     region_diferente
 c004cec:	1a000001 	bne	c004cf8 <region_diferente>
                CMP     r2, r10
 c004cf0:	e152000a 	cmp	r2, sl
                BEQ     salto_region_mem
 c004cf4:	0a000004 	beq	c004d0c <salto_region_mem>

0c004cf8 <region_diferente>:

                region_diferente:
                        ADD     r0, r2, r1, LSL #4    
 c004cf8:	e0820201 	add	r0, r2, r1, lsl #4
                        LSL     r0, r0, #1         
 c004cfc:	e1a00080 	lsl	r0, r0, #1
                        LDRH    r8, [r4, r0]   
 c004d00:	e19480b0 	ldrh	r8, [r4, r0]
                        ORR     r8, r8, r7     
 c004d04:	e1888007 	orr	r8, r8, r7
                        STRH    r8, [r4, r0]
 c004d08:	e18480b0 	strh	r8, [r4, r0]

0c004d0c <salto_region_mem>:

                salto_region_mem:
                        ADD     r2, r2, #1
 c004d0c:	e2822001 	add	r2, r2, #1
                        B       bucle_region_j
 c004d10:	eafffff2 	b	c004ce0 <bucle_region_j>

0c004d14 <fin_region_j>:

                fin_region_j:
                        ADD     r1, r1, #1
 c004d14:	e2811001 	add	r1, r1, #1
                        B       bucle_region_i
 c004d18:	eaffffed 	b	c004cd4 <bucle_region_i>

0c004d1c <fin_region>:

                fin_region:
                        BX      lr
 c004d1c:	e12fff1e 	bx	lr

0c004d20 <candidatos_actualizar_arm_c>:
@   - candidatos_propagar_c: propaga eliminacin de candidatos (funcin C)
@ VALOR DEVUELTO: r0 - Nmero total de celdas vacas encontradas
@ =============================================================================

candidatos_actualizar_arm_c:
        MOV     IP, SP                         
 c004d20:	e1a0c00d 	mov	ip, sp
        STMDB   SP!, {r4-r10,FP,IP,LR,PC}      
 c004d24:	e92ddff0 	push	{r4, r5, r6, r7, r8, r9, sl, fp, ip, lr, pc}
        SUB     FP, IP, #4                      
 c004d28:	e24cb004 	sub	fp, ip, #4

        MOV     r4, r0         
 c004d2c:	e1a04000 	mov	r4, r0
        MOV     r5, #0       
 c004d30:	e3a05000 	mov	r5, #0
        MOV     r6, #0         
 c004d34:	e3a06000 	mov	r6, #0
        MOV     r8, #0x7F     
 c004d38:	e3a0807f 	mov	r8, #127	; 0x7f

0c004d3c <limpiar_filas>:

        limpiar_filas:
                CMP     r6, #9
 c004d3c:	e3560009 	cmp	r6, #9
                BGE     fin_limpiar_filas
 c004d40:	aa00000b 	bge	c004d74 <fin_limpiar_filas>
                MOV     r7, #0        
 c004d44:	e3a07000 	mov	r7, #0

0c004d48 <limpiar_columnas>:

        limpiar_columnas:
                CMP     r7, #9
 c004d48:	e3570009 	cmp	r7, #9
                BGE     limpiar_siguiente_fila
 c004d4c:	aa000006 	bge	c004d6c <limpiar_siguiente_fila>
                
                ADD     r9, r7, r6, LSL #4     
 c004d50:	e0879206 	add	r9, r7, r6, lsl #4
                LSL     r9, r9, #1
 c004d54:	e1a09089 	lsl	r9, r9, #1

                LDRH    r1, [r4, r9]
 c004d58:	e19410b9 	ldrh	r1, [r4, r9]
                AND     r1, r1, r8
 c004d5c:	e0011008 	and	r1, r1, r8
                STRH    r1, [r4, r9]
 c004d60:	e18410b9 	strh	r1, [r4, r9]

                ADD     r7, r7, #1      
 c004d64:	e2877001 	add	r7, r7, #1
                B       limpiar_columnas
 c004d68:	eafffff6 	b	c004d48 <limpiar_columnas>

0c004d6c <limpiar_siguiente_fila>:

                limpiar_siguiente_fila:
                        ADD     r6, r6, #1
 c004d6c:	e2866001 	add	r6, r6, #1
                        B       limpiar_filas
 c004d70:	eafffff1 	b	c004d3c <limpiar_filas>

0c004d74 <fin_limpiar_filas>:

                fin_limpiar_filas:
                        MOV     r6, #0          
 c004d74:	e3a06000 	mov	r6, #0

0c004d78 <bucle_filas>:

        bucle_filas:
                CMP     r6, #9
 c004d78:	e3560009 	cmp	r6, #9
                BGE     fin_bucle_filas
 c004d7c:	aa000011 	bge	c004dc8 <fin_bucle_filas>
                MOV     r7, #0        
 c004d80:	e3a07000 	mov	r7, #0

0c004d84 <bucle_columnas_principal>:

        bucle_columnas_principal:
                CMP     r7, #9
 c004d84:	e3570009 	cmp	r7, #9
                BGE     fin_bucle_columnas_principal
 c004d88:	aa00000c 	bge	c004dc0 <fin_bucle_columnas_principal>

                ADD     r9, r7, r6, LSL #4
 c004d8c:	e0879206 	add	r9, r7, r6, lsl #4
                LSL     r9, r9, #1
 c004d90:	e1a09089 	lsl	r9, r9, #1
                LDRH    r10, [r4, r9]         
 c004d94:	e194a0b9 	ldrh	sl, [r4, r9]
                MOV     r0, r10              
 c004d98:	e1a0000a 	mov	r0, sl
                BL      celda_leer_valor
 c004d9c:	ebffff18 	bl	c004a04 <celda_leer_valor>

                CMP     r0, #0
 c004da0:	e3500000 	cmp	r0, #0
                ADDEQ   r5, r5, #1      
 c004da4:	02855001 	addeq	r5, r5, #1
                MOVNE   r0, r4          
 c004da8:	11a00004 	movne	r0, r4
                MOVNE   r1, r6         
 c004dac:	11a01006 	movne	r1, r6
                MOVNE   r2, r7       
 c004db0:	11a02007 	movne	r2, r7
                BLNE    candidatos_propagar_c
 c004db4:	1b000987 	blne	c0073d8 <candidatos_propagar_c>

                ADD     r7, r7, #1  
 c004db8:	e2877001 	add	r7, r7, #1
                B       bucle_columnas_principal
 c004dbc:	eafffff0 	b	c004d84 <bucle_columnas_principal>

0c004dc0 <fin_bucle_columnas_principal>:

        fin_bucle_columnas_principal:
                ADD     r6, r6, #1
 c004dc0:	e2866001 	add	r6, r6, #1
                B       bucle_filas
 c004dc4:	eaffffeb 	b	c004d78 <bucle_filas>

0c004dc8 <fin_bucle_filas>:

        fin_bucle_filas:
                MOV     r0, r5          
 c004dc8:	e1a00005 	mov	r0, r5
                LDMDB   FP, {r4-r10,FP,SP,PC}          
 c004dcc:	e91baff0 	ldmdb	fp, {r4, r5, r6, r7, r8, r9, sl, fp, sp, pc}

0c004dd0 <candidatos_actualizar_arm>:
@   - candidatos_propagar_arm: propaga eliminacin de candidatos (funcin ARM)
@ VALOR DEVUELTO: r0 - Nmero total de celdas vacas encontradas
@ NOTA: Versin totalmente ARM que llama a candidatos_propagar_arm
@ =============================================================================
candidatos_actualizar_arm:
        MOV     IP, SP                        
 c004dd0:	e1a0c00d 	mov	ip, sp
        STMDB   SP!, {r4-r10,FP,IP,LR,PC}     
 c004dd4:	e92ddff0 	push	{r4, r5, r6, r7, r8, r9, sl, fp, ip, lr, pc}
        SUB     FP, IP, #4                    
 c004dd8:	e24cb004 	sub	fp, ip, #4

        MOV     r4, r0         
 c004ddc:	e1a04000 	mov	r4, r0
        MOV     r5, #0       
 c004de0:	e3a05000 	mov	r5, #0
        MOV     r6, #0         
 c004de4:	e3a06000 	mov	r6, #0
        MOV     r8, #0x7F      
 c004de8:	e3a0807f 	mov	r8, #127	; 0x7f

0c004dec <limpiar_filas_arm>:

        limpiar_filas_arm:
                CMP     r6, #9
 c004dec:	e3560009 	cmp	r6, #9
                BGE     fin_limpiar_filas_arm
 c004df0:	aa00000b 	bge	c004e24 <fin_limpiar_filas_arm>
                MOV     r7, #0        
 c004df4:	e3a07000 	mov	r7, #0

0c004df8 <limpiar_columnas_arm>:

        limpiar_columnas_arm:
                CMP     r7, #9
 c004df8:	e3570009 	cmp	r7, #9
                BGE     limpiar_siguiente_fila_arm
 c004dfc:	aa000006 	bge	c004e1c <limpiar_siguiente_fila_arm>
                ADD     r9, r7, r6, LSL #4     
 c004e00:	e0879206 	add	r9, r7, r6, lsl #4
                LSL     r9, r9, #1            
 c004e04:	e1a09089 	lsl	r9, r9, #1
                LDRH    r1, [r4, r9]          
 c004e08:	e19410b9 	ldrh	r1, [r4, r9]
                AND     r1, r1, r8            
 c004e0c:	e0011008 	and	r1, r1, r8
                STRH    r1, [r4, r9]          
 c004e10:	e18410b9 	strh	r1, [r4, r9]
                ADD     r7, r7, #1      
 c004e14:	e2877001 	add	r7, r7, #1
                B       limpiar_columnas_arm
 c004e18:	eafffff6 	b	c004df8 <limpiar_columnas_arm>

0c004e1c <limpiar_siguiente_fila_arm>:

        limpiar_siguiente_fila_arm:
                ADD     r6, r6, #1
 c004e1c:	e2866001 	add	r6, r6, #1
                B       limpiar_filas_arm
 c004e20:	eafffff1 	b	c004dec <limpiar_filas_arm>

0c004e24 <fin_limpiar_filas_arm>:

                fin_limpiar_filas_arm:
                        MOV     r6, #0          
 c004e24:	e3a06000 	mov	r6, #0

0c004e28 <bucle_filas_arm>:

        bucle_filas_arm:
                CMP     r6, #9
 c004e28:	e3560009 	cmp	r6, #9
                BGE     fin_bucle_filas_arm
 c004e2c:	aa000011 	bge	c004e78 <fin_bucle_filas_arm>
                MOV     r7, #0        
 c004e30:	e3a07000 	mov	r7, #0

0c004e34 <bucle_columnas_principal_arm>:

        bucle_columnas_principal_arm:
                CMP     r7, #9
 c004e34:	e3570009 	cmp	r7, #9
                BGE     fin_bucle_columnas_principal_arm
 c004e38:	aa00000c 	bge	c004e70 <fin_bucle_columnas_principal_arm>
                
                ADD     r9, r7, r6, LSL #4     
 c004e3c:	e0879206 	add	r9, r7, r6, lsl #4
                LSL     r9, r9, #1           
 c004e40:	e1a09089 	lsl	r9, r9, #1
                LDRH    r10, [r4, r9]        
 c004e44:	e194a0b9 	ldrh	sl, [r4, r9]
                MOV     r0, r10              
 c004e48:	e1a0000a 	mov	r0, sl
                BL      celda_leer_valor
 c004e4c:	ebfffeec 	bl	c004a04 <celda_leer_valor>
                
                CMP     r0, #0
 c004e50:	e3500000 	cmp	r0, #0
                ADDEQ   r5, r5, #1     
 c004e54:	02855001 	addeq	r5, r5, #1
                MOVNE   r0, r4        
 c004e58:	11a00004 	movne	r0, r4
                MOVNE   r1, r6        
 c004e5c:	11a01006 	movne	r1, r6
                MOVNE   r2, r7         
 c004e60:	11a02007 	movne	r2, r7
                BLNE    candidatos_propagar_arm
 c004e64:	1bffff67 	blne	c004c08 <candidatos_propagar_arm>

                ADD     r7, r7, #1      
 c004e68:	e2877001 	add	r7, r7, #1
                B       bucle_columnas_principal_arm
 c004e6c:	eafffff0 	b	c004e34 <bucle_columnas_principal_arm>

0c004e70 <fin_bucle_columnas_principal_arm>:

                fin_bucle_columnas_principal_arm:
                        ADD     r6, r6, #1
 c004e70:	e2866001 	add	r6, r6, #1
                        B       bucle_filas_arm
 c004e74:	eaffffeb 	b	c004e28 <bucle_filas_arm>

0c004e78 <fin_bucle_filas_arm>:

                fin_bucle_filas_arm:
                        MOV     r0, r5          
 c004e78:	e1a00005 	mov	r0, r5
                        LDMDB   FP, {r4-r10,FP,SP,PC}          
 c004e7c:	e91baff0 	ldmdb	fp, {r4, r5, r6, r7, r8, r9, sl, fp, sp, pc}

0c004e80 <candidatos_actualizar_all>:
@   - celda_leer_valor: nica funcin externa, para extraer valor de celda
@ VALOR DEVUELTO: r0 - Nmero total de celdas vacas encontradas
@ NOTA: Versin ms optimizada con propagacin inline sin llamadas a subfunciones
@ =============================================================================
candidatos_actualizar_all:
        MOV     IP, SP                        
 c004e80:	e1a0c00d 	mov	ip, sp
        STMDB   SP!, {r4-r10,FP,IP,LR,PC}     
 c004e84:	e92ddff0 	push	{r4, r5, r6, r7, r8, r9, sl, fp, ip, lr, pc}
        SUB     FP, IP, #4                   
 c004e88:	e24cb004 	sub	fp, ip, #4

        MOV     r4, r0         
 c004e8c:	e1a04000 	mov	r4, r0
        MOV     r5, #0        
 c004e90:	e3a05000 	mov	r5, #0
        MOV     r6, #0      
 c004e94:	e3a06000 	mov	r6, #0
        MOV     r9, #0x7F     
 c004e98:	e3a0907f 	mov	r9, #127	; 0x7f

0c004e9c <limpiar_filas_all>:

        limpiar_filas_all:
                CMP     r6, #9
 c004e9c:	e3560009 	cmp	r6, #9
                BGE     fin_limpiar_filas_all
 c004ea0:	aa00000b 	bge	c004ed4 <fin_limpiar_filas_all>
                MOV     r7, #0        
 c004ea4:	e3a07000 	mov	r7, #0

0c004ea8 <limpiar_columnas_all>:

        limpiar_columnas_all:
                CMP     r7, #9
 c004ea8:	e3570009 	cmp	r7, #9
                BGE     limpiar_siguiente_fila_all
 c004eac:	aa000006 	bge	c004ecc <limpiar_siguiente_fila_all>
                
                ADD     r8, r7, r6, LSL #4   
 c004eb0:	e0878206 	add	r8, r7, r6, lsl #4
                LSL     r8, r8, #1           
 c004eb4:	e1a08088 	lsl	r8, r8, #1
                LDRH    r1, [r4, r8]          
 c004eb8:	e19410b8 	ldrh	r1, [r4, r8]
                AND     r1, r1, r9             
 c004ebc:	e0011009 	and	r1, r1, r9
                STRH    r1, [r4, r8]          
 c004ec0:	e18410b8 	strh	r1, [r4, r8]
                ADD     r7, r7, #1      
 c004ec4:	e2877001 	add	r7, r7, #1
                B       limpiar_columnas_all
 c004ec8:	eafffff6 	b	c004ea8 <limpiar_columnas_all>

0c004ecc <limpiar_siguiente_fila_all>:

                limpiar_siguiente_fila_all:
                        ADD     r6, r6, #1
 c004ecc:	e2866001 	add	r6, r6, #1
                        B       limpiar_filas_all
 c004ed0:	eafffff1 	b	c004e9c <limpiar_filas_all>

0c004ed4 <fin_limpiar_filas_all>:

                fin_limpiar_filas_all:
                        MOV     r6, #0         
 c004ed4:	e3a06000 	mov	r6, #0

0c004ed8 <bucle_filas_all>:

        bucle_filas_all:
                CMP     r6, #9
 c004ed8:	e3560009 	cmp	r6, #9
                BGE     fin_bucle_filas_all
 c004edc:	aa000056 	bge	c00503c <fin_bucle_filas_all>

                MOV     r7, #0        
 c004ee0:	e3a07000 	mov	r7, #0

0c004ee4 <bucle_columnas_principal_all>:

        bucle_columnas_principal_all:
                CMP     r7, #9
 c004ee4:	e3570009 	cmp	r7, #9
                BGE     fin_bucle_columnas_principal_all
 c004ee8:	aa000051 	bge	c005034 <fin_bucle_columnas_principal_all>

                ADD     r8, r7, r6, LSL #4   
 c004eec:	e0878206 	add	r8, r7, r6, lsl #4
                LSL     r8, r8, #1            
 c004ef0:	e1a08088 	lsl	r8, r8, #1
                LDRH    r10, [r4, r8]         
 c004ef4:	e194a0b8 	ldrh	sl, [r4, r8]
                MOV     r0, r10                
 c004ef8:	e1a0000a 	mov	r0, sl
                BL      celda_leer_valor
 c004efc:	ebfffec0 	bl	c004a04 <celda_leer_valor>

                CMP     r0, #0
 c004f00:	e3500000 	cmp	r0, #0
                ADDEQ   r5, r5, #1            
 c004f04:	02855001 	addeq	r5, r5, #1
                BEQ     salto_propagar_all     
 c004f08:	0a000047 	beq	c00502c <salto_propagar_all>

                @ Cdigo inline
                STMDB   SP!, {r6, r7}        
 c004f0c:	e92d00c0 	push	{r6, r7}
                ADD     r3, r7, r6, LSL #4  
 c004f10:	e0873206 	add	r3, r7, r6, lsl #4
                LSL     r3, r3, #1           
 c004f14:	e1a03083 	lsl	r3, r3, #1
                LDRH    r0, [r4, r3]     
 c004f18:	e19400b3 	ldrh	r0, [r4, r3]
                AND     r1, r0, #0xF          
 c004f1c:	e200100f 	and	r1, r0, #15
                ADD     r2, r1, #6            
 c004f20:	e2812006 	add	r2, r1, #6
                MOV     r8, #1          
 c004f24:	e3a08001 	mov	r8, #1
                LSL     r8, r8, r2            
 c004f28:	e1a08218 	lsl	r8, r8, r2
                ORR     r0, r0, r8       
 c004f2c:	e1800008 	orr	r0, r0, r8
                STRH    r0, [r4, r3]     
 c004f30:	e18400b3 	strh	r0, [r4, r3]
                MOV     r3, #0        
 c004f34:	e3a03000 	mov	r3, #0

0c004f38 <bucle_fila_all>:

                bucle_fila_all:
                        CMP     r3, #9
 c004f38:	e3530009 	cmp	r3, #9
                        BGE     fin_fila_all
 c004f3c:	aa00000a 	bge	c004f6c <fin_fila_all>

                        LDR     r9, [SP, #4]        
 c004f40:	e59d9004 	ldr	r9, [sp, #4]
                        CMP     r3, r9                
 c004f44:	e1530009 	cmp	r3, r9
                        BEQ     salto_fila           
 c004f48:	0a000005 	beq	c004f64 <salto_fila>

                        LDR     r10, [SP]           
 c004f4c:	e59da000 	ldr	sl, [sp]
                        ADD     r1, r3, r10, LSL #4   
 c004f50:	e083120a 	add	r1, r3, sl, lsl #4
                        LSL     r1, r1, #1           
 c004f54:	e1a01081 	lsl	r1, r1, #1
                        LDRH    r2, [r4, r1]          
 c004f58:	e19420b1 	ldrh	r2, [r4, r1]
                        ORR     r2, r2, r8            
 c004f5c:	e1822008 	orr	r2, r2, r8
                        STRH    r2, [r4, r1]          
 c004f60:	e18420b1 	strh	r2, [r4, r1]

0c004f64 <salto_fila>:

                salto_fila:
                        ADD     r3, r3, #1      
 c004f64:	e2833001 	add	r3, r3, #1
                        B       bucle_fila_all        
 c004f68:	eafffff2 	b	c004f38 <bucle_fila_all>

0c004f6c <fin_fila_all>:

                fin_fila_all:
                        MOV     r3, #0          
 c004f6c:	e3a03000 	mov	r3, #0

0c004f70 <bucle_columna_all>:

                bucle_columna_all:
                        CMP     r3, #9
 c004f70:	e3530009 	cmp	r3, #9
                        BGE     fin_columna_all
 c004f74:	aa00000a 	bge	c004fa4 <fin_columna_all>

                        LDR     r10, [SP]             
 c004f78:	e59da000 	ldr	sl, [sp]
                        CMP     r3, r10               
 c004f7c:	e153000a 	cmp	r3, sl
                        BEQ     salto_columna    
 c004f80:	0a000005 	beq	c004f9c <salto_columna>

                        LDR     r9, [SP, #4]          
 c004f84:	e59d9004 	ldr	r9, [sp, #4]
                        ADD     r1, r9, r3, LSL #4   
 c004f88:	e0891203 	add	r1, r9, r3, lsl #4
                        LSL     r1, r1, #1         
 c004f8c:	e1a01081 	lsl	r1, r1, #1

                        LDRH    r2, [r4, r1]        
 c004f90:	e19420b1 	ldrh	r2, [r4, r1]
                        ORR     r2, r2, r8            
 c004f94:	e1822008 	orr	r2, r2, r8
                        STRH    r2, [r4, r1]          
 c004f98:	e18420b1 	strh	r2, [r4, r1]

0c004f9c <salto_columna>:

                salto_columna:
                        ADD     r3, r3, #1      
 c004f9c:	e2833001 	add	r3, r3, #1
                        B       bucle_columna_all     
 c004fa0:	eafffff2 	b	c004f70 <bucle_columna_all>

0c004fa4 <fin_columna_all>:

                fin_columna_all:
                        LDR     r1, =init_region
 c004fa4:	e59f1098 	ldr	r1, [pc, #152]	; c005044 <fin_bucle_filas_all+0x8>
                        LDR     r10, [SP]            
 c004fa8:	e59da000 	ldr	sl, [sp]
                        LDR     r9, [SP, #4]        
 c004fac:	e59d9004 	ldr	r9, [sp, #4]
                        LDRB    r2, [r1, r10]         
 c004fb0:	e7d1200a 	ldrb	r2, [r1, sl]
                        LDRB    r3, [r1, r9]          
 c004fb4:	e7d13009 	ldrb	r3, [r1, r9]
                        
                        ADD     r0, r2, #3           
 c004fb8:	e2820003 	add	r0, r2, #3
                        ADD     r1, r3, #3          
 c004fbc:	e2831003 	add	r1, r3, #3
                        STMDB   SP!, {r0, r1, r2, r3} 
 c004fc0:	e92d000f 	push	{r0, r1, r2, r3}
                        
                        MOV     r6, r2                
 c004fc4:	e1a06002 	mov	r6, r2

0c004fc8 <bucle_region_i_all>:

                bucle_region_i_all:
                        LDR     r0, [SP]              
 c004fc8:	e59d0000 	ldr	r0, [sp]
                        CMP     r6, r0            
 c004fcc:	e1560000 	cmp	r6, r0
                        BGE     fin_region_all
 c004fd0:	aa000013 	bge	c005024 <fin_region_all>
                        LDR     r7, [SP, #12]         
 c004fd4:	e59d700c 	ldr	r7, [sp, #12]
                        MOV     r2, r7               
 c004fd8:	e1a02007 	mov	r2, r7

0c004fdc <bucle_region_j_all>:

                bucle_region_j_all:
                        LDR     r1, [SP, #4]          
 c004fdc:	e59d1004 	ldr	r1, [sp, #4]
                        CMP     r2, r1             
 c004fe0:	e1520001 	cmp	r2, r1
                        BGE     fin_region_j_all
 c004fe4:	aa00000c 	bge	c00501c <fin_region_j_all>

                        LDR     r10, [SP, #16]       
 c004fe8:	e59da010 	ldr	sl, [sp, #16]
                        LDR     r9, [SP, #20]         
 c004fec:	e59d9014 	ldr	r9, [sp, #20]
                        
                        CMP     r6, r10               
 c004ff0:	e156000a 	cmp	r6, sl
                        BNE     region_diferente_all
 c004ff4:	1a000001 	bne	c005000 <region_diferente_all>
                        CMP     r2, r9                
 c004ff8:	e1520009 	cmp	r2, r9
                        BEQ     salto_region 
 c004ffc:	0a000004 	beq	c005014 <salto_region>

0c005000 <region_diferente_all>:

                region_diferente_all:
                        ADD     r3, r2, r6, LSL #4   
 c005000:	e0823206 	add	r3, r2, r6, lsl #4
                        LSL     r3, r3, #1            
 c005004:	e1a03083 	lsl	r3, r3, #1
                        
                        LDRH    r0, [r4, r3]     
 c005008:	e19400b3 	ldrh	r0, [r4, r3]
                        ORR     r0, r0, r8            
 c00500c:	e1800008 	orr	r0, r0, r8
                        STRH    r0, [r4, r3]          
 c005010:	e18400b3 	strh	r0, [r4, r3]

0c005014 <salto_region>:

                salto_region:
                        ADD     r2, r2, #1            
 c005014:	e2822001 	add	r2, r2, #1
                        B       bucle_region_j_all    
 c005018:	eaffffef 	b	c004fdc <bucle_region_j_all>

0c00501c <fin_region_j_all>:

                fin_region_j_all:
                        ADD     r6, r6, #1            
 c00501c:	e2866001 	add	r6, r6, #1
                        B       bucle_region_i_all    
 c005020:	eaffffe8 	b	c004fc8 <bucle_region_i_all>

0c005024 <fin_region_all>:

                fin_region_all:
                        ADD     SP, SP, #16           
 c005024:	e28dd010 	add	sp, sp, #16
                        ADD     SP, SP, #8            
 c005028:	e28dd008 	add	sp, sp, #8

0c00502c <salto_propagar_all>:

                salto_propagar_all:        
                        ADD     r7, r7, #1     
 c00502c:	e2877001 	add	r7, r7, #1
                        B       bucle_columnas_principal_all
 c005030:	eaffffab 	b	c004ee4 <bucle_columnas_principal_all>

0c005034 <fin_bucle_columnas_principal_all>:

                fin_bucle_columnas_principal_all:
                        ADD     r6, r6, #1      
 c005034:	e2866001 	add	r6, r6, #1
                        B       bucle_filas_all       
 c005038:	eaffffa6 	b	c004ed8 <bucle_filas_all>

0c00503c <fin_bucle_filas_all>:

        fin_bucle_filas_all:
                MOV     r0, r5          
 c00503c:	e1a00005 	mov	r0, r5
                LDMDB   FP, {r4-r10,FP,SP,PC}
 c005040:	e91baff0 	ldmdb	fp, {r4, r5, r6, r7, r8, r9, sl, fp, sp, pc}
 c005044:	0c00a45c 	.word	0x0c00a45c

0c005048 <Lcd_Init>:
extern INT8U g_auc_Ascii6x8[];
extern STRU_BITMAP Stru_Bitmap_gbMouse;

/*--- cdigo de la funcin ---*/
void Lcd_Init(void)
{       
 c005048:	e1a0c00d 	mov	ip, sp
 c00504c:	e92dd800 	push	{fp, ip, lr, pc}
 c005050:	e24cb004 	sub	fp, ip, #4
	rDITHMODE=0x1223a;
 c005054:	e59f30fc 	ldr	r3, [pc, #252]	; c005158 <Lcd_Init+0x110>
 c005058:	e59f20fc 	ldr	r2, [pc, #252]	; c00515c <Lcd_Init+0x114>
 c00505c:	e5832000 	str	r2, [r3]
	rDP1_2 =0x5a5a;      
 c005060:	e59f30f8 	ldr	r3, [pc, #248]	; c005160 <Lcd_Init+0x118>
 c005064:	e59f20f8 	ldr	r2, [pc, #248]	; c005164 <Lcd_Init+0x11c>
 c005068:	e5832000 	str	r2, [r3]
	rDP4_7 =0x366cd9b;
 c00506c:	e59f30f4 	ldr	r3, [pc, #244]	; c005168 <Lcd_Init+0x120>
 c005070:	e59f20f4 	ldr	r2, [pc, #244]	; c00516c <Lcd_Init+0x124>
 c005074:	e5832000 	str	r2, [r3]
	rDP3_5 =0xda5a7;
 c005078:	e59f30f0 	ldr	r3, [pc, #240]	; c005170 <Lcd_Init+0x128>
 c00507c:	e59f20f0 	ldr	r2, [pc, #240]	; c005174 <Lcd_Init+0x12c>
 c005080:	e5832000 	str	r2, [r3]
	rDP2_3 =0xad7;
 c005084:	e59f30ec 	ldr	r3, [pc, #236]	; c005178 <Lcd_Init+0x130>
 c005088:	e59f20ec 	ldr	r2, [pc, #236]	; c00517c <Lcd_Init+0x134>
 c00508c:	e5832000 	str	r2, [r3]
	rDP5_7 =0xfeda5b7;
 c005090:	e59f30e8 	ldr	r3, [pc, #232]	; c005180 <Lcd_Init+0x138>
 c005094:	e59f20e8 	ldr	r2, [pc, #232]	; c005184 <Lcd_Init+0x13c>
 c005098:	e5832000 	str	r2, [r3]
	rDP3_4 =0xebd7;
 c00509c:	e59f30e4 	ldr	r3, [pc, #228]	; c005188 <Lcd_Init+0x140>
 c0050a0:	e59f20e4 	ldr	r2, [pc, #228]	; c00518c <Lcd_Init+0x144>
 c0050a4:	e5832000 	str	r2, [r3]
	rDP4_5 =0xebfd7;
 c0050a8:	e59f30e0 	ldr	r3, [pc, #224]	; c005190 <Lcd_Init+0x148>
 c0050ac:	e59f20e0 	ldr	r2, [pc, #224]	; c005194 <Lcd_Init+0x14c>
 c0050b0:	e5832000 	str	r2, [r3]
	rDP6_7 =0x7efdfbf;
 c0050b4:	e59f30dc 	ldr	r3, [pc, #220]	; c005198 <Lcd_Init+0x150>
 c0050b8:	e59f20dc 	ldr	r2, [pc, #220]	; c00519c <Lcd_Init+0x154>
 c0050bc:	e5832000 	str	r2, [r3]

	rLCDCON1=(0)|(1<<5)|(MVAL_USED<<7)|(0x0<<8)|(0x0<<10)|(CLKVAL_GREY16<<12);
 c0050c0:	e3a0361f 	mov	r3, #32505856	; 0x1f00000
 c0050c4:	e59f20d4 	ldr	r2, [pc, #212]	; c0051a0 <Lcd_Init+0x158>
 c0050c8:	e5832000 	str	r2, [r3]
	rLCDCON2=(LINEVAL)|(HOZVAL<<10)|(10<<21); 
 c0050cc:	e59f30d0 	ldr	r3, [pc, #208]	; c0051a4 <Lcd_Init+0x15c>
 c0050d0:	e59f20d0 	ldr	r2, [pc, #208]	; c0051a8 <Lcd_Init+0x160>
 c0050d4:	e5832000 	str	r2, [r3]
	rLCDSADDR1= (0x2<<27) | ( ((LCD_ACTIVE_BUFFER>>22)<<21 ) | M5D(LCD_ACTIVE_BUFFER>>1));
 c0050d8:	e59f30cc 	ldr	r3, [pc, #204]	; c0051ac <Lcd_Init+0x164>
 c0050dc:	e59f20cc 	ldr	r2, [pc, #204]	; c0051b0 <Lcd_Init+0x168>
 c0050e0:	e5832000 	str	r2, [r3]
 	rLCDSADDR2= M5D(((LCD_ACTIVE_BUFFER+(SCR_XSIZE*LCD_YSIZE/2))>>1)) | (MVAL<<21);
 c0050e4:	e59f30c8 	ldr	r3, [pc, #200]	; c0051b4 <Lcd_Init+0x16c>
 c0050e8:	e59f20c8 	ldr	r2, [pc, #200]	; c0051b8 <Lcd_Init+0x170>
 c0050ec:	e5832000 	str	r2, [r3]
	rLCDSADDR3= (LCD_XSIZE/4) | ( ((SCR_XSIZE-LCD_XSIZE)/4)<<9 );
 c0050f0:	e59f30c4 	ldr	r3, [pc, #196]	; c0051bc <Lcd_Init+0x174>
 c0050f4:	e3a02050 	mov	r2, #80	; 0x50
 c0050f8:	e5832000 	str	r2, [r3]
	// enable,4B_SNGL_SCAN,WDLY=8clk,WLH=8clk,
	rLCDCON1=(1)|(1<<5)|(MVAL_USED<<7)|(0x3<<8)|(0x3<<10)|(CLKVAL_GREY16<<12);
 c0050fc:	e3a0361f 	mov	r3, #32505856	; 0x1f00000
 c005100:	e59f20b8 	ldr	r2, [pc, #184]	; c0051c0 <Lcd_Init+0x178>
 c005104:	e5832000 	str	r2, [r3]
	rBLUELUT=0xfa40;
 c005108:	e59f30b4 	ldr	r3, [pc, #180]	; c0051c4 <Lcd_Init+0x17c>
 c00510c:	e59f20b4 	ldr	r2, [pc, #180]	; c0051c8 <Lcd_Init+0x180>
 c005110:	e5832000 	str	r2, [r3]
	//Enable LCD Logic and EL back-light.
	rPDATE=rPDATE&0x0e;
 c005114:	e59f30b0 	ldr	r3, [pc, #176]	; c0051cc <Lcd_Init+0x184>
 c005118:	e59f20ac 	ldr	r2, [pc, #172]	; c0051cc <Lcd_Init+0x184>
 c00511c:	e5922000 	ldr	r2, [r2]
 c005120:	e202200e 	and	r2, r2, #14
 c005124:	e5832000 	str	r2, [r3]
	
	//DMA ISR
	rINTMSK &= ~(BIT_GLOBAL|BIT_ZDMA0);
 c005128:	e59f20a0 	ldr	r2, [pc, #160]	; c0051d0 <Lcd_Init+0x188>
 c00512c:	e59f309c 	ldr	r3, [pc, #156]	; c0051d0 <Lcd_Init+0x188>
 c005130:	e5933000 	ldr	r3, [r3]
 c005134:	e3c33301 	bic	r3, r3, #67108864	; 0x4000000
 c005138:	e3c33702 	bic	r3, r3, #524288	; 0x80000
 c00513c:	e5823000 	str	r3, [r2]
    pISR_ZDMA0=(int)Zdma0Done;
 c005140:	e59f308c 	ldr	r3, [pc, #140]	; c0051d4 <Lcd_Init+0x18c>
 c005144:	e59f208c 	ldr	r2, [pc, #140]	; c0051d8 <Lcd_Init+0x190>
 c005148:	e5832000 	str	r2, [r3]
}
 c00514c:	e24bd00c 	sub	sp, fp, #12
 c005150:	e89d6800 	ldm	sp, {fp, sp, lr}
 c005154:	e12fff1e 	bx	lr
 c005158:	01f00044 	.word	0x01f00044
 c00515c:	0001223a 	.word	0x0001223a
 c005160:	01f00020 	.word	0x01f00020
 c005164:	00005a5a 	.word	0x00005a5a
 c005168:	01f00024 	.word	0x01f00024
 c00516c:	0366cd9b 	.word	0x0366cd9b
 c005170:	01f00028 	.word	0x01f00028
 c005174:	000da5a7 	.word	0x000da5a7
 c005178:	01f0002c 	.word	0x01f0002c
 c00517c:	00000ad7 	.word	0x00000ad7
 c005180:	01f00030 	.word	0x01f00030
 c005184:	0feda5b7 	.word	0x0feda5b7
 c005188:	01f00034 	.word	0x01f00034
 c00518c:	0000ebd7 	.word	0x0000ebd7
 c005190:	01f00038 	.word	0x01f00038
 c005194:	000ebfd7 	.word	0x000ebfd7
 c005198:	01f0003c 	.word	0x01f0003c
 c00519c:	07efdfbf 	.word	0x07efdfbf
 c0051a0:	0000c020 	.word	0x0000c020
 c0051a4:	01f00004 	.word	0x01f00004
 c0051a8:	01413cef 	.word	0x01413cef
 c0051ac:	01f00008 	.word	0x01f00008
 c0051b0:	16180000 	.word	0x16180000
 c0051b4:	01f0000c 	.word	0x01f0000c
 c0051b8:	01b84b00 	.word	0x01b84b00
 c0051bc:	01f00010 	.word	0x01f00010
 c0051c0:	0000cf21 	.word	0x0000cf21
 c0051c4:	01f0001c 	.word	0x01f0001c
 c0051c8:	0000fa40 	.word	0x0000fa40
 c0051cc:	01d2002c 	.word	0x01d2002c
 c0051d0:	01e0000c 	.word	0x01e0000c
 c0051d4:	0c7fff6c 	.word	0x0c7fff6c
 c0051d8:	0c006dfc 	.word	0x0c006dfc

0c0051dc <Lcd_Active_Clr>:
* ret:		none
* modify:
* comment:		
*********************************************************************************************/
void Lcd_Active_Clr(void)
{
 c0051dc:	e1a0c00d 	mov	ip, sp
 c0051e0:	e92dd800 	push	{fp, ip, lr, pc}
 c0051e4:	e24cb004 	sub	fp, ip, #4
 c0051e8:	e24dd008 	sub	sp, sp, #8
	INT32U i;
	INT32U *pDisp = (INT32U *)LCD_ACTIVE_BUFFER;
 c0051ec:	e3a036c3 	mov	r3, #204472320	; 0xc300000
 c0051f0:	e50b3014 	str	r3, [fp, #-20]	; 0xffffffec
	
	for( i = 0; i < (SCR_XSIZE*SCR_YSIZE/2/4); i++ )
 c0051f4:	e3a03000 	mov	r3, #0
 c0051f8:	e50b3010 	str	r3, [fp, #-16]
 c0051fc:	ea000008 	b	c005224 <Lcd_Active_Clr+0x48>
	{
		*pDisp++ = WHITE;
 c005200:	e51b3014 	ldr	r3, [fp, #-20]	; 0xffffffec
 c005204:	e3a02000 	mov	r2, #0
 c005208:	e5832000 	str	r2, [r3]
 c00520c:	e51b3014 	ldr	r3, [fp, #-20]	; 0xffffffec
 c005210:	e2833004 	add	r3, r3, #4
 c005214:	e50b3014 	str	r3, [fp, #-20]	; 0xffffffec
void Lcd_Active_Clr(void)
{
	INT32U i;
	INT32U *pDisp = (INT32U *)LCD_ACTIVE_BUFFER;
	
	for( i = 0; i < (SCR_XSIZE*SCR_YSIZE/2/4); i++ )
 c005218:	e51b3010 	ldr	r3, [fp, #-16]
 c00521c:	e2833001 	add	r3, r3, #1
 c005220:	e50b3010 	str	r3, [fp, #-16]
 c005224:	e51b2010 	ldr	r2, [fp, #-16]
 c005228:	e59f3010 	ldr	r3, [pc, #16]	; c005240 <Lcd_Active_Clr+0x64>
 c00522c:	e1520003 	cmp	r2, r3
 c005230:	9afffff2 	bls	c005200 <Lcd_Active_Clr+0x24>
	{
		*pDisp++ = WHITE;
	}
}
 c005234:	e24bd00c 	sub	sp, fp, #12
 c005238:	e89d6800 	ldm	sp, {fp, sp, lr}
 c00523c:	e12fff1e 	bx	lr
 c005240:	0000257f 	.word	0x0000257f

0c005244 <LCD_GetPixel>:
* ret:		pot's color value
* modify:
* comment:		
*********************************************************************************************/
INT8U LCD_GetPixel(INT16U usX, INT16U usY)
{
 c005244:	e1a0c00d 	mov	ip, sp
 c005248:	e92dd800 	push	{fp, ip, lr, pc}
 c00524c:	e24cb004 	sub	fp, ip, #4
 c005250:	e24dd010 	sub	sp, sp, #16
 c005254:	e1a02000 	mov	r2, r0
 c005258:	e1a03001 	mov	r3, r1
 c00525c:	e14b21b6 	strh	r2, [fp, #-22]	; 0xffffffea
 c005260:	e14b31b8 	strh	r3, [fp, #-24]	; 0xffffffe8
	INT8U ucColor;

	ucColor = *((INT8U*)(LCD_VIRTUAL_BUFFER + usY*SCR_XSIZE/2 + usX/8*4 + 3 - (usX%8)/2));
 c005264:	e15b21b8 	ldrh	r2, [fp, #-24]	; 0xffffffe8
 c005268:	e1a03002 	mov	r3, r2
 c00526c:	e1a03103 	lsl	r3, r3, #2
 c005270:	e0833002 	add	r3, r3, r2
 c005274:	e1a03303 	lsl	r3, r3, #6
 c005278:	e1a02fa3 	lsr	r2, r3, #31
 c00527c:	e0823003 	add	r3, r2, r3
 c005280:	e1a030c3 	asr	r3, r3, #1
 c005284:	e28336c3 	add	r3, r3, #204472320	; 0xc300000
 c005288:	e2833c96 	add	r3, r3, #38400	; 0x9600
 c00528c:	e15b21b6 	ldrh	r2, [fp, #-22]	; 0xffffffea
 c005290:	e1a021a2 	lsr	r2, r2, #3
 c005294:	e1a02802 	lsl	r2, r2, #16
 c005298:	e1a02822 	lsr	r2, r2, #16
 c00529c:	e1a02102 	lsl	r2, r2, #2
 c0052a0:	e0833002 	add	r3, r3, r2
 c0052a4:	e2832003 	add	r2, r3, #3
 c0052a8:	e15b31b6 	ldrh	r3, [fp, #-22]	; 0xffffffea
 c0052ac:	e2033007 	and	r3, r3, #7
 c0052b0:	e1a03803 	lsl	r3, r3, #16
 c0052b4:	e1a03823 	lsr	r3, r3, #16
 c0052b8:	e1a030a3 	lsr	r3, r3, #1
 c0052bc:	e1a03803 	lsl	r3, r3, #16
 c0052c0:	e1a03823 	lsr	r3, r3, #16
 c0052c4:	e0633002 	rsb	r3, r3, r2
 c0052c8:	e5d33000 	ldrb	r3, [r3]
 c0052cc:	e54b300d 	strb	r3, [fp, #-13]
	ucColor = (ucColor >> ((1-(usX%2))*4)) & 0x0f;
 c0052d0:	e55b200d 	ldrb	r2, [fp, #-13]
 c0052d4:	e15b31b6 	ldrh	r3, [fp, #-22]	; 0xffffffea
 c0052d8:	e2033001 	and	r3, r3, #1
 c0052dc:	e3530000 	cmp	r3, #0
 c0052e0:	1a000001 	bne	c0052ec <LCD_GetPixel+0xa8>
 c0052e4:	e3a03004 	mov	r3, #4
 c0052e8:	ea000000 	b	c0052f0 <LCD_GetPixel+0xac>
 c0052ec:	e3a03000 	mov	r3, #0
 c0052f0:	e1a03352 	asr	r3, r2, r3
 c0052f4:	e20330ff 	and	r3, r3, #255	; 0xff
 c0052f8:	e203300f 	and	r3, r3, #15
 c0052fc:	e54b300d 	strb	r3, [fp, #-13]
	return ucColor;
 c005300:	e55b300d 	ldrb	r3, [fp, #-13]
}
 c005304:	e1a00003 	mov	r0, r3
 c005308:	e24bd00c 	sub	sp, fp, #12
 c00530c:	e89d6800 	ldm	sp, {fp, sp, lr}
 c005310:	e12fff1e 	bx	lr

0c005314 <Lcd_Clr>:
* ret:		none
* modify:
* comment:		
*********************************************************************************************/
void Lcd_Clr(void)
{
 c005314:	e1a0c00d 	mov	ip, sp
 c005318:	e92dd800 	push	{fp, ip, lr, pc}
 c00531c:	e24cb004 	sub	fp, ip, #4
 c005320:	e24dd008 	sub	sp, sp, #8
	INT32U i;
	INT32U *pDisp = (INT32U *)LCD_VIRTUAL_BUFFER;
 c005324:	e59f304c 	ldr	r3, [pc, #76]	; c005378 <Lcd_Clr+0x64>
 c005328:	e50b3014 	str	r3, [fp, #-20]	; 0xffffffec
	
	for( i = 0; i < (SCR_XSIZE*SCR_YSIZE/2/4); i++ )
 c00532c:	e3a03000 	mov	r3, #0
 c005330:	e50b3010 	str	r3, [fp, #-16]
 c005334:	ea000008 	b	c00535c <Lcd_Clr+0x48>
	{
		*pDisp++ = WHITE;
 c005338:	e51b3014 	ldr	r3, [fp, #-20]	; 0xffffffec
 c00533c:	e3a02000 	mov	r2, #0
 c005340:	e5832000 	str	r2, [r3]
 c005344:	e51b3014 	ldr	r3, [fp, #-20]	; 0xffffffec
 c005348:	e2833004 	add	r3, r3, #4
 c00534c:	e50b3014 	str	r3, [fp, #-20]	; 0xffffffec
void Lcd_Clr(void)
{
	INT32U i;
	INT32U *pDisp = (INT32U *)LCD_VIRTUAL_BUFFER;
	
	for( i = 0; i < (SCR_XSIZE*SCR_YSIZE/2/4); i++ )
 c005350:	e51b3010 	ldr	r3, [fp, #-16]
 c005354:	e2833001 	add	r3, r3, #1
 c005358:	e50b3010 	str	r3, [fp, #-16]
 c00535c:	e51b2010 	ldr	r2, [fp, #-16]
 c005360:	e59f3014 	ldr	r3, [pc, #20]	; c00537c <Lcd_Clr+0x68>
 c005364:	e1520003 	cmp	r2, r3
 c005368:	9afffff2 	bls	c005338 <Lcd_Clr+0x24>
	{
		*pDisp++ = WHITE;
	}
}
 c00536c:	e24bd00c 	sub	sp, fp, #12
 c005370:	e89d6800 	ldm	sp, {fp, sp, lr}
 c005374:	e12fff1e 	bx	lr
 c005378:	0c309600 	.word	0x0c309600
 c00537c:	0000257f 	.word	0x0000257f

0c005380 <LcdClrRect>:
* ret:		none
* modify:
* comment:	also as clear screen function 
*********************************************************************************************/
void LcdClrRect(INT16 usLeft, INT16 usTop, INT16 usRight, INT16 usBottom, INT8U ucColor)
{
 c005380:	e1a0c00d 	mov	ip, sp
 c005384:	e92dd800 	push	{fp, ip, lr, pc}
 c005388:	e24cb004 	sub	fp, ip, #4
 c00538c:	e24dd018 	sub	sp, sp, #24
 c005390:	e14b01be 	strh	r0, [fp, #-30]	; 0xffffffe2
 c005394:	e14b12b0 	strh	r1, [fp, #-32]	; 0xffffffe0
 c005398:	e14b22b2 	strh	r2, [fp, #-34]	; 0xffffffde
 c00539c:	e14b32b4 	strh	r3, [fp, #-36]	; 0xffffffdc
	INT16 i,k,l,m;
	
	INT32U ulColor = (ucColor << 28) | (ucColor << 24) | (ucColor << 20) | (ucColor << 16) | 
 c0053a0:	e5db3004 	ldrb	r3, [fp, #4]
 c0053a4:	e1a02e03 	lsl	r2, r3, #28
 c0053a8:	e5db3004 	ldrb	r3, [fp, #4]
 c0053ac:	e1a03c03 	lsl	r3, r3, #24
 c0053b0:	e1822003 	orr	r2, r2, r3
 c0053b4:	e5db3004 	ldrb	r3, [fp, #4]
 c0053b8:	e1a03a03 	lsl	r3, r3, #20
 c0053bc:	e1822003 	orr	r2, r2, r3
 c0053c0:	e5db3004 	ldrb	r3, [fp, #4]
 c0053c4:	e1a03803 	lsl	r3, r3, #16
 c0053c8:	e1822003 	orr	r2, r2, r3
				     (ucColor << 12) | (ucColor << 8) | (ucColor << 4) | ucColor;
 c0053cc:	e5db3004 	ldrb	r3, [fp, #4]
 c0053d0:	e1a03603 	lsl	r3, r3, #12
*********************************************************************************************/
void LcdClrRect(INT16 usLeft, INT16 usTop, INT16 usRight, INT16 usBottom, INT8U ucColor)
{
	INT16 i,k,l,m;
	
	INT32U ulColor = (ucColor << 28) | (ucColor << 24) | (ucColor << 20) | (ucColor << 16) | 
 c0053d4:	e1822003 	orr	r2, r2, r3
				     (ucColor << 12) | (ucColor << 8) | (ucColor << 4) | ucColor;
 c0053d8:	e5db3004 	ldrb	r3, [fp, #4]
 c0053dc:	e1a03403 	lsl	r3, r3, #8
 c0053e0:	e1822003 	orr	r2, r2, r3
 c0053e4:	e5db3004 	ldrb	r3, [fp, #4]
 c0053e8:	e1a03203 	lsl	r3, r3, #4
 c0053ec:	e1822003 	orr	r2, r2, r3
 c0053f0:	e5db3004 	ldrb	r3, [fp, #4]
 c0053f4:	e1823003 	orr	r3, r2, r3
*********************************************************************************************/
void LcdClrRect(INT16 usLeft, INT16 usTop, INT16 usRight, INT16 usBottom, INT8U ucColor)
{
	INT16 i,k,l,m;
	
	INT32U ulColor = (ucColor << 28) | (ucColor << 24) | (ucColor << 20) | (ucColor << 16) | 
 c0053f8:	e50b3018 	str	r3, [fp, #-24]	; 0xffffffe8
				     (ucColor << 12) | (ucColor << 8) | (ucColor << 4) | ucColor;

	i = k = l = m = 0;	
 c0053fc:	e3a03000 	mov	r3, #0
 c005400:	e14b31b4 	strh	r3, [fp, #-20]	; 0xffffffec
 c005404:	e15b31b4 	ldrh	r3, [fp, #-20]	; 0xffffffec
 c005408:	e14b31b2 	strh	r3, [fp, #-18]	; 0xffffffee
 c00540c:	e15b31b2 	ldrh	r3, [fp, #-18]	; 0xffffffee
 c005410:	e14b31b0 	strh	r3, [fp, #-16]
 c005414:	e15b31b0 	ldrh	r3, [fp, #-16]
 c005418:	e14b30be 	strh	r3, [fp, #-14]
	if( (usRight-usLeft) <= 8 )
 c00541c:	e15b22f2 	ldrsh	r2, [fp, #-34]	; 0xffffffde
 c005420:	e15b31fe 	ldrsh	r3, [fp, #-30]	; 0xffffffe2
 c005424:	e0633002 	rsb	r3, r3, r2
 c005428:	e3530008 	cmp	r3, #8
 c00542c:	ca00005f 	bgt	c0055b0 <LcdClrRect+0x230>
	{
		for( i=usTop; i<=usBottom; i++)
 c005430:	e15b32b0 	ldrh	r3, [fp, #-32]	; 0xffffffe0
 c005434:	e14b30be 	strh	r3, [fp, #-14]
 c005438:	ea000057 	b	c00559c <LcdClrRect+0x21c>
		{
			for( m=usLeft; m<=usRight; m++)
 c00543c:	e15b31be 	ldrh	r3, [fp, #-30]	; 0xffffffe2
 c005440:	e14b31b4 	strh	r3, [fp, #-20]	; 0xffffffec
 c005444:	ea00004d 	b	c005580 <LcdClrRect+0x200>
			{
				(LCD_PutPixel(m, i, ucColor));
 c005448:	e15b20fe 	ldrsh	r2, [fp, #-14]
 c00544c:	e1a03002 	mov	r3, r2
 c005450:	e1a03103 	lsl	r3, r3, #2
 c005454:	e0833002 	add	r3, r3, r2
 c005458:	e1a03303 	lsl	r3, r3, #6
 c00545c:	e1a02fa3 	lsr	r2, r3, #31
 c005460:	e0823003 	add	r3, r2, r3
 c005464:	e1a030c3 	asr	r3, r3, #1
 c005468:	e28326c3 	add	r2, r3, #204472320	; 0xc300000
 c00546c:	e2822c96 	add	r2, r2, #38400	; 0x9600
 c005470:	e15b31f4 	ldrsh	r3, [fp, #-20]	; 0xffffffec
 c005474:	e2831007 	add	r1, r3, #7
 c005478:	e3530000 	cmp	r3, #0
 c00547c:	b1a03001 	movlt	r3, r1
 c005480:	e1a031c3 	asr	r3, r3, #3
 c005484:	e1a03803 	lsl	r3, r3, #16
 c005488:	e1a03823 	lsr	r3, r3, #16
 c00548c:	e1a03803 	lsl	r3, r3, #16
 c005490:	e1a03843 	asr	r3, r3, #16
 c005494:	e1a03103 	lsl	r3, r3, #2
 c005498:	e0823003 	add	r3, r2, r3
 c00549c:	e1a01003 	mov	r1, r3
 c0054a0:	e15b20fe 	ldrsh	r2, [fp, #-14]
 c0054a4:	e1a03002 	mov	r3, r2
 c0054a8:	e1a03103 	lsl	r3, r3, #2
 c0054ac:	e0833002 	add	r3, r3, r2
 c0054b0:	e1a03303 	lsl	r3, r3, #6
 c0054b4:	e1a02fa3 	lsr	r2, r3, #31
 c0054b8:	e0823003 	add	r3, r2, r3
 c0054bc:	e1a030c3 	asr	r3, r3, #1
 c0054c0:	e28326c3 	add	r2, r3, #204472320	; 0xc300000
 c0054c4:	e2822c96 	add	r2, r2, #38400	; 0x9600
 c0054c8:	e15b31f4 	ldrsh	r3, [fp, #-20]	; 0xffffffec
 c0054cc:	e2830007 	add	r0, r3, #7
 c0054d0:	e3530000 	cmp	r3, #0
 c0054d4:	b1a03000 	movlt	r3, r0
 c0054d8:	e1a031c3 	asr	r3, r3, #3
 c0054dc:	e1a03803 	lsl	r3, r3, #16
 c0054e0:	e1a03823 	lsr	r3, r3, #16
 c0054e4:	e1a03803 	lsl	r3, r3, #16
 c0054e8:	e1a03843 	asr	r3, r3, #16
 c0054ec:	e1a03103 	lsl	r3, r3, #2
 c0054f0:	e0823003 	add	r3, r2, r3
 c0054f4:	e5930000 	ldr	r0, [r3]
 c0054f8:	e15b21f4 	ldrsh	r2, [fp, #-20]	; 0xffffffec
 c0054fc:	e1a03fc2 	asr	r3, r2, #31
 c005500:	e1a03ea3 	lsr	r3, r3, #29
 c005504:	e0822003 	add	r2, r2, r3
 c005508:	e2022007 	and	r2, r2, #7
 c00550c:	e0633002 	rsb	r3, r3, r2
 c005510:	e1a03803 	lsl	r3, r3, #16
 c005514:	e1a03823 	lsr	r3, r3, #16
 c005518:	e1a03803 	lsl	r3, r3, #16
 c00551c:	e1a03843 	asr	r3, r3, #16
 c005520:	e1a03103 	lsl	r3, r3, #2
 c005524:	e3a0220f 	mov	r2, #-268435456	; 0xf0000000
 c005528:	e1a03332 	lsr	r3, r2, r3
 c00552c:	e1e03003 	mvn	r3, r3
 c005530:	e0000003 	and	r0, r0, r3
 c005534:	e5dbc004 	ldrb	ip, [fp, #4]
 c005538:	e15b21f4 	ldrsh	r2, [fp, #-20]	; 0xffffffec
 c00553c:	e1a03fc2 	asr	r3, r2, #31
 c005540:	e1a03ea3 	lsr	r3, r3, #29
 c005544:	e0822003 	add	r2, r2, r3
 c005548:	e2022007 	and	r2, r2, #7
 c00554c:	e0633002 	rsb	r3, r3, r2
 c005550:	e1a03803 	lsl	r3, r3, #16
 c005554:	e1a03823 	lsr	r3, r3, #16
 c005558:	e1a03803 	lsl	r3, r3, #16
 c00555c:	e1a03843 	asr	r3, r3, #16
 c005560:	e2633007 	rsb	r3, r3, #7
 c005564:	e1a03103 	lsl	r3, r3, #2
 c005568:	e1a0331c 	lsl	r3, ip, r3
 c00556c:	e1803003 	orr	r3, r0, r3
 c005570:	e5813000 	str	r3, [r1]
	i = k = l = m = 0;	
	if( (usRight-usLeft) <= 8 )
	{
		for( i=usTop; i<=usBottom; i++)
		{
			for( m=usLeft; m<=usRight; m++)
 c005574:	e15b31b4 	ldrh	r3, [fp, #-20]	; 0xffffffec
 c005578:	e2833001 	add	r3, r3, #1
 c00557c:	e14b31b4 	strh	r3, [fp, #-20]	; 0xffffffec
 c005580:	e15b21f4 	ldrsh	r2, [fp, #-20]	; 0xffffffec
 c005584:	e15b32f2 	ldrsh	r3, [fp, #-34]	; 0xffffffde
 c005588:	e1520003 	cmp	r2, r3
 c00558c:	daffffad 	ble	c005448 <LcdClrRect+0xc8>
				     (ucColor << 12) | (ucColor << 8) | (ucColor << 4) | ucColor;

	i = k = l = m = 0;	
	if( (usRight-usLeft) <= 8 )
	{
		for( i=usTop; i<=usBottom; i++)
 c005590:	e15b30be 	ldrh	r3, [fp, #-14]
 c005594:	e2833001 	add	r3, r3, #1
 c005598:	e14b30be 	strh	r3, [fp, #-14]
 c00559c:	e15b20fe 	ldrsh	r2, [fp, #-14]
 c0055a0:	e15b32f4 	ldrsh	r3, [fp, #-36]	; 0xffffffdc
 c0055a4:	e1520003 	cmp	r2, r3
 c0055a8:	daffffa3 	ble	c00543c <LcdClrRect+0xbc>
			for( m=usLeft; m<=usRight; m++)
			{
				(LCD_PutPixel(m, i, ucColor));
			}
		}	
		return;
 c0055ac:	ea000104 	b	c0059c4 <LcdClrRect+0x644>
	}

	/* check borderline */
	if( 0 == (usLeft%8) )
 c0055b0:	e15b31be 	ldrh	r3, [fp, #-30]	; 0xffffffe2
 c0055b4:	e2033007 	and	r3, r3, #7
 c0055b8:	e1a03803 	lsl	r3, r3, #16
 c0055bc:	e1a03823 	lsr	r3, r3, #16
 c0055c0:	e3530000 	cmp	r3, #0
 c0055c4:	1a000002 	bne	c0055d4 <LcdClrRect+0x254>
		k=usLeft;
 c0055c8:	e15b31be 	ldrh	r3, [fp, #-30]	; 0xffffffe2
 c0055cc:	e14b31b0 	strh	r3, [fp, #-16]
 c0055d0:	ea00000f 	b	c005614 <LcdClrRect+0x294>
	else
	{
		k=(usLeft/8)*8+8;
 c0055d4:	e15b31fe 	ldrsh	r3, [fp, #-30]	; 0xffffffe2
 c0055d8:	e2832007 	add	r2, r3, #7
 c0055dc:	e3530000 	cmp	r3, #0
 c0055e0:	b1a03002 	movlt	r3, r2
 c0055e4:	e1a031c3 	asr	r3, r3, #3
 c0055e8:	e1a03803 	lsl	r3, r3, #16
 c0055ec:	e1a03823 	lsr	r3, r3, #16
 c0055f0:	e1a03803 	lsl	r3, r3, #16
 c0055f4:	e1a03843 	asr	r3, r3, #16
 c0055f8:	e2833001 	add	r3, r3, #1
 c0055fc:	e1a03803 	lsl	r3, r3, #16
 c005600:	e1a03823 	lsr	r3, r3, #16
 c005604:	e1a03183 	lsl	r3, r3, #3
 c005608:	e1a03803 	lsl	r3, r3, #16
 c00560c:	e1a03823 	lsr	r3, r3, #16
 c005610:	e14b31b0 	strh	r3, [fp, #-16]
	}
	if( 0 == (usRight%8) )
 c005614:	e15b32b2 	ldrh	r3, [fp, #-34]	; 0xffffffde
 c005618:	e2033007 	and	r3, r3, #7
 c00561c:	e1a03803 	lsl	r3, r3, #16
 c005620:	e1a03823 	lsr	r3, r3, #16
 c005624:	e3530000 	cmp	r3, #0
 c005628:	1a000002 	bne	c005638 <LcdClrRect+0x2b8>
		l= usRight;
 c00562c:	e15b32b2 	ldrh	r3, [fp, #-34]	; 0xffffffde
 c005630:	e14b31b2 	strh	r3, [fp, #-18]	; 0xffffffee
 c005634:	ea00000c 	b	c00566c <LcdClrRect+0x2ec>
	else
	{
		l=(usRight/8)*8;
 c005638:	e15b32f2 	ldrsh	r3, [fp, #-34]	; 0xffffffde
 c00563c:	e2832007 	add	r2, r3, #7
 c005640:	e3530000 	cmp	r3, #0
 c005644:	b1a03002 	movlt	r3, r2
 c005648:	e1a031c3 	asr	r3, r3, #3
 c00564c:	e1a03803 	lsl	r3, r3, #16
 c005650:	e1a03823 	lsr	r3, r3, #16
 c005654:	e1a03803 	lsl	r3, r3, #16
 c005658:	e1a03823 	lsr	r3, r3, #16
 c00565c:	e1a03183 	lsl	r3, r3, #3
 c005660:	e1a03803 	lsl	r3, r3, #16
 c005664:	e1a03823 	lsr	r3, r3, #16
 c005668:	e14b31b2 	strh	r3, [fp, #-18]	; 0xffffffee
	}

	for( i=usTop; i<=usBottom; i++ )
 c00566c:	e15b32b0 	ldrh	r3, [fp, #-32]	; 0xffffffe0
 c005670:	e14b30be 	strh	r3, [fp, #-14]
 c005674:	ea0000ce 	b	c0059b4 <LcdClrRect+0x634>
	{
		for( m=usLeft; m<=(k-1); m++ )
 c005678:	e15b31be 	ldrh	r3, [fp, #-30]	; 0xffffffe2
 c00567c:	e14b31b4 	strh	r3, [fp, #-20]	; 0xffffffec
 c005680:	ea00004d 	b	c0057bc <LcdClrRect+0x43c>
		{
			(LCD_PutPixel(m, i, ucColor));
 c005684:	e15b20fe 	ldrsh	r2, [fp, #-14]
 c005688:	e1a03002 	mov	r3, r2
 c00568c:	e1a03103 	lsl	r3, r3, #2
 c005690:	e0833002 	add	r3, r3, r2
 c005694:	e1a03303 	lsl	r3, r3, #6
 c005698:	e1a02fa3 	lsr	r2, r3, #31
 c00569c:	e0823003 	add	r3, r2, r3
 c0056a0:	e1a030c3 	asr	r3, r3, #1
 c0056a4:	e28326c3 	add	r2, r3, #204472320	; 0xc300000
 c0056a8:	e2822c96 	add	r2, r2, #38400	; 0x9600
 c0056ac:	e15b31f4 	ldrsh	r3, [fp, #-20]	; 0xffffffec
 c0056b0:	e2831007 	add	r1, r3, #7
 c0056b4:	e3530000 	cmp	r3, #0
 c0056b8:	b1a03001 	movlt	r3, r1
 c0056bc:	e1a031c3 	asr	r3, r3, #3
 c0056c0:	e1a03803 	lsl	r3, r3, #16
 c0056c4:	e1a03823 	lsr	r3, r3, #16
 c0056c8:	e1a03803 	lsl	r3, r3, #16
 c0056cc:	e1a03843 	asr	r3, r3, #16
 c0056d0:	e1a03103 	lsl	r3, r3, #2
 c0056d4:	e0823003 	add	r3, r2, r3
 c0056d8:	e1a01003 	mov	r1, r3
 c0056dc:	e15b20fe 	ldrsh	r2, [fp, #-14]
 c0056e0:	e1a03002 	mov	r3, r2
 c0056e4:	e1a03103 	lsl	r3, r3, #2
 c0056e8:	e0833002 	add	r3, r3, r2
 c0056ec:	e1a03303 	lsl	r3, r3, #6
 c0056f0:	e1a02fa3 	lsr	r2, r3, #31
 c0056f4:	e0823003 	add	r3, r2, r3
 c0056f8:	e1a030c3 	asr	r3, r3, #1
 c0056fc:	e28326c3 	add	r2, r3, #204472320	; 0xc300000
 c005700:	e2822c96 	add	r2, r2, #38400	; 0x9600
 c005704:	e15b31f4 	ldrsh	r3, [fp, #-20]	; 0xffffffec
 c005708:	e2830007 	add	r0, r3, #7
 c00570c:	e3530000 	cmp	r3, #0
 c005710:	b1a03000 	movlt	r3, r0
 c005714:	e1a031c3 	asr	r3, r3, #3
 c005718:	e1a03803 	lsl	r3, r3, #16
 c00571c:	e1a03823 	lsr	r3, r3, #16
 c005720:	e1a03803 	lsl	r3, r3, #16
 c005724:	e1a03843 	asr	r3, r3, #16
 c005728:	e1a03103 	lsl	r3, r3, #2
 c00572c:	e0823003 	add	r3, r2, r3
 c005730:	e5930000 	ldr	r0, [r3]
 c005734:	e15b21f4 	ldrsh	r2, [fp, #-20]	; 0xffffffec
 c005738:	e1a03fc2 	asr	r3, r2, #31
 c00573c:	e1a03ea3 	lsr	r3, r3, #29
 c005740:	e0822003 	add	r2, r2, r3
 c005744:	e2022007 	and	r2, r2, #7
 c005748:	e0633002 	rsb	r3, r3, r2
 c00574c:	e1a03803 	lsl	r3, r3, #16
 c005750:	e1a03823 	lsr	r3, r3, #16
 c005754:	e1a03803 	lsl	r3, r3, #16
 c005758:	e1a03843 	asr	r3, r3, #16
 c00575c:	e1a03103 	lsl	r3, r3, #2
 c005760:	e3a0220f 	mov	r2, #-268435456	; 0xf0000000
 c005764:	e1a03332 	lsr	r3, r2, r3
 c005768:	e1e03003 	mvn	r3, r3
 c00576c:	e0000003 	and	r0, r0, r3
 c005770:	e5dbc004 	ldrb	ip, [fp, #4]
 c005774:	e15b21f4 	ldrsh	r2, [fp, #-20]	; 0xffffffec
 c005778:	e1a03fc2 	asr	r3, r2, #31
 c00577c:	e1a03ea3 	lsr	r3, r3, #29
 c005780:	e0822003 	add	r2, r2, r3
 c005784:	e2022007 	and	r2, r2, #7
 c005788:	e0633002 	rsb	r3, r3, r2
 c00578c:	e1a03803 	lsl	r3, r3, #16
 c005790:	e1a03823 	lsr	r3, r3, #16
 c005794:	e1a03803 	lsl	r3, r3, #16
 c005798:	e1a03843 	asr	r3, r3, #16
 c00579c:	e2633007 	rsb	r3, r3, #7
 c0057a0:	e1a03103 	lsl	r3, r3, #2
 c0057a4:	e1a0331c 	lsl	r3, ip, r3
 c0057a8:	e1803003 	orr	r3, r0, r3
 c0057ac:	e5813000 	str	r3, [r1]
		l=(usRight/8)*8;
	}

	for( i=usTop; i<=usBottom; i++ )
	{
		for( m=usLeft; m<=(k-1); m++ )
 c0057b0:	e15b31b4 	ldrh	r3, [fp, #-20]	; 0xffffffec
 c0057b4:	e2833001 	add	r3, r3, #1
 c0057b8:	e14b31b4 	strh	r3, [fp, #-20]	; 0xffffffec
 c0057bc:	e15b21f4 	ldrsh	r2, [fp, #-20]	; 0xffffffec
 c0057c0:	e15b31f0 	ldrsh	r3, [fp, #-16]
 c0057c4:	e2433001 	sub	r3, r3, #1
 c0057c8:	e1520003 	cmp	r2, r3
 c0057cc:	daffffac 	ble	c005684 <LcdClrRect+0x304>
		{
			(LCD_PutPixel(m, i, ucColor));
		}
		for( m=k; m<l; m+=8 )
 c0057d0:	e15b31b0 	ldrh	r3, [fp, #-16]
 c0057d4:	e14b31b4 	strh	r3, [fp, #-20]	; 0xffffffec
 c0057d8:	ea000019 	b	c005844 <LcdClrRect+0x4c4>
		{
			(*(INT32U*)(LCD_VIRTUAL_BUFFER + i * SCR_XSIZE / 2 + m / 2)) = ulColor;
 c0057dc:	e15b20fe 	ldrsh	r2, [fp, #-14]
 c0057e0:	e1a03002 	mov	r3, r2
 c0057e4:	e1a03103 	lsl	r3, r3, #2
 c0057e8:	e0833002 	add	r3, r3, r2
 c0057ec:	e1a03303 	lsl	r3, r3, #6
 c0057f0:	e1a02fa3 	lsr	r2, r3, #31
 c0057f4:	e0823003 	add	r3, r2, r3
 c0057f8:	e1a030c3 	asr	r3, r3, #1
 c0057fc:	e28336c3 	add	r3, r3, #204472320	; 0xc300000
 c005800:	e2833c96 	add	r3, r3, #38400	; 0x9600
 c005804:	e15b21f4 	ldrsh	r2, [fp, #-20]	; 0xffffffec
 c005808:	e1a01fa2 	lsr	r1, r2, #31
 c00580c:	e0812002 	add	r2, r1, r2
 c005810:	e1a020c2 	asr	r2, r2, #1
 c005814:	e1a02802 	lsl	r2, r2, #16
 c005818:	e1a02822 	lsr	r2, r2, #16
 c00581c:	e1a02802 	lsl	r2, r2, #16
 c005820:	e1a02842 	asr	r2, r2, #16
 c005824:	e0833002 	add	r3, r3, r2
 c005828:	e51b2018 	ldr	r2, [fp, #-24]	; 0xffffffe8
 c00582c:	e5832000 	str	r2, [r3]
	{
		for( m=usLeft; m<=(k-1); m++ )
		{
			(LCD_PutPixel(m, i, ucColor));
		}
		for( m=k; m<l; m+=8 )
 c005830:	e15b31b4 	ldrh	r3, [fp, #-20]	; 0xffffffec
 c005834:	e2833008 	add	r3, r3, #8
 c005838:	e1a03803 	lsl	r3, r3, #16
 c00583c:	e1a03823 	lsr	r3, r3, #16
 c005840:	e14b31b4 	strh	r3, [fp, #-20]	; 0xffffffec
 c005844:	e15b21f4 	ldrsh	r2, [fp, #-20]	; 0xffffffec
 c005848:	e15b31f2 	ldrsh	r3, [fp, #-18]	; 0xffffffee
 c00584c:	e1520003 	cmp	r2, r3
 c005850:	baffffe1 	blt	c0057dc <LcdClrRect+0x45c>
		{
			(*(INT32U*)(LCD_VIRTUAL_BUFFER + i * SCR_XSIZE / 2 + m / 2)) = ulColor;
		}
		for( m=l; m<=usRight; m++ )
 c005854:	e15b31b2 	ldrh	r3, [fp, #-18]	; 0xffffffee
 c005858:	e14b31b4 	strh	r3, [fp, #-20]	; 0xffffffec
 c00585c:	ea00004d 	b	c005998 <LcdClrRect+0x618>
		{
			(LCD_PutPixel(m, i, ucColor));
 c005860:	e15b20fe 	ldrsh	r2, [fp, #-14]
 c005864:	e1a03002 	mov	r3, r2
 c005868:	e1a03103 	lsl	r3, r3, #2
 c00586c:	e0833002 	add	r3, r3, r2
 c005870:	e1a03303 	lsl	r3, r3, #6
 c005874:	e1a02fa3 	lsr	r2, r3, #31
 c005878:	e0823003 	add	r3, r2, r3
 c00587c:	e1a030c3 	asr	r3, r3, #1
 c005880:	e28326c3 	add	r2, r3, #204472320	; 0xc300000
 c005884:	e2822c96 	add	r2, r2, #38400	; 0x9600
 c005888:	e15b31f4 	ldrsh	r3, [fp, #-20]	; 0xffffffec
 c00588c:	e2831007 	add	r1, r3, #7
 c005890:	e3530000 	cmp	r3, #0
 c005894:	b1a03001 	movlt	r3, r1
 c005898:	e1a031c3 	asr	r3, r3, #3
 c00589c:	e1a03803 	lsl	r3, r3, #16
 c0058a0:	e1a03823 	lsr	r3, r3, #16
 c0058a4:	e1a03803 	lsl	r3, r3, #16
 c0058a8:	e1a03843 	asr	r3, r3, #16
 c0058ac:	e1a03103 	lsl	r3, r3, #2
 c0058b0:	e0823003 	add	r3, r2, r3
 c0058b4:	e1a01003 	mov	r1, r3
 c0058b8:	e15b20fe 	ldrsh	r2, [fp, #-14]
 c0058bc:	e1a03002 	mov	r3, r2
 c0058c0:	e1a03103 	lsl	r3, r3, #2
 c0058c4:	e0833002 	add	r3, r3, r2
 c0058c8:	e1a03303 	lsl	r3, r3, #6
 c0058cc:	e1a02fa3 	lsr	r2, r3, #31
 c0058d0:	e0823003 	add	r3, r2, r3
 c0058d4:	e1a030c3 	asr	r3, r3, #1
 c0058d8:	e28326c3 	add	r2, r3, #204472320	; 0xc300000
 c0058dc:	e2822c96 	add	r2, r2, #38400	; 0x9600
 c0058e0:	e15b31f4 	ldrsh	r3, [fp, #-20]	; 0xffffffec
 c0058e4:	e2830007 	add	r0, r3, #7
 c0058e8:	e3530000 	cmp	r3, #0
 c0058ec:	b1a03000 	movlt	r3, r0
 c0058f0:	e1a031c3 	asr	r3, r3, #3
 c0058f4:	e1a03803 	lsl	r3, r3, #16
 c0058f8:	e1a03823 	lsr	r3, r3, #16
 c0058fc:	e1a03803 	lsl	r3, r3, #16
 c005900:	e1a03843 	asr	r3, r3, #16
 c005904:	e1a03103 	lsl	r3, r3, #2
 c005908:	e0823003 	add	r3, r2, r3
 c00590c:	e5930000 	ldr	r0, [r3]
 c005910:	e15b21f4 	ldrsh	r2, [fp, #-20]	; 0xffffffec
 c005914:	e1a03fc2 	asr	r3, r2, #31
 c005918:	e1a03ea3 	lsr	r3, r3, #29
 c00591c:	e0822003 	add	r2, r2, r3
 c005920:	e2022007 	and	r2, r2, #7
 c005924:	e0633002 	rsb	r3, r3, r2
 c005928:	e1a03803 	lsl	r3, r3, #16
 c00592c:	e1a03823 	lsr	r3, r3, #16
 c005930:	e1a03803 	lsl	r3, r3, #16
 c005934:	e1a03843 	asr	r3, r3, #16
 c005938:	e1a03103 	lsl	r3, r3, #2
 c00593c:	e3a0220f 	mov	r2, #-268435456	; 0xf0000000
 c005940:	e1a03332 	lsr	r3, r2, r3
 c005944:	e1e03003 	mvn	r3, r3
 c005948:	e0000003 	and	r0, r0, r3
 c00594c:	e5dbc004 	ldrb	ip, [fp, #4]
 c005950:	e15b21f4 	ldrsh	r2, [fp, #-20]	; 0xffffffec
 c005954:	e1a03fc2 	asr	r3, r2, #31
 c005958:	e1a03ea3 	lsr	r3, r3, #29
 c00595c:	e0822003 	add	r2, r2, r3
 c005960:	e2022007 	and	r2, r2, #7
 c005964:	e0633002 	rsb	r3, r3, r2
 c005968:	e1a03803 	lsl	r3, r3, #16
 c00596c:	e1a03823 	lsr	r3, r3, #16
 c005970:	e1a03803 	lsl	r3, r3, #16
 c005974:	e1a03843 	asr	r3, r3, #16
 c005978:	e2633007 	rsb	r3, r3, #7
 c00597c:	e1a03103 	lsl	r3, r3, #2
 c005980:	e1a0331c 	lsl	r3, ip, r3
 c005984:	e1803003 	orr	r3, r0, r3
 c005988:	e5813000 	str	r3, [r1]
		}
		for( m=k; m<l; m+=8 )
		{
			(*(INT32U*)(LCD_VIRTUAL_BUFFER + i * SCR_XSIZE / 2 + m / 2)) = ulColor;
		}
		for( m=l; m<=usRight; m++ )
 c00598c:	e15b31b4 	ldrh	r3, [fp, #-20]	; 0xffffffec
 c005990:	e2833001 	add	r3, r3, #1
 c005994:	e14b31b4 	strh	r3, [fp, #-20]	; 0xffffffec
 c005998:	e15b21f4 	ldrsh	r2, [fp, #-20]	; 0xffffffec
 c00599c:	e15b32f2 	ldrsh	r3, [fp, #-34]	; 0xffffffde
 c0059a0:	e1520003 	cmp	r2, r3
 c0059a4:	daffffad 	ble	c005860 <LcdClrRect+0x4e0>
	else
	{
		l=(usRight/8)*8;
	}

	for( i=usTop; i<=usBottom; i++ )
 c0059a8:	e15b30be 	ldrh	r3, [fp, #-14]
 c0059ac:	e2833001 	add	r3, r3, #1
 c0059b0:	e14b30be 	strh	r3, [fp, #-14]
 c0059b4:	e15b20fe 	ldrsh	r2, [fp, #-14]
 c0059b8:	e15b32f4 	ldrsh	r3, [fp, #-36]	; 0xffffffdc
 c0059bc:	e1520003 	cmp	r2, r3
 c0059c0:	daffff2c 	ble	c005678 <LcdClrRect+0x2f8>
		for( m=l; m<=usRight; m++ )
		{
			(LCD_PutPixel(m, i, ucColor));
		}
	}
}
 c0059c4:	e24bd00c 	sub	sp, fp, #12
 c0059c8:	e89d6800 	ldm	sp, {fp, sp, lr}
 c0059cc:	e12fff1e 	bx	lr

0c0059d0 <Lcd_Draw_Box>:
* ret:		none
* modify:
* comment:		
*********************************************************************************************/
void Lcd_Draw_Box(INT16 usLeft, INT16 usTop, INT16 usRight, INT16 usBottom, INT8U ucColor)
{
 c0059d0:	e1a0c00d 	mov	ip, sp
 c0059d4:	e92dd800 	push	{fp, ip, lr, pc}
 c0059d8:	e24cb004 	sub	fp, ip, #4
 c0059dc:	e24dd010 	sub	sp, sp, #16
 c0059e0:	e14b00be 	strh	r0, [fp, #-14]
 c0059e4:	e14b11b0 	strh	r1, [fp, #-16]
 c0059e8:	e14b21b2 	strh	r2, [fp, #-18]	; 0xffffffee
 c0059ec:	e14b31b4 	strh	r3, [fp, #-20]	; 0xffffffec
	Lcd_Draw_HLine(usLeft, usRight,  usTop,    ucColor, 1);
 c0059f0:	e15b00fe 	ldrsh	r0, [fp, #-14]
 c0059f4:	e15b11f2 	ldrsh	r1, [fp, #-18]	; 0xffffffee
 c0059f8:	e15b21f0 	ldrsh	r2, [fp, #-16]
 c0059fc:	e5db3004 	ldrb	r3, [fp, #4]
 c005a00:	e3a0c001 	mov	ip, #1
 c005a04:	e58dc000 	str	ip, [sp]
 c005a08:	eb00026d 	bl	c0063c4 <Lcd_Draw_HLine>
	Lcd_Draw_HLine(usLeft, usRight,  usBottom, ucColor, 1);
 c005a0c:	e15b00fe 	ldrsh	r0, [fp, #-14]
 c005a10:	e15b11f2 	ldrsh	r1, [fp, #-18]	; 0xffffffee
 c005a14:	e15b21f4 	ldrsh	r2, [fp, #-20]	; 0xffffffec
 c005a18:	e5db3004 	ldrb	r3, [fp, #4]
 c005a1c:	e3a0c001 	mov	ip, #1
 c005a20:	e58dc000 	str	ip, [sp]
 c005a24:	eb000266 	bl	c0063c4 <Lcd_Draw_HLine>
	Lcd_Draw_VLine(usTop,  usBottom, usLeft,   ucColor, 1);
 c005a28:	e15b01f0 	ldrsh	r0, [fp, #-16]
 c005a2c:	e15b11f4 	ldrsh	r1, [fp, #-20]	; 0xffffffec
 c005a30:	e15b20fe 	ldrsh	r2, [fp, #-14]
 c005a34:	e5db3004 	ldrb	r3, [fp, #4]
 c005a38:	e3a0c001 	mov	ip, #1
 c005a3c:	e58dc000 	str	ip, [sp]
 c005a40:	eb0002e1 	bl	c0065cc <Lcd_Draw_VLine>
	Lcd_Draw_VLine(usTop,  usBottom, usRight,  ucColor, 1);
 c005a44:	e15b01f0 	ldrsh	r0, [fp, #-16]
 c005a48:	e15b11f4 	ldrsh	r1, [fp, #-20]	; 0xffffffec
 c005a4c:	e15b21f2 	ldrsh	r2, [fp, #-18]	; 0xffffffee
 c005a50:	e5db3004 	ldrb	r3, [fp, #4]
 c005a54:	e3a0c001 	mov	ip, #1
 c005a58:	e58dc000 	str	ip, [sp]
 c005a5c:	eb0002da 	bl	c0065cc <Lcd_Draw_VLine>
}
 c005a60:	e24bd00c 	sub	sp, fp, #12
 c005a64:	e89d6800 	ldm	sp, {fp, sp, lr}
 c005a68:	e12fff1e 	bx	lr

0c005a6c <Lcd_Draw_Line>:
* ret:		none
* modify:
* comment:		
*********************************************************************************************/
void Lcd_Draw_Line(INT16 usX0, INT16 usY0, INT16 usX1, INT16 usY1, INT8U ucColor, INT16U usWidth)
{
 c005a6c:	e1a0c00d 	mov	ip, sp
 c005a70:	e92dd800 	push	{fp, ip, lr, pc}
 c005a74:	e24cb004 	sub	fp, ip, #4
 c005a78:	e24dd028 	sub	sp, sp, #40	; 0x28
 c005a7c:	e14b02b6 	strh	r0, [fp, #-38]	; 0xffffffda
 c005a80:	e14b12b8 	strh	r1, [fp, #-40]	; 0xffffffd8
 c005a84:	e14b22ba 	strh	r2, [fp, #-42]	; 0xffffffd6
 c005a88:	e14b32bc 	strh	r3, [fp, #-44]	; 0xffffffd4
	INT16 y_sign;
	INT16 x_sign;
	INT16 decision;
	INT16 wCurx, wCury, wNextx, wNexty, wpy, wpx;

	if( usY0 == usY1 )
 c005a8c:	e15b22f8 	ldrsh	r2, [fp, #-40]	; 0xffffffd8
 c005a90:	e15b32fc 	ldrsh	r3, [fp, #-44]	; 0xffffffd4
 c005a94:	e1520003 	cmp	r2, r3
 c005a98:	1a000007 	bne	c005abc <Lcd_Draw_Line+0x50>
	{
		Lcd_Draw_HLine (usX0, usX1, usY0, ucColor, usWidth);
 c005a9c:	e15b02f6 	ldrsh	r0, [fp, #-38]	; 0xffffffda
 c005aa0:	e15b12fa 	ldrsh	r1, [fp, #-42]	; 0xffffffd6
 c005aa4:	e15b22f8 	ldrsh	r2, [fp, #-40]	; 0xffffffd8
 c005aa8:	e5db3004 	ldrb	r3, [fp, #4]
 c005aac:	e1dbc0b8 	ldrh	ip, [fp, #8]
 c005ab0:	e58dc000 	str	ip, [sp]
 c005ab4:	eb000242 	bl	c0063c4 <Lcd_Draw_HLine>
		return;
 c005ab8:	ea00023e 	b	c0063b8 <Lcd_Draw_Line+0x94c>
	}
	if( usX0 == usX1 )
 c005abc:	e15b22f6 	ldrsh	r2, [fp, #-38]	; 0xffffffda
 c005ac0:	e15b32fa 	ldrsh	r3, [fp, #-42]	; 0xffffffd6
 c005ac4:	e1520003 	cmp	r2, r3
 c005ac8:	1a000007 	bne	c005aec <Lcd_Draw_Line+0x80>
	{
		Lcd_Draw_VLine (usY0, usY1, usX0, ucColor, usWidth);
 c005acc:	e15b02f8 	ldrsh	r0, [fp, #-40]	; 0xffffffd8
 c005ad0:	e15b12fc 	ldrsh	r1, [fp, #-44]	; 0xffffffd4
 c005ad4:	e15b22f6 	ldrsh	r2, [fp, #-38]	; 0xffffffda
 c005ad8:	e5db3004 	ldrb	r3, [fp, #4]
 c005adc:	e1dbc0b8 	ldrh	ip, [fp, #8]
 c005ae0:	e58dc000 	str	ip, [sp]
 c005ae4:	eb0002b8 	bl	c0065cc <Lcd_Draw_VLine>
		return;
 c005ae8:	ea000232 	b	c0063b8 <Lcd_Draw_Line+0x94c>
	}
	usDx = abs(usX0 - usX1);
 c005aec:	e15b22f6 	ldrsh	r2, [fp, #-38]	; 0xffffffda
 c005af0:	e15b32fa 	ldrsh	r3, [fp, #-42]	; 0xffffffd6
 c005af4:	e0633002 	rsb	r3, r3, r2
 c005af8:	e3530000 	cmp	r3, #0
 c005afc:	b2633000 	rsblt	r3, r3, #0
 c005b00:	e14b31bc 	strh	r3, [fp, #-28]	; 0xffffffe4
	usDy = abs(usY0 - usY1);
 c005b04:	e15b22f8 	ldrsh	r2, [fp, #-40]	; 0xffffffd8
 c005b08:	e15b32fc 	ldrsh	r3, [fp, #-44]	; 0xffffffd4
 c005b0c:	e0633002 	rsb	r3, r3, r2
 c005b10:	e3530000 	cmp	r3, #0
 c005b14:	b2633000 	rsblt	r3, r3, #0
 c005b18:	e14b31be 	strh	r3, [fp, #-30]	; 0xffffffe2
	if( ((usDx >= usDy && (usX0 > usX1)) ||
 c005b1c:	e15b21fc 	ldrsh	r2, [fp, #-28]	; 0xffffffe4
 c005b20:	e15b31fe 	ldrsh	r3, [fp, #-30]	; 0xffffffe2
 c005b24:	e1520003 	cmp	r2, r3
 c005b28:	ba000003 	blt	c005b3c <Lcd_Draw_Line+0xd0>
 c005b2c:	e15b22f6 	ldrsh	r2, [fp, #-38]	; 0xffffffda
 c005b30:	e15b32fa 	ldrsh	r3, [fp, #-42]	; 0xffffffd6
 c005b34:	e1520003 	cmp	r2, r3
 c005b38:	ca000007 	bgt	c005b5c <Lcd_Draw_Line+0xf0>
 c005b3c:	e15b21fe 	ldrsh	r2, [fp, #-30]	; 0xffffffe2
 c005b40:	e15b31fc 	ldrsh	r3, [fp, #-28]	; 0xffffffe4
 c005b44:	e1520003 	cmp	r2, r3
 c005b48:	da00001b 	ble	c005bbc <Lcd_Draw_Line+0x150>
        ((usDy > usDx) && (usY0 > usY1))) )
 c005b4c:	e15b22f8 	ldrsh	r2, [fp, #-40]	; 0xffffffd8
 c005b50:	e15b32fc 	ldrsh	r3, [fp, #-44]	; 0xffffffd4
 c005b54:	e1520003 	cmp	r2, r3
 c005b58:	da000017 	ble	c005bbc <Lcd_Draw_Line+0x150>
    {
        GUISWAP(usX1, usX0);
 c005b5c:	e15b22ba 	ldrh	r2, [fp, #-42]	; 0xffffffd6
 c005b60:	e15b32b6 	ldrh	r3, [fp, #-38]	; 0xffffffda
 c005b64:	e0223003 	eor	r3, r2, r3
 c005b68:	e14b32ba 	strh	r3, [fp, #-42]	; 0xffffffd6
 c005b6c:	e15b22b6 	ldrh	r2, [fp, #-38]	; 0xffffffda
 c005b70:	e15b32ba 	ldrh	r3, [fp, #-42]	; 0xffffffd6
 c005b74:	e0223003 	eor	r3, r2, r3
 c005b78:	e14b32b6 	strh	r3, [fp, #-38]	; 0xffffffda
 c005b7c:	e15b22ba 	ldrh	r2, [fp, #-42]	; 0xffffffd6
 c005b80:	e15b32b6 	ldrh	r3, [fp, #-38]	; 0xffffffda
 c005b84:	e0223003 	eor	r3, r2, r3
 c005b88:	e14b32ba 	strh	r3, [fp, #-42]	; 0xffffffd6
        GUISWAP(usY1, usY0);
 c005b8c:	e15b22bc 	ldrh	r2, [fp, #-44]	; 0xffffffd4
 c005b90:	e15b32b8 	ldrh	r3, [fp, #-40]	; 0xffffffd8
 c005b94:	e0223003 	eor	r3, r2, r3
 c005b98:	e14b32bc 	strh	r3, [fp, #-44]	; 0xffffffd4
 c005b9c:	e15b22b8 	ldrh	r2, [fp, #-40]	; 0xffffffd8
 c005ba0:	e15b32bc 	ldrh	r3, [fp, #-44]	; 0xffffffd4
 c005ba4:	e0223003 	eor	r3, r2, r3
 c005ba8:	e14b32b8 	strh	r3, [fp, #-40]	; 0xffffffd8
 c005bac:	e15b22bc 	ldrh	r2, [fp, #-44]	; 0xffffffd4
 c005bb0:	e15b32b8 	ldrh	r3, [fp, #-40]	; 0xffffffd8
 c005bb4:	e0223003 	eor	r3, r2, r3
 c005bb8:	e14b32bc 	strh	r3, [fp, #-44]	; 0xffffffd4
    }
    y_sign = (usY1 - usY0) / usDy;
 c005bbc:	e15b22fc 	ldrsh	r2, [fp, #-44]	; 0xffffffd4
 c005bc0:	e15b32f8 	ldrsh	r3, [fp, #-40]	; 0xffffffd8
 c005bc4:	e0632002 	rsb	r2, r3, r2
 c005bc8:	e15b31fe 	ldrsh	r3, [fp, #-30]	; 0xffffffe2
 c005bcc:	e1a00002 	mov	r0, r2
 c005bd0:	e1a01003 	mov	r1, r3
 c005bd4:	eb000f47 	bl	c0098f8 <__aeabi_idiv>
 c005bd8:	e1a03000 	mov	r3, r0
 c005bdc:	e14b32b0 	strh	r3, [fp, #-32]	; 0xffffffe0
    x_sign = (usX1 - usX0) / usDx;
 c005be0:	e15b22fa 	ldrsh	r2, [fp, #-42]	; 0xffffffd6
 c005be4:	e15b32f6 	ldrsh	r3, [fp, #-38]	; 0xffffffda
 c005be8:	e0632002 	rsb	r2, r3, r2
 c005bec:	e15b31fc 	ldrsh	r3, [fp, #-28]	; 0xffffffe4
 c005bf0:	e1a00002 	mov	r0, r2
 c005bf4:	e1a01003 	mov	r1, r3
 c005bf8:	eb000f3e 	bl	c0098f8 <__aeabi_idiv>
 c005bfc:	e1a03000 	mov	r3, r0
 c005c00:	e14b32b2 	strh	r3, [fp, #-34]	; 0xffffffde

    if( usDx >= usDy )
 c005c04:	e15b21fc 	ldrsh	r2, [fp, #-28]	; 0xffffffe4
 c005c08:	e15b31fe 	ldrsh	r3, [fp, #-30]	; 0xffffffe2
 c005c0c:	e1520003 	cmp	r2, r3
 c005c10:	ba0000f4 	blt	c005fe8 <Lcd_Draw_Line+0x57c>
    {
        for( wCurx = usX0, wCury = usY0, wNextx = usX1,
 c005c14:	e15b32b6 	ldrh	r3, [fp, #-38]	; 0xffffffda
 c005c18:	e14b31b0 	strh	r3, [fp, #-16]
 c005c1c:	e15b32b8 	ldrh	r3, [fp, #-40]	; 0xffffffd8
 c005c20:	e14b31b2 	strh	r3, [fp, #-18]	; 0xffffffee
 c005c24:	e15b32ba 	ldrh	r3, [fp, #-42]	; 0xffffffd6
 c005c28:	e14b31b4 	strh	r3, [fp, #-20]	; 0xffffffec
             wNexty = usY1, decision = (usDx >> 1);
 c005c2c:	e15b32bc 	ldrh	r3, [fp, #-44]	; 0xffffffd4
 c005c30:	e14b31b6 	strh	r3, [fp, #-22]	; 0xffffffea
 c005c34:	e15b31fc 	ldrsh	r3, [fp, #-28]	; 0xffffffe4
 c005c38:	e1a030c3 	asr	r3, r3, #1
 c005c3c:	e14b30be 	strh	r3, [fp, #-14]
    y_sign = (usY1 - usY0) / usDy;
    x_sign = (usX1 - usX0) / usDx;

    if( usDx >= usDy )
    {
        for( wCurx = usX0, wCury = usY0, wNextx = usX1,
 c005c40:	ea0000e3 	b	c005fd4 <Lcd_Draw_Line+0x568>
             wNexty = usY1, decision = (usDx >> 1);
             wCurx <= wNextx; wCurx++, wNextx--, decision += usDy )
        {
            if( decision >= usDx )
 c005c44:	e15b20fe 	ldrsh	r2, [fp, #-14]
 c005c48:	e15b31fc 	ldrsh	r3, [fp, #-28]	; 0xffffffe4
 c005c4c:	e1520003 	cmp	r2, r3
 c005c50:	ba000011 	blt	c005c9c <Lcd_Draw_Line+0x230>
            {
                decision -= usDx;
 c005c54:	e15b20be 	ldrh	r2, [fp, #-14]
 c005c58:	e15b31bc 	ldrh	r3, [fp, #-28]	; 0xffffffe4
 c005c5c:	e0633002 	rsb	r3, r3, r2
 c005c60:	e1a03803 	lsl	r3, r3, #16
 c005c64:	e1a03823 	lsr	r3, r3, #16
 c005c68:	e14b30be 	strh	r3, [fp, #-14]
                wCury += y_sign;
 c005c6c:	e15b21b2 	ldrh	r2, [fp, #-18]	; 0xffffffee
 c005c70:	e15b32b0 	ldrh	r3, [fp, #-32]	; 0xffffffe0
 c005c74:	e0823003 	add	r3, r2, r3
 c005c78:	e1a03803 	lsl	r3, r3, #16
 c005c7c:	e1a03823 	lsr	r3, r3, #16
 c005c80:	e14b31b2 	strh	r3, [fp, #-18]	; 0xffffffee
                wNexty -= y_sign;
 c005c84:	e15b21b6 	ldrh	r2, [fp, #-22]	; 0xffffffea
 c005c88:	e15b32b0 	ldrh	r3, [fp, #-32]	; 0xffffffe0
 c005c8c:	e0633002 	rsb	r3, r3, r2
 c005c90:	e1a03803 	lsl	r3, r3, #16
 c005c94:	e1a03823 	lsr	r3, r3, #16
 c005c98:	e14b31b6 	strh	r3, [fp, #-22]	; 0xffffffea
            }
            for( wpy = wCury - usWidth / 2;
 c005c9c:	e15b21b2 	ldrh	r2, [fp, #-18]	; 0xffffffee
 c005ca0:	e1db30b8 	ldrh	r3, [fp, #8]
 c005ca4:	e1a030a3 	lsr	r3, r3, #1
 c005ca8:	e1a03803 	lsl	r3, r3, #16
 c005cac:	e1a03823 	lsr	r3, r3, #16
 c005cb0:	e0633002 	rsb	r3, r3, r2
 c005cb4:	e1a03803 	lsl	r3, r3, #16
 c005cb8:	e1a03823 	lsr	r3, r3, #16
 c005cbc:	e14b31b8 	strh	r3, [fp, #-24]	; 0xffffffe8
 c005cc0:	ea00004d 	b	c005dfc <Lcd_Draw_Line+0x390>
                 wpy <= wCury + usWidth / 2; wpy++ )
            {
                (LCD_PutPixel(wCurx, wpy, ucColor));
 c005cc4:	e15b21f8 	ldrsh	r2, [fp, #-24]	; 0xffffffe8
 c005cc8:	e1a03002 	mov	r3, r2
 c005ccc:	e1a03103 	lsl	r3, r3, #2
 c005cd0:	e0833002 	add	r3, r3, r2
 c005cd4:	e1a03303 	lsl	r3, r3, #6
 c005cd8:	e1a02fa3 	lsr	r2, r3, #31
 c005cdc:	e0823003 	add	r3, r2, r3
 c005ce0:	e1a030c3 	asr	r3, r3, #1
 c005ce4:	e28326c3 	add	r2, r3, #204472320	; 0xc300000
 c005ce8:	e2822c96 	add	r2, r2, #38400	; 0x9600
 c005cec:	e15b31f0 	ldrsh	r3, [fp, #-16]
 c005cf0:	e2831007 	add	r1, r3, #7
 c005cf4:	e3530000 	cmp	r3, #0
 c005cf8:	b1a03001 	movlt	r3, r1
 c005cfc:	e1a031c3 	asr	r3, r3, #3
 c005d00:	e1a03803 	lsl	r3, r3, #16
 c005d04:	e1a03823 	lsr	r3, r3, #16
 c005d08:	e1a03803 	lsl	r3, r3, #16
 c005d0c:	e1a03843 	asr	r3, r3, #16
 c005d10:	e1a03103 	lsl	r3, r3, #2
 c005d14:	e0823003 	add	r3, r2, r3
 c005d18:	e1a01003 	mov	r1, r3
 c005d1c:	e15b21f8 	ldrsh	r2, [fp, #-24]	; 0xffffffe8
 c005d20:	e1a03002 	mov	r3, r2
 c005d24:	e1a03103 	lsl	r3, r3, #2
 c005d28:	e0833002 	add	r3, r3, r2
 c005d2c:	e1a03303 	lsl	r3, r3, #6
 c005d30:	e1a02fa3 	lsr	r2, r3, #31
 c005d34:	e0823003 	add	r3, r2, r3
 c005d38:	e1a030c3 	asr	r3, r3, #1
 c005d3c:	e28326c3 	add	r2, r3, #204472320	; 0xc300000
 c005d40:	e2822c96 	add	r2, r2, #38400	; 0x9600
 c005d44:	e15b31f0 	ldrsh	r3, [fp, #-16]
 c005d48:	e2830007 	add	r0, r3, #7
 c005d4c:	e3530000 	cmp	r3, #0
 c005d50:	b1a03000 	movlt	r3, r0
 c005d54:	e1a031c3 	asr	r3, r3, #3
 c005d58:	e1a03803 	lsl	r3, r3, #16
 c005d5c:	e1a03823 	lsr	r3, r3, #16
 c005d60:	e1a03803 	lsl	r3, r3, #16
 c005d64:	e1a03843 	asr	r3, r3, #16
 c005d68:	e1a03103 	lsl	r3, r3, #2
 c005d6c:	e0823003 	add	r3, r2, r3
 c005d70:	e5930000 	ldr	r0, [r3]
 c005d74:	e15b21f0 	ldrsh	r2, [fp, #-16]
 c005d78:	e1a03fc2 	asr	r3, r2, #31
 c005d7c:	e1a03ea3 	lsr	r3, r3, #29
 c005d80:	e0822003 	add	r2, r2, r3
 c005d84:	e2022007 	and	r2, r2, #7
 c005d88:	e0633002 	rsb	r3, r3, r2
 c005d8c:	e1a03803 	lsl	r3, r3, #16
 c005d90:	e1a03823 	lsr	r3, r3, #16
 c005d94:	e1a03803 	lsl	r3, r3, #16
 c005d98:	e1a03843 	asr	r3, r3, #16
 c005d9c:	e1a03103 	lsl	r3, r3, #2
 c005da0:	e3a0220f 	mov	r2, #-268435456	; 0xf0000000
 c005da4:	e1a03332 	lsr	r3, r2, r3
 c005da8:	e1e03003 	mvn	r3, r3
 c005dac:	e0000003 	and	r0, r0, r3
 c005db0:	e5dbc004 	ldrb	ip, [fp, #4]
 c005db4:	e15b21f0 	ldrsh	r2, [fp, #-16]
 c005db8:	e1a03fc2 	asr	r3, r2, #31
 c005dbc:	e1a03ea3 	lsr	r3, r3, #29
 c005dc0:	e0822003 	add	r2, r2, r3
 c005dc4:	e2022007 	and	r2, r2, #7
 c005dc8:	e0633002 	rsb	r3, r3, r2
 c005dcc:	e1a03803 	lsl	r3, r3, #16
 c005dd0:	e1a03823 	lsr	r3, r3, #16
 c005dd4:	e1a03803 	lsl	r3, r3, #16
 c005dd8:	e1a03843 	asr	r3, r3, #16
 c005ddc:	e2633007 	rsb	r3, r3, #7
 c005de0:	e1a03103 	lsl	r3, r3, #2
 c005de4:	e1a0331c 	lsl	r3, ip, r3
 c005de8:	e1803003 	orr	r3, r0, r3
 c005dec:	e5813000 	str	r3, [r1]
                decision -= usDx;
                wCury += y_sign;
                wNexty -= y_sign;
            }
            for( wpy = wCury - usWidth / 2;
                 wpy <= wCury + usWidth / 2; wpy++ )
 c005df0:	e15b31b8 	ldrh	r3, [fp, #-24]	; 0xffffffe8
 c005df4:	e2833001 	add	r3, r3, #1
 c005df8:	e14b31b8 	strh	r3, [fp, #-24]	; 0xffffffe8
 c005dfc:	e15b21f8 	ldrsh	r2, [fp, #-24]	; 0xffffffe8
 c005e00:	e15b11f2 	ldrsh	r1, [fp, #-18]	; 0xffffffee
 c005e04:	e1db30b8 	ldrh	r3, [fp, #8]
 c005e08:	e1a030a3 	lsr	r3, r3, #1
 c005e0c:	e1a03803 	lsl	r3, r3, #16
 c005e10:	e1a03823 	lsr	r3, r3, #16
 c005e14:	e0813003 	add	r3, r1, r3
            {
                decision -= usDx;
                wCury += y_sign;
                wNexty -= y_sign;
            }
            for( wpy = wCury - usWidth / 2;
 c005e18:	e1520003 	cmp	r2, r3
 c005e1c:	daffffa8 	ble	c005cc4 <Lcd_Draw_Line+0x258>
                 wpy <= wCury + usWidth / 2; wpy++ )
            {
                (LCD_PutPixel(wCurx, wpy, ucColor));
            }

            for( wpy = wNexty - usWidth / 2;
 c005e20:	e15b21b6 	ldrh	r2, [fp, #-22]	; 0xffffffea
 c005e24:	e1db30b8 	ldrh	r3, [fp, #8]
 c005e28:	e1a030a3 	lsr	r3, r3, #1
 c005e2c:	e1a03803 	lsl	r3, r3, #16
 c005e30:	e1a03823 	lsr	r3, r3, #16
 c005e34:	e0633002 	rsb	r3, r3, r2
 c005e38:	e1a03803 	lsl	r3, r3, #16
 c005e3c:	e1a03823 	lsr	r3, r3, #16
 c005e40:	e14b31b8 	strh	r3, [fp, #-24]	; 0xffffffe8
 c005e44:	ea00004d 	b	c005f80 <Lcd_Draw_Line+0x514>
                 wpy <= wNexty + usWidth / 2; wpy++ )
            {
                (LCD_PutPixel(wNextx, wpy, ucColor));
 c005e48:	e15b21f8 	ldrsh	r2, [fp, #-24]	; 0xffffffe8
 c005e4c:	e1a03002 	mov	r3, r2
 c005e50:	e1a03103 	lsl	r3, r3, #2
 c005e54:	e0833002 	add	r3, r3, r2
 c005e58:	e1a03303 	lsl	r3, r3, #6
 c005e5c:	e1a02fa3 	lsr	r2, r3, #31
 c005e60:	e0823003 	add	r3, r2, r3
 c005e64:	e1a030c3 	asr	r3, r3, #1
 c005e68:	e28326c3 	add	r2, r3, #204472320	; 0xc300000
 c005e6c:	e2822c96 	add	r2, r2, #38400	; 0x9600
 c005e70:	e15b31f4 	ldrsh	r3, [fp, #-20]	; 0xffffffec
 c005e74:	e2831007 	add	r1, r3, #7
 c005e78:	e3530000 	cmp	r3, #0
 c005e7c:	b1a03001 	movlt	r3, r1
 c005e80:	e1a031c3 	asr	r3, r3, #3
 c005e84:	e1a03803 	lsl	r3, r3, #16
 c005e88:	e1a03823 	lsr	r3, r3, #16
 c005e8c:	e1a03803 	lsl	r3, r3, #16
 c005e90:	e1a03843 	asr	r3, r3, #16
 c005e94:	e1a03103 	lsl	r3, r3, #2
 c005e98:	e0823003 	add	r3, r2, r3
 c005e9c:	e1a01003 	mov	r1, r3
 c005ea0:	e15b21f8 	ldrsh	r2, [fp, #-24]	; 0xffffffe8
 c005ea4:	e1a03002 	mov	r3, r2
 c005ea8:	e1a03103 	lsl	r3, r3, #2
 c005eac:	e0833002 	add	r3, r3, r2
 c005eb0:	e1a03303 	lsl	r3, r3, #6
 c005eb4:	e1a02fa3 	lsr	r2, r3, #31
 c005eb8:	e0823003 	add	r3, r2, r3
 c005ebc:	e1a030c3 	asr	r3, r3, #1
 c005ec0:	e28326c3 	add	r2, r3, #204472320	; 0xc300000
 c005ec4:	e2822c96 	add	r2, r2, #38400	; 0x9600
 c005ec8:	e15b31f4 	ldrsh	r3, [fp, #-20]	; 0xffffffec
 c005ecc:	e2830007 	add	r0, r3, #7
 c005ed0:	e3530000 	cmp	r3, #0
 c005ed4:	b1a03000 	movlt	r3, r0
 c005ed8:	e1a031c3 	asr	r3, r3, #3
 c005edc:	e1a03803 	lsl	r3, r3, #16
 c005ee0:	e1a03823 	lsr	r3, r3, #16
 c005ee4:	e1a03803 	lsl	r3, r3, #16
 c005ee8:	e1a03843 	asr	r3, r3, #16
 c005eec:	e1a03103 	lsl	r3, r3, #2
 c005ef0:	e0823003 	add	r3, r2, r3
 c005ef4:	e5930000 	ldr	r0, [r3]
 c005ef8:	e15b21f4 	ldrsh	r2, [fp, #-20]	; 0xffffffec
 c005efc:	e1a03fc2 	asr	r3, r2, #31
 c005f00:	e1a03ea3 	lsr	r3, r3, #29
 c005f04:	e0822003 	add	r2, r2, r3
 c005f08:	e2022007 	and	r2, r2, #7
 c005f0c:	e0633002 	rsb	r3, r3, r2
 c005f10:	e1a03803 	lsl	r3, r3, #16
 c005f14:	e1a03823 	lsr	r3, r3, #16
 c005f18:	e1a03803 	lsl	r3, r3, #16
 c005f1c:	e1a03843 	asr	r3, r3, #16
 c005f20:	e1a03103 	lsl	r3, r3, #2
 c005f24:	e3a0220f 	mov	r2, #-268435456	; 0xf0000000
 c005f28:	e1a03332 	lsr	r3, r2, r3
 c005f2c:	e1e03003 	mvn	r3, r3
 c005f30:	e0000003 	and	r0, r0, r3
 c005f34:	e5dbc004 	ldrb	ip, [fp, #4]
 c005f38:	e15b21f4 	ldrsh	r2, [fp, #-20]	; 0xffffffec
 c005f3c:	e1a03fc2 	asr	r3, r2, #31
 c005f40:	e1a03ea3 	lsr	r3, r3, #29
 c005f44:	e0822003 	add	r2, r2, r3
 c005f48:	e2022007 	and	r2, r2, #7
 c005f4c:	e0633002 	rsb	r3, r3, r2
 c005f50:	e1a03803 	lsl	r3, r3, #16
 c005f54:	e1a03823 	lsr	r3, r3, #16
 c005f58:	e1a03803 	lsl	r3, r3, #16
 c005f5c:	e1a03843 	asr	r3, r3, #16
 c005f60:	e2633007 	rsb	r3, r3, #7
 c005f64:	e1a03103 	lsl	r3, r3, #2
 c005f68:	e1a0331c 	lsl	r3, ip, r3
 c005f6c:	e1803003 	orr	r3, r0, r3
 c005f70:	e5813000 	str	r3, [r1]
            {
                (LCD_PutPixel(wCurx, wpy, ucColor));
            }

            for( wpy = wNexty - usWidth / 2;
                 wpy <= wNexty + usWidth / 2; wpy++ )
 c005f74:	e15b31b8 	ldrh	r3, [fp, #-24]	; 0xffffffe8
 c005f78:	e2833001 	add	r3, r3, #1
 c005f7c:	e14b31b8 	strh	r3, [fp, #-24]	; 0xffffffe8
 c005f80:	e15b21f8 	ldrsh	r2, [fp, #-24]	; 0xffffffe8
 c005f84:	e15b11f6 	ldrsh	r1, [fp, #-22]	; 0xffffffea
 c005f88:	e1db30b8 	ldrh	r3, [fp, #8]
 c005f8c:	e1a030a3 	lsr	r3, r3, #1
 c005f90:	e1a03803 	lsl	r3, r3, #16
 c005f94:	e1a03823 	lsr	r3, r3, #16
 c005f98:	e0813003 	add	r3, r1, r3
                 wpy <= wCury + usWidth / 2; wpy++ )
            {
                (LCD_PutPixel(wCurx, wpy, ucColor));
            }

            for( wpy = wNexty - usWidth / 2;
 c005f9c:	e1520003 	cmp	r2, r3
 c005fa0:	daffffa8 	ble	c005e48 <Lcd_Draw_Line+0x3dc>

    if( usDx >= usDy )
    {
        for( wCurx = usX0, wCury = usY0, wNextx = usX1,
             wNexty = usY1, decision = (usDx >> 1);
             wCurx <= wNextx; wCurx++, wNextx--, decision += usDy )
 c005fa4:	e15b31b0 	ldrh	r3, [fp, #-16]
 c005fa8:	e2833001 	add	r3, r3, #1
 c005fac:	e14b31b0 	strh	r3, [fp, #-16]
 c005fb0:	e15b31b4 	ldrh	r3, [fp, #-20]	; 0xffffffec
 c005fb4:	e2433001 	sub	r3, r3, #1
 c005fb8:	e14b31b4 	strh	r3, [fp, #-20]	; 0xffffffec
 c005fbc:	e15b20be 	ldrh	r2, [fp, #-14]
 c005fc0:	e15b31be 	ldrh	r3, [fp, #-30]	; 0xffffffe2
 c005fc4:	e0823003 	add	r3, r2, r3
 c005fc8:	e1a03803 	lsl	r3, r3, #16
 c005fcc:	e1a03823 	lsr	r3, r3, #16
 c005fd0:	e14b30be 	strh	r3, [fp, #-14]
    y_sign = (usY1 - usY0) / usDy;
    x_sign = (usX1 - usX0) / usDx;

    if( usDx >= usDy )
    {
        for( wCurx = usX0, wCury = usY0, wNextx = usX1,
 c005fd4:	e15b21f0 	ldrsh	r2, [fp, #-16]
 c005fd8:	e15b31f4 	ldrsh	r3, [fp, #-20]	; 0xffffffec
 c005fdc:	e1520003 	cmp	r2, r3
 c005fe0:	daffff17 	ble	c005c44 <Lcd_Draw_Line+0x1d8>
 c005fe4:	ea0000f3 	b	c0063b8 <Lcd_Draw_Line+0x94c>
            }
        }
    }
    else
    {
        for( wCurx = usX0, wCury = usY0, wNextx = usX1,
 c005fe8:	e15b32b6 	ldrh	r3, [fp, #-38]	; 0xffffffda
 c005fec:	e14b31b0 	strh	r3, [fp, #-16]
 c005ff0:	e15b32b8 	ldrh	r3, [fp, #-40]	; 0xffffffd8
 c005ff4:	e14b31b2 	strh	r3, [fp, #-18]	; 0xffffffee
 c005ff8:	e15b32ba 	ldrh	r3, [fp, #-42]	; 0xffffffd6
 c005ffc:	e14b31b4 	strh	r3, [fp, #-20]	; 0xffffffec
             wNexty = usY1, decision = (usDy >> 1);
 c006000:	e15b32bc 	ldrh	r3, [fp, #-44]	; 0xffffffd4
 c006004:	e14b31b6 	strh	r3, [fp, #-22]	; 0xffffffea
 c006008:	e15b31fe 	ldrsh	r3, [fp, #-30]	; 0xffffffe2
 c00600c:	e1a030c3 	asr	r3, r3, #1
 c006010:	e14b30be 	strh	r3, [fp, #-14]
            }
        }
    }
    else
    {
        for( wCurx = usX0, wCury = usY0, wNextx = usX1,
 c006014:	ea0000e3 	b	c0063a8 <Lcd_Draw_Line+0x93c>
             wNexty = usY1, decision = (usDy >> 1);
             wCury <= wNexty; wCury++, wNexty--, decision += usDx )
        {
            if( decision >= usDy )
 c006018:	e15b20fe 	ldrsh	r2, [fp, #-14]
 c00601c:	e15b31fe 	ldrsh	r3, [fp, #-30]	; 0xffffffe2
 c006020:	e1520003 	cmp	r2, r3
 c006024:	ba000011 	blt	c006070 <Lcd_Draw_Line+0x604>
            {
                decision -= usDy;
 c006028:	e15b20be 	ldrh	r2, [fp, #-14]
 c00602c:	e15b31be 	ldrh	r3, [fp, #-30]	; 0xffffffe2
 c006030:	e0633002 	rsb	r3, r3, r2
 c006034:	e1a03803 	lsl	r3, r3, #16
 c006038:	e1a03823 	lsr	r3, r3, #16
 c00603c:	e14b30be 	strh	r3, [fp, #-14]
                wCurx += x_sign;
 c006040:	e15b21b0 	ldrh	r2, [fp, #-16]
 c006044:	e15b32b2 	ldrh	r3, [fp, #-34]	; 0xffffffde
 c006048:	e0823003 	add	r3, r2, r3
 c00604c:	e1a03803 	lsl	r3, r3, #16
 c006050:	e1a03823 	lsr	r3, r3, #16
 c006054:	e14b31b0 	strh	r3, [fp, #-16]
                wNextx -= x_sign;
 c006058:	e15b21b4 	ldrh	r2, [fp, #-20]	; 0xffffffec
 c00605c:	e15b32b2 	ldrh	r3, [fp, #-34]	; 0xffffffde
 c006060:	e0633002 	rsb	r3, r3, r2
 c006064:	e1a03803 	lsl	r3, r3, #16
 c006068:	e1a03823 	lsr	r3, r3, #16
 c00606c:	e14b31b4 	strh	r3, [fp, #-20]	; 0xffffffec
            }
            for( wpx = wCurx - usWidth / 2;
 c006070:	e15b21b0 	ldrh	r2, [fp, #-16]
 c006074:	e1db30b8 	ldrh	r3, [fp, #8]
 c006078:	e1a030a3 	lsr	r3, r3, #1
 c00607c:	e1a03803 	lsl	r3, r3, #16
 c006080:	e1a03823 	lsr	r3, r3, #16
 c006084:	e0633002 	rsb	r3, r3, r2
 c006088:	e1a03803 	lsl	r3, r3, #16
 c00608c:	e1a03823 	lsr	r3, r3, #16
 c006090:	e14b31ba 	strh	r3, [fp, #-26]	; 0xffffffe6
 c006094:	ea00004d 	b	c0061d0 <Lcd_Draw_Line+0x764>
                 wpx <= wCurx + usWidth / 2; wpx++ )
            {
                (LCD_PutPixel(wpx, wCury, ucColor));
 c006098:	e15b21f2 	ldrsh	r2, [fp, #-18]	; 0xffffffee
 c00609c:	e1a03002 	mov	r3, r2
 c0060a0:	e1a03103 	lsl	r3, r3, #2
 c0060a4:	e0833002 	add	r3, r3, r2
 c0060a8:	e1a03303 	lsl	r3, r3, #6
 c0060ac:	e1a02fa3 	lsr	r2, r3, #31
 c0060b0:	e0823003 	add	r3, r2, r3
 c0060b4:	e1a030c3 	asr	r3, r3, #1
 c0060b8:	e28326c3 	add	r2, r3, #204472320	; 0xc300000
 c0060bc:	e2822c96 	add	r2, r2, #38400	; 0x9600
 c0060c0:	e15b31fa 	ldrsh	r3, [fp, #-26]	; 0xffffffe6
 c0060c4:	e2831007 	add	r1, r3, #7
 c0060c8:	e3530000 	cmp	r3, #0
 c0060cc:	b1a03001 	movlt	r3, r1
 c0060d0:	e1a031c3 	asr	r3, r3, #3
 c0060d4:	e1a03803 	lsl	r3, r3, #16
 c0060d8:	e1a03823 	lsr	r3, r3, #16
 c0060dc:	e1a03803 	lsl	r3, r3, #16
 c0060e0:	e1a03843 	asr	r3, r3, #16
 c0060e4:	e1a03103 	lsl	r3, r3, #2
 c0060e8:	e0823003 	add	r3, r2, r3
 c0060ec:	e1a01003 	mov	r1, r3
 c0060f0:	e15b21f2 	ldrsh	r2, [fp, #-18]	; 0xffffffee
 c0060f4:	e1a03002 	mov	r3, r2
 c0060f8:	e1a03103 	lsl	r3, r3, #2
 c0060fc:	e0833002 	add	r3, r3, r2
 c006100:	e1a03303 	lsl	r3, r3, #6
 c006104:	e1a02fa3 	lsr	r2, r3, #31
 c006108:	e0823003 	add	r3, r2, r3
 c00610c:	e1a030c3 	asr	r3, r3, #1
 c006110:	e28326c3 	add	r2, r3, #204472320	; 0xc300000
 c006114:	e2822c96 	add	r2, r2, #38400	; 0x9600
 c006118:	e15b31fa 	ldrsh	r3, [fp, #-26]	; 0xffffffe6
 c00611c:	e2830007 	add	r0, r3, #7
 c006120:	e3530000 	cmp	r3, #0
 c006124:	b1a03000 	movlt	r3, r0
 c006128:	e1a031c3 	asr	r3, r3, #3
 c00612c:	e1a03803 	lsl	r3, r3, #16
 c006130:	e1a03823 	lsr	r3, r3, #16
 c006134:	e1a03803 	lsl	r3, r3, #16
 c006138:	e1a03843 	asr	r3, r3, #16
 c00613c:	e1a03103 	lsl	r3, r3, #2
 c006140:	e0823003 	add	r3, r2, r3
 c006144:	e5930000 	ldr	r0, [r3]
 c006148:	e15b21fa 	ldrsh	r2, [fp, #-26]	; 0xffffffe6
 c00614c:	e1a03fc2 	asr	r3, r2, #31
 c006150:	e1a03ea3 	lsr	r3, r3, #29
 c006154:	e0822003 	add	r2, r2, r3
 c006158:	e2022007 	and	r2, r2, #7
 c00615c:	e0633002 	rsb	r3, r3, r2
 c006160:	e1a03803 	lsl	r3, r3, #16
 c006164:	e1a03823 	lsr	r3, r3, #16
 c006168:	e1a03803 	lsl	r3, r3, #16
 c00616c:	e1a03843 	asr	r3, r3, #16
 c006170:	e1a03103 	lsl	r3, r3, #2
 c006174:	e3a0220f 	mov	r2, #-268435456	; 0xf0000000
 c006178:	e1a03332 	lsr	r3, r2, r3
 c00617c:	e1e03003 	mvn	r3, r3
 c006180:	e0000003 	and	r0, r0, r3
 c006184:	e5dbc004 	ldrb	ip, [fp, #4]
 c006188:	e15b21fa 	ldrsh	r2, [fp, #-26]	; 0xffffffe6
 c00618c:	e1a03fc2 	asr	r3, r2, #31
 c006190:	e1a03ea3 	lsr	r3, r3, #29
 c006194:	e0822003 	add	r2, r2, r3
 c006198:	e2022007 	and	r2, r2, #7
 c00619c:	e0633002 	rsb	r3, r3, r2
 c0061a0:	e1a03803 	lsl	r3, r3, #16
 c0061a4:	e1a03823 	lsr	r3, r3, #16
 c0061a8:	e1a03803 	lsl	r3, r3, #16
 c0061ac:	e1a03843 	asr	r3, r3, #16
 c0061b0:	e2633007 	rsb	r3, r3, #7
 c0061b4:	e1a03103 	lsl	r3, r3, #2
 c0061b8:	e1a0331c 	lsl	r3, ip, r3
 c0061bc:	e1803003 	orr	r3, r0, r3
 c0061c0:	e5813000 	str	r3, [r1]
                decision -= usDy;
                wCurx += x_sign;
                wNextx -= x_sign;
            }
            for( wpx = wCurx - usWidth / 2;
                 wpx <= wCurx + usWidth / 2; wpx++ )
 c0061c4:	e15b31ba 	ldrh	r3, [fp, #-26]	; 0xffffffe6
 c0061c8:	e2833001 	add	r3, r3, #1
 c0061cc:	e14b31ba 	strh	r3, [fp, #-26]	; 0xffffffe6
 c0061d0:	e15b21fa 	ldrsh	r2, [fp, #-26]	; 0xffffffe6
 c0061d4:	e15b11f0 	ldrsh	r1, [fp, #-16]
 c0061d8:	e1db30b8 	ldrh	r3, [fp, #8]
 c0061dc:	e1a030a3 	lsr	r3, r3, #1
 c0061e0:	e1a03803 	lsl	r3, r3, #16
 c0061e4:	e1a03823 	lsr	r3, r3, #16
 c0061e8:	e0813003 	add	r3, r1, r3
            {
                decision -= usDy;
                wCurx += x_sign;
                wNextx -= x_sign;
            }
            for( wpx = wCurx - usWidth / 2;
 c0061ec:	e1520003 	cmp	r2, r3
 c0061f0:	daffffa8 	ble	c006098 <Lcd_Draw_Line+0x62c>
                 wpx <= wCurx + usWidth / 2; wpx++ )
            {
                (LCD_PutPixel(wpx, wCury, ucColor));
            }

            for( wpx = wNextx - usWidth / 2;
 c0061f4:	e15b21b4 	ldrh	r2, [fp, #-20]	; 0xffffffec
 c0061f8:	e1db30b8 	ldrh	r3, [fp, #8]
 c0061fc:	e1a030a3 	lsr	r3, r3, #1
 c006200:	e1a03803 	lsl	r3, r3, #16
 c006204:	e1a03823 	lsr	r3, r3, #16
 c006208:	e0633002 	rsb	r3, r3, r2
 c00620c:	e1a03803 	lsl	r3, r3, #16
 c006210:	e1a03823 	lsr	r3, r3, #16
 c006214:	e14b31ba 	strh	r3, [fp, #-26]	; 0xffffffe6
 c006218:	ea00004d 	b	c006354 <Lcd_Draw_Line+0x8e8>
                 wpx <= wNextx + usWidth / 2; wpx++ )
            {
                (LCD_PutPixel(wpx, wNexty, ucColor));
 c00621c:	e15b21f6 	ldrsh	r2, [fp, #-22]	; 0xffffffea
 c006220:	e1a03002 	mov	r3, r2
 c006224:	e1a03103 	lsl	r3, r3, #2
 c006228:	e0833002 	add	r3, r3, r2
 c00622c:	e1a03303 	lsl	r3, r3, #6
 c006230:	e1a02fa3 	lsr	r2, r3, #31
 c006234:	e0823003 	add	r3, r2, r3
 c006238:	e1a030c3 	asr	r3, r3, #1
 c00623c:	e28326c3 	add	r2, r3, #204472320	; 0xc300000
 c006240:	e2822c96 	add	r2, r2, #38400	; 0x9600
 c006244:	e15b31fa 	ldrsh	r3, [fp, #-26]	; 0xffffffe6
 c006248:	e2831007 	add	r1, r3, #7
 c00624c:	e3530000 	cmp	r3, #0
 c006250:	b1a03001 	movlt	r3, r1
 c006254:	e1a031c3 	asr	r3, r3, #3
 c006258:	e1a03803 	lsl	r3, r3, #16
 c00625c:	e1a03823 	lsr	r3, r3, #16
 c006260:	e1a03803 	lsl	r3, r3, #16
 c006264:	e1a03843 	asr	r3, r3, #16
 c006268:	e1a03103 	lsl	r3, r3, #2
 c00626c:	e0823003 	add	r3, r2, r3
 c006270:	e1a01003 	mov	r1, r3
 c006274:	e15b21f6 	ldrsh	r2, [fp, #-22]	; 0xffffffea
 c006278:	e1a03002 	mov	r3, r2
 c00627c:	e1a03103 	lsl	r3, r3, #2
 c006280:	e0833002 	add	r3, r3, r2
 c006284:	e1a03303 	lsl	r3, r3, #6
 c006288:	e1a02fa3 	lsr	r2, r3, #31
 c00628c:	e0823003 	add	r3, r2, r3
 c006290:	e1a030c3 	asr	r3, r3, #1
 c006294:	e28326c3 	add	r2, r3, #204472320	; 0xc300000
 c006298:	e2822c96 	add	r2, r2, #38400	; 0x9600
 c00629c:	e15b31fa 	ldrsh	r3, [fp, #-26]	; 0xffffffe6
 c0062a0:	e2830007 	add	r0, r3, #7
 c0062a4:	e3530000 	cmp	r3, #0
 c0062a8:	b1a03000 	movlt	r3, r0
 c0062ac:	e1a031c3 	asr	r3, r3, #3
 c0062b0:	e1a03803 	lsl	r3, r3, #16
 c0062b4:	e1a03823 	lsr	r3, r3, #16
 c0062b8:	e1a03803 	lsl	r3, r3, #16
 c0062bc:	e1a03843 	asr	r3, r3, #16
 c0062c0:	e1a03103 	lsl	r3, r3, #2
 c0062c4:	e0823003 	add	r3, r2, r3
 c0062c8:	e5930000 	ldr	r0, [r3]
 c0062cc:	e15b21fa 	ldrsh	r2, [fp, #-26]	; 0xffffffe6
 c0062d0:	e1a03fc2 	asr	r3, r2, #31
 c0062d4:	e1a03ea3 	lsr	r3, r3, #29
 c0062d8:	e0822003 	add	r2, r2, r3
 c0062dc:	e2022007 	and	r2, r2, #7
 c0062e0:	e0633002 	rsb	r3, r3, r2
 c0062e4:	e1a03803 	lsl	r3, r3, #16
 c0062e8:	e1a03823 	lsr	r3, r3, #16
 c0062ec:	e1a03803 	lsl	r3, r3, #16
 c0062f0:	e1a03843 	asr	r3, r3, #16
 c0062f4:	e1a03103 	lsl	r3, r3, #2
 c0062f8:	e3a0220f 	mov	r2, #-268435456	; 0xf0000000
 c0062fc:	e1a03332 	lsr	r3, r2, r3
 c006300:	e1e03003 	mvn	r3, r3
 c006304:	e0000003 	and	r0, r0, r3
 c006308:	e5dbc004 	ldrb	ip, [fp, #4]
 c00630c:	e15b21fa 	ldrsh	r2, [fp, #-26]	; 0xffffffe6
 c006310:	e1a03fc2 	asr	r3, r2, #31
 c006314:	e1a03ea3 	lsr	r3, r3, #29
 c006318:	e0822003 	add	r2, r2, r3
 c00631c:	e2022007 	and	r2, r2, #7
 c006320:	e0633002 	rsb	r3, r3, r2
 c006324:	e1a03803 	lsl	r3, r3, #16
 c006328:	e1a03823 	lsr	r3, r3, #16
 c00632c:	e1a03803 	lsl	r3, r3, #16
 c006330:	e1a03843 	asr	r3, r3, #16
 c006334:	e2633007 	rsb	r3, r3, #7
 c006338:	e1a03103 	lsl	r3, r3, #2
 c00633c:	e1a0331c 	lsl	r3, ip, r3
 c006340:	e1803003 	orr	r3, r0, r3
 c006344:	e5813000 	str	r3, [r1]
            {
                (LCD_PutPixel(wpx, wCury, ucColor));
            }

            for( wpx = wNextx - usWidth / 2;
                 wpx <= wNextx + usWidth / 2; wpx++ )
 c006348:	e15b31ba 	ldrh	r3, [fp, #-26]	; 0xffffffe6
 c00634c:	e2833001 	add	r3, r3, #1
 c006350:	e14b31ba 	strh	r3, [fp, #-26]	; 0xffffffe6
 c006354:	e15b21fa 	ldrsh	r2, [fp, #-26]	; 0xffffffe6
 c006358:	e15b11f4 	ldrsh	r1, [fp, #-20]	; 0xffffffec
 c00635c:	e1db30b8 	ldrh	r3, [fp, #8]
 c006360:	e1a030a3 	lsr	r3, r3, #1
 c006364:	e1a03803 	lsl	r3, r3, #16
 c006368:	e1a03823 	lsr	r3, r3, #16
 c00636c:	e0813003 	add	r3, r1, r3
                 wpx <= wCurx + usWidth / 2; wpx++ )
            {
                (LCD_PutPixel(wpx, wCury, ucColor));
            }

            for( wpx = wNextx - usWidth / 2;
 c006370:	e1520003 	cmp	r2, r3
 c006374:	daffffa8 	ble	c00621c <Lcd_Draw_Line+0x7b0>
    }
    else
    {
        for( wCurx = usX0, wCury = usY0, wNextx = usX1,
             wNexty = usY1, decision = (usDy >> 1);
             wCury <= wNexty; wCury++, wNexty--, decision += usDx )
 c006378:	e15b31b2 	ldrh	r3, [fp, #-18]	; 0xffffffee
 c00637c:	e2833001 	add	r3, r3, #1
 c006380:	e14b31b2 	strh	r3, [fp, #-18]	; 0xffffffee
 c006384:	e15b31b6 	ldrh	r3, [fp, #-22]	; 0xffffffea
 c006388:	e2433001 	sub	r3, r3, #1
 c00638c:	e14b31b6 	strh	r3, [fp, #-22]	; 0xffffffea
 c006390:	e15b20be 	ldrh	r2, [fp, #-14]
 c006394:	e15b31bc 	ldrh	r3, [fp, #-28]	; 0xffffffe4
 c006398:	e0823003 	add	r3, r2, r3
 c00639c:	e1a03803 	lsl	r3, r3, #16
 c0063a0:	e1a03823 	lsr	r3, r3, #16
 c0063a4:	e14b30be 	strh	r3, [fp, #-14]
            }
        }
    }
    else
    {
        for( wCurx = usX0, wCury = usY0, wNextx = usX1,
 c0063a8:	e15b21f2 	ldrsh	r2, [fp, #-18]	; 0xffffffee
 c0063ac:	e15b31f6 	ldrsh	r3, [fp, #-22]	; 0xffffffea
 c0063b0:	e1520003 	cmp	r2, r3
 c0063b4:	daffff17 	ble	c006018 <Lcd_Draw_Line+0x5ac>
            {
                (LCD_PutPixel(wpx, wNexty, ucColor));
            }
        }
    }
}
 c0063b8:	e24bd00c 	sub	sp, fp, #12
 c0063bc:	e89d6800 	ldm	sp, {fp, sp, lr}
 c0063c0:	e12fff1e 	bx	lr

0c0063c4 <Lcd_Draw_HLine>:
* ret:		none
* modify:
* comment:		
*********************************************************************************************/
void Lcd_Draw_HLine(INT16 usX0, INT16 usX1, INT16 usY0, INT8U ucColor, INT16U usWidth)
{
 c0063c4:	e1a0c00d 	mov	ip, sp
 c0063c8:	e92dd800 	push	{fp, ip, lr, pc}
 c0063cc:	e24cb004 	sub	fp, ip, #4
 c0063d0:	e24dd010 	sub	sp, sp, #16
 c0063d4:	e14b01b6 	strh	r0, [fp, #-22]	; 0xffffffea
 c0063d8:	e14b11b8 	strh	r1, [fp, #-24]	; 0xffffffe8
 c0063dc:	e14b21ba 	strh	r2, [fp, #-26]	; 0xffffffe6
 c0063e0:	e54b301b 	strb	r3, [fp, #-27]	; 0xffffffe5
	INT16 usLen;

    if( usX1 < usX0 )
 c0063e4:	e15b21f8 	ldrsh	r2, [fp, #-24]	; 0xffffffe8
 c0063e8:	e15b31f6 	ldrsh	r3, [fp, #-22]	; 0xffffffea
 c0063ec:	e1520003 	cmp	r2, r3
 c0063f0:	aa000067 	bge	c006594 <Lcd_Draw_HLine+0x1d0>
    {
        GUISWAP (usX1, usX0);
 c0063f4:	e15b21b8 	ldrh	r2, [fp, #-24]	; 0xffffffe8
 c0063f8:	e15b31b6 	ldrh	r3, [fp, #-22]	; 0xffffffea
 c0063fc:	e0223003 	eor	r3, r2, r3
 c006400:	e14b31b8 	strh	r3, [fp, #-24]	; 0xffffffe8
 c006404:	e15b21b6 	ldrh	r2, [fp, #-22]	; 0xffffffea
 c006408:	e15b31b8 	ldrh	r3, [fp, #-24]	; 0xffffffe8
 c00640c:	e0223003 	eor	r3, r2, r3
 c006410:	e14b31b6 	strh	r3, [fp, #-22]	; 0xffffffea
 c006414:	e15b21b8 	ldrh	r2, [fp, #-24]	; 0xffffffe8
 c006418:	e15b31b6 	ldrh	r3, [fp, #-22]	; 0xffffffea
 c00641c:	e0223003 	eor	r3, r2, r3
 c006420:	e14b31b8 	strh	r3, [fp, #-24]	; 0xffffffe8
    }

    while( (usWidth--) > 0 )
 c006424:	ea00005b 	b	c006598 <Lcd_Draw_HLine+0x1d4>
    {
        usLen = usX1 - usX0 + 1;
 c006428:	e15b21b8 	ldrh	r2, [fp, #-24]	; 0xffffffe8
 c00642c:	e15b31b6 	ldrh	r3, [fp, #-22]	; 0xffffffea
 c006430:	e0633002 	rsb	r3, r3, r2
 c006434:	e1a03803 	lsl	r3, r3, #16
 c006438:	e1a03823 	lsr	r3, r3, #16
 c00643c:	e2833001 	add	r3, r3, #1
 c006440:	e1a03803 	lsl	r3, r3, #16
 c006444:	e1a03823 	lsr	r3, r3, #16
 c006448:	e14b30be 	strh	r3, [fp, #-14]
        while( (usLen--) > 0 )
 c00644c:	ea000042 	b	c00655c <Lcd_Draw_HLine+0x198>
        {
        	(LCD_PutPixel(usX0 + usLen, usY0, ucColor));
 c006450:	e15b21fa 	ldrsh	r2, [fp, #-26]	; 0xffffffe6
 c006454:	e1a03002 	mov	r3, r2
 c006458:	e1a03103 	lsl	r3, r3, #2
 c00645c:	e0833002 	add	r3, r3, r2
 c006460:	e1a03303 	lsl	r3, r3, #6
 c006464:	e1a02fa3 	lsr	r2, r3, #31
 c006468:	e0823003 	add	r3, r2, r3
 c00646c:	e1a030c3 	asr	r3, r3, #1
 c006470:	e28326c3 	add	r2, r3, #204472320	; 0xc300000
 c006474:	e2822c96 	add	r2, r2, #38400	; 0x9600
 c006478:	e15b11f6 	ldrsh	r1, [fp, #-22]	; 0xffffffea
 c00647c:	e15b30fe 	ldrsh	r3, [fp, #-14]
 c006480:	e0813003 	add	r3, r1, r3
 c006484:	e2831007 	add	r1, r3, #7
 c006488:	e3530000 	cmp	r3, #0
 c00648c:	b1a03001 	movlt	r3, r1
 c006490:	e1a031c3 	asr	r3, r3, #3
 c006494:	e1a03103 	lsl	r3, r3, #2
 c006498:	e0823003 	add	r3, r2, r3
 c00649c:	e1a01003 	mov	r1, r3
 c0064a0:	e15b21fa 	ldrsh	r2, [fp, #-26]	; 0xffffffe6
 c0064a4:	e1a03002 	mov	r3, r2
 c0064a8:	e1a03103 	lsl	r3, r3, #2
 c0064ac:	e0833002 	add	r3, r3, r2
 c0064b0:	e1a03303 	lsl	r3, r3, #6
 c0064b4:	e1a02fa3 	lsr	r2, r3, #31
 c0064b8:	e0823003 	add	r3, r2, r3
 c0064bc:	e1a030c3 	asr	r3, r3, #1
 c0064c0:	e28326c3 	add	r2, r3, #204472320	; 0xc300000
 c0064c4:	e2822c96 	add	r2, r2, #38400	; 0x9600
 c0064c8:	e15b01f6 	ldrsh	r0, [fp, #-22]	; 0xffffffea
 c0064cc:	e15b30fe 	ldrsh	r3, [fp, #-14]
 c0064d0:	e0803003 	add	r3, r0, r3
 c0064d4:	e2830007 	add	r0, r3, #7
 c0064d8:	e3530000 	cmp	r3, #0
 c0064dc:	b1a03000 	movlt	r3, r0
 c0064e0:	e1a031c3 	asr	r3, r3, #3
 c0064e4:	e1a03103 	lsl	r3, r3, #2
 c0064e8:	e0823003 	add	r3, r2, r3
 c0064ec:	e5930000 	ldr	r0, [r3]
 c0064f0:	e15b21f6 	ldrsh	r2, [fp, #-22]	; 0xffffffea
 c0064f4:	e15b30fe 	ldrsh	r3, [fp, #-14]
 c0064f8:	e0822003 	add	r2, r2, r3
 c0064fc:	e1a03fc2 	asr	r3, r2, #31
 c006500:	e1a03ea3 	lsr	r3, r3, #29
 c006504:	e0822003 	add	r2, r2, r3
 c006508:	e2022007 	and	r2, r2, #7
 c00650c:	e0633002 	rsb	r3, r3, r2
 c006510:	e1a03103 	lsl	r3, r3, #2
 c006514:	e3a0220f 	mov	r2, #-268435456	; 0xf0000000
 c006518:	e1a03332 	lsr	r3, r2, r3
 c00651c:	e1e03003 	mvn	r3, r3
 c006520:	e0000003 	and	r0, r0, r3
 c006524:	e55bc01b 	ldrb	ip, [fp, #-27]	; 0xffffffe5
 c006528:	e15b21f6 	ldrsh	r2, [fp, #-22]	; 0xffffffea
 c00652c:	e15b30fe 	ldrsh	r3, [fp, #-14]
 c006530:	e0822003 	add	r2, r2, r3
 c006534:	e1a03fc2 	asr	r3, r2, #31
 c006538:	e1a03ea3 	lsr	r3, r3, #29
 c00653c:	e0822003 	add	r2, r2, r3
 c006540:	e2022007 	and	r2, r2, #7
 c006544:	e0633002 	rsb	r3, r3, r2
 c006548:	e2633007 	rsb	r3, r3, #7
 c00654c:	e1a03103 	lsl	r3, r3, #2
 c006550:	e1a0331c 	lsl	r3, ip, r3
 c006554:	e1803003 	orr	r3, r0, r3
 c006558:	e5813000 	str	r3, [r1]
    }

    while( (usWidth--) > 0 )
    {
        usLen = usX1 - usX0 + 1;
        while( (usLen--) > 0 )
 c00655c:	e15b30fe 	ldrsh	r3, [fp, #-14]
 c006560:	e3530000 	cmp	r3, #0
 c006564:	d3a03000 	movle	r3, #0
 c006568:	c3a03001 	movgt	r3, #1
 c00656c:	e20330ff 	and	r3, r3, #255	; 0xff
 c006570:	e15b20be 	ldrh	r2, [fp, #-14]
 c006574:	e2422001 	sub	r2, r2, #1
 c006578:	e14b20be 	strh	r2, [fp, #-14]
 c00657c:	e3530000 	cmp	r3, #0
 c006580:	1affffb2 	bne	c006450 <Lcd_Draw_HLine+0x8c>
        {
        	(LCD_PutPixel(usX0 + usLen, usY0, ucColor));
        }
        usY0++;
 c006584:	e15b31ba 	ldrh	r3, [fp, #-26]	; 0xffffffe6
 c006588:	e2833001 	add	r3, r3, #1
 c00658c:	e14b31ba 	strh	r3, [fp, #-26]	; 0xffffffe6
 c006590:	ea000000 	b	c006598 <Lcd_Draw_HLine+0x1d4>
    if( usX1 < usX0 )
    {
        GUISWAP (usX1, usX0);
    }

    while( (usWidth--) > 0 )
 c006594:	e1a00000 	nop			; (mov r0, r0)
 c006598:	e1db30b4 	ldrh	r3, [fp, #4]
 c00659c:	e3530000 	cmp	r3, #0
 c0065a0:	03a03000 	moveq	r3, #0
 c0065a4:	13a03001 	movne	r3, #1
 c0065a8:	e20330ff 	and	r3, r3, #255	; 0xff
 c0065ac:	e1db20b4 	ldrh	r2, [fp, #4]
 c0065b0:	e2422001 	sub	r2, r2, #1
 c0065b4:	e1cb20b4 	strh	r2, [fp, #4]
 c0065b8:	e3530000 	cmp	r3, #0
 c0065bc:	1affff99 	bne	c006428 <Lcd_Draw_HLine+0x64>
        {
        	(LCD_PutPixel(usX0 + usLen, usY0, ucColor));
        }
        usY0++;
    }
}
 c0065c0:	e24bd00c 	sub	sp, fp, #12
 c0065c4:	e89d6800 	ldm	sp, {fp, sp, lr}
 c0065c8:	e12fff1e 	bx	lr

0c0065cc <Lcd_Draw_VLine>:
* ret:		none
* modify:
* comment:		
*********************************************************************************************/
void Lcd_Draw_VLine (INT16 usY0, INT16 usY1, INT16 usX0, INT8U ucColor, INT16U usWidth)
{
 c0065cc:	e1a0c00d 	mov	ip, sp
 c0065d0:	e92dd800 	push	{fp, ip, lr, pc}
 c0065d4:	e24cb004 	sub	fp, ip, #4
 c0065d8:	e24dd010 	sub	sp, sp, #16
 c0065dc:	e14b01b6 	strh	r0, [fp, #-22]	; 0xffffffea
 c0065e0:	e14b11b8 	strh	r1, [fp, #-24]	; 0xffffffe8
 c0065e4:	e14b21ba 	strh	r2, [fp, #-26]	; 0xffffffe6
 c0065e8:	e54b301b 	strb	r3, [fp, #-27]	; 0xffffffe5
	INT16 usLen;

    if( usY1 < usY0 )
 c0065ec:	e15b21f8 	ldrsh	r2, [fp, #-24]	; 0xffffffe8
 c0065f0:	e15b31f6 	ldrsh	r3, [fp, #-22]	; 0xffffffea
 c0065f4:	e1520003 	cmp	r2, r3
 c0065f8:	aa000073 	bge	c0067cc <Lcd_Draw_VLine+0x200>
    {
        GUISWAP (usY1, usY0);
 c0065fc:	e15b21b8 	ldrh	r2, [fp, #-24]	; 0xffffffe8
 c006600:	e15b31b6 	ldrh	r3, [fp, #-22]	; 0xffffffea
 c006604:	e0223003 	eor	r3, r2, r3
 c006608:	e14b31b8 	strh	r3, [fp, #-24]	; 0xffffffe8
 c00660c:	e15b21b6 	ldrh	r2, [fp, #-22]	; 0xffffffea
 c006610:	e15b31b8 	ldrh	r3, [fp, #-24]	; 0xffffffe8
 c006614:	e0223003 	eor	r3, r2, r3
 c006618:	e14b31b6 	strh	r3, [fp, #-22]	; 0xffffffea
 c00661c:	e15b21b8 	ldrh	r2, [fp, #-24]	; 0xffffffe8
 c006620:	e15b31b6 	ldrh	r3, [fp, #-22]	; 0xffffffea
 c006624:	e0223003 	eor	r3, r2, r3
 c006628:	e14b31b8 	strh	r3, [fp, #-24]	; 0xffffffe8
    }

    while( (usWidth--) > 0 )
 c00662c:	ea000067 	b	c0067d0 <Lcd_Draw_VLine+0x204>
    {
        usLen = usY1 - usY0 + 1;
 c006630:	e15b21b8 	ldrh	r2, [fp, #-24]	; 0xffffffe8
 c006634:	e15b31b6 	ldrh	r3, [fp, #-22]	; 0xffffffea
 c006638:	e0633002 	rsb	r3, r3, r2
 c00663c:	e1a03803 	lsl	r3, r3, #16
 c006640:	e1a03823 	lsr	r3, r3, #16
 c006644:	e2833001 	add	r3, r3, #1
 c006648:	e1a03803 	lsl	r3, r3, #16
 c00664c:	e1a03823 	lsr	r3, r3, #16
 c006650:	e14b30be 	strh	r3, [fp, #-14]
        while( (usLen--) > 0 )
 c006654:	ea00004e 	b	c006794 <Lcd_Draw_VLine+0x1c8>
        {
        	(LCD_PutPixel(usX0, usY0 + usLen, ucColor));
 c006658:	e15b21f6 	ldrsh	r2, [fp, #-22]	; 0xffffffea
 c00665c:	e15b30fe 	ldrsh	r3, [fp, #-14]
 c006660:	e0822003 	add	r2, r2, r3
 c006664:	e1a03002 	mov	r3, r2
 c006668:	e1a03103 	lsl	r3, r3, #2
 c00666c:	e0833002 	add	r3, r3, r2
 c006670:	e1a03303 	lsl	r3, r3, #6
 c006674:	e1a02fa3 	lsr	r2, r3, #31
 c006678:	e0823003 	add	r3, r2, r3
 c00667c:	e1a030c3 	asr	r3, r3, #1
 c006680:	e28326c3 	add	r2, r3, #204472320	; 0xc300000
 c006684:	e2822c96 	add	r2, r2, #38400	; 0x9600
 c006688:	e15b31fa 	ldrsh	r3, [fp, #-26]	; 0xffffffe6
 c00668c:	e2831007 	add	r1, r3, #7
 c006690:	e3530000 	cmp	r3, #0
 c006694:	b1a03001 	movlt	r3, r1
 c006698:	e1a031c3 	asr	r3, r3, #3
 c00669c:	e1a03803 	lsl	r3, r3, #16
 c0066a0:	e1a03823 	lsr	r3, r3, #16
 c0066a4:	e1a03803 	lsl	r3, r3, #16
 c0066a8:	e1a03843 	asr	r3, r3, #16
 c0066ac:	e1a03103 	lsl	r3, r3, #2
 c0066b0:	e0823003 	add	r3, r2, r3
 c0066b4:	e1a01003 	mov	r1, r3
 c0066b8:	e15b21f6 	ldrsh	r2, [fp, #-22]	; 0xffffffea
 c0066bc:	e15b30fe 	ldrsh	r3, [fp, #-14]
 c0066c0:	e0822003 	add	r2, r2, r3
 c0066c4:	e1a03002 	mov	r3, r2
 c0066c8:	e1a03103 	lsl	r3, r3, #2
 c0066cc:	e0833002 	add	r3, r3, r2
 c0066d0:	e1a03303 	lsl	r3, r3, #6
 c0066d4:	e1a02fa3 	lsr	r2, r3, #31
 c0066d8:	e0823003 	add	r3, r2, r3
 c0066dc:	e1a030c3 	asr	r3, r3, #1
 c0066e0:	e28326c3 	add	r2, r3, #204472320	; 0xc300000
 c0066e4:	e2822c96 	add	r2, r2, #38400	; 0x9600
 c0066e8:	e15b31fa 	ldrsh	r3, [fp, #-26]	; 0xffffffe6
 c0066ec:	e2830007 	add	r0, r3, #7
 c0066f0:	e3530000 	cmp	r3, #0
 c0066f4:	b1a03000 	movlt	r3, r0
 c0066f8:	e1a031c3 	asr	r3, r3, #3
 c0066fc:	e1a03803 	lsl	r3, r3, #16
 c006700:	e1a03823 	lsr	r3, r3, #16
 c006704:	e1a03803 	lsl	r3, r3, #16
 c006708:	e1a03843 	asr	r3, r3, #16
 c00670c:	e1a03103 	lsl	r3, r3, #2
 c006710:	e0823003 	add	r3, r2, r3
 c006714:	e5930000 	ldr	r0, [r3]
 c006718:	e15b21fa 	ldrsh	r2, [fp, #-26]	; 0xffffffe6
 c00671c:	e1a03fc2 	asr	r3, r2, #31
 c006720:	e1a03ea3 	lsr	r3, r3, #29
 c006724:	e0822003 	add	r2, r2, r3
 c006728:	e2022007 	and	r2, r2, #7
 c00672c:	e0633002 	rsb	r3, r3, r2
 c006730:	e1a03803 	lsl	r3, r3, #16
 c006734:	e1a03823 	lsr	r3, r3, #16
 c006738:	e1a03803 	lsl	r3, r3, #16
 c00673c:	e1a03843 	asr	r3, r3, #16
 c006740:	e1a03103 	lsl	r3, r3, #2
 c006744:	e3a0220f 	mov	r2, #-268435456	; 0xf0000000
 c006748:	e1a03332 	lsr	r3, r2, r3
 c00674c:	e1e03003 	mvn	r3, r3
 c006750:	e0000003 	and	r0, r0, r3
 c006754:	e55bc01b 	ldrb	ip, [fp, #-27]	; 0xffffffe5
 c006758:	e15b21fa 	ldrsh	r2, [fp, #-26]	; 0xffffffe6
 c00675c:	e1a03fc2 	asr	r3, r2, #31
 c006760:	e1a03ea3 	lsr	r3, r3, #29
 c006764:	e0822003 	add	r2, r2, r3
 c006768:	e2022007 	and	r2, r2, #7
 c00676c:	e0633002 	rsb	r3, r3, r2
 c006770:	e1a03803 	lsl	r3, r3, #16
 c006774:	e1a03823 	lsr	r3, r3, #16
 c006778:	e1a03803 	lsl	r3, r3, #16
 c00677c:	e1a03843 	asr	r3, r3, #16
 c006780:	e2633007 	rsb	r3, r3, #7
 c006784:	e1a03103 	lsl	r3, r3, #2
 c006788:	e1a0331c 	lsl	r3, ip, r3
 c00678c:	e1803003 	orr	r3, r0, r3
 c006790:	e5813000 	str	r3, [r1]
    }

    while( (usWidth--) > 0 )
    {
        usLen = usY1 - usY0 + 1;
        while( (usLen--) > 0 )
 c006794:	e15b30fe 	ldrsh	r3, [fp, #-14]
 c006798:	e3530000 	cmp	r3, #0
 c00679c:	d3a03000 	movle	r3, #0
 c0067a0:	c3a03001 	movgt	r3, #1
 c0067a4:	e20330ff 	and	r3, r3, #255	; 0xff
 c0067a8:	e15b20be 	ldrh	r2, [fp, #-14]
 c0067ac:	e2422001 	sub	r2, r2, #1
 c0067b0:	e14b20be 	strh	r2, [fp, #-14]
 c0067b4:	e3530000 	cmp	r3, #0
 c0067b8:	1affffa6 	bne	c006658 <Lcd_Draw_VLine+0x8c>
        {
        	(LCD_PutPixel(usX0, usY0 + usLen, ucColor));
        }
        usX0++;
 c0067bc:	e15b31ba 	ldrh	r3, [fp, #-26]	; 0xffffffe6
 c0067c0:	e2833001 	add	r3, r3, #1
 c0067c4:	e14b31ba 	strh	r3, [fp, #-26]	; 0xffffffe6
 c0067c8:	ea000000 	b	c0067d0 <Lcd_Draw_VLine+0x204>
    if( usY1 < usY0 )
    {
        GUISWAP (usY1, usY0);
    }

    while( (usWidth--) > 0 )
 c0067cc:	e1a00000 	nop			; (mov r0, r0)
 c0067d0:	e1db30b4 	ldrh	r3, [fp, #4]
 c0067d4:	e3530000 	cmp	r3, #0
 c0067d8:	03a03000 	moveq	r3, #0
 c0067dc:	13a03001 	movne	r3, #1
 c0067e0:	e20330ff 	and	r3, r3, #255	; 0xff
 c0067e4:	e1db20b4 	ldrh	r2, [fp, #4]
 c0067e8:	e2422001 	sub	r2, r2, #1
 c0067ec:	e1cb20b4 	strh	r2, [fp, #4]
 c0067f0:	e3530000 	cmp	r3, #0
 c0067f4:	1affff8d 	bne	c006630 <Lcd_Draw_VLine+0x64>
        {
        	(LCD_PutPixel(usX0, usY0 + usLen, ucColor));
        }
        usX0++;
    }
}
 c0067f8:	e24bd00c 	sub	sp, fp, #12
 c0067fc:	e89d6800 	ldm	sp, {fp, sp, lr}
 c006800:	e12fff1e 	bx	lr

0c006804 <Lcd_DisplayString>:

void Lcd_DisplayString(INT16U usX0, INT16U usY0, INT8U *pucStr){
 c006804:	e1a0c00d 	mov	ip, sp
 c006808:	e92dd800 	push	{fp, ip, lr, pc}
 c00680c:	e24cb004 	sub	fp, ip, #4
 c006810:	e24dd008 	sub	sp, sp, #8
 c006814:	e1a03001 	mov	r3, r1
 c006818:	e50b2014 	str	r2, [fp, #-20]	; 0xffffffec
 c00681c:	e14b00be 	strh	r0, [fp, #-14]
 c006820:	e14b31b0 	strh	r3, [fp, #-16]

}
 c006824:	e24bd00c 	sub	sp, fp, #12
 c006828:	e89d6800 	ldm	sp, {fp, sp, lr}
 c00682c:	e12fff1e 	bx	lr

0c006830 <Lcd_DspAscII8x16>:
* ret:		none
* modify:
* comment:		
*********************************************************************************************/
void Lcd_DspAscII8x16(INT16U x0, INT16U y0, INT8U ForeColor, INT8U * s)
{
 c006830:	e1a0c00d 	mov	ip, sp
 c006834:	e92dd810 	push	{r4, fp, ip, lr, pc}
 c006838:	e24cb004 	sub	fp, ip, #4
 c00683c:	e24dd03c 	sub	sp, sp, #60	; 0x3c
 c006840:	e50b3048 	str	r3, [fp, #-72]	; 0xffffffb8
 c006844:	e14b03be 	strh	r0, [fp, #-62]	; 0xffffffc2
 c006848:	e14b14b0 	strh	r1, [fp, #-64]	; 0xffffffc0
 c00684c:	e1a03002 	mov	r3, r2
 c006850:	e54b3041 	strb	r3, [fp, #-65]	; 0xffffffbf
	INT16 i,j,k,x,y,xx;
	INT8U qm;
	INT32U ulOffset;
	INT8 ywbuf[16],temp[2];
    
	for( i = 0; i < strlen((const char*)s); i++ )
 c006854:	e3a03000 	mov	r3, #0
 c006858:	e14b31b6 	strh	r3, [fp, #-22]	; 0xffffffea
 c00685c:	ea0000ae 	b	c006b1c <Lcd_DspAscII8x16+0x2ec>
	{
		if( (INT8U)*(s+i) >= 161 )
 c006860:	e15b31f6 	ldrsh	r3, [fp, #-22]	; 0xffffffea
 c006864:	e51b2048 	ldr	r2, [fp, #-72]	; 0xffffffb8
 c006868:	e0823003 	add	r3, r2, r3
 c00686c:	e5d33000 	ldrb	r3, [r3]
 c006870:	e35300a0 	cmp	r3, #160	; 0xa0
 c006874:	9a000007 	bls	c006898 <Lcd_DspAscII8x16+0x68>
		{
			temp[0] = *(s + i);
 c006878:	e15b31f6 	ldrsh	r3, [fp, #-22]	; 0xffffffea
 c00687c:	e51b2048 	ldr	r2, [fp, #-72]	; 0xffffffb8
 c006880:	e0823003 	add	r3, r2, r3
 c006884:	e5d33000 	ldrb	r3, [r3]
 c006888:	e54b303c 	strb	r3, [fp, #-60]	; 0xffffffc4
			temp[1] = '\0';
 c00688c:	e3a03000 	mov	r3, #0
 c006890:	e54b303b 	strb	r3, [fp, #-59]	; 0xffffffc5
			return;
 c006894:	ea0000a6 	b	c006b34 <Lcd_DspAscII8x16+0x304>
		}
		else
		{
			qm = *(s+i);
 c006898:	e15b31f6 	ldrsh	r3, [fp, #-22]	; 0xffffffea
 c00689c:	e51b2048 	ldr	r2, [fp, #-72]	; 0xffffffb8
 c0068a0:	e0823003 	add	r3, r2, r3
 c0068a4:	e5d33000 	ldrb	r3, [r3]
 c0068a8:	e54b301d 	strb	r3, [fp, #-29]	; 0xffffffe3
			ulOffset = (INT32U)(qm) * 16;		//Here to be changed tomorrow
 c0068ac:	e55b301d 	ldrb	r3, [fp, #-29]	; 0xffffffe3
 c0068b0:	e1a03203 	lsl	r3, r3, #4
 c0068b4:	e50b3024 	str	r3, [fp, #-36]	; 0xffffffdc
			for( j = 0; j < 16; j ++ )
 c0068b8:	e3a03000 	mov	r3, #0
 c0068bc:	e14b31b8 	strh	r3, [fp, #-24]	; 0xffffffe8
 c0068c0:	ea00000d 	b	c0068fc <Lcd_DspAscII8x16+0xcc>
			{
				ywbuf[j] = g_auc_Ascii8x16[ulOffset + j];
 c0068c4:	e15b11f8 	ldrsh	r1, [fp, #-24]	; 0xffffffe8
 c0068c8:	e15b21f8 	ldrsh	r2, [fp, #-24]	; 0xffffffe8
 c0068cc:	e51b3024 	ldr	r3, [fp, #-36]	; 0xffffffdc
 c0068d0:	e0823003 	add	r3, r2, r3
 c0068d4:	e59f2264 	ldr	r2, [pc, #612]	; c006b40 <Lcd_DspAscII8x16+0x310>
 c0068d8:	e7d22003 	ldrb	r2, [r2, r3]
 c0068dc:	e3e03023 	mvn	r3, #35	; 0x23
 c0068e0:	e24b0014 	sub	r0, fp, #20
 c0068e4:	e0801001 	add	r1, r0, r1
 c0068e8:	e0813003 	add	r3, r1, r3
 c0068ec:	e5c32000 	strb	r2, [r3]
		}
		else
		{
			qm = *(s+i);
			ulOffset = (INT32U)(qm) * 16;		//Here to be changed tomorrow
			for( j = 0; j < 16; j ++ )
 c0068f0:	e15b31b8 	ldrh	r3, [fp, #-24]	; 0xffffffe8
 c0068f4:	e2833001 	add	r3, r3, #1
 c0068f8:	e14b31b8 	strh	r3, [fp, #-24]	; 0xffffffe8
 c0068fc:	e15b31f8 	ldrsh	r3, [fp, #-24]	; 0xffffffe8
 c006900:	e353000f 	cmp	r3, #15
 c006904:	daffffee 	ble	c0068c4 <Lcd_DspAscII8x16+0x94>
			{
				ywbuf[j] = g_auc_Ascii8x16[ulOffset + j];
            }

            for( y = 0; y < 16; y++ )
 c006908:	e3a03000 	mov	r3, #0
 c00690c:	e14b31bc 	strh	r3, [fp, #-28]	; 0xffffffe4
 c006910:	ea00007b 	b	c006b04 <Lcd_DspAscII8x16+0x2d4>
            {
            	for( x = 0; x < 8; x++ ) 
 c006914:	e3a03000 	mov	r3, #0
 c006918:	e14b31ba 	strh	r3, [fp, #-26]	; 0xffffffe6
 c00691c:	ea000072 	b	c006aec <Lcd_DspAscII8x16+0x2bc>
               	{
                	k = x % 8;
 c006920:	e15b21fa 	ldrsh	r2, [fp, #-26]	; 0xffffffe6
 c006924:	e1a03fc2 	asr	r3, r2, #31
 c006928:	e1a03ea3 	lsr	r3, r3, #29
 c00692c:	e0822003 	add	r2, r2, r3
 c006930:	e2022007 	and	r2, r2, #7
 c006934:	e0633002 	rsb	r3, r3, r2
 c006938:	e14b32b6 	strh	r3, [fp, #-38]	; 0xffffffda
			    	if( ywbuf[y]  & (0x80 >> k) )
 c00693c:	e15b21fc 	ldrsh	r2, [fp, #-28]	; 0xffffffe4
 c006940:	e3e03023 	mvn	r3, #35	; 0x23
 c006944:	e24b1014 	sub	r1, fp, #20
 c006948:	e0812002 	add	r2, r1, r2
 c00694c:	e0823003 	add	r3, r2, r3
 c006950:	e5d33000 	ldrb	r3, [r3]
 c006954:	e1a02003 	mov	r2, r3
 c006958:	e15b32f6 	ldrsh	r3, [fp, #-38]	; 0xffffffda
 c00695c:	e3a01080 	mov	r1, #128	; 0x80
 c006960:	e1a03351 	asr	r3, r1, r3
 c006964:	e0023003 	and	r3, r2, r3
 c006968:	e3530000 	cmp	r3, #0
 c00696c:	0a00005b 	beq	c006ae0 <Lcd_DspAscII8x16+0x2b0>
			       	{
			       		xx = x0 + x + i*8;
 c006970:	e15b21ba 	ldrh	r2, [fp, #-26]	; 0xffffffe6
 c006974:	e15b33be 	ldrh	r3, [fp, #-62]	; 0xffffffc2
 c006978:	e0823003 	add	r3, r2, r3
 c00697c:	e1a03803 	lsl	r3, r3, #16
 c006980:	e1a02823 	lsr	r2, r3, #16
 c006984:	e15b31b6 	ldrh	r3, [fp, #-22]	; 0xffffffea
 c006988:	e1a03183 	lsl	r3, r3, #3
 c00698c:	e1a03803 	lsl	r3, r3, #16
 c006990:	e1a03823 	lsr	r3, r3, #16
 c006994:	e0823003 	add	r3, r2, r3
 c006998:	e1a03803 	lsl	r3, r3, #16
 c00699c:	e1a03823 	lsr	r3, r3, #16
 c0069a0:	e14b32b8 	strh	r3, [fp, #-40]	; 0xffffffd8
			       		(LCD_PutPixel(xx, y + y0, (INT8U)ForeColor));
 c0069a4:	e15b21fc 	ldrsh	r2, [fp, #-28]	; 0xffffffe4
 c0069a8:	e15b34b0 	ldrh	r3, [fp, #-64]	; 0xffffffc0
 c0069ac:	e0822003 	add	r2, r2, r3
 c0069b0:	e1a03002 	mov	r3, r2
 c0069b4:	e1a03103 	lsl	r3, r3, #2
 c0069b8:	e0833002 	add	r3, r3, r2
 c0069bc:	e1a03303 	lsl	r3, r3, #6
 c0069c0:	e1a02fa3 	lsr	r2, r3, #31
 c0069c4:	e0823003 	add	r3, r2, r3
 c0069c8:	e1a030c3 	asr	r3, r3, #1
 c0069cc:	e28326c3 	add	r2, r3, #204472320	; 0xc300000
 c0069d0:	e2822c96 	add	r2, r2, #38400	; 0x9600
 c0069d4:	e15b32f8 	ldrsh	r3, [fp, #-40]	; 0xffffffd8
 c0069d8:	e2831007 	add	r1, r3, #7
 c0069dc:	e3530000 	cmp	r3, #0
 c0069e0:	b1a03001 	movlt	r3, r1
 c0069e4:	e1a031c3 	asr	r3, r3, #3
 c0069e8:	e1a03803 	lsl	r3, r3, #16
 c0069ec:	e1a03823 	lsr	r3, r3, #16
 c0069f0:	e1a03803 	lsl	r3, r3, #16
 c0069f4:	e1a03843 	asr	r3, r3, #16
 c0069f8:	e1a03103 	lsl	r3, r3, #2
 c0069fc:	e0823003 	add	r3, r2, r3
 c006a00:	e1a01003 	mov	r1, r3
 c006a04:	e15b21fc 	ldrsh	r2, [fp, #-28]	; 0xffffffe4
 c006a08:	e15b34b0 	ldrh	r3, [fp, #-64]	; 0xffffffc0
 c006a0c:	e0822003 	add	r2, r2, r3
 c006a10:	e1a03002 	mov	r3, r2
 c006a14:	e1a03103 	lsl	r3, r3, #2
 c006a18:	e0833002 	add	r3, r3, r2
 c006a1c:	e1a03303 	lsl	r3, r3, #6
 c006a20:	e1a02fa3 	lsr	r2, r3, #31
 c006a24:	e0823003 	add	r3, r2, r3
 c006a28:	e1a030c3 	asr	r3, r3, #1
 c006a2c:	e28326c3 	add	r2, r3, #204472320	; 0xc300000
 c006a30:	e2822c96 	add	r2, r2, #38400	; 0x9600
 c006a34:	e15b32f8 	ldrsh	r3, [fp, #-40]	; 0xffffffd8
 c006a38:	e2830007 	add	r0, r3, #7
 c006a3c:	e3530000 	cmp	r3, #0
 c006a40:	b1a03000 	movlt	r3, r0
 c006a44:	e1a031c3 	asr	r3, r3, #3
 c006a48:	e1a03803 	lsl	r3, r3, #16
 c006a4c:	e1a03823 	lsr	r3, r3, #16
 c006a50:	e1a03803 	lsl	r3, r3, #16
 c006a54:	e1a03843 	asr	r3, r3, #16
 c006a58:	e1a03103 	lsl	r3, r3, #2
 c006a5c:	e0823003 	add	r3, r2, r3
 c006a60:	e5930000 	ldr	r0, [r3]
 c006a64:	e15b22f8 	ldrsh	r2, [fp, #-40]	; 0xffffffd8
 c006a68:	e1a03fc2 	asr	r3, r2, #31
 c006a6c:	e1a03ea3 	lsr	r3, r3, #29
 c006a70:	e0822003 	add	r2, r2, r3
 c006a74:	e2022007 	and	r2, r2, #7
 c006a78:	e0633002 	rsb	r3, r3, r2
 c006a7c:	e1a03803 	lsl	r3, r3, #16
 c006a80:	e1a03823 	lsr	r3, r3, #16
 c006a84:	e1a03803 	lsl	r3, r3, #16
 c006a88:	e1a03843 	asr	r3, r3, #16
 c006a8c:	e1a03103 	lsl	r3, r3, #2
 c006a90:	e3a0220f 	mov	r2, #-268435456	; 0xf0000000
 c006a94:	e1a03332 	lsr	r3, r2, r3
 c006a98:	e1e03003 	mvn	r3, r3
 c006a9c:	e0000003 	and	r0, r0, r3
 c006aa0:	e55bc041 	ldrb	ip, [fp, #-65]	; 0xffffffbf
 c006aa4:	e15b22f8 	ldrsh	r2, [fp, #-40]	; 0xffffffd8
 c006aa8:	e1a03fc2 	asr	r3, r2, #31
 c006aac:	e1a03ea3 	lsr	r3, r3, #29
 c006ab0:	e0822003 	add	r2, r2, r3
 c006ab4:	e2022007 	and	r2, r2, #7
 c006ab8:	e0633002 	rsb	r3, r3, r2
 c006abc:	e1a03803 	lsl	r3, r3, #16
 c006ac0:	e1a03823 	lsr	r3, r3, #16
 c006ac4:	e1a03803 	lsl	r3, r3, #16
 c006ac8:	e1a03843 	asr	r3, r3, #16
 c006acc:	e2633007 	rsb	r3, r3, #7
 c006ad0:	e1a03103 	lsl	r3, r3, #2
 c006ad4:	e1a0331c 	lsl	r3, ip, r3
 c006ad8:	e1803003 	orr	r3, r0, r3
 c006adc:	e5813000 	str	r3, [r1]
				ywbuf[j] = g_auc_Ascii8x16[ulOffset + j];
            }

            for( y = 0; y < 16; y++ )
            {
            	for( x = 0; x < 8; x++ ) 
 c006ae0:	e15b31ba 	ldrh	r3, [fp, #-26]	; 0xffffffe6
 c006ae4:	e2833001 	add	r3, r3, #1
 c006ae8:	e14b31ba 	strh	r3, [fp, #-26]	; 0xffffffe6
 c006aec:	e15b31fa 	ldrsh	r3, [fp, #-26]	; 0xffffffe6
 c006af0:	e3530007 	cmp	r3, #7
 c006af4:	daffff89 	ble	c006920 <Lcd_DspAscII8x16+0xf0>
			for( j = 0; j < 16; j ++ )
			{
				ywbuf[j] = g_auc_Ascii8x16[ulOffset + j];
            }

            for( y = 0; y < 16; y++ )
 c006af8:	e15b31bc 	ldrh	r3, [fp, #-28]	; 0xffffffe4
 c006afc:	e2833001 	add	r3, r3, #1
 c006b00:	e14b31bc 	strh	r3, [fp, #-28]	; 0xffffffe4
 c006b04:	e15b31fc 	ldrsh	r3, [fp, #-28]	; 0xffffffe4
 c006b08:	e353000f 	cmp	r3, #15
 c006b0c:	daffff80 	ble	c006914 <Lcd_DspAscII8x16+0xe4>
	INT16 i,j,k,x,y,xx;
	INT8U qm;
	INT32U ulOffset;
	INT8 ywbuf[16],temp[2];
    
	for( i = 0; i < strlen((const char*)s); i++ )
 c006b10:	e15b31b6 	ldrh	r3, [fp, #-22]	; 0xffffffea
 c006b14:	e2833001 	add	r3, r3, #1
 c006b18:	e14b31b6 	strh	r3, [fp, #-22]	; 0xffffffea
 c006b1c:	e15b41f6 	ldrsh	r4, [fp, #-22]	; 0xffffffea
 c006b20:	e51b0048 	ldr	r0, [fp, #-72]	; 0xffffffb8
 c006b24:	eb000e0b 	bl	c00a358 <strlen>
 c006b28:	e1a03000 	mov	r3, r0
 c006b2c:	e1540003 	cmp	r4, r3
 c006b30:	3affff4a 	bcc	c006860 <Lcd_DspAscII8x16+0x30>
			       	}
			   	}
            }
		}
	}
}
 c006b34:	e24bd010 	sub	sp, fp, #16
 c006b38:	e89d6810 	ldm	sp, {r4, fp, sp, lr}
 c006b3c:	e12fff1e 	bx	lr
 c006b40:	0c00ba20 	.word	0x0c00ba20

0c006b44 <Lcd_DspAscII6x8>:
* ret:		none
* modify:
* comment:
*********************************************************************************************/
void Lcd_DspAscII6x8(INT16U usX0, INT16U usY0,INT8U ForeColor, INT8U* pucChar)
{
 c006b44:	e1a0c00d 	mov	ip, sp
 c006b48:	e92dd800 	push	{fp, ip, lr, pc}
 c006b4c:	e24cb004 	sub	fp, ip, #4
 c006b50:	e24dd020 	sub	sp, sp, #32
 c006b54:	e50b3028 	str	r3, [fp, #-40]	; 0xffffffd8
 c006b58:	e14b01be 	strh	r0, [fp, #-30]	; 0xffffffe2
 c006b5c:	e14b12b0 	strh	r1, [fp, #-32]	; 0xffffffe0
 c006b60:	e1a03002 	mov	r3, r2
 c006b64:	e54b3021 	strb	r3, [fp, #-33]	; 0xffffffdf
	INT32U i,j;
	INT8U  ucTemp;

	while( *pucChar != 0 )
 c006b68:	ea00005e 	b	c006ce8 <Lcd_DspAscII6x8+0x1a4>
	{
		for( i=0; i < 8; i++ )
 c006b6c:	e3a03000 	mov	r3, #0
 c006b70:	e50b3010 	str	r3, [fp, #-16]
 c006b74:	ea000052 	b	c006cc4 <Lcd_DspAscII6x8+0x180>
		{
  			ucTemp = g_auc_Ascii6x8[(*pucChar) * 8 + i];
 c006b78:	e51b3028 	ldr	r3, [fp, #-40]	; 0xffffffd8
 c006b7c:	e5d33000 	ldrb	r3, [r3]
 c006b80:	e1a03183 	lsl	r3, r3, #3
 c006b84:	e1a02003 	mov	r2, r3
 c006b88:	e51b3010 	ldr	r3, [fp, #-16]
 c006b8c:	e0823003 	add	r3, r2, r3
 c006b90:	e59f216c 	ldr	r2, [pc, #364]	; c006d04 <Lcd_DspAscII6x8+0x1c0>
 c006b94:	e7d23003 	ldrb	r3, [r2, r3]
 c006b98:	e54b3015 	strb	r3, [fp, #-21]	; 0xffffffeb
  			for( j = 0; j < 8; j++ )
 c006b9c:	e3a03000 	mov	r3, #0
 c006ba0:	e50b3014 	str	r3, [fp, #-20]	; 0xffffffec
 c006ba4:	ea000040 	b	c006cac <Lcd_DspAscII6x8+0x168>
  			{
  				if( (ucTemp & (0x80 >> j)) != 0 )
 c006ba8:	e55b2015 	ldrb	r2, [fp, #-21]	; 0xffffffeb
 c006bac:	e51b3014 	ldr	r3, [fp, #-20]	; 0xffffffec
 c006bb0:	e3a01080 	mov	r1, #128	; 0x80
 c006bb4:	e1a03351 	asr	r3, r1, r3
 c006bb8:	e0023003 	and	r3, r2, r3
 c006bbc:	e3530000 	cmp	r3, #0
 c006bc0:	0a000036 	beq	c006ca0 <Lcd_DspAscII6x8+0x15c>
  				{
  					LCD_PutPixel(usX0 + i, usY0 + 8 - j, (INT8U)ForeColor);
 c006bc4:	e15b22b0 	ldrh	r2, [fp, #-32]	; 0xffffffe0
 c006bc8:	e51b3014 	ldr	r3, [fp, #-20]	; 0xffffffec
 c006bcc:	e0632002 	rsb	r2, r3, r2
 c006bd0:	e1a03002 	mov	r3, r2
 c006bd4:	e1a03103 	lsl	r3, r3, #2
 c006bd8:	e0833002 	add	r3, r3, r2
 c006bdc:	e1a03303 	lsl	r3, r3, #6
 c006be0:	e2833c0a 	add	r3, r3, #2560	; 0xa00
 c006be4:	e1a020a3 	lsr	r2, r3, #1
 c006be8:	e15b11be 	ldrh	r1, [fp, #-30]	; 0xffffffe2
 c006bec:	e51b3010 	ldr	r3, [fp, #-16]
 c006bf0:	e0813003 	add	r3, r1, r3
 c006bf4:	e1a031a3 	lsr	r3, r3, #3
 c006bf8:	e1a03103 	lsl	r3, r3, #2
 c006bfc:	e0823003 	add	r3, r2, r3
 c006c00:	e28336c3 	add	r3, r3, #204472320	; 0xc300000
 c006c04:	e2833c96 	add	r3, r3, #38400	; 0x9600
 c006c08:	e1a01003 	mov	r1, r3
 c006c0c:	e15b22b0 	ldrh	r2, [fp, #-32]	; 0xffffffe0
 c006c10:	e51b3014 	ldr	r3, [fp, #-20]	; 0xffffffec
 c006c14:	e0632002 	rsb	r2, r3, r2
 c006c18:	e1a03002 	mov	r3, r2
 c006c1c:	e1a03103 	lsl	r3, r3, #2
 c006c20:	e0833002 	add	r3, r3, r2
 c006c24:	e1a03303 	lsl	r3, r3, #6
 c006c28:	e2833c0a 	add	r3, r3, #2560	; 0xa00
 c006c2c:	e1a020a3 	lsr	r2, r3, #1
 c006c30:	e15b01be 	ldrh	r0, [fp, #-30]	; 0xffffffe2
 c006c34:	e51b3010 	ldr	r3, [fp, #-16]
 c006c38:	e0803003 	add	r3, r0, r3
 c006c3c:	e1a031a3 	lsr	r3, r3, #3
 c006c40:	e1a03103 	lsl	r3, r3, #2
 c006c44:	e0823003 	add	r3, r2, r3
 c006c48:	e28336c3 	add	r3, r3, #204472320	; 0xc300000
 c006c4c:	e2833c96 	add	r3, r3, #38400	; 0x9600
 c006c50:	e5932000 	ldr	r2, [r3]
 c006c54:	e15b01be 	ldrh	r0, [fp, #-30]	; 0xffffffe2
 c006c58:	e51b3010 	ldr	r3, [fp, #-16]
 c006c5c:	e0803003 	add	r3, r0, r3
 c006c60:	e2033007 	and	r3, r3, #7
 c006c64:	e1a03103 	lsl	r3, r3, #2
 c006c68:	e3a0020f 	mov	r0, #-268435456	; 0xf0000000
 c006c6c:	e1a03330 	lsr	r3, r0, r3
 c006c70:	e1e03003 	mvn	r3, r3
 c006c74:	e0022003 	and	r2, r2, r3
 c006c78:	e55b0021 	ldrb	r0, [fp, #-33]	; 0xffffffdf
 c006c7c:	e15bc1be 	ldrh	ip, [fp, #-30]	; 0xffffffe2
 c006c80:	e51b3010 	ldr	r3, [fp, #-16]
 c006c84:	e08c3003 	add	r3, ip, r3
 c006c88:	e1e03003 	mvn	r3, r3
 c006c8c:	e2033007 	and	r3, r3, #7
 c006c90:	e1a03103 	lsl	r3, r3, #2
 c006c94:	e1a03310 	lsl	r3, r0, r3
 c006c98:	e1823003 	orr	r3, r2, r3
 c006c9c:	e5813000 	str	r3, [r1]
	while( *pucChar != 0 )
	{
		for( i=0; i < 8; i++ )
		{
  			ucTemp = g_auc_Ascii6x8[(*pucChar) * 8 + i];
  			for( j = 0; j < 8; j++ )
 c006ca0:	e51b3014 	ldr	r3, [fp, #-20]	; 0xffffffec
 c006ca4:	e2833001 	add	r3, r3, #1
 c006ca8:	e50b3014 	str	r3, [fp, #-20]	; 0xffffffec
 c006cac:	e51b3014 	ldr	r3, [fp, #-20]	; 0xffffffec
 c006cb0:	e3530007 	cmp	r3, #7
 c006cb4:	9affffbb 	bls	c006ba8 <Lcd_DspAscII6x8+0x64>
	INT32U i,j;
	INT8U  ucTemp;

	while( *pucChar != 0 )
	{
		for( i=0; i < 8; i++ )
 c006cb8:	e51b3010 	ldr	r3, [fp, #-16]
 c006cbc:	e2833001 	add	r3, r3, #1
 c006cc0:	e50b3010 	str	r3, [fp, #-16]
 c006cc4:	e51b3010 	ldr	r3, [fp, #-16]
 c006cc8:	e3530007 	cmp	r3, #7
 c006ccc:	9affffa9 	bls	c006b78 <Lcd_DspAscII6x8+0x34>
  				{
  					LCD_PutPixel(usX0 + i, usY0 + 8 - j, (INT8U)ForeColor);
  				}
  			}
		}
		usX0 += XWIDTH;
 c006cd0:	e15b31be 	ldrh	r3, [fp, #-30]	; 0xffffffe2
 c006cd4:	e2833006 	add	r3, r3, #6
 c006cd8:	e14b31be 	strh	r3, [fp, #-30]	; 0xffffffe2
		pucChar++;
 c006cdc:	e51b3028 	ldr	r3, [fp, #-40]	; 0xffffffd8
 c006ce0:	e2833001 	add	r3, r3, #1
 c006ce4:	e50b3028 	str	r3, [fp, #-40]	; 0xffffffd8
void Lcd_DspAscII6x8(INT16U usX0, INT16U usY0,INT8U ForeColor, INT8U* pucChar)
{
	INT32U i,j;
	INT8U  ucTemp;

	while( *pucChar != 0 )
 c006ce8:	e51b3028 	ldr	r3, [fp, #-40]	; 0xffffffd8
 c006cec:	e5d33000 	ldrb	r3, [r3]
 c006cf0:	e3530000 	cmp	r3, #0
 c006cf4:	1affff9c 	bne	c006b6c <Lcd_DspAscII6x8+0x28>
  			}
		}
		usX0 += XWIDTH;
		pucChar++;
	}
}
 c006cf8:	e24bd00c 	sub	sp, fp, #12
 c006cfc:	e89d6800 	ldm	sp, {fp, sp, lr}
 c006d00:	e12fff1e 	bx	lr
 c006d04:	0c00b620 	.word	0x0c00b620

0c006d08 <ReverseLine>:
* ret:		none
* modify:
* comment:		
*********************************************************************************************/
void ReverseLine(INT32U ulHeight, INT32U ulY)
{
 c006d08:	e1a0c00d 	mov	ip, sp
 c006d0c:	e92dd800 	push	{fp, ip, lr, pc}
 c006d10:	e24cb004 	sub	fp, ip, #4
 c006d14:	e24dd018 	sub	sp, sp, #24
 c006d18:	e50b0020 	str	r0, [fp, #-32]	; 0xffffffe0
 c006d1c:	e50b1024 	str	r1, [fp, #-36]	; 0xffffffdc
	INT32U i, j, temp;
	
	for( i = 0; i < ulHeight; i++ )
 c006d20:	e3a03000 	mov	r3, #0
 c006d24:	e50b3010 	str	r3, [fp, #-16]
 c006d28:	ea00002c 	b	c006de0 <ReverseLine+0xd8>
	{
		for( j = 0; j < (SCR_XSIZE/4/2) ; j++ )
 c006d2c:	e3a03000 	mov	r3, #0
 c006d30:	e50b3014 	str	r3, [fp, #-20]	; 0xffffffec
 c006d34:	ea000023 	b	c006dc8 <ReverseLine+0xc0>
		{
			temp = *(INT32U*)(LCD_VIRTUAL_BUFFER + (ulY+i)*SCR_XSIZE/2 + j*4);
 c006d38:	e51b2024 	ldr	r2, [fp, #-36]	; 0xffffffdc
 c006d3c:	e51b3010 	ldr	r3, [fp, #-16]
 c006d40:	e0822003 	add	r2, r2, r3
 c006d44:	e1a03002 	mov	r3, r2
 c006d48:	e1a03103 	lsl	r3, r3, #2
 c006d4c:	e0833002 	add	r3, r3, r2
 c006d50:	e1a03303 	lsl	r3, r3, #6
 c006d54:	e1a020a3 	lsr	r2, r3, #1
 c006d58:	e51b3014 	ldr	r3, [fp, #-20]	; 0xffffffec
 c006d5c:	e1a03103 	lsl	r3, r3, #2
 c006d60:	e0823003 	add	r3, r2, r3
 c006d64:	e28336c3 	add	r3, r3, #204472320	; 0xc300000
 c006d68:	e2833c96 	add	r3, r3, #38400	; 0x9600
 c006d6c:	e5933000 	ldr	r3, [r3]
 c006d70:	e50b3018 	str	r3, [fp, #-24]	; 0xffffffe8
			temp ^= 0xFFFFFFFF;
 c006d74:	e51b3018 	ldr	r3, [fp, #-24]	; 0xffffffe8
 c006d78:	e1e03003 	mvn	r3, r3
 c006d7c:	e50b3018 	str	r3, [fp, #-24]	; 0xffffffe8
			*(INT32U*)(LCD_VIRTUAL_BUFFER + (ulY+i)*SCR_XSIZE/2 + j*4) = temp;
 c006d80:	e51b2024 	ldr	r2, [fp, #-36]	; 0xffffffdc
 c006d84:	e51b3010 	ldr	r3, [fp, #-16]
 c006d88:	e0822003 	add	r2, r2, r3
 c006d8c:	e1a03002 	mov	r3, r2
 c006d90:	e1a03103 	lsl	r3, r3, #2
 c006d94:	e0833002 	add	r3, r3, r2
 c006d98:	e1a03303 	lsl	r3, r3, #6
 c006d9c:	e1a020a3 	lsr	r2, r3, #1
 c006da0:	e51b3014 	ldr	r3, [fp, #-20]	; 0xffffffec
 c006da4:	e1a03103 	lsl	r3, r3, #2
 c006da8:	e0823003 	add	r3, r2, r3
 c006dac:	e28336c3 	add	r3, r3, #204472320	; 0xc300000
 c006db0:	e2833c96 	add	r3, r3, #38400	; 0x9600
 c006db4:	e51b2018 	ldr	r2, [fp, #-24]	; 0xffffffe8
 c006db8:	e5832000 	str	r2, [r3]
{
	INT32U i, j, temp;
	
	for( i = 0; i < ulHeight; i++ )
	{
		for( j = 0; j < (SCR_XSIZE/4/2) ; j++ )
 c006dbc:	e51b3014 	ldr	r3, [fp, #-20]	; 0xffffffec
 c006dc0:	e2833001 	add	r3, r3, #1
 c006dc4:	e50b3014 	str	r3, [fp, #-20]	; 0xffffffec
 c006dc8:	e51b3014 	ldr	r3, [fp, #-20]	; 0xffffffec
 c006dcc:	e3530027 	cmp	r3, #39	; 0x27
 c006dd0:	9affffd8 	bls	c006d38 <ReverseLine+0x30>
*********************************************************************************************/
void ReverseLine(INT32U ulHeight, INT32U ulY)
{
	INT32U i, j, temp;
	
	for( i = 0; i < ulHeight; i++ )
 c006dd4:	e51b3010 	ldr	r3, [fp, #-16]
 c006dd8:	e2833001 	add	r3, r3, #1
 c006ddc:	e50b3010 	str	r3, [fp, #-16]
 c006de0:	e51b2010 	ldr	r2, [fp, #-16]
 c006de4:	e51b3020 	ldr	r3, [fp, #-32]	; 0xffffffe0
 c006de8:	e1520003 	cmp	r2, r3
 c006dec:	3affffce 	bcc	c006d2c <ReverseLine+0x24>
			temp = *(INT32U*)(LCD_VIRTUAL_BUFFER + (ulY+i)*SCR_XSIZE/2 + j*4);
			temp ^= 0xFFFFFFFF;
			*(INT32U*)(LCD_VIRTUAL_BUFFER + (ulY+i)*SCR_XSIZE/2 + j*4) = temp;
		}
	}
}
 c006df0:	e24bd00c 	sub	sp, fp, #12
 c006df4:	e89d6800 	ldm	sp, {fp, sp, lr}
 c006df8:	e12fff1e 	bx	lr

0c006dfc <Zdma0Done>:
* modify:
* comment:		
*********************************************************************************************/
volatile static INT8U ucZdma0Done=1;	//When DMA is finish,ucZdma0Done is cleared to Zero
void Zdma0Done(void)
{
 c006dfc:	e52dc004 	push	{ip}		; (str ip, [sp, #-4]!)
 c006e00:	e1a0c00d 	mov	ip, sp
 c006e04:	e92dd80c 	push	{r2, r3, fp, ip, lr, pc}
 c006e08:	e24cb004 	sub	fp, ip, #4
	rI_ISPC=BIT_ZDMA0;	    //clear pending
 c006e0c:	e59f3020 	ldr	r3, [pc, #32]	; c006e34 <Zdma0Done+0x38>
 c006e10:	e3a02702 	mov	r2, #524288	; 0x80000
 c006e14:	e5832000 	str	r2, [r3]
	ucZdma0Done=0;
 c006e18:	e59f3018 	ldr	r3, [pc, #24]	; c006e38 <Zdma0Done+0x3c>
 c006e1c:	e3a02000 	mov	r2, #0
 c006e20:	e5c32000 	strb	r2, [r3]
}
 c006e24:	e24bd014 	sub	sp, fp, #20
 c006e28:	e89d680c 	ldm	sp, {r2, r3, fp, sp, lr}
 c006e2c:	e49dc004 	pop	{ip}		; (ldr ip, [sp], #4)
 c006e30:	e25ef004 	subs	pc, lr, #4
 c006e34:	01e00024 	.word	0x01e00024
 c006e38:	0c00a465 	.word	0x0c00a465

0c006e3c <Lcd_Dma_Trans>:
* ret:		none
* modify:
* comment:		
*********************************************************************************************/
void Lcd_Dma_Trans(void)
{
 c006e3c:	e1a0c00d 	mov	ip, sp
 c006e40:	e92dd800 	push	{fp, ip, lr, pc}
 c006e44:	e24cb004 	sub	fp, ip, #4
	INT8U err;
	
	ucZdma0Done=1;
 c006e48:	e59f3078 	ldr	r3, [pc, #120]	; c006ec8 <Lcd_Dma_Trans+0x8c>
 c006e4c:	e3a02001 	mov	r2, #1
 c006e50:	e5c32000 	strb	r2, [r3]
	//#define LCD_VIRTUAL_BUFFER	(0xc400000)
	//#define LCD_ACTIVE_BUFFER	(LCD_VIRTUAL_BUFFER+(SCR_XSIZE*SCR_YSIZE/2))	//DMA ON
	//#define LCD_ACTIVE_BUFFER	LCD_VIRTUAL_BUFFER								//DMA OFF
	//#define LCD_BUF_SIZE		(SCR_XSIZE*SCR_YSIZE/2)
	//So the Lcd Buffer Low area is from LCD_VIRTUAL_BUFFER to (LCD_ACTIVE_BUFFER+(SCR_XSIZE*SCR_YSIZE/2))
	rNCACHBE1=(((unsigned)(LCD_ACTIVE_BUFFER)>>12) <<16 )|((unsigned)(LCD_VIRTUAL_BUFFER)>>12);
 c006e54:	e59f3070 	ldr	r3, [pc, #112]	; c006ecc <Lcd_Dma_Trans+0x90>
 c006e58:	e59f2070 	ldr	r2, [pc, #112]	; c006ed0 <Lcd_Dma_Trans+0x94>
 c006e5c:	e5832000 	str	r2, [r3]
  	rZDISRC0=(DW<<30)|(1<<28)     |LCD_VIRTUAL_BUFFER; // inc
 c006e60:	e59f306c 	ldr	r3, [pc, #108]	; c006ed4 <Lcd_Dma_Trans+0x98>
 c006e64:	e59f206c 	ldr	r2, [pc, #108]	; c006ed8 <Lcd_Dma_Trans+0x9c>
 c006e68:	e5832000 	str	r2, [r3]
  	rZDIDES0=( 2<<30)|(1<<28)     |LCD_ACTIVE_BUFFER; // inc
 c006e6c:	e59f3068 	ldr	r3, [pc, #104]	; c006edc <Lcd_Dma_Trans+0xa0>
 c006e70:	e59f2068 	ldr	r2, [pc, #104]	; c006ee0 <Lcd_Dma_Trans+0xa4>
 c006e74:	e5832000 	str	r2, [r3]
    rZDICNT0=( 2<<28)|(1<<26)     |(3<<22)     |(0<<20)      |(LCD_BUF_SIZE);
 c006e78:	e59f3064 	ldr	r3, [pc, #100]	; c006ee4 <Lcd_Dma_Trans+0xa8>
 c006e7c:	e59f2064 	ldr	r2, [pc, #100]	; c006ee8 <Lcd_Dma_Trans+0xac>
 c006e80:	e5832000 	str	r2, [r3]
        //           |            |            |             |------------>Int. whenever transferred
        //           |            |            |-------------------->Write time on the fly
        //           |            |---------------------------->Block(4-word) transfer mode
        //           |------------------------------------>whole service
	    //reEnable ZDMA transfer
  	rZDICNT0 |= (1<<20);		//after ES3
 c006e84:	e59f3058 	ldr	r3, [pc, #88]	; c006ee4 <Lcd_Dma_Trans+0xa8>
 c006e88:	e59f2054 	ldr	r2, [pc, #84]	; c006ee4 <Lcd_Dma_Trans+0xa8>
 c006e8c:	e5922000 	ldr	r2, [r2]
 c006e90:	e3822601 	orr	r2, r2, #1048576	; 0x100000
 c006e94:	e5832000 	str	r2, [r3]
    rZDCON0=0x1; // start!!!  
 c006e98:	e3a0377a 	mov	r3, #31981568	; 0x1e80000
 c006e9c:	e3a02001 	mov	r2, #1
 c006ea0:	e5832000 	str	r2, [r3]

	//Delay(500);
	while(ucZdma0Done);		//wait for DMA finish
 c006ea4:	e1a00000 	nop			; (mov r0, r0)
 c006ea8:	e59f3018 	ldr	r3, [pc, #24]	; c006ec8 <Lcd_Dma_Trans+0x8c>
 c006eac:	e5d33000 	ldrb	r3, [r3]
 c006eb0:	e20330ff 	and	r3, r3, #255	; 0xff
 c006eb4:	e3530000 	cmp	r3, #0
 c006eb8:	1afffffa 	bne	c006ea8 <Lcd_Dma_Trans+0x6c>
}
 c006ebc:	e24bd00c 	sub	sp, fp, #12
 c006ec0:	e89d6800 	ldm	sp, {fp, sp, lr}
 c006ec4:	e12fff1e 	bx	lr
 c006ec8:	0c00a465 	.word	0x0c00a465
 c006ecc:	01c00008 	.word	0x01c00008
 c006ed0:	c300c309 	.word	0xc300c309
 c006ed4:	01e80004 	.word	0x01e80004
 c006ed8:	1c309600 	.word	0x1c309600
 c006edc:	01e80008 	.word	0x01e80008
 c006ee0:	9c300000 	.word	0x9c300000
 c006ee4:	01e8000c 	.word	0x01e8000c
 c006ee8:	24c09600 	.word	0x24c09600

0c006eec <Lcd_Test>:
* ret:		none
* modify:
* comment:		
*********************************************************************************************/
void Lcd_Test(void)
{
 c006eec:	e1a0c00d 	mov	ip, sp
 c006ef0:	e92dd800 	push	{fp, ip, lr, pc}
 c006ef4:	e24cb004 	sub	fp, ip, #4
 c006ef8:	e24dd008 	sub	sp, sp, #8
	/* initial LCD controller */
	Lcd_Init();
 c006efc:	ebfff851 	bl	c005048 <Lcd_Init>
	/* clear screen */
	Lcd_Clr();
 c006f00:	ebfff903 	bl	c005314 <Lcd_Clr>
	Lcd_Active_Clr();
 c006f04:	ebfff8b4 	bl	c0051dc <Lcd_Active_Clr>
    #ifdef Eng_v // english version
	Lcd_DspAscII8x16(10,0,DARKGRAY,"Embest S3CEV40 ");
	#else
//	Lcd_DspHz16(10,0,DARKGRAY,"");
	#endif
	Lcd_DspAscII8x16(10,20,BLACK,"Codigo del puesto: ");
 c006f08:	e3a0000a 	mov	r0, #10
 c006f0c:	e3a01014 	mov	r1, #20
 c006f10:	e3a0200f 	mov	r2, #15
 c006f14:	e59f31a0 	ldr	r3, [pc, #416]	; c0070bc <Lcd_Test+0x1d0>
 c006f18:	ebfffe44 	bl	c006830 <Lcd_DspAscII8x16>
	Lcd_Draw_Box(10,40,310,230,14);
 c006f1c:	e3a0300e 	mov	r3, #14
 c006f20:	e58d3000 	str	r3, [sp]
 c006f24:	e3a0000a 	mov	r0, #10
 c006f28:	e3a01028 	mov	r1, #40	; 0x28
 c006f2c:	e59f218c 	ldr	r2, [pc, #396]	; c0070c0 <Lcd_Test+0x1d4>
 c006f30:	e3a030e6 	mov	r3, #230	; 0xe6
 c006f34:	ebfffaa5 	bl	c0059d0 <Lcd_Draw_Box>
	Lcd_Draw_Box(20,45,300,225,13);
 c006f38:	e3a0300d 	mov	r3, #13
 c006f3c:	e58d3000 	str	r3, [sp]
 c006f40:	e3a00014 	mov	r0, #20
 c006f44:	e3a0102d 	mov	r1, #45	; 0x2d
 c006f48:	e3a02f4b 	mov	r2, #300	; 0x12c
 c006f4c:	e3a030e1 	mov	r3, #225	; 0xe1
 c006f50:	ebfffa9e 	bl	c0059d0 <Lcd_Draw_Box>
	Lcd_Draw_Box(30,50,290,220,12);
 c006f54:	e3a0300c 	mov	r3, #12
 c006f58:	e58d3000 	str	r3, [sp]
 c006f5c:	e3a0001e 	mov	r0, #30
 c006f60:	e3a01032 	mov	r1, #50	; 0x32
 c006f64:	e59f2158 	ldr	r2, [pc, #344]	; c0070c4 <Lcd_Test+0x1d8>
 c006f68:	e3a030dc 	mov	r3, #220	; 0xdc
 c006f6c:	ebfffa97 	bl	c0059d0 <Lcd_Draw_Box>
	Lcd_Draw_Box(40,55,280,215,11);
 c006f70:	e3a0300b 	mov	r3, #11
 c006f74:	e58d3000 	str	r3, [sp]
 c006f78:	e3a00028 	mov	r0, #40	; 0x28
 c006f7c:	e3a01037 	mov	r1, #55	; 0x37
 c006f80:	e3a02f46 	mov	r2, #280	; 0x118
 c006f84:	e3a030d7 	mov	r3, #215	; 0xd7
 c006f88:	ebfffa90 	bl	c0059d0 <Lcd_Draw_Box>
	Lcd_Draw_Box(50,60,270,210,10);
 c006f8c:	e3a0300a 	mov	r3, #10
 c006f90:	e58d3000 	str	r3, [sp]
 c006f94:	e3a00032 	mov	r0, #50	; 0x32
 c006f98:	e3a0103c 	mov	r1, #60	; 0x3c
 c006f9c:	e59f2124 	ldr	r2, [pc, #292]	; c0070c8 <Lcd_Test+0x1dc>
 c006fa0:	e3a030d2 	mov	r3, #210	; 0xd2
 c006fa4:	ebfffa89 	bl	c0059d0 <Lcd_Draw_Box>
	Lcd_Draw_Box(60,65,260,205,9);
 c006fa8:	e3a03009 	mov	r3, #9
 c006fac:	e58d3000 	str	r3, [sp]
 c006fb0:	e3a0003c 	mov	r0, #60	; 0x3c
 c006fb4:	e3a01041 	mov	r1, #65	; 0x41
 c006fb8:	e3a02f41 	mov	r2, #260	; 0x104
 c006fbc:	e3a030cd 	mov	r3, #205	; 0xcd
 c006fc0:	ebfffa82 	bl	c0059d0 <Lcd_Draw_Box>
	Lcd_Draw_Box(70,70,250,200,8);
 c006fc4:	e3a03008 	mov	r3, #8
 c006fc8:	e58d3000 	str	r3, [sp]
 c006fcc:	e3a00046 	mov	r0, #70	; 0x46
 c006fd0:	e3a01046 	mov	r1, #70	; 0x46
 c006fd4:	e3a020fa 	mov	r2, #250	; 0xfa
 c006fd8:	e3a030c8 	mov	r3, #200	; 0xc8
 c006fdc:	ebfffa7b 	bl	c0059d0 <Lcd_Draw_Box>
	Lcd_Draw_Box(80,75,240,195,7);
 c006fe0:	e3a03007 	mov	r3, #7
 c006fe4:	e58d3000 	str	r3, [sp]
 c006fe8:	e3a00050 	mov	r0, #80	; 0x50
 c006fec:	e3a0104b 	mov	r1, #75	; 0x4b
 c006ff0:	e3a020f0 	mov	r2, #240	; 0xf0
 c006ff4:	e3a030c3 	mov	r3, #195	; 0xc3
 c006ff8:	ebfffa74 	bl	c0059d0 <Lcd_Draw_Box>
	Lcd_Draw_Box(90,80,230,190,6);
 c006ffc:	e3a03006 	mov	r3, #6
 c007000:	e58d3000 	str	r3, [sp]
 c007004:	e3a0005a 	mov	r0, #90	; 0x5a
 c007008:	e3a01050 	mov	r1, #80	; 0x50
 c00700c:	e3a020e6 	mov	r2, #230	; 0xe6
 c007010:	e3a030be 	mov	r3, #190	; 0xbe
 c007014:	ebfffa6d 	bl	c0059d0 <Lcd_Draw_Box>
	Lcd_Draw_Box(100,85,220,185,5);
 c007018:	e3a03005 	mov	r3, #5
 c00701c:	e58d3000 	str	r3, [sp]
 c007020:	e3a00064 	mov	r0, #100	; 0x64
 c007024:	e3a01055 	mov	r1, #85	; 0x55
 c007028:	e3a020dc 	mov	r2, #220	; 0xdc
 c00702c:	e3a030b9 	mov	r3, #185	; 0xb9
 c007030:	ebfffa66 	bl	c0059d0 <Lcd_Draw_Box>
	Lcd_Draw_Box(110,90,210,180,4);
 c007034:	e3a03004 	mov	r3, #4
 c007038:	e58d3000 	str	r3, [sp]
 c00703c:	e3a0006e 	mov	r0, #110	; 0x6e
 c007040:	e3a0105a 	mov	r1, #90	; 0x5a
 c007044:	e3a020d2 	mov	r2, #210	; 0xd2
 c007048:	e3a030b4 	mov	r3, #180	; 0xb4
 c00704c:	ebfffa5f 	bl	c0059d0 <Lcd_Draw_Box>
	Lcd_Draw_Box(120,95,200,175,3);
 c007050:	e3a03003 	mov	r3, #3
 c007054:	e58d3000 	str	r3, [sp]
 c007058:	e3a00078 	mov	r0, #120	; 0x78
 c00705c:	e3a0105f 	mov	r1, #95	; 0x5f
 c007060:	e3a020c8 	mov	r2, #200	; 0xc8
 c007064:	e3a030af 	mov	r3, #175	; 0xaf
 c007068:	ebfffa58 	bl	c0059d0 <Lcd_Draw_Box>
	Lcd_Draw_Box(130,100,190,170,2);
 c00706c:	e3a03002 	mov	r3, #2
 c007070:	e58d3000 	str	r3, [sp]
 c007074:	e3a00082 	mov	r0, #130	; 0x82
 c007078:	e3a01064 	mov	r1, #100	; 0x64
 c00707c:	e3a020be 	mov	r2, #190	; 0xbe
 c007080:	e3a030aa 	mov	r3, #170	; 0xaa
 c007084:	ebfffa51 	bl	c0059d0 <Lcd_Draw_Box>
	BitmapView(125,135,Stru_Bitmap_gbMouse);
 c007088:	e59f303c 	ldr	r3, [pc, #60]	; c0070cc <Lcd_Test+0x1e0>
 c00708c:	e1a0200d 	mov	r2, sp
 c007090:	e2831008 	add	r1, r3, #8
 c007094:	e8910003 	ldm	r1, {r0, r1}
 c007098:	e8820003 	stm	r2, {r0, r1}
 c00709c:	e893000c 	ldm	r3, {r2, r3}
 c0070a0:	e3a0007d 	mov	r0, #125	; 0x7d
 c0070a4:	e3a01087 	mov	r1, #135	; 0x87
 c0070a8:	ebffe7e4 	bl	c001040 <BitmapView>
	Lcd_Dma_Trans();
 c0070ac:	ebffff62 	bl	c006e3c <Lcd_Dma_Trans>

}
 c0070b0:	e24bd00c 	sub	sp, fp, #12
 c0070b4:	e89d6800 	ldm	sp, {fp, sp, lr}
 c0070b8:	e12fff1e 	bx	lr
 c0070bc:	0c00cbc4 	.word	0x0c00cbc4
 c0070c0:	00000136 	.word	0x00000136
 c0070c4:	00000122 	.word	0x00000122
 c0070c8:	0000010e 	.word	0x0000010e
 c0070cc:	0c00a418 	.word	0x0c00a418

0c0070d0 <leds_on>:
/*--- variables globales del mdulo ---*/
static int led_state = 0; /* estado del LED */

/*--- cdigo de las funciones pblicas ---*/
void leds_on()
{
 c0070d0:	e1a0c00d 	mov	ip, sp
 c0070d4:	e92dd800 	push	{fp, ip, lr, pc}
 c0070d8:	e24cb004 	sub	fp, ip, #4
	Led_Display(0x3);
 c0070dc:	e3a00003 	mov	r0, #3
 c0070e0:	eb000065 	bl	c00727c <Led_Display>
}
 c0070e4:	e24bd00c 	sub	sp, fp, #12
 c0070e8:	e89d6800 	ldm	sp, {fp, sp, lr}
 c0070ec:	e12fff1e 	bx	lr

0c0070f0 <leds_off>:

void leds_off()
{
 c0070f0:	e1a0c00d 	mov	ip, sp
 c0070f4:	e92dd800 	push	{fp, ip, lr, pc}
 c0070f8:	e24cb004 	sub	fp, ip, #4
	Led_Display(0x0);
 c0070fc:	e3a00000 	mov	r0, #0
 c007100:	eb00005d 	bl	c00727c <Led_Display>
}
 c007104:	e24bd00c 	sub	sp, fp, #12
 c007108:	e89d6800 	ldm	sp, {fp, sp, lr}
 c00710c:	e12fff1e 	bx	lr

0c007110 <led1_on>:

void led1_on()
{
 c007110:	e1a0c00d 	mov	ip, sp
 c007114:	e92dd800 	push	{fp, ip, lr, pc}
 c007118:	e24cb004 	sub	fp, ip, #4
	led_state = led_state | 0x1;
 c00711c:	e59f3028 	ldr	r3, [pc, #40]	; c00714c <led1_on+0x3c>
 c007120:	e5933000 	ldr	r3, [r3]
 c007124:	e3832001 	orr	r2, r3, #1
 c007128:	e59f301c 	ldr	r3, [pc, #28]	; c00714c <led1_on+0x3c>
 c00712c:	e5832000 	str	r2, [r3]
	Led_Display(led_state);
 c007130:	e59f3014 	ldr	r3, [pc, #20]	; c00714c <led1_on+0x3c>
 c007134:	e5933000 	ldr	r3, [r3]
 c007138:	e1a00003 	mov	r0, r3
 c00713c:	eb00004e 	bl	c00727c <Led_Display>
}
 c007140:	e24bd00c 	sub	sp, fp, #12
 c007144:	e89d6800 	ldm	sp, {fp, sp, lr}
 c007148:	e12fff1e 	bx	lr
 c00714c:	0c00cd60 	.word	0x0c00cd60

0c007150 <led1_off>:

void led1_off()
{
 c007150:	e1a0c00d 	mov	ip, sp
 c007154:	e92dd800 	push	{fp, ip, lr, pc}
 c007158:	e24cb004 	sub	fp, ip, #4
	led_state = led_state & 0xfe;
 c00715c:	e59f3028 	ldr	r3, [pc, #40]	; c00718c <led1_off+0x3c>
 c007160:	e5933000 	ldr	r3, [r3]
 c007164:	e20320fe 	and	r2, r3, #254	; 0xfe
 c007168:	e59f301c 	ldr	r3, [pc, #28]	; c00718c <led1_off+0x3c>
 c00716c:	e5832000 	str	r2, [r3]
	Led_Display(led_state);
 c007170:	e59f3014 	ldr	r3, [pc, #20]	; c00718c <led1_off+0x3c>
 c007174:	e5933000 	ldr	r3, [r3]
 c007178:	e1a00003 	mov	r0, r3
 c00717c:	eb00003e 	bl	c00727c <Led_Display>
}
 c007180:	e24bd00c 	sub	sp, fp, #12
 c007184:	e89d6800 	ldm	sp, {fp, sp, lr}
 c007188:	e12fff1e 	bx	lr
 c00718c:	0c00cd60 	.word	0x0c00cd60

0c007190 <led2_on>:

void led2_on()
{
 c007190:	e1a0c00d 	mov	ip, sp
 c007194:	e92dd800 	push	{fp, ip, lr, pc}
 c007198:	e24cb004 	sub	fp, ip, #4
	led_state = led_state | 0x2;
 c00719c:	e59f3018 	ldr	r3, [pc, #24]	; c0071bc <led2_on+0x2c>
 c0071a0:	e5933000 	ldr	r3, [r3]
 c0071a4:	e3832002 	orr	r2, r3, #2
 c0071a8:	e59f300c 	ldr	r3, [pc, #12]	; c0071bc <led2_on+0x2c>
 c0071ac:	e5832000 	str	r2, [r3]
}
 c0071b0:	e24bd00c 	sub	sp, fp, #12
 c0071b4:	e89d6800 	ldm	sp, {fp, sp, lr}
 c0071b8:	e12fff1e 	bx	lr
 c0071bc:	0c00cd60 	.word	0x0c00cd60

0c0071c0 <led2_off>:

void led2_off()
{
 c0071c0:	e1a0c00d 	mov	ip, sp
 c0071c4:	e92dd800 	push	{fp, ip, lr, pc}
 c0071c8:	e24cb004 	sub	fp, ip, #4
	led_state = led_state & 0xfd;
 c0071cc:	e59f3028 	ldr	r3, [pc, #40]	; c0071fc <led2_off+0x3c>
 c0071d0:	e5933000 	ldr	r3, [r3]
 c0071d4:	e20320fd 	and	r2, r3, #253	; 0xfd
 c0071d8:	e59f301c 	ldr	r3, [pc, #28]	; c0071fc <led2_off+0x3c>
 c0071dc:	e5832000 	str	r2, [r3]
	Led_Display(led_state);
 c0071e0:	e59f3014 	ldr	r3, [pc, #20]	; c0071fc <led2_off+0x3c>
 c0071e4:	e5933000 	ldr	r3, [r3]
 c0071e8:	e1a00003 	mov	r0, r3
 c0071ec:	eb000022 	bl	c00727c <Led_Display>
}
 c0071f0:	e24bd00c 	sub	sp, fp, #12
 c0071f4:	e89d6800 	ldm	sp, {fp, sp, lr}
 c0071f8:	e12fff1e 	bx	lr
 c0071fc:	0c00cd60 	.word	0x0c00cd60

0c007200 <leds_switch>:

void leds_switch()
{
 c007200:	e1a0c00d 	mov	ip, sp
 c007204:	e92dd800 	push	{fp, ip, lr, pc}
 c007208:	e24cb004 	sub	fp, ip, #4
	led_state ^= 0x03;
 c00720c:	e59f3028 	ldr	r3, [pc, #40]	; c00723c <leds_switch+0x3c>
 c007210:	e5933000 	ldr	r3, [r3]
 c007214:	e2232003 	eor	r2, r3, #3
 c007218:	e59f301c 	ldr	r3, [pc, #28]	; c00723c <leds_switch+0x3c>
 c00721c:	e5832000 	str	r2, [r3]
	Led_Display(led_state);
 c007220:	e59f3014 	ldr	r3, [pc, #20]	; c00723c <leds_switch+0x3c>
 c007224:	e5933000 	ldr	r3, [r3]
 c007228:	e1a00003 	mov	r0, r3
 c00722c:	eb000012 	bl	c00727c <Led_Display>
	// cola_depuracion(EVT_LEDS_CAMBIO, timer2_count(), 5);
}
 c007230:	e24bd00c 	sub	sp, fp, #12
 c007234:	e89d6800 	ldm	sp, {fp, sp, lr}
 c007238:	e12fff1e 	bx	lr
 c00723c:	0c00cd60 	.word	0x0c00cd60

0c007240 <led2_switch>:

/* */
void led2_switch(void)
{
 c007240:	e1a0c00d 	mov	ip, sp
 c007244:	e92dd800 	push	{fp, ip, lr, pc}
 c007248:	e24cb004 	sub	fp, ip, #4
	 * Si el bit 10 es 1, el LED est apagado; si es 0, el LED est encendido.
	 * El 400 en hexadecimal es 2^10, que corresponde al bit 10.
	 * Si rPDATB & 0x400 es verdadero, significa que el bit 10 es 1 (LED apagado).
	 * Si es falso, el bit 10 es 0 (LED encendido).
	 */
	if (rPDATB & 0x400)
 c00724c:	e59f3024 	ldr	r3, [pc, #36]	; c007278 <led2_switch+0x38>
 c007250:	e5933000 	ldr	r3, [r3]
 c007254:	e2033b01 	and	r3, r3, #1024	; 0x400
 c007258:	e3530000 	cmp	r3, #0
 c00725c:	0a000001 	beq	c007268 <led2_switch+0x28>
		led2_on();
 c007260:	ebffffca 	bl	c007190 <led2_on>
 c007264:	ea000000 	b	c00726c <led2_switch+0x2c>
	else
		led2_off();
 c007268:	ebffffd4 	bl	c0071c0 <led2_off>
}
 c00726c:	e24bd00c 	sub	sp, fp, #12
 c007270:	e89d6800 	ldm	sp, {fp, sp, lr}
 c007274:	e12fff1e 	bx	lr
 c007278:	01d2000c 	.word	0x01d2000c

0c00727c <Led_Display>:

void Led_Display(int LedStatus)
{
 c00727c:	e1a0c00d 	mov	ip, sp
 c007280:	e92dd800 	push	{fp, ip, lr, pc}
 c007284:	e24cb004 	sub	fp, ip, #4
 c007288:	e24dd008 	sub	sp, sp, #8
 c00728c:	e50b0010 	str	r0, [fp, #-16]
	led_state = LedStatus;
 c007290:	e59f3094 	ldr	r3, [pc, #148]	; c00732c <Led_Display+0xb0>
 c007294:	e51b2010 	ldr	r2, [fp, #-16]
 c007298:	e5832000 	str	r2, [r3]

	if ((LedStatus & 0x01) == 0x01)
 c00729c:	e51b3010 	ldr	r3, [fp, #-16]
 c0072a0:	e2033001 	and	r3, r3, #1
 c0072a4:	e20330ff 	and	r3, r3, #255	; 0xff
 c0072a8:	e3530000 	cmp	r3, #0
 c0072ac:	0a000006 	beq	c0072cc <Led_Display+0x50>
		rPDATB = rPDATB & 0x5ff; /* poner a 0 el bit 9 del puerto B */
 c0072b0:	e59f2078 	ldr	r2, [pc, #120]	; c007330 <Led_Display+0xb4>
 c0072b4:	e59f3074 	ldr	r3, [pc, #116]	; c007330 <Led_Display+0xb4>
 c0072b8:	e5931000 	ldr	r1, [r3]
 c0072bc:	e59f3070 	ldr	r3, [pc, #112]	; c007334 <Led_Display+0xb8>
 c0072c0:	e0013003 	and	r3, r1, r3
 c0072c4:	e5823000 	str	r3, [r2]
 c0072c8:	ea000004 	b	c0072e0 <Led_Display+0x64>
	else
		rPDATB = rPDATB | 0x200; /* poner a 1 el bit 9 del puerto B */
 c0072cc:	e59f305c 	ldr	r3, [pc, #92]	; c007330 <Led_Display+0xb4>
 c0072d0:	e59f2058 	ldr	r2, [pc, #88]	; c007330 <Led_Display+0xb4>
 c0072d4:	e5922000 	ldr	r2, [r2]
 c0072d8:	e3822c02 	orr	r2, r2, #512	; 0x200
 c0072dc:	e5832000 	str	r2, [r3]

	if ((LedStatus & 0x02) == 0x02)
 c0072e0:	e51b3010 	ldr	r3, [fp, #-16]
 c0072e4:	e2033002 	and	r3, r3, #2
 c0072e8:	e3530000 	cmp	r3, #0
 c0072ec:	0a000006 	beq	c00730c <Led_Display+0x90>
		rPDATB = rPDATB & 0x3ff; /* poner a 0 el bit 10 del puerto B */
 c0072f0:	e59f2038 	ldr	r2, [pc, #56]	; c007330 <Led_Display+0xb4>
 c0072f4:	e59f3034 	ldr	r3, [pc, #52]	; c007330 <Led_Display+0xb4>
 c0072f8:	e5933000 	ldr	r3, [r3]
 c0072fc:	e1a03b03 	lsl	r3, r3, #22
 c007300:	e1a03b23 	lsr	r3, r3, #22
 c007304:	e5823000 	str	r3, [r2]
 c007308:	ea000004 	b	c007320 <Led_Display+0xa4>
	else
		rPDATB = rPDATB | 0x400; /* poner a 1 el bit 10 del puerto B */
 c00730c:	e59f301c 	ldr	r3, [pc, #28]	; c007330 <Led_Display+0xb4>
 c007310:	e59f2018 	ldr	r2, [pc, #24]	; c007330 <Led_Display+0xb4>
 c007314:	e5922000 	ldr	r2, [r2]
 c007318:	e3822b01 	orr	r2, r2, #1024	; 0x400
 c00731c:	e5832000 	str	r2, [r3]
}
 c007320:	e24bd00c 	sub	sp, fp, #12
 c007324:	e89d6800 	ldm	sp, {fp, sp, lr}
 c007328:	e12fff1e 	bx	lr
 c00732c:	0c00cd60 	.word	0x0c00cd60
 c007330:	01d2000c 	.word	0x01d2000c
 c007334:	000005ff 	.word	0x000005ff

0c007338 <Main>:
 * ret:		none
 * modify:
 * comment:
 *********************************************************************************************/
void Main(void)
{
 c007338:	e1a0c00d 	mov	ip, sp
 c00733c:	e92dd800 	push	{fp, ip, lr, pc}
 c007340:	e24cb004 	sub	fp, ip, #4
	sys_init(); /* Initial 44B0X's Interrupt, Port and UART */
 c007344:	ebffe703 	bl	c000f58 <sys_init>

	/* Inicializar LCD pero NO llamar a Lcd_Test() */
	Lcd_Init();		  /* Solo inicializar el hardware del LCD */
 c007348:	ebfff73e 	bl	c005048 <Lcd_Init>
	Lcd_Clr();		  /* Limpiar pantalla */
 c00734c:	ebfff7f0 	bl	c005314 <Lcd_Clr>
	Lcd_Active_Clr(); /* Limpiar buffer activo */
 c007350:	ebfff7a1 	bl	c0051dc <Lcd_Active_Clr>

	Eint4567_init();
 c007354:	ebffe9ef 	bl	c001b18 <Eint4567_init>
	D8Led_init();
 c007358:	ebffe71a 	bl	c000fc8 <D8Led_init>
	timer_init();
 c00735c:	eb000563 	bl	c0088f0 <timer_init>
	timer1_init();
 c007360:	eb0005ae 	bl	c008a20 <timer1_init>
	timer2_init();
 c007364:	eb0005f5 	bl	c008b40 <timer2_init>
	timer2_start();
 c007368:	eb00062c 	bl	c008c20 <timer2_start>
	cola_init();
 c00736c:	ebfff5b2 	bl	c004a3c <cola_init>
	leds_off();
 c007370:	ebffff5e 	bl	c0070f0 <leds_off>

	while (1)
	{
		procesar_maquina_estados_botones();
 c007374:	ebffeafa 	bl	c001f64 <procesar_maquina_estados_botones>
	}
 c007378:	eafffffd 	b	c007374 <Main+0x3c>

0c00737c <celda_eliminar_candidato>:

/* Funciones en lnea para poder definirlas en el header sin provocar
   multiple definition al enlazar. Usar static inline para portabilidad. */

static inline void celda_eliminar_candidato(CELDA *celdaptr, uint8_t valor)
{
 c00737c:	e1a0c00d 	mov	ip, sp
 c007380:	e92dd800 	push	{fp, ip, lr, pc}
 c007384:	e24cb004 	sub	fp, ip, #4
 c007388:	e24dd008 	sub	sp, sp, #8
 c00738c:	e50b0010 	str	r0, [fp, #-16]
 c007390:	e1a03001 	mov	r3, r1
 c007394:	e54b3011 	strb	r3, [fp, #-17]	; 0xffffffef
    /* Poner a 1 el bit correspondiente para marcar NO candidato */
    *celdaptr |= (uint16_t)(1u << (BIT_CANDIDATOS + (valor - 1)));
 c007398:	e51b3010 	ldr	r3, [fp, #-16]
 c00739c:	e1d320b0 	ldrh	r2, [r3]
 c0073a0:	e55b3011 	ldrb	r3, [fp, #-17]	; 0xffffffef
 c0073a4:	e2833006 	add	r3, r3, #6
 c0073a8:	e3a01001 	mov	r1, #1
 c0073ac:	e1a03311 	lsl	r3, r1, r3
 c0073b0:	e1a03803 	lsl	r3, r3, #16
 c0073b4:	e1a03823 	lsr	r3, r3, #16
 c0073b8:	e1823003 	orr	r3, r2, r3
 c0073bc:	e1a03803 	lsl	r3, r3, #16
 c0073c0:	e1a02823 	lsr	r2, r3, #16
 c0073c4:	e51b3010 	ldr	r3, [fp, #-16]
 c0073c8:	e1c320b0 	strh	r2, [r3]
}
 c0073cc:	e24bd00c 	sub	sp, fp, #12
 c0073d0:	e89d6800 	ldm	sp, {fp, sp, lr}
 c0073d4:	e12fff1e 	bx	lr

0c0073d8 <candidatos_propagar_c>:
 * Las variables utilizadas son: valor, ndices i/j, lmites regin init_i/j, end_i/j
 * Extrae valor  elimina de fila  elimina de columna  elimina de regin
 */
void candidatos_propagar_c(CELDA cuadricula[NUM_FILAS][NUM_COLUMNAS],
                           uint8_t fila, uint8_t columna)
{
 c0073d8:	e1a0c00d 	mov	ip, sp
 c0073dc:	e92dd800 	push	{fp, ip, lr, pc}
 c0073e0:	e24cb004 	sub	fp, ip, #4
 c0073e4:	e24dd018 	sub	sp, sp, #24
 c0073e8:	e50b0020 	str	r0, [fp, #-32]	; 0xffffffe0
 c0073ec:	e1a03002 	mov	r3, r2
 c0073f0:	e1a02001 	mov	r2, r1
 c0073f4:	e54b2021 	strb	r2, [fp, #-33]	; 0xffffffdf
 c0073f8:	e54b3022 	strb	r3, [fp, #-34]	; 0xffffffde
    uint8_t j, i, init_i, init_j, end_i, end_j;
    const uint8_t init_region[NUM_FILAS] = {0, 0, 0, 3, 3, 3, 6, 6, 6};
 c0073fc:	e59f2220 	ldr	r2, [pc, #544]	; c007624 <candidatos_propagar_c+0x24c>
 c007400:	e24b301c 	sub	r3, fp, #28
 c007404:	e8920007 	ldm	r2, {r0, r1, r2}
 c007408:	e8a30003 	stmia	r3!, {r0, r1}
 c00740c:	e5c32000 	strb	r2, [r3]

    uint8_t valor = celda_leer_valor(cuadricula[fila][columna]);
 c007410:	e55b3021 	ldrb	r3, [fp, #-33]	; 0xffffffdf
 c007414:	e1a03283 	lsl	r3, r3, #5
 c007418:	e51b2020 	ldr	r2, [fp, #-32]	; 0xffffffe0
 c00741c:	e0822003 	add	r2, r2, r3
 c007420:	e55b3022 	ldrb	r3, [fp, #-34]	; 0xffffffde
 c007424:	e1a03083 	lsl	r3, r3, #1
 c007428:	e0823003 	add	r3, r2, r3
 c00742c:	e1d330b0 	ldrh	r3, [r3]
 c007430:	e1a00003 	mov	r0, r3
 c007434:	ebfff572 	bl	c004a04 <celda_leer_valor>
 c007438:	e1a03000 	mov	r3, r0
 c00743c:	e54b300f 	strb	r3, [fp, #-15]
    celda_eliminar_candidato(&cuadricula[fila][columna], valor);
 c007440:	e51b2020 	ldr	r2, [fp, #-32]	; 0xffffffe0
 c007444:	e55b3021 	ldrb	r3, [fp, #-33]	; 0xffffffdf
 c007448:	e1a01203 	lsl	r1, r3, #4
 c00744c:	e55b3022 	ldrb	r3, [fp, #-34]	; 0xffffffde
 c007450:	e0813003 	add	r3, r1, r3
 c007454:	e1a03083 	lsl	r3, r3, #1
 c007458:	e0822003 	add	r2, r2, r3
 c00745c:	e55b300f 	ldrb	r3, [fp, #-15]
 c007460:	e1a00002 	mov	r0, r2
 c007464:	e1a01003 	mov	r1, r3
 c007468:	ebffffc3 	bl	c00737c <celda_eliminar_candidato>

    init_i = init_region[fila];
 c00746c:	e55b2021 	ldrb	r2, [fp, #-33]	; 0xffffffdf
 c007470:	e3e0300f 	mvn	r3, #15
 c007474:	e24b100c 	sub	r1, fp, #12
 c007478:	e0812002 	add	r2, r1, r2
 c00747c:	e0823003 	add	r3, r2, r3
 c007480:	e5d33000 	ldrb	r3, [r3]
 c007484:	e54b3010 	strb	r3, [fp, #-16]
    end_i = init_i + 3;
 c007488:	e55b3010 	ldrb	r3, [fp, #-16]
 c00748c:	e2833003 	add	r3, r3, #3
 c007490:	e54b3011 	strb	r3, [fp, #-17]	; 0xffffffef
    init_j = init_region[columna];
 c007494:	e55b2022 	ldrb	r2, [fp, #-34]	; 0xffffffde
 c007498:	e3e0300f 	mvn	r3, #15
 c00749c:	e24b100c 	sub	r1, fp, #12
 c0074a0:	e0812002 	add	r2, r1, r2
 c0074a4:	e0823003 	add	r3, r2, r3
 c0074a8:	e5d33000 	ldrb	r3, [r3]
 c0074ac:	e54b3012 	strb	r3, [fp, #-18]	; 0xffffffee
    end_j = init_j + 3;
 c0074b0:	e55b3012 	ldrb	r3, [fp, #-18]	; 0xffffffee
 c0074b4:	e2833003 	add	r3, r3, #3
 c0074b8:	e54b3013 	strb	r3, [fp, #-19]	; 0xffffffed

    for (j = 0; j < 9; j++)
 c0074bc:	e3a03000 	mov	r3, #0
 c0074c0:	e54b300d 	strb	r3, [fp, #-13]
 c0074c4:	ea000011 	b	c007510 <candidatos_propagar_c+0x138>
    {
        if (j != columna)
 c0074c8:	e55b200d 	ldrb	r2, [fp, #-13]
 c0074cc:	e55b3022 	ldrb	r3, [fp, #-34]	; 0xffffffde
 c0074d0:	e1520003 	cmp	r2, r3
 c0074d4:	0a00000a 	beq	c007504 <candidatos_propagar_c+0x12c>
        {
            celda_eliminar_candidato(&cuadricula[fila][j], valor);
 c0074d8:	e51b2020 	ldr	r2, [fp, #-32]	; 0xffffffe0
 c0074dc:	e55b3021 	ldrb	r3, [fp, #-33]	; 0xffffffdf
 c0074e0:	e1a01203 	lsl	r1, r3, #4
 c0074e4:	e55b300d 	ldrb	r3, [fp, #-13]
 c0074e8:	e0813003 	add	r3, r1, r3
 c0074ec:	e1a03083 	lsl	r3, r3, #1
 c0074f0:	e0822003 	add	r2, r2, r3
 c0074f4:	e55b300f 	ldrb	r3, [fp, #-15]
 c0074f8:	e1a00002 	mov	r0, r2
 c0074fc:	e1a01003 	mov	r1, r3
 c007500:	ebffff9d 	bl	c00737c <celda_eliminar_candidato>
    init_i = init_region[fila];
    end_i = init_i + 3;
    init_j = init_region[columna];
    end_j = init_j + 3;

    for (j = 0; j < 9; j++)
 c007504:	e55b300d 	ldrb	r3, [fp, #-13]
 c007508:	e2833001 	add	r3, r3, #1
 c00750c:	e54b300d 	strb	r3, [fp, #-13]
 c007510:	e55b300d 	ldrb	r3, [fp, #-13]
 c007514:	e3530008 	cmp	r3, #8
 c007518:	9affffea 	bls	c0074c8 <candidatos_propagar_c+0xf0>
        {
            celda_eliminar_candidato(&cuadricula[fila][j], valor);
        }
    }

    for (i = 0; i < NUM_FILAS; i++)
 c00751c:	e3a03000 	mov	r3, #0
 c007520:	e54b300e 	strb	r3, [fp, #-14]
 c007524:	ea000011 	b	c007570 <candidatos_propagar_c+0x198>
    {
        if (i != fila)
 c007528:	e55b200e 	ldrb	r2, [fp, #-14]
 c00752c:	e55b3021 	ldrb	r3, [fp, #-33]	; 0xffffffdf
 c007530:	e1520003 	cmp	r2, r3
 c007534:	0a00000a 	beq	c007564 <candidatos_propagar_c+0x18c>
        {
            celda_eliminar_candidato(&cuadricula[i][columna], valor);
 c007538:	e51b2020 	ldr	r2, [fp, #-32]	; 0xffffffe0
 c00753c:	e55b300e 	ldrb	r3, [fp, #-14]
 c007540:	e1a01203 	lsl	r1, r3, #4
 c007544:	e55b3022 	ldrb	r3, [fp, #-34]	; 0xffffffde
 c007548:	e0813003 	add	r3, r1, r3
 c00754c:	e1a03083 	lsl	r3, r3, #1
 c007550:	e0822003 	add	r2, r2, r3
 c007554:	e55b300f 	ldrb	r3, [fp, #-15]
 c007558:	e1a00002 	mov	r0, r2
 c00755c:	e1a01003 	mov	r1, r3
 c007560:	ebffff85 	bl	c00737c <celda_eliminar_candidato>
        {
            celda_eliminar_candidato(&cuadricula[fila][j], valor);
        }
    }

    for (i = 0; i < NUM_FILAS; i++)
 c007564:	e55b300e 	ldrb	r3, [fp, #-14]
 c007568:	e2833001 	add	r3, r3, #1
 c00756c:	e54b300e 	strb	r3, [fp, #-14]
 c007570:	e55b300e 	ldrb	r3, [fp, #-14]
 c007574:	e3530008 	cmp	r3, #8
 c007578:	9affffea 	bls	c007528 <candidatos_propagar_c+0x150>
        {
            celda_eliminar_candidato(&cuadricula[i][columna], valor);
        }
    }

    for (i = init_i; i < end_i; i++)
 c00757c:	e55b3010 	ldrb	r3, [fp, #-16]
 c007580:	e54b300e 	strb	r3, [fp, #-14]
 c007584:	ea00001f 	b	c007608 <candidatos_propagar_c+0x230>
    {
        for (j = init_j; j < end_j; j++)
 c007588:	e55b3012 	ldrb	r3, [fp, #-18]	; 0xffffffee
 c00758c:	e54b300d 	strb	r3, [fp, #-13]
 c007590:	ea000015 	b	c0075ec <candidatos_propagar_c+0x214>
        {
            if (!(i == fila && j == columna))
 c007594:	e55b200e 	ldrb	r2, [fp, #-14]
 c007598:	e55b3021 	ldrb	r3, [fp, #-33]	; 0xffffffdf
 c00759c:	e1520003 	cmp	r2, r3
 c0075a0:	1a000003 	bne	c0075b4 <candidatos_propagar_c+0x1dc>
 c0075a4:	e55b200d 	ldrb	r2, [fp, #-13]
 c0075a8:	e55b3022 	ldrb	r3, [fp, #-34]	; 0xffffffde
 c0075ac:	e1520003 	cmp	r2, r3
 c0075b0:	0a00000a 	beq	c0075e0 <candidatos_propagar_c+0x208>
            {
                celda_eliminar_candidato(&cuadricula[i][j], valor);
 c0075b4:	e51b2020 	ldr	r2, [fp, #-32]	; 0xffffffe0
 c0075b8:	e55b300e 	ldrb	r3, [fp, #-14]
 c0075bc:	e1a01203 	lsl	r1, r3, #4
 c0075c0:	e55b300d 	ldrb	r3, [fp, #-13]
 c0075c4:	e0813003 	add	r3, r1, r3
 c0075c8:	e1a03083 	lsl	r3, r3, #1
 c0075cc:	e0822003 	add	r2, r2, r3
 c0075d0:	e55b300f 	ldrb	r3, [fp, #-15]
 c0075d4:	e1a00002 	mov	r0, r2
 c0075d8:	e1a01003 	mov	r1, r3
 c0075dc:	ebffff66 	bl	c00737c <celda_eliminar_candidato>
        }
    }

    for (i = init_i; i < end_i; i++)
    {
        for (j = init_j; j < end_j; j++)
 c0075e0:	e55b300d 	ldrb	r3, [fp, #-13]
 c0075e4:	e2833001 	add	r3, r3, #1
 c0075e8:	e54b300d 	strb	r3, [fp, #-13]
 c0075ec:	e55b200d 	ldrb	r2, [fp, #-13]
 c0075f0:	e55b3013 	ldrb	r3, [fp, #-19]	; 0xffffffed
 c0075f4:	e1520003 	cmp	r2, r3
 c0075f8:	3affffe5 	bcc	c007594 <candidatos_propagar_c+0x1bc>
        {
            celda_eliminar_candidato(&cuadricula[i][columna], valor);
        }
    }

    for (i = init_i; i < end_i; i++)
 c0075fc:	e55b300e 	ldrb	r3, [fp, #-14]
 c007600:	e2833001 	add	r3, r3, #1
 c007604:	e54b300e 	strb	r3, [fp, #-14]
 c007608:	e55b200e 	ldrb	r2, [fp, #-14]
 c00760c:	e55b3011 	ldrb	r3, [fp, #-17]	; 0xffffffef
 c007610:	e1520003 	cmp	r2, r3
 c007614:	3affffdb 	bcc	c007588 <candidatos_propagar_c+0x1b0>
            {
                celda_eliminar_candidato(&cuadricula[i][j], valor);
            }
        }
    }
}
 c007618:	e24bd00c 	sub	sp, fp, #12
 c00761c:	e89d6800 	ldm	sp, {fp, sp, lr}
 c007620:	e12fff1e 	bx	lr
 c007624:	0c00cbd8 	.word	0x0c00cbd8

0c007628 <candidatos_actualizar_c>:
 * Limpia candidatos (AND 0x7F)  propaga cada celda con valor
 * Retorna: Nmero de celdas vacas
 */
int candidatos_actualizar_c(CELDA cuadricula[NUM_FILAS][NUM_COLUMNAS])

{
 c007628:	e1a0c00d 	mov	ip, sp
 c00762c:	e92dd800 	push	{fp, ip, lr, pc}
 c007630:	e24cb004 	sub	fp, ip, #4
 c007634:	e24dd010 	sub	sp, sp, #16
 c007638:	e50b0018 	str	r0, [fp, #-24]	; 0xffffffe8
    int celdas_vacias = 0;
 c00763c:	e3a03000 	mov	r3, #0
 c007640:	e50b3010 	str	r3, [fp, #-16]
    uint8_t i, j, valor, num;
    uint8_t fila, columna;

    for (i = 0; i < NUM_FILAS; i++)
 c007644:	e3a03000 	mov	r3, #0
 c007648:	e54b3011 	strb	r3, [fp, #-17]	; 0xffffffef
 c00764c:	ea00001e 	b	c0076cc <candidatos_actualizar_c+0xa4>
    {
        for (j = 0; j < NUM_COLUMNAS; j++)
 c007650:	e3a03000 	mov	r3, #0
 c007654:	e54b3012 	strb	r3, [fp, #-18]	; 0xffffffee
 c007658:	ea000015 	b	c0076b4 <candidatos_actualizar_c+0x8c>
        {
            cuadricula[i][j] &= 0x007F;
 c00765c:	e55b3011 	ldrb	r3, [fp, #-17]	; 0xffffffef
 c007660:	e1a03283 	lsl	r3, r3, #5
 c007664:	e51b2018 	ldr	r2, [fp, #-24]	; 0xffffffe8
 c007668:	e0821003 	add	r1, r2, r3
 c00766c:	e55b3012 	ldrb	r3, [fp, #-18]	; 0xffffffee
 c007670:	e55b2011 	ldrb	r2, [fp, #-17]	; 0xffffffef
 c007674:	e1a02282 	lsl	r2, r2, #5
 c007678:	e51b0018 	ldr	r0, [fp, #-24]	; 0xffffffe8
 c00767c:	e0800002 	add	r0, r0, r2
 c007680:	e55b2012 	ldrb	r2, [fp, #-18]	; 0xffffffee
 c007684:	e1a02082 	lsl	r2, r2, #1
 c007688:	e0802002 	add	r2, r0, r2
 c00768c:	e1d220b0 	ldrh	r2, [r2]
 c007690:	e202207f 	and	r2, r2, #127	; 0x7f
 c007694:	e1a02802 	lsl	r2, r2, #16
 c007698:	e1a02822 	lsr	r2, r2, #16
 c00769c:	e1a03083 	lsl	r3, r3, #1
 c0076a0:	e0813003 	add	r3, r1, r3
 c0076a4:	e1c320b0 	strh	r2, [r3]
    uint8_t i, j, valor, num;
    uint8_t fila, columna;

    for (i = 0; i < NUM_FILAS; i++)
    {
        for (j = 0; j < NUM_COLUMNAS; j++)
 c0076a8:	e55b3012 	ldrb	r3, [fp, #-18]	; 0xffffffee
 c0076ac:	e2833001 	add	r3, r3, #1
 c0076b0:	e54b3012 	strb	r3, [fp, #-18]	; 0xffffffee
 c0076b4:	e55b3012 	ldrb	r3, [fp, #-18]	; 0xffffffee
 c0076b8:	e353000f 	cmp	r3, #15
 c0076bc:	9affffe6 	bls	c00765c <candidatos_actualizar_c+0x34>
{
    int celdas_vacias = 0;
    uint8_t i, j, valor, num;
    uint8_t fila, columna;

    for (i = 0; i < NUM_FILAS; i++)
 c0076c0:	e55b3011 	ldrb	r3, [fp, #-17]	; 0xffffffef
 c0076c4:	e2833001 	add	r3, r3, #1
 c0076c8:	e54b3011 	strb	r3, [fp, #-17]	; 0xffffffef
 c0076cc:	e55b3011 	ldrb	r3, [fp, #-17]	; 0xffffffef
 c0076d0:	e3530008 	cmp	r3, #8
 c0076d4:	9affffdd 	bls	c007650 <candidatos_actualizar_c+0x28>
        {
            cuadricula[i][j] &= 0x007F;
        }
    }

    for (i = 0; i < NUM_FILAS; i++)
 c0076d8:	e3a03000 	mov	r3, #0
 c0076dc:	e54b3011 	strb	r3, [fp, #-17]	; 0xffffffef
 c0076e0:	ea000024 	b	c007778 <candidatos_actualizar_c+0x150>
    {
        for (j = 0; j < NUM_COLUMNAS; j++)
 c0076e4:	e3a03000 	mov	r3, #0
 c0076e8:	e54b3012 	strb	r3, [fp, #-18]	; 0xffffffee
 c0076ec:	ea00001b 	b	c007760 <candidatos_actualizar_c+0x138>
        {
            valor = celda_leer_valor(cuadricula[i][j]);
 c0076f0:	e55b3011 	ldrb	r3, [fp, #-17]	; 0xffffffef
 c0076f4:	e1a03283 	lsl	r3, r3, #5
 c0076f8:	e51b2018 	ldr	r2, [fp, #-24]	; 0xffffffe8
 c0076fc:	e0822003 	add	r2, r2, r3
 c007700:	e55b3012 	ldrb	r3, [fp, #-18]	; 0xffffffee
 c007704:	e1a03083 	lsl	r3, r3, #1
 c007708:	e0823003 	add	r3, r2, r3
 c00770c:	e1d330b0 	ldrh	r3, [r3]
 c007710:	e1a00003 	mov	r0, r3
 c007714:	ebfff4ba 	bl	c004a04 <celda_leer_valor>
 c007718:	e1a03000 	mov	r3, r0
 c00771c:	e54b3013 	strb	r3, [fp, #-19]	; 0xffffffed
            if (valor > 0)
 c007720:	e55b3013 	ldrb	r3, [fp, #-19]	; 0xffffffed
 c007724:	e3530000 	cmp	r3, #0
 c007728:	0a000006 	beq	c007748 <candidatos_actualizar_c+0x120>
            {
                candidatos_propagar_c(cuadricula, i, j);
 c00772c:	e55b2011 	ldrb	r2, [fp, #-17]	; 0xffffffef
 c007730:	e55b3012 	ldrb	r3, [fp, #-18]	; 0xffffffee
 c007734:	e51b0018 	ldr	r0, [fp, #-24]	; 0xffffffe8
 c007738:	e1a01002 	mov	r1, r2
 c00773c:	e1a02003 	mov	r2, r3
 c007740:	ebffff24 	bl	c0073d8 <candidatos_propagar_c>
 c007744:	ea000002 	b	c007754 <candidatos_actualizar_c+0x12c>
            }
            else
            {
                celdas_vacias++;
 c007748:	e51b3010 	ldr	r3, [fp, #-16]
 c00774c:	e2833001 	add	r3, r3, #1
 c007750:	e50b3010 	str	r3, [fp, #-16]
        }
    }

    for (i = 0; i < NUM_FILAS; i++)
    {
        for (j = 0; j < NUM_COLUMNAS; j++)
 c007754:	e55b3012 	ldrb	r3, [fp, #-18]	; 0xffffffee
 c007758:	e2833001 	add	r3, r3, #1
 c00775c:	e54b3012 	strb	r3, [fp, #-18]	; 0xffffffee
 c007760:	e55b3012 	ldrb	r3, [fp, #-18]	; 0xffffffee
 c007764:	e353000f 	cmp	r3, #15
 c007768:	9affffe0 	bls	c0076f0 <candidatos_actualizar_c+0xc8>
        {
            cuadricula[i][j] &= 0x007F;
        }
    }

    for (i = 0; i < NUM_FILAS; i++)
 c00776c:	e55b3011 	ldrb	r3, [fp, #-17]	; 0xffffffef
 c007770:	e2833001 	add	r3, r3, #1
 c007774:	e54b3011 	strb	r3, [fp, #-17]	; 0xffffffef
 c007778:	e55b3011 	ldrb	r3, [fp, #-17]	; 0xffffffef
 c00777c:	e3530008 	cmp	r3, #8
 c007780:	9affffd7 	bls	c0076e4 <candidatos_actualizar_c+0xbc>
            {
                celdas_vacias++;
            }
        }
    }
    return celdas_vacias;
 c007784:	e51b3010 	ldr	r3, [fp, #-16]
}
 c007788:	e1a00003 	mov	r0, r3
 c00778c:	e24bd00c 	sub	sp, fp, #12
 c007790:	e89d6800 	ldm	sp, {fp, sp, lr}
 c007794:	e12fff1e 	bx	lr

0c007798 <candidatos_actualizar_c_arm>:
 * Las variables utilizadas son: celdas_vacias (retorno), ndices i/j, valor
 * La diferencia es que llama candidatos_propagar_arm en lugar de candidatos_propagar_c
 * Retorna: Nmero de celdas vacas
 **/
static int candidatos_actualizar_c_arm(CELDA cuadricula[NUM_FILAS][NUM_COLUMNAS])
{
 c007798:	e1a0c00d 	mov	ip, sp
 c00779c:	e92dd800 	push	{fp, ip, lr, pc}
 c0077a0:	e24cb004 	sub	fp, ip, #4
 c0077a4:	e24dd010 	sub	sp, sp, #16
 c0077a8:	e50b0018 	str	r0, [fp, #-24]	; 0xffffffe8
    int celdas_vacias = 0;
 c0077ac:	e3a03000 	mov	r3, #0
 c0077b0:	e50b3010 	str	r3, [fp, #-16]
    uint8_t i, j, valor, num;
    uint8_t fila, columna;

    for (i = 0; i < NUM_FILAS; i++)
 c0077b4:	e3a03000 	mov	r3, #0
 c0077b8:	e54b3011 	strb	r3, [fp, #-17]	; 0xffffffef
 c0077bc:	ea00001e 	b	c00783c <candidatos_actualizar_c_arm+0xa4>
    {
        for (j = 0; j < NUM_COLUMNAS; j++)
 c0077c0:	e3a03000 	mov	r3, #0
 c0077c4:	e54b3012 	strb	r3, [fp, #-18]	; 0xffffffee
 c0077c8:	ea000015 	b	c007824 <candidatos_actualizar_c_arm+0x8c>
        {
            cuadricula[i][j] &= 0x007F;
 c0077cc:	e55b3011 	ldrb	r3, [fp, #-17]	; 0xffffffef
 c0077d0:	e1a03283 	lsl	r3, r3, #5
 c0077d4:	e51b2018 	ldr	r2, [fp, #-24]	; 0xffffffe8
 c0077d8:	e0821003 	add	r1, r2, r3
 c0077dc:	e55b3012 	ldrb	r3, [fp, #-18]	; 0xffffffee
 c0077e0:	e55b2011 	ldrb	r2, [fp, #-17]	; 0xffffffef
 c0077e4:	e1a02282 	lsl	r2, r2, #5
 c0077e8:	e51b0018 	ldr	r0, [fp, #-24]	; 0xffffffe8
 c0077ec:	e0800002 	add	r0, r0, r2
 c0077f0:	e55b2012 	ldrb	r2, [fp, #-18]	; 0xffffffee
 c0077f4:	e1a02082 	lsl	r2, r2, #1
 c0077f8:	e0802002 	add	r2, r0, r2
 c0077fc:	e1d220b0 	ldrh	r2, [r2]
 c007800:	e202207f 	and	r2, r2, #127	; 0x7f
 c007804:	e1a02802 	lsl	r2, r2, #16
 c007808:	e1a02822 	lsr	r2, r2, #16
 c00780c:	e1a03083 	lsl	r3, r3, #1
 c007810:	e0813003 	add	r3, r1, r3
 c007814:	e1c320b0 	strh	r2, [r3]
    uint8_t i, j, valor, num;
    uint8_t fila, columna;

    for (i = 0; i < NUM_FILAS; i++)
    {
        for (j = 0; j < NUM_COLUMNAS; j++)
 c007818:	e55b3012 	ldrb	r3, [fp, #-18]	; 0xffffffee
 c00781c:	e2833001 	add	r3, r3, #1
 c007820:	e54b3012 	strb	r3, [fp, #-18]	; 0xffffffee
 c007824:	e55b3012 	ldrb	r3, [fp, #-18]	; 0xffffffee
 c007828:	e353000f 	cmp	r3, #15
 c00782c:	9affffe6 	bls	c0077cc <candidatos_actualizar_c_arm+0x34>
{
    int celdas_vacias = 0;
    uint8_t i, j, valor, num;
    uint8_t fila, columna;

    for (i = 0; i < NUM_FILAS; i++)
 c007830:	e55b3011 	ldrb	r3, [fp, #-17]	; 0xffffffef
 c007834:	e2833001 	add	r3, r3, #1
 c007838:	e54b3011 	strb	r3, [fp, #-17]	; 0xffffffef
 c00783c:	e55b3011 	ldrb	r3, [fp, #-17]	; 0xffffffef
 c007840:	e3530008 	cmp	r3, #8
 c007844:	9affffdd 	bls	c0077c0 <candidatos_actualizar_c_arm+0x28>
        {
            cuadricula[i][j] &= 0x007F;
        }
    }

    for (i = 0; i < NUM_FILAS; i++)
 c007848:	e3a03000 	mov	r3, #0
 c00784c:	e54b3011 	strb	r3, [fp, #-17]	; 0xffffffef
 c007850:	ea000024 	b	c0078e8 <candidatos_actualizar_c_arm+0x150>
    {
        for (j = 0; j < NUM_COLUMNAS; j++)
 c007854:	e3a03000 	mov	r3, #0
 c007858:	e54b3012 	strb	r3, [fp, #-18]	; 0xffffffee
 c00785c:	ea00001b 	b	c0078d0 <candidatos_actualizar_c_arm+0x138>
        {
            valor = celda_leer_valor(cuadricula[i][j]);
 c007860:	e55b3011 	ldrb	r3, [fp, #-17]	; 0xffffffef
 c007864:	e1a03283 	lsl	r3, r3, #5
 c007868:	e51b2018 	ldr	r2, [fp, #-24]	; 0xffffffe8
 c00786c:	e0822003 	add	r2, r2, r3
 c007870:	e55b3012 	ldrb	r3, [fp, #-18]	; 0xffffffee
 c007874:	e1a03083 	lsl	r3, r3, #1
 c007878:	e0823003 	add	r3, r2, r3
 c00787c:	e1d330b0 	ldrh	r3, [r3]
 c007880:	e1a00003 	mov	r0, r3
 c007884:	ebfff45e 	bl	c004a04 <celda_leer_valor>
 c007888:	e1a03000 	mov	r3, r0
 c00788c:	e54b3013 	strb	r3, [fp, #-19]	; 0xffffffed
            if (valor > 0)
 c007890:	e55b3013 	ldrb	r3, [fp, #-19]	; 0xffffffed
 c007894:	e3530000 	cmp	r3, #0
 c007898:	0a000006 	beq	c0078b8 <candidatos_actualizar_c_arm+0x120>
            {
                candidatos_propagar_arm(cuadricula, i, j);
 c00789c:	e55b2011 	ldrb	r2, [fp, #-17]	; 0xffffffef
 c0078a0:	e55b3012 	ldrb	r3, [fp, #-18]	; 0xffffffee
 c0078a4:	e51b0018 	ldr	r0, [fp, #-24]	; 0xffffffe8
 c0078a8:	e1a01002 	mov	r1, r2
 c0078ac:	e1a02003 	mov	r2, r3
 c0078b0:	ebfff4d4 	bl	c004c08 <candidatos_propagar_arm>
 c0078b4:	ea000002 	b	c0078c4 <candidatos_actualizar_c_arm+0x12c>
            }
            else
            {
                celdas_vacias++;
 c0078b8:	e51b3010 	ldr	r3, [fp, #-16]
 c0078bc:	e2833001 	add	r3, r3, #1
 c0078c0:	e50b3010 	str	r3, [fp, #-16]
        }
    }

    for (i = 0; i < NUM_FILAS; i++)
    {
        for (j = 0; j < NUM_COLUMNAS; j++)
 c0078c4:	e55b3012 	ldrb	r3, [fp, #-18]	; 0xffffffee
 c0078c8:	e2833001 	add	r3, r3, #1
 c0078cc:	e54b3012 	strb	r3, [fp, #-18]	; 0xffffffee
 c0078d0:	e55b3012 	ldrb	r3, [fp, #-18]	; 0xffffffee
 c0078d4:	e353000f 	cmp	r3, #15
 c0078d8:	9affffe0 	bls	c007860 <candidatos_actualizar_c_arm+0xc8>
        {
            cuadricula[i][j] &= 0x007F;
        }
    }

    for (i = 0; i < NUM_FILAS; i++)
 c0078dc:	e55b3011 	ldrb	r3, [fp, #-17]	; 0xffffffef
 c0078e0:	e2833001 	add	r3, r3, #1
 c0078e4:	e54b3011 	strb	r3, [fp, #-17]	; 0xffffffef
 c0078e8:	e55b3011 	ldrb	r3, [fp, #-17]	; 0xffffffef
 c0078ec:	e3530008 	cmp	r3, #8
 c0078f0:	9affffd7 	bls	c007854 <candidatos_actualizar_c_arm+0xbc>
            {
                celdas_vacias++;
            }
        }
    }
    return celdas_vacias;
 c0078f4:	e51b3010 	ldr	r3, [fp, #-16]
}
 c0078f8:	e1a00003 	mov	r0, r3
 c0078fc:	e24bd00c 	sub	sp, fp, #12
 c007900:	e89d6800 	ldm	sp, {fp, sp, lr}
 c007904:	e12fff1e 	bx	lr

0c007908 <sudoku_mostrar_pantalla_inicial>:

/**
 * Muestra la pantalla inicial con instrucciones
 */
void sudoku_mostrar_pantalla_inicial(void)
{
 c007908:	e1a0c00d 	mov	ip, sp
 c00790c:	e92dd800 	push	{fp, ip, lr, pc}
 c007910:	e24cb004 	sub	fp, ip, #4
    Lcd_Clr();
 c007914:	ebfff67e 	bl	c005314 <Lcd_Clr>

    /* Ttulo */
    Lcd_DspAscII8x16(100, 20, BLACK, (INT8U *)"SUDOKU");
 c007918:	e3a00064 	mov	r0, #100	; 0x64
 c00791c:	e3a01014 	mov	r1, #20
 c007920:	e3a0200f 	mov	r2, #15
 c007924:	e59f30c4 	ldr	r3, [pc, #196]	; c0079f0 <sudoku_mostrar_pantalla_inicial+0xe8>
 c007928:	ebfffbc0 	bl	c006830 <Lcd_DspAscII8x16>

    /* Instrucciones */
    Lcd_DspAscII6x8(40, 60, BLACK, (INT8U *)"INSTRUCCIONES:");
 c00792c:	e3a00028 	mov	r0, #40	; 0x28
 c007930:	e3a0103c 	mov	r1, #60	; 0x3c
 c007934:	e3a0200f 	mov	r2, #15
 c007938:	e59f30b4 	ldr	r3, [pc, #180]	; c0079f4 <sudoku_mostrar_pantalla_inicial+0xec>
 c00793c:	ebfffc80 	bl	c006b44 <Lcd_DspAscII6x8>
    Lcd_DspAscII6x8(20, 80, BLACK, (INT8U *)"1. Boton IZQ: Navegar");
 c007940:	e3a00014 	mov	r0, #20
 c007944:	e3a01050 	mov	r1, #80	; 0x50
 c007948:	e3a0200f 	mov	r2, #15
 c00794c:	e59f30a4 	ldr	r3, [pc, #164]	; c0079f8 <sudoku_mostrar_pantalla_inicial+0xf0>
 c007950:	ebfffc7b 	bl	c006b44 <Lcd_DspAscII6x8>
    Lcd_DspAscII6x8(20, 95, BLACK, (INT8U *)"2. Boton DER: Confirmar");
 c007954:	e3a00014 	mov	r0, #20
 c007958:	e3a0105f 	mov	r1, #95	; 0x5f
 c00795c:	e3a0200f 	mov	r2, #15
 c007960:	e59f3094 	ldr	r3, [pc, #148]	; c0079fc <sudoku_mostrar_pantalla_inicial+0xf4>
 c007964:	ebfffc76 	bl	c006b44 <Lcd_DspAscII6x8>
    Lcd_DspAscII6x8(20, 110, BLACK, (INT8U *)"3. Teclado: Introducir");
 c007968:	e3a00014 	mov	r0, #20
 c00796c:	e3a0106e 	mov	r1, #110	; 0x6e
 c007970:	e3a0200f 	mov	r2, #15
 c007974:	e59f3084 	ldr	r3, [pc, #132]	; c007a00 <sudoku_mostrar_pantalla_inicial+0xf8>
 c007978:	ebfffc71 	bl	c006b44 <Lcd_DspAscII6x8>
    Lcd_DspAscII6x8(20, 125, BLACK, (INT8U *)"   numeros (0-9)"); // Cambio: 0-9 en lugar de 1-9
 c00797c:	e3a00014 	mov	r0, #20
 c007980:	e3a0107d 	mov	r1, #125	; 0x7d
 c007984:	e3a0200f 	mov	r2, #15
 c007988:	e59f3074 	ldr	r3, [pc, #116]	; c007a04 <sudoku_mostrar_pantalla_inicial+0xfc>
 c00798c:	ebfffc6c 	bl	c006b44 <Lcd_DspAscII6x8>
    Lcd_DspAscII6x8(20, 140, BLACK, (INT8U *)"4. Completar tablero");
 c007990:	e3a00014 	mov	r0, #20
 c007994:	e3a0108c 	mov	r1, #140	; 0x8c
 c007998:	e3a0200f 	mov	r2, #15
 c00799c:	e59f3064 	ldr	r3, [pc, #100]	; c007a08 <sudoku_mostrar_pantalla_inicial+0x100>
 c0079a0:	ebfffc67 	bl	c006b44 <Lcd_DspAscII6x8>
    Lcd_DspAscII6x8(20, 155, BLACK, (INT8U *)"5. Fila 0: Salir"); // Nueva instruccin
 c0079a4:	e3a00014 	mov	r0, #20
 c0079a8:	e3a0109b 	mov	r1, #155	; 0x9b
 c0079ac:	e3a0200f 	mov	r2, #15
 c0079b0:	e59f3054 	ldr	r3, [pc, #84]	; c007a0c <sudoku_mostrar_pantalla_inicial+0x104>
 c0079b4:	ebfffc62 	bl	c006b44 <Lcd_DspAscII6x8>

    /* Mensaje para iniciar */
    Lcd_DspAscII8x16(30, 180, BLACK, (INT8U *)"Pulse un boton");
 c0079b8:	e3a0001e 	mov	r0, #30
 c0079bc:	e3a010b4 	mov	r1, #180	; 0xb4
 c0079c0:	e3a0200f 	mov	r2, #15
 c0079c4:	e59f3044 	ldr	r3, [pc, #68]	; c007a10 <sudoku_mostrar_pantalla_inicial+0x108>
 c0079c8:	ebfffb98 	bl	c006830 <Lcd_DspAscII8x16>
    Lcd_DspAscII8x16(50, 200, BLACK, (INT8U *)"para jugar");
 c0079cc:	e3a00032 	mov	r0, #50	; 0x32
 c0079d0:	e3a010c8 	mov	r1, #200	; 0xc8
 c0079d4:	e3a0200f 	mov	r2, #15
 c0079d8:	e59f3034 	ldr	r3, [pc, #52]	; c007a14 <sudoku_mostrar_pantalla_inicial+0x10c>
 c0079dc:	ebfffb93 	bl	c006830 <Lcd_DspAscII8x16>

    Lcd_Dma_Trans();
 c0079e0:	ebfffd15 	bl	c006e3c <Lcd_Dma_Trans>
}
 c0079e4:	e24bd00c 	sub	sp, fp, #12
 c0079e8:	e89d6800 	ldm	sp, {fp, sp, lr}
 c0079ec:	e12fff1e 	bx	lr
 c0079f0:	0c00cbe4 	.word	0x0c00cbe4
 c0079f4:	0c00cbec 	.word	0x0c00cbec
 c0079f8:	0c00cbfc 	.word	0x0c00cbfc
 c0079fc:	0c00cc14 	.word	0x0c00cc14
 c007a00:	0c00cc2c 	.word	0x0c00cc2c
 c007a04:	0c00cc44 	.word	0x0c00cc44
 c007a08:	0c00cc58 	.word	0x0c00cc58
 c007a0c:	0c00cc70 	.word	0x0c00cc70
 c007a10:	0c00cc84 	.word	0x0c00cc84
 c007a14:	0c00cc94 	.word	0x0c00cc94

0c007a18 <sudoku_dibujar_marco_tablero>:

/**
 * Dibuja el marco del tablero con lneas y nmeros
 */
void sudoku_dibujar_marco_tablero(void)
{
 c007a18:	e1a0c00d 	mov	ip, sp
 c007a1c:	e92dd800 	push	{fp, ip, lr, pc}
 c007a20:	e24cb004 	sub	fp, ip, #4
 c007a24:	e24dd018 	sub	sp, sp, #24
    uint8_t i;
    INT8U numero_str[2];
    numero_str[1] = '\0';
 c007a28:	e3a03000 	mov	r3, #0
 c007a2c:	e54b301b 	strb	r3, [fp, #-27]	; 0xffffffe5

    /* Dibujar lneas horizontales */
    for (i = 0; i <= 9; i++)
 c007a30:	e3a03000 	mov	r3, #0
 c007a34:	e54b300d 	strb	r3, [fp, #-13]
 c007a38:	ea000028 	b	c007ae0 <sudoku_dibujar_marco_tablero+0xc8>
    {
        INT16U y = TABLERO_Y0 + i * CELDA_SIZE;
 c007a3c:	e55b300d 	ldrb	r3, [fp, #-13]
 c007a40:	e1a03803 	lsl	r3, r3, #16
 c007a44:	e1a03823 	lsr	r3, r3, #16
 c007a48:	e1a02003 	mov	r2, r3
 c007a4c:	e1a02082 	lsl	r2, r2, #1
 c007a50:	e0823003 	add	r3, r2, r3
 c007a54:	e1a03183 	lsl	r3, r3, #3
 c007a58:	e1a03803 	lsl	r3, r3, #16
 c007a5c:	e1a03823 	lsr	r3, r3, #16
 c007a60:	e283300c 	add	r3, r3, #12
 c007a64:	e14b31b0 	strh	r3, [fp, #-16]
        INT8U grosor = (i % 3 == 0) ? GROSOR_LINEA_GRUESA : GROSOR_LINEA_FINA;
 c007a68:	e55b200d 	ldrb	r2, [fp, #-13]
 c007a6c:	e59f3270 	ldr	r3, [pc, #624]	; c007ce4 <sudoku_dibujar_marco_tablero+0x2cc>
 c007a70:	e0831392 	umull	r1, r3, r2, r3
 c007a74:	e1a010a3 	lsr	r1, r3, #1
 c007a78:	e1a03001 	mov	r3, r1
 c007a7c:	e1a03083 	lsl	r3, r3, #1
 c007a80:	e0833001 	add	r3, r3, r1
 c007a84:	e0633002 	rsb	r3, r3, r2
 c007a88:	e20330ff 	and	r3, r3, #255	; 0xff
 c007a8c:	e3530000 	cmp	r3, #0
 c007a90:	1a000001 	bne	c007a9c <sudoku_dibujar_marco_tablero+0x84>
 c007a94:	e3a03002 	mov	r3, #2
 c007a98:	ea000000 	b	c007aa0 <sudoku_dibujar_marco_tablero+0x88>
 c007a9c:	e3a03001 	mov	r3, #1
 c007aa0:	e54b3011 	strb	r3, [fp, #-17]	; 0xffffffef
        Lcd_Draw_HLine(TABLERO_X0, TABLERO_X0 + TABLERO_SIZE, y, COLOR_LINEA, grosor);
 c007aa4:	e15b31b0 	ldrh	r3, [fp, #-16]
 c007aa8:	e55b2011 	ldrb	r2, [fp, #-17]	; 0xffffffef
 c007aac:	e1a02802 	lsl	r2, r2, #16
 c007ab0:	e1a02822 	lsr	r2, r2, #16
 c007ab4:	e1a03803 	lsl	r3, r3, #16
 c007ab8:	e1a03843 	asr	r3, r3, #16
 c007abc:	e58d2000 	str	r2, [sp]
 c007ac0:	e3a00034 	mov	r0, #52	; 0x34
 c007ac4:	e3a01f43 	mov	r1, #268	; 0x10c
 c007ac8:	e1a02003 	mov	r2, r3
 c007acc:	e3a0300f 	mov	r3, #15
 c007ad0:	ebfffa3b 	bl	c0063c4 <Lcd_Draw_HLine>
    uint8_t i;
    INT8U numero_str[2];
    numero_str[1] = '\0';

    /* Dibujar lneas horizontales */
    for (i = 0; i <= 9; i++)
 c007ad4:	e55b300d 	ldrb	r3, [fp, #-13]
 c007ad8:	e2833001 	add	r3, r3, #1
 c007adc:	e54b300d 	strb	r3, [fp, #-13]
 c007ae0:	e55b300d 	ldrb	r3, [fp, #-13]
 c007ae4:	e3530009 	cmp	r3, #9
 c007ae8:	9affffd3 	bls	c007a3c <sudoku_dibujar_marco_tablero+0x24>
        INT8U grosor = (i % 3 == 0) ? GROSOR_LINEA_GRUESA : GROSOR_LINEA_FINA;
        Lcd_Draw_HLine(TABLERO_X0, TABLERO_X0 + TABLERO_SIZE, y, COLOR_LINEA, grosor);
    }

    /* Dibujar lneas verticales */
    for (i = 0; i <= 9; i++)
 c007aec:	e3a03000 	mov	r3, #0
 c007af0:	e54b300d 	strb	r3, [fp, #-13]
 c007af4:	ea000028 	b	c007b9c <sudoku_dibujar_marco_tablero+0x184>
    {
        INT16U x = TABLERO_X0 + i * CELDA_SIZE;
 c007af8:	e55b300d 	ldrb	r3, [fp, #-13]
 c007afc:	e1a03803 	lsl	r3, r3, #16
 c007b00:	e1a03823 	lsr	r3, r3, #16
 c007b04:	e1a02003 	mov	r2, r3
 c007b08:	e1a02082 	lsl	r2, r2, #1
 c007b0c:	e0823003 	add	r3, r2, r3
 c007b10:	e1a03183 	lsl	r3, r3, #3
 c007b14:	e1a03803 	lsl	r3, r3, #16
 c007b18:	e1a03823 	lsr	r3, r3, #16
 c007b1c:	e2833034 	add	r3, r3, #52	; 0x34
 c007b20:	e14b31b4 	strh	r3, [fp, #-20]	; 0xffffffec
        INT8U grosor = (i % 3 == 0) ? GROSOR_LINEA_GRUESA : GROSOR_LINEA_FINA;
 c007b24:	e55b200d 	ldrb	r2, [fp, #-13]
 c007b28:	e59f31b4 	ldr	r3, [pc, #436]	; c007ce4 <sudoku_dibujar_marco_tablero+0x2cc>
 c007b2c:	e0831392 	umull	r1, r3, r2, r3
 c007b30:	e1a010a3 	lsr	r1, r3, #1
 c007b34:	e1a03001 	mov	r3, r1
 c007b38:	e1a03083 	lsl	r3, r3, #1
 c007b3c:	e0833001 	add	r3, r3, r1
 c007b40:	e0633002 	rsb	r3, r3, r2
 c007b44:	e20330ff 	and	r3, r3, #255	; 0xff
 c007b48:	e3530000 	cmp	r3, #0
 c007b4c:	1a000001 	bne	c007b58 <sudoku_dibujar_marco_tablero+0x140>
 c007b50:	e3a03002 	mov	r3, #2
 c007b54:	ea000000 	b	c007b5c <sudoku_dibujar_marco_tablero+0x144>
 c007b58:	e3a03001 	mov	r3, #1
 c007b5c:	e54b3015 	strb	r3, [fp, #-21]	; 0xffffffeb
        Lcd_Draw_VLine(TABLERO_Y0, TABLERO_Y0 + TABLERO_SIZE, x, COLOR_LINEA, grosor);
 c007b60:	e15b31b4 	ldrh	r3, [fp, #-20]	; 0xffffffec
 c007b64:	e55b2015 	ldrb	r2, [fp, #-21]	; 0xffffffeb
 c007b68:	e1a02802 	lsl	r2, r2, #16
 c007b6c:	e1a02822 	lsr	r2, r2, #16
 c007b70:	e1a03803 	lsl	r3, r3, #16
 c007b74:	e1a03843 	asr	r3, r3, #16
 c007b78:	e58d2000 	str	r2, [sp]
 c007b7c:	e3a0000c 	mov	r0, #12
 c007b80:	e3a010e4 	mov	r1, #228	; 0xe4
 c007b84:	e1a02003 	mov	r2, r3
 c007b88:	e3a0300f 	mov	r3, #15
 c007b8c:	ebfffa8e 	bl	c0065cc <Lcd_Draw_VLine>
        INT8U grosor = (i % 3 == 0) ? GROSOR_LINEA_GRUESA : GROSOR_LINEA_FINA;
        Lcd_Draw_HLine(TABLERO_X0, TABLERO_X0 + TABLERO_SIZE, y, COLOR_LINEA, grosor);
    }

    /* Dibujar lneas verticales */
    for (i = 0; i <= 9; i++)
 c007b90:	e55b300d 	ldrb	r3, [fp, #-13]
 c007b94:	e2833001 	add	r3, r3, #1
 c007b98:	e54b300d 	strb	r3, [fp, #-13]
 c007b9c:	e55b300d 	ldrb	r3, [fp, #-13]
 c007ba0:	e3530009 	cmp	r3, #9
 c007ba4:	9affffd3 	bls	c007af8 <sudoku_dibujar_marco_tablero+0xe0>
        INT8U grosor = (i % 3 == 0) ? GROSOR_LINEA_GRUESA : GROSOR_LINEA_FINA;
        Lcd_Draw_VLine(TABLERO_Y0, TABLERO_Y0 + TABLERO_SIZE, x, COLOR_LINEA, grosor);
    }

    /* Dibujar nmeros de fila (1-9) a la izquierda */
    for (i = 0; i < 9; i++)
 c007ba8:	e3a03000 	mov	r3, #0
 c007bac:	e54b300d 	strb	r3, [fp, #-13]
 c007bb0:	ea000018 	b	c007c18 <sudoku_dibujar_marco_tablero+0x200>
    {
        numero_str[0] = '1' + i;
 c007bb4:	e55b300d 	ldrb	r3, [fp, #-13]
 c007bb8:	e2833031 	add	r3, r3, #49	; 0x31
 c007bbc:	e20330ff 	and	r3, r3, #255	; 0xff
 c007bc0:	e54b301c 	strb	r3, [fp, #-28]	; 0xffffffe4
        INT16U y = TABLERO_Y0 + i * CELDA_SIZE + CELDA_SIZE / 2 - 4;
 c007bc4:	e55b300d 	ldrb	r3, [fp, #-13]
 c007bc8:	e2833001 	add	r3, r3, #1
 c007bcc:	e1a03803 	lsl	r3, r3, #16
 c007bd0:	e1a03823 	lsr	r3, r3, #16
 c007bd4:	e1a02003 	mov	r2, r3
 c007bd8:	e1a02082 	lsl	r2, r2, #1
 c007bdc:	e0823003 	add	r3, r2, r3
 c007be0:	e1a03183 	lsl	r3, r3, #3
 c007be4:	e1a03803 	lsl	r3, r3, #16
 c007be8:	e1a03823 	lsr	r3, r3, #16
 c007bec:	e2433004 	sub	r3, r3, #4
 c007bf0:	e14b31b8 	strh	r3, [fp, #-24]	; 0xffffffe8
        Lcd_DspAscII6x8(TABLERO_X0 - 15, y, COLOR_LINEA, numero_str);
 c007bf4:	e15b21b8 	ldrh	r2, [fp, #-24]	; 0xffffffe8
 c007bf8:	e24b301c 	sub	r3, fp, #28
 c007bfc:	e3a00025 	mov	r0, #37	; 0x25
 c007c00:	e1a01002 	mov	r1, r2
 c007c04:	e3a0200f 	mov	r2, #15
 c007c08:	ebfffbcd 	bl	c006b44 <Lcd_DspAscII6x8>
        INT8U grosor = (i % 3 == 0) ? GROSOR_LINEA_GRUESA : GROSOR_LINEA_FINA;
        Lcd_Draw_VLine(TABLERO_Y0, TABLERO_Y0 + TABLERO_SIZE, x, COLOR_LINEA, grosor);
    }

    /* Dibujar nmeros de fila (1-9) a la izquierda */
    for (i = 0; i < 9; i++)
 c007c0c:	e55b300d 	ldrb	r3, [fp, #-13]
 c007c10:	e2833001 	add	r3, r3, #1
 c007c14:	e54b300d 	strb	r3, [fp, #-13]
 c007c18:	e55b300d 	ldrb	r3, [fp, #-13]
 c007c1c:	e3530008 	cmp	r3, #8
 c007c20:	9affffe3 	bls	c007bb4 <sudoku_dibujar_marco_tablero+0x19c>
        INT16U y = TABLERO_Y0 + i * CELDA_SIZE + CELDA_SIZE / 2 - 4;
        Lcd_DspAscII6x8(TABLERO_X0 - 15, y, COLOR_LINEA, numero_str);
    }

    /* Dibujar nmeros de columna (1-9) arriba */
    for (i = 0; i < 9; i++)
 c007c24:	e3a03000 	mov	r3, #0
 c007c28:	e54b300d 	strb	r3, [fp, #-13]
 c007c2c:	ea000017 	b	c007c90 <sudoku_dibujar_marco_tablero+0x278>
    {
        numero_str[0] = '1' + i;
 c007c30:	e55b300d 	ldrb	r3, [fp, #-13]
 c007c34:	e2833031 	add	r3, r3, #49	; 0x31
 c007c38:	e20330ff 	and	r3, r3, #255	; 0xff
 c007c3c:	e54b301c 	strb	r3, [fp, #-28]	; 0xffffffe4
        INT16U x = TABLERO_X0 + i * CELDA_SIZE + CELDA_SIZE / 2 - 3;
 c007c40:	e55b300d 	ldrb	r3, [fp, #-13]
 c007c44:	e1a03803 	lsl	r3, r3, #16
 c007c48:	e1a03823 	lsr	r3, r3, #16
 c007c4c:	e1a02003 	mov	r2, r3
 c007c50:	e1a02082 	lsl	r2, r2, #1
 c007c54:	e0823003 	add	r3, r2, r3
 c007c58:	e1a03183 	lsl	r3, r3, #3
 c007c5c:	e1a03803 	lsl	r3, r3, #16
 c007c60:	e1a03823 	lsr	r3, r3, #16
 c007c64:	e283303d 	add	r3, r3, #61	; 0x3d
 c007c68:	e14b31ba 	strh	r3, [fp, #-26]	; 0xffffffe6
        Lcd_DspAscII6x8(x, TABLERO_Y0 - 10, COLOR_LINEA, numero_str);
 c007c6c:	e15b21ba 	ldrh	r2, [fp, #-26]	; 0xffffffe6
 c007c70:	e24b301c 	sub	r3, fp, #28
 c007c74:	e1a00002 	mov	r0, r2
 c007c78:	e3a01002 	mov	r1, #2
 c007c7c:	e3a0200f 	mov	r2, #15
 c007c80:	ebfffbaf 	bl	c006b44 <Lcd_DspAscII6x8>
        INT16U y = TABLERO_Y0 + i * CELDA_SIZE + CELDA_SIZE / 2 - 4;
        Lcd_DspAscII6x8(TABLERO_X0 - 15, y, COLOR_LINEA, numero_str);
    }

    /* Dibujar nmeros de columna (1-9) arriba */
    for (i = 0; i < 9; i++)
 c007c84:	e55b300d 	ldrb	r3, [fp, #-13]
 c007c88:	e2833001 	add	r3, r3, #1
 c007c8c:	e54b300d 	strb	r3, [fp, #-13]
 c007c90:	e55b300d 	ldrb	r3, [fp, #-13]
 c007c94:	e3530008 	cmp	r3, #8
 c007c98:	9affffe4 	bls	c007c30 <sudoku_dibujar_marco_tablero+0x218>
        INT16U x = TABLERO_X0 + i * CELDA_SIZE + CELDA_SIZE / 2 - 3;
        Lcd_DspAscII6x8(x, TABLERO_Y0 - 10, COLOR_LINEA, numero_str);
    }

    /* Dibujar etiqueta y tiempo en la esquina superior derecha */
    Lcd_DspAscII6x8(270, 2, BLACK, (INT8U *)"Tiempo:");
 c007c9c:	e59f0044 	ldr	r0, [pc, #68]	; c007ce8 <sudoku_dibujar_marco_tablero+0x2d0>
 c007ca0:	e3a01002 	mov	r1, #2
 c007ca4:	e3a0200f 	mov	r2, #15
 c007ca8:	e59f303c 	ldr	r3, [pc, #60]	; c007cec <sudoku_dibujar_marco_tablero+0x2d4>
 c007cac:	ebfffba4 	bl	c006b44 <Lcd_DspAscII6x8>
    Lcd_DspAscII6x8(275, 12, BLACK, (INT8U *)"00:00");
 c007cb0:	e59f0038 	ldr	r0, [pc, #56]	; c007cf0 <sudoku_dibujar_marco_tablero+0x2d8>
 c007cb4:	e3a0100c 	mov	r1, #12
 c007cb8:	e3a0200f 	mov	r2, #15
 c007cbc:	e59f3030 	ldr	r3, [pc, #48]	; c007cf4 <sudoku_dibujar_marco_tablero+0x2dc>
 c007cc0:	ebfffb9f 	bl	c006b44 <Lcd_DspAscII6x8>

    /* Leyenda para salir del juego */
    Lcd_DspAscII6x8(20, 230, BLACK, (INT8U *)"Fila 0: Acabar partida");
 c007cc4:	e3a00014 	mov	r0, #20
 c007cc8:	e3a010e6 	mov	r1, #230	; 0xe6
 c007ccc:	e3a0200f 	mov	r2, #15
 c007cd0:	e59f3020 	ldr	r3, [pc, #32]	; c007cf8 <sudoku_dibujar_marco_tablero+0x2e0>
 c007cd4:	ebfffb9a 	bl	c006b44 <Lcd_DspAscII6x8>
}
 c007cd8:	e24bd00c 	sub	sp, fp, #12
 c007cdc:	e89d6800 	ldm	sp, {fp, sp, lr}
 c007ce0:	e12fff1e 	bx	lr
 c007ce4:	aaaaaaab 	.word	0xaaaaaaab
 c007ce8:	0000010e 	.word	0x0000010e
 c007cec:	0c00cca0 	.word	0x0c00cca0
 c007cf0:	00000113 	.word	0x00000113
 c007cf4:	0c00cca8 	.word	0x0c00cca8
 c007cf8:	0c00ccb0 	.word	0x0c00ccb0

0c007cfc <sudoku_dibujar_candidatos>:
 * @param candidatos: vector de bits con candidatos (bit 0 = candidato 1, etc.)
 *                   Un 0 en el bit indica que ES candidato
 *                   Un 1 en el bit indica que NO es candidato
 */
static void sudoku_dibujar_candidatos(uint8_t fila, uint8_t columna, uint16_t candidatos)
{
 c007cfc:	e1a0c00d 	mov	ip, sp
 c007d00:	e92dd800 	push	{fp, ip, lr, pc}
 c007d04:	e24cb004 	sub	fp, ip, #4
 c007d08:	e24dd020 	sub	sp, sp, #32
 c007d0c:	e1a03002 	mov	r3, r2
 c007d10:	e1a02000 	mov	r2, r0
 c007d14:	e54b201d 	strb	r2, [fp, #-29]	; 0xffffffe3
 c007d18:	e1a02001 	mov	r2, r1
 c007d1c:	e54b201e 	strb	r2, [fp, #-30]	; 0xffffffe2
 c007d20:	e14b32b0 	strh	r3, [fp, #-32]	; 0xffffffe0
    uint8_t num;
    INT16U base_x = TABLERO_X0 + columna * CELDA_SIZE + CANDIDATO_OFFSET;
 c007d24:	e55b301e 	ldrb	r3, [fp, #-30]	; 0xffffffe2
 c007d28:	e1a03803 	lsl	r3, r3, #16
 c007d2c:	e1a03823 	lsr	r3, r3, #16
 c007d30:	e1a02003 	mov	r2, r3
 c007d34:	e1a02082 	lsl	r2, r2, #1
 c007d38:	e0823003 	add	r3, r2, r3
 c007d3c:	e1a03183 	lsl	r3, r3, #3
 c007d40:	e1a03803 	lsl	r3, r3, #16
 c007d44:	e1a03823 	lsr	r3, r3, #16
 c007d48:	e2833036 	add	r3, r3, #54	; 0x36
 c007d4c:	e14b31b0 	strh	r3, [fp, #-16]
    INT16U base_y = TABLERO_Y0 + fila * CELDA_SIZE + CANDIDATO_OFFSET;
 c007d50:	e55b301d 	ldrb	r3, [fp, #-29]	; 0xffffffe3
 c007d54:	e1a03803 	lsl	r3, r3, #16
 c007d58:	e1a03823 	lsr	r3, r3, #16
 c007d5c:	e1a02003 	mov	r2, r3
 c007d60:	e1a02082 	lsl	r2, r2, #1
 c007d64:	e0823003 	add	r3, r2, r3
 c007d68:	e1a03183 	lsl	r3, r3, #3
 c007d6c:	e1a03803 	lsl	r3, r3, #16
 c007d70:	e1a03823 	lsr	r3, r3, #16
 c007d74:	e283300e 	add	r3, r3, #14
 c007d78:	e14b31b2 	strh	r3, [fp, #-18]	; 0xffffffee
    /* Posiciones en la cuadrcula 3x3 para cada nmero 1-9:
     * 1 2 3
     * 4 5 6
     * 7 8 9
     */
    for (num = 1; num <= 9; num++)
 c007d7c:	e3a03001 	mov	r3, #1
 c007d80:	e54b300d 	strb	r3, [fp, #-13]
 c007d84:	ea000060 	b	c007f0c <sudoku_dibujar_candidatos+0x210>
    {
        uint8_t es_candidato = ((candidatos & (1 << (num - 1))) == 0) ? 1 : 0;
 c007d88:	e15b22b0 	ldrh	r2, [fp, #-32]	; 0xffffffe0
 c007d8c:	e55b300d 	ldrb	r3, [fp, #-13]
 c007d90:	e2433001 	sub	r3, r3, #1
 c007d94:	e1a03352 	asr	r3, r2, r3
 c007d98:	e2033001 	and	r3, r3, #1
 c007d9c:	e3530000 	cmp	r3, #0
 c007da0:	13a03000 	movne	r3, #0
 c007da4:	03a03001 	moveq	r3, #1
 c007da8:	e54b3013 	strb	r3, [fp, #-19]	; 0xffffffed

        if (es_candidato)
 c007dac:	e55b3013 	ldrb	r3, [fp, #-19]	; 0xffffffed
 c007db0:	e3530000 	cmp	r3, #0
 c007db4:	0a000051 	beq	c007f00 <sudoku_dibujar_candidatos+0x204>
        {
            /* Calcular posicin en la cuadrcula 3x3 */
            uint8_t grid_row = (num - 1) / 3; /* 0, 0, 0, 1, 1, 1, 2, 2, 2 */
 c007db8:	e55b300d 	ldrb	r3, [fp, #-13]
 c007dbc:	e2433001 	sub	r3, r3, #1
 c007dc0:	e59f215c 	ldr	r2, [pc, #348]	; c007f24 <sudoku_dibujar_candidatos+0x228>
 c007dc4:	e0c20293 	smull	r0, r2, r3, r2
 c007dc8:	e1a03fc3 	asr	r3, r3, #31
 c007dcc:	e0633002 	rsb	r3, r3, r2
 c007dd0:	e54b3014 	strb	r3, [fp, #-20]	; 0xffffffec
            uint8_t grid_col = (num - 1) % 3; /* 0, 1, 2, 0, 1, 2, 0, 1, 2 */
 c007dd4:	e55b300d 	ldrb	r3, [fp, #-13]
 c007dd8:	e2431001 	sub	r1, r3, #1
 c007ddc:	e59f3140 	ldr	r3, [pc, #320]	; c007f24 <sudoku_dibujar_candidatos+0x228>
 c007de0:	e0c20193 	smull	r0, r2, r3, r1
 c007de4:	e1a03fc1 	asr	r3, r1, #31
 c007de8:	e0632002 	rsb	r2, r3, r2
 c007dec:	e1a03002 	mov	r3, r2
 c007df0:	e1a03083 	lsl	r3, r3, #1
 c007df4:	e0833002 	add	r3, r3, r2
 c007df8:	e0632001 	rsb	r2, r3, r1
 c007dfc:	e1a03002 	mov	r3, r2
 c007e00:	e54b3015 	strb	r3, [fp, #-21]	; 0xffffffeb

            INT16U x = base_x + grid_col * CANDIDATO_GRID_SIZE + CANDIDATO_GRID_SIZE / 2;
 c007e04:	e55b3015 	ldrb	r3, [fp, #-21]	; 0xffffffeb
 c007e08:	e1a03803 	lsl	r3, r3, #16
 c007e0c:	e1a03823 	lsr	r3, r3, #16
 c007e10:	e1a02003 	mov	r2, r3
 c007e14:	e1a02182 	lsl	r2, r2, #3
 c007e18:	e0633002 	rsb	r3, r3, r2
 c007e1c:	e1a03803 	lsl	r3, r3, #16
 c007e20:	e1a02823 	lsr	r2, r3, #16
 c007e24:	e15b31b0 	ldrh	r3, [fp, #-16]
 c007e28:	e0823003 	add	r3, r2, r3
 c007e2c:	e1a03803 	lsl	r3, r3, #16
 c007e30:	e1a03823 	lsr	r3, r3, #16
 c007e34:	e2833003 	add	r3, r3, #3
 c007e38:	e14b31b8 	strh	r3, [fp, #-24]	; 0xffffffe8
            INT16U y = base_y + grid_row * CANDIDATO_GRID_SIZE + CANDIDATO_GRID_SIZE / 2;
 c007e3c:	e55b3014 	ldrb	r3, [fp, #-20]	; 0xffffffec
 c007e40:	e1a03803 	lsl	r3, r3, #16
 c007e44:	e1a03823 	lsr	r3, r3, #16
 c007e48:	e1a02003 	mov	r2, r3
 c007e4c:	e1a02182 	lsl	r2, r2, #3
 c007e50:	e0633002 	rsb	r3, r3, r2
 c007e54:	e1a03803 	lsl	r3, r3, #16
 c007e58:	e1a02823 	lsr	r2, r3, #16
 c007e5c:	e15b31b2 	ldrh	r3, [fp, #-18]	; 0xffffffee
 c007e60:	e0823003 	add	r3, r2, r3
 c007e64:	e1a03803 	lsl	r3, r3, #16
 c007e68:	e1a03823 	lsr	r3, r3, #16
 c007e6c:	e2833003 	add	r3, r3, #3
 c007e70:	e14b31ba 	strh	r3, [fp, #-26]	; 0xffffffe6

            /* Dibujar un pequeo punto o crculo para marcar el candidato */
            /* Como no tenemos funcin de crculo, dibujamos un cuadrado pequeo */
            LcdClrRect(x - CANDIDATO_MARCA_SIZE, y - CANDIDATO_MARCA_SIZE,
 c007e74:	e15b31b8 	ldrh	r3, [fp, #-24]	; 0xffffffe8
 c007e78:	e2433001 	sub	r3, r3, #1
 c007e7c:	e1a03803 	lsl	r3, r3, #16
 c007e80:	e1a03823 	lsr	r3, r3, #16
 c007e84:	e1a03803 	lsl	r3, r3, #16
 c007e88:	e1a00823 	lsr	r0, r3, #16
 c007e8c:	e15b31ba 	ldrh	r3, [fp, #-26]	; 0xffffffe6
 c007e90:	e2433001 	sub	r3, r3, #1
 c007e94:	e1a03803 	lsl	r3, r3, #16
 c007e98:	e1a03823 	lsr	r3, r3, #16
 c007e9c:	e1a03803 	lsl	r3, r3, #16
 c007ea0:	e1a01823 	lsr	r1, r3, #16
 c007ea4:	e15b31b8 	ldrh	r3, [fp, #-24]	; 0xffffffe8
 c007ea8:	e2833001 	add	r3, r3, #1
 c007eac:	e1a03803 	lsl	r3, r3, #16
 c007eb0:	e1a03823 	lsr	r3, r3, #16
 c007eb4:	e1a03803 	lsl	r3, r3, #16
 c007eb8:	e1a02823 	lsr	r2, r3, #16
 c007ebc:	e15b31ba 	ldrh	r3, [fp, #-26]	; 0xffffffe6
 c007ec0:	e2833001 	add	r3, r3, #1
 c007ec4:	e1a03803 	lsl	r3, r3, #16
 c007ec8:	e1a03823 	lsr	r3, r3, #16
 c007ecc:	e1a03803 	lsl	r3, r3, #16
 c007ed0:	e1a03823 	lsr	r3, r3, #16
 c007ed4:	e1a00800 	lsl	r0, r0, #16
 c007ed8:	e1a00840 	asr	r0, r0, #16
 c007edc:	e1a01801 	lsl	r1, r1, #16
 c007ee0:	e1a01841 	asr	r1, r1, #16
 c007ee4:	e1a02802 	lsl	r2, r2, #16
 c007ee8:	e1a02842 	asr	r2, r2, #16
 c007eec:	e1a03803 	lsl	r3, r3, #16
 c007ef0:	e1a03843 	asr	r3, r3, #16
 c007ef4:	e3a0c008 	mov	ip, #8
 c007ef8:	e58dc000 	str	ip, [sp]
 c007efc:	ebfff51f 	bl	c005380 <LcdClrRect>
    /* Posiciones en la cuadrcula 3x3 para cada nmero 1-9:
     * 1 2 3
     * 4 5 6
     * 7 8 9
     */
    for (num = 1; num <= 9; num++)
 c007f00:	e55b300d 	ldrb	r3, [fp, #-13]
 c007f04:	e2833001 	add	r3, r3, #1
 c007f08:	e54b300d 	strb	r3, [fp, #-13]
 c007f0c:	e55b300d 	ldrb	r3, [fp, #-13]
 c007f10:	e3530009 	cmp	r3, #9
 c007f14:	9affff9b 	bls	c007d88 <sudoku_dibujar_candidatos+0x8c>
            LcdClrRect(x - CANDIDATO_MARCA_SIZE, y - CANDIDATO_MARCA_SIZE,
                       x + CANDIDATO_MARCA_SIZE, y + CANDIDATO_MARCA_SIZE,
                       COLOR_CANDIDATO);
        }
    }
}
 c007f18:	e24bd00c 	sub	sp, fp, #12
 c007f1c:	e89d6800 	ldm	sp, {fp, sp, lr}
 c007f20:	e12fff1e 	bx	lr
 c007f24:	55555556 	.word	0x55555556

0c007f28 <sudoku_dibujar_celda_completa>:
 * @param es_error: 1 si el valor es errneo
 * @param candidatos: vector de candidatos (solo usado si valor == 0)
 */
void sudoku_dibujar_celda_completa(uint8_t fila, uint8_t columna, uint8_t valor,
                                   uint8_t es_pista, uint8_t es_error, uint16_t candidatos)
{
 c007f28:	e1a0c00d 	mov	ip, sp
 c007f2c:	e92dd800 	push	{fp, ip, lr, pc}
 c007f30:	e24cb004 	sub	fp, ip, #4
 c007f34:	e24dd020 	sub	sp, sp, #32
 c007f38:	e54b001d 	strb	r0, [fp, #-29]	; 0xffffffe3
 c007f3c:	e54b101e 	strb	r1, [fp, #-30]	; 0xffffffe2
 c007f40:	e54b201f 	strb	r2, [fp, #-31]	; 0xffffffe1
 c007f44:	e54b3020 	strb	r3, [fp, #-32]	; 0xffffffe0
    INT16U x = TABLERO_X0 + columna * CELDA_SIZE + CELDA_SIZE / 2 - 4;
 c007f48:	e55b301e 	ldrb	r3, [fp, #-30]	; 0xffffffe2
 c007f4c:	e1a03803 	lsl	r3, r3, #16
 c007f50:	e1a03823 	lsr	r3, r3, #16
 c007f54:	e1a02003 	mov	r2, r3
 c007f58:	e1a02082 	lsl	r2, r2, #1
 c007f5c:	e0823003 	add	r3, r2, r3
 c007f60:	e1a03183 	lsl	r3, r3, #3
 c007f64:	e1a03803 	lsl	r3, r3, #16
 c007f68:	e1a03823 	lsr	r3, r3, #16
 c007f6c:	e283303c 	add	r3, r3, #60	; 0x3c
 c007f70:	e14b31b0 	strh	r3, [fp, #-16]
    INT16U y = TABLERO_Y0 + fila * CELDA_SIZE + CELDA_SIZE / 2 - 4;
 c007f74:	e55b301d 	ldrb	r3, [fp, #-29]	; 0xffffffe3
 c007f78:	e2833001 	add	r3, r3, #1
 c007f7c:	e1a03803 	lsl	r3, r3, #16
 c007f80:	e1a03823 	lsr	r3, r3, #16
 c007f84:	e1a02003 	mov	r2, r3
 c007f88:	e1a02082 	lsl	r2, r2, #1
 c007f8c:	e0823003 	add	r3, r2, r3
 c007f90:	e1a03183 	lsl	r3, r3, #3
 c007f94:	e1a03803 	lsl	r3, r3, #16
 c007f98:	e1a03823 	lsr	r3, r3, #16
 c007f9c:	e2433004 	sub	r3, r3, #4
 c007fa0:	e14b31b2 	strh	r3, [fp, #-18]	; 0xffffffee
    INT8U numero_str[2];
    INT8U color;
    INT8U color_fondo = WHITE; // Fondo blanco normal
 c007fa4:	e3a03000 	mov	r3, #0
 c007fa8:	e54b300e 	strb	r3, [fp, #-14]

    /* Si hay error, usar fondo negro (inversin) */
    if (es_error)
 c007fac:	e5db3004 	ldrb	r3, [fp, #4]
 c007fb0:	e3530000 	cmp	r3, #0
 c007fb4:	0a000001 	beq	c007fc0 <sudoku_dibujar_celda_completa+0x98>
    {
        color_fondo = BLACK; // Fondo negro para errores
 c007fb8:	e3a0300f 	mov	r3, #15
 c007fbc:	e54b300e 	strb	r3, [fp, #-14]
    }

    /* Limpiar la celda primero */
    LcdClrRect(TABLERO_X0 + columna * CELDA_SIZE + 2,
 c007fc0:	e55b301e 	ldrb	r3, [fp, #-30]	; 0xffffffe2
 c007fc4:	e1a03803 	lsl	r3, r3, #16
 c007fc8:	e1a03823 	lsr	r3, r3, #16
 c007fcc:	e1a02003 	mov	r2, r3
 c007fd0:	e1a02082 	lsl	r2, r2, #1
 c007fd4:	e0823003 	add	r3, r2, r3
 c007fd8:	e1a03183 	lsl	r3, r3, #3
 c007fdc:	e1a03803 	lsl	r3, r3, #16
 c007fe0:	e1a03823 	lsr	r3, r3, #16
 c007fe4:	e2833036 	add	r3, r3, #54	; 0x36
 c007fe8:	e1a03803 	lsl	r3, r3, #16
 c007fec:	e1a03823 	lsr	r3, r3, #16
 c007ff0:	e1a03803 	lsl	r3, r3, #16
 c007ff4:	e1a00823 	lsr	r0, r3, #16
 c007ff8:	e55b301d 	ldrb	r3, [fp, #-29]	; 0xffffffe3
 c007ffc:	e1a03803 	lsl	r3, r3, #16
 c008000:	e1a03823 	lsr	r3, r3, #16
 c008004:	e1a02003 	mov	r2, r3
 c008008:	e1a02082 	lsl	r2, r2, #1
 c00800c:	e0823003 	add	r3, r2, r3
 c008010:	e1a03183 	lsl	r3, r3, #3
 c008014:	e1a03803 	lsl	r3, r3, #16
 c008018:	e1a03823 	lsr	r3, r3, #16
 c00801c:	e283300e 	add	r3, r3, #14
 c008020:	e1a03803 	lsl	r3, r3, #16
 c008024:	e1a03823 	lsr	r3, r3, #16
 c008028:	e1a03803 	lsl	r3, r3, #16
 c00802c:	e1a01823 	lsr	r1, r3, #16
 c008030:	e55b301e 	ldrb	r3, [fp, #-30]	; 0xffffffe2
 c008034:	e2833001 	add	r3, r3, #1
 c008038:	e1a03803 	lsl	r3, r3, #16
 c00803c:	e1a03823 	lsr	r3, r3, #16
 c008040:	e1a02003 	mov	r2, r3
 c008044:	e1a02082 	lsl	r2, r2, #1
 c008048:	e0823003 	add	r3, r2, r3
 c00804c:	e1a03183 	lsl	r3, r3, #3
 c008050:	e1a03803 	lsl	r3, r3, #16
 c008054:	e1a03823 	lsr	r3, r3, #16
 c008058:	e2833032 	add	r3, r3, #50	; 0x32
 c00805c:	e1a03803 	lsl	r3, r3, #16
 c008060:	e1a03823 	lsr	r3, r3, #16
 c008064:	e1a03803 	lsl	r3, r3, #16
 c008068:	e1a02823 	lsr	r2, r3, #16
 c00806c:	e55b301d 	ldrb	r3, [fp, #-29]	; 0xffffffe3
 c008070:	e2833001 	add	r3, r3, #1
 c008074:	e1a03803 	lsl	r3, r3, #16
 c008078:	e1a03823 	lsr	r3, r3, #16
 c00807c:	e1a0c003 	mov	ip, r3
 c008080:	e1a0c08c 	lsl	ip, ip, #1
 c008084:	e08c3003 	add	r3, ip, r3
 c008088:	e1a03183 	lsl	r3, r3, #3
 c00808c:	e1a03803 	lsl	r3, r3, #16
 c008090:	e1a03823 	lsr	r3, r3, #16
 c008094:	e283300a 	add	r3, r3, #10
 c008098:	e1a03803 	lsl	r3, r3, #16
 c00809c:	e1a03823 	lsr	r3, r3, #16
 c0080a0:	e1a03803 	lsl	r3, r3, #16
 c0080a4:	e1a03823 	lsr	r3, r3, #16
 c0080a8:	e1a00800 	lsl	r0, r0, #16
 c0080ac:	e1a00840 	asr	r0, r0, #16
 c0080b0:	e1a01801 	lsl	r1, r1, #16
 c0080b4:	e1a01841 	asr	r1, r1, #16
 c0080b8:	e1a02802 	lsl	r2, r2, #16
 c0080bc:	e1a02842 	asr	r2, r2, #16
 c0080c0:	e1a03803 	lsl	r3, r3, #16
 c0080c4:	e1a03843 	asr	r3, r3, #16
 c0080c8:	e55bc00e 	ldrb	ip, [fp, #-14]
 c0080cc:	e58dc000 	str	ip, [sp]
 c0080d0:	ebfff4aa 	bl	c005380 <LcdClrRect>
               TABLERO_X0 + (columna + 1) * CELDA_SIZE - 2,
               TABLERO_Y0 + (fila + 1) * CELDA_SIZE - 2,
               color_fondo);

    /* Si hay error, dibujar un BORDE MUY GRUESO */
    if (es_error)
 c0080d4:	e5db3004 	ldrb	r3, [fp, #4]
 c0080d8:	e3530000 	cmp	r3, #0
 c0080dc:	0a000093 	beq	c008330 <sudoku_dibujar_celda_completa+0x408>
    {
        INT16U x0 = TABLERO_X0 + columna * CELDA_SIZE;
 c0080e0:	e55b301e 	ldrb	r3, [fp, #-30]	; 0xffffffe2
 c0080e4:	e1a03803 	lsl	r3, r3, #16
 c0080e8:	e1a03823 	lsr	r3, r3, #16
 c0080ec:	e1a02003 	mov	r2, r3
 c0080f0:	e1a02082 	lsl	r2, r2, #1
 c0080f4:	e0823003 	add	r3, r2, r3
 c0080f8:	e1a03183 	lsl	r3, r3, #3
 c0080fc:	e1a03803 	lsl	r3, r3, #16
 c008100:	e1a03823 	lsr	r3, r3, #16
 c008104:	e2833034 	add	r3, r3, #52	; 0x34
 c008108:	e14b31b4 	strh	r3, [fp, #-20]	; 0xffffffec
        INT16U y0 = TABLERO_Y0 + fila * CELDA_SIZE;
 c00810c:	e55b301d 	ldrb	r3, [fp, #-29]	; 0xffffffe3
 c008110:	e1a03803 	lsl	r3, r3, #16
 c008114:	e1a03823 	lsr	r3, r3, #16
 c008118:	e1a02003 	mov	r2, r3
 c00811c:	e1a02082 	lsl	r2, r2, #1
 c008120:	e0823003 	add	r3, r2, r3
 c008124:	e1a03183 	lsl	r3, r3, #3
 c008128:	e1a03803 	lsl	r3, r3, #16
 c00812c:	e1a03823 	lsr	r3, r3, #16
 c008130:	e283300c 	add	r3, r3, #12
 c008134:	e14b31b6 	strh	r3, [fp, #-22]	; 0xffffffea
        INT16U x1 = x0 + CELDA_SIZE - 1;
 c008138:	e15b31b4 	ldrh	r3, [fp, #-20]	; 0xffffffec
 c00813c:	e2833017 	add	r3, r3, #23
 c008140:	e14b31b8 	strh	r3, [fp, #-24]	; 0xffffffe8
        INT16U y1 = y0 + CELDA_SIZE - 1;
 c008144:	e15b31b6 	ldrh	r3, [fp, #-22]	; 0xffffffea
 c008148:	e2833017 	add	r3, r3, #23
 c00814c:	e14b31ba 	strh	r3, [fp, #-26]	; 0xffffffe6

        // Dibujar mltiples bordes para hacerlo MUY grueso
        Lcd_Draw_Box(x0, y0, x1, y1, BLACK);
 c008150:	e15b01b4 	ldrh	r0, [fp, #-20]	; 0xffffffec
 c008154:	e15b11b6 	ldrh	r1, [fp, #-22]	; 0xffffffea
 c008158:	e15b21b8 	ldrh	r2, [fp, #-24]	; 0xffffffe8
 c00815c:	e15b31ba 	ldrh	r3, [fp, #-26]	; 0xffffffe6
 c008160:	e1a00800 	lsl	r0, r0, #16
 c008164:	e1a00840 	asr	r0, r0, #16
 c008168:	e1a01801 	lsl	r1, r1, #16
 c00816c:	e1a01841 	asr	r1, r1, #16
 c008170:	e1a02802 	lsl	r2, r2, #16
 c008174:	e1a02842 	asr	r2, r2, #16
 c008178:	e1a03803 	lsl	r3, r3, #16
 c00817c:	e1a03843 	asr	r3, r3, #16
 c008180:	e3a0c00f 	mov	ip, #15
 c008184:	e58dc000 	str	ip, [sp]
 c008188:	ebfff610 	bl	c0059d0 <Lcd_Draw_Box>
        Lcd_Draw_Box(x0 + 1, y0 + 1, x1 - 1, y1 - 1, BLACK);
 c00818c:	e15b31b4 	ldrh	r3, [fp, #-20]	; 0xffffffec
 c008190:	e2833001 	add	r3, r3, #1
 c008194:	e1a03803 	lsl	r3, r3, #16
 c008198:	e1a03823 	lsr	r3, r3, #16
 c00819c:	e1a03803 	lsl	r3, r3, #16
 c0081a0:	e1a00823 	lsr	r0, r3, #16
 c0081a4:	e15b31b6 	ldrh	r3, [fp, #-22]	; 0xffffffea
 c0081a8:	e2833001 	add	r3, r3, #1
 c0081ac:	e1a03803 	lsl	r3, r3, #16
 c0081b0:	e1a03823 	lsr	r3, r3, #16
 c0081b4:	e1a03803 	lsl	r3, r3, #16
 c0081b8:	e1a01823 	lsr	r1, r3, #16
 c0081bc:	e15b31b8 	ldrh	r3, [fp, #-24]	; 0xffffffe8
 c0081c0:	e2433001 	sub	r3, r3, #1
 c0081c4:	e1a03803 	lsl	r3, r3, #16
 c0081c8:	e1a03823 	lsr	r3, r3, #16
 c0081cc:	e1a03803 	lsl	r3, r3, #16
 c0081d0:	e1a02823 	lsr	r2, r3, #16
 c0081d4:	e15b31ba 	ldrh	r3, [fp, #-26]	; 0xffffffe6
 c0081d8:	e2433001 	sub	r3, r3, #1
 c0081dc:	e1a03803 	lsl	r3, r3, #16
 c0081e0:	e1a03823 	lsr	r3, r3, #16
 c0081e4:	e1a03803 	lsl	r3, r3, #16
 c0081e8:	e1a03823 	lsr	r3, r3, #16
 c0081ec:	e1a00800 	lsl	r0, r0, #16
 c0081f0:	e1a00840 	asr	r0, r0, #16
 c0081f4:	e1a01801 	lsl	r1, r1, #16
 c0081f8:	e1a01841 	asr	r1, r1, #16
 c0081fc:	e1a02802 	lsl	r2, r2, #16
 c008200:	e1a02842 	asr	r2, r2, #16
 c008204:	e1a03803 	lsl	r3, r3, #16
 c008208:	e1a03843 	asr	r3, r3, #16
 c00820c:	e3a0c00f 	mov	ip, #15
 c008210:	e58dc000 	str	ip, [sp]
 c008214:	ebfff5ed 	bl	c0059d0 <Lcd_Draw_Box>
        Lcd_Draw_Box(x0 + 2, y0 + 2, x1 - 2, y1 - 2, BLACK);
 c008218:	e15b31b4 	ldrh	r3, [fp, #-20]	; 0xffffffec
 c00821c:	e2833002 	add	r3, r3, #2
 c008220:	e1a03803 	lsl	r3, r3, #16
 c008224:	e1a03823 	lsr	r3, r3, #16
 c008228:	e1a03803 	lsl	r3, r3, #16
 c00822c:	e1a00823 	lsr	r0, r3, #16
 c008230:	e15b31b6 	ldrh	r3, [fp, #-22]	; 0xffffffea
 c008234:	e2833002 	add	r3, r3, #2
 c008238:	e1a03803 	lsl	r3, r3, #16
 c00823c:	e1a03823 	lsr	r3, r3, #16
 c008240:	e1a03803 	lsl	r3, r3, #16
 c008244:	e1a01823 	lsr	r1, r3, #16
 c008248:	e15b31b8 	ldrh	r3, [fp, #-24]	; 0xffffffe8
 c00824c:	e2433002 	sub	r3, r3, #2
 c008250:	e1a03803 	lsl	r3, r3, #16
 c008254:	e1a03823 	lsr	r3, r3, #16
 c008258:	e1a03803 	lsl	r3, r3, #16
 c00825c:	e1a02823 	lsr	r2, r3, #16
 c008260:	e15b31ba 	ldrh	r3, [fp, #-26]	; 0xffffffe6
 c008264:	e2433002 	sub	r3, r3, #2
 c008268:	e1a03803 	lsl	r3, r3, #16
 c00826c:	e1a03823 	lsr	r3, r3, #16
 c008270:	e1a03803 	lsl	r3, r3, #16
 c008274:	e1a03823 	lsr	r3, r3, #16
 c008278:	e1a00800 	lsl	r0, r0, #16
 c00827c:	e1a00840 	asr	r0, r0, #16
 c008280:	e1a01801 	lsl	r1, r1, #16
 c008284:	e1a01841 	asr	r1, r1, #16
 c008288:	e1a02802 	lsl	r2, r2, #16
 c00828c:	e1a02842 	asr	r2, r2, #16
 c008290:	e1a03803 	lsl	r3, r3, #16
 c008294:	e1a03843 	asr	r3, r3, #16
 c008298:	e3a0c00f 	mov	ip, #15
 c00829c:	e58dc000 	str	ip, [sp]
 c0082a0:	ebfff5ca 	bl	c0059d0 <Lcd_Draw_Box>
        Lcd_Draw_Box(x0 + 3, y0 + 3, x1 - 3, y1 - 3, BLACK);
 c0082a4:	e15b31b4 	ldrh	r3, [fp, #-20]	; 0xffffffec
 c0082a8:	e2833003 	add	r3, r3, #3
 c0082ac:	e1a03803 	lsl	r3, r3, #16
 c0082b0:	e1a03823 	lsr	r3, r3, #16
 c0082b4:	e1a03803 	lsl	r3, r3, #16
 c0082b8:	e1a00823 	lsr	r0, r3, #16
 c0082bc:	e15b31b6 	ldrh	r3, [fp, #-22]	; 0xffffffea
 c0082c0:	e2833003 	add	r3, r3, #3
 c0082c4:	e1a03803 	lsl	r3, r3, #16
 c0082c8:	e1a03823 	lsr	r3, r3, #16
 c0082cc:	e1a03803 	lsl	r3, r3, #16
 c0082d0:	e1a01823 	lsr	r1, r3, #16
 c0082d4:	e15b31b8 	ldrh	r3, [fp, #-24]	; 0xffffffe8
 c0082d8:	e2433003 	sub	r3, r3, #3
 c0082dc:	e1a03803 	lsl	r3, r3, #16
 c0082e0:	e1a03823 	lsr	r3, r3, #16
 c0082e4:	e1a03803 	lsl	r3, r3, #16
 c0082e8:	e1a02823 	lsr	r2, r3, #16
 c0082ec:	e15b31ba 	ldrh	r3, [fp, #-26]	; 0xffffffe6
 c0082f0:	e2433003 	sub	r3, r3, #3
 c0082f4:	e1a03803 	lsl	r3, r3, #16
 c0082f8:	e1a03823 	lsr	r3, r3, #16
 c0082fc:	e1a03803 	lsl	r3, r3, #16
 c008300:	e1a03823 	lsr	r3, r3, #16
 c008304:	e1a00800 	lsl	r0, r0, #16
 c008308:	e1a00840 	asr	r0, r0, #16
 c00830c:	e1a01801 	lsl	r1, r1, #16
 c008310:	e1a01841 	asr	r1, r1, #16
 c008314:	e1a02802 	lsl	r2, r2, #16
 c008318:	e1a02842 	asr	r2, r2, #16
 c00831c:	e1a03803 	lsl	r3, r3, #16
 c008320:	e1a03843 	asr	r3, r3, #16
 c008324:	e3a0c00f 	mov	ip, #15
 c008328:	e58dc000 	str	ip, [sp]
 c00832c:	ebfff5a7 	bl	c0059d0 <Lcd_Draw_Box>
    }

    /* Si hay valor, dibujarlo */
    if (valor > 0 && valor <= 9)
 c008330:	e55b301f 	ldrb	r3, [fp, #-31]	; 0xffffffe1
 c008334:	e3530000 	cmp	r3, #0
 c008338:	0a00001c 	beq	c0083b0 <sudoku_dibujar_celda_completa+0x488>
 c00833c:	e55b301f 	ldrb	r3, [fp, #-31]	; 0xffffffe1
 c008340:	e3530009 	cmp	r3, #9
 c008344:	8a000019 	bhi	c0083b0 <sudoku_dibujar_celda_completa+0x488>
    {
        numero_str[0] = '0' + valor;
 c008348:	e55b301f 	ldrb	r3, [fp, #-31]	; 0xffffffe1
 c00834c:	e2833030 	add	r3, r3, #48	; 0x30
 c008350:	e20330ff 	and	r3, r3, #255	; 0xff
 c008354:	e54b301c 	strb	r3, [fp, #-28]	; 0xffffffe4
        numero_str[1] = '\0';
 c008358:	e3a03000 	mov	r3, #0
 c00835c:	e54b301b 	strb	r3, [fp, #-27]	; 0xffffffe5

        /* Determinar color del texto */
        if (es_error)
 c008360:	e5db3004 	ldrb	r3, [fp, #4]
 c008364:	e3530000 	cmp	r3, #0
 c008368:	0a000002 	beq	c008378 <sudoku_dibujar_celda_completa+0x450>
        {
            color = WHITE; // Texto blanco sobre fondo negro
 c00836c:	e3a03000 	mov	r3, #0
 c008370:	e54b300d 	strb	r3, [fp, #-13]
 c008374:	ea000007 	b	c008398 <sudoku_dibujar_celda_completa+0x470>
        }
        else if (es_pista)
 c008378:	e55b3020 	ldrb	r3, [fp, #-32]	; 0xffffffe0
 c00837c:	e3530000 	cmp	r3, #0
 c008380:	0a000002 	beq	c008390 <sudoku_dibujar_celda_completa+0x468>
        {
            color = BLACK; // Pistas en negro
 c008384:	e3a0300f 	mov	r3, #15
 c008388:	e54b300d 	strb	r3, [fp, #-13]
 c00838c:	ea000001 	b	c008398 <sudoku_dibujar_celda_completa+0x470>
        }
        else
        {
            color = DARKGRAY; // Valores usuario en gris
 c008390:	e3a0300a 	mov	r3, #10
 c008394:	e54b300d 	strb	r3, [fp, #-13]
        }

        Lcd_DspAscII6x8(x, y, color, numero_str);
 c008398:	e15b01b0 	ldrh	r0, [fp, #-16]
 c00839c:	e15b11b2 	ldrh	r1, [fp, #-18]	; 0xffffffee
 c0083a0:	e55b200d 	ldrb	r2, [fp, #-13]
 c0083a4:	e24b301c 	sub	r3, fp, #28
 c0083a8:	ebfff9e5 	bl	c006b44 <Lcd_DspAscII6x8>
 c0083ac:	ea000006 	b	c0083cc <sudoku_dibujar_celda_completa+0x4a4>
    }
    else
    {
        /* Celda vaca: mostrar candidatos */
        sudoku_dibujar_candidatos(fila, columna, candidatos);
 c0083b0:	e55b101d 	ldrb	r1, [fp, #-29]	; 0xffffffe3
 c0083b4:	e55b201e 	ldrb	r2, [fp, #-30]	; 0xffffffe2
 c0083b8:	e1db30b8 	ldrh	r3, [fp, #8]
 c0083bc:	e1a00001 	mov	r0, r1
 c0083c0:	e1a01002 	mov	r1, r2
 c0083c4:	e1a02003 	mov	r2, r3
 c0083c8:	ebfffe4b 	bl	c007cfc <sudoku_dibujar_candidatos>
    }
}
 c0083cc:	e24bd00c 	sub	sp, fp, #12
 c0083d0:	e89d6800 	ldm	sp, {fp, sp, lr}
 c0083d4:	e12fff1e 	bx	lr

0c0083d8 <sudoku_dibujar_numero_celda>:
/**
 * Dibuja un nmero en una celda especfica (versin antigua - mantener compatibilidad)
 */
void sudoku_dibujar_numero_celda(uint8_t fila, uint8_t columna, uint8_t valor,
                                 uint8_t es_pista, uint8_t es_error)
{
 c0083d8:	e1a0c00d 	mov	ip, sp
 c0083dc:	e92dd800 	push	{fp, ip, lr, pc}
 c0083e0:	e24cb004 	sub	fp, ip, #4
 c0083e4:	e24dd010 	sub	sp, sp, #16
 c0083e8:	e54b000d 	strb	r0, [fp, #-13]
 c0083ec:	e54b100e 	strb	r1, [fp, #-14]
 c0083f0:	e54b200f 	strb	r2, [fp, #-15]
 c0083f4:	e54b3010 	strb	r3, [fp, #-16]
    /* Por compatibilidad, llamar a la versin completa con candidatos = 0x1FF (todos no candidatos) */
    sudoku_dibujar_celda_completa(fila, columna, valor, es_pista, es_error, 0x1FF);
 c0083f8:	e55b000d 	ldrb	r0, [fp, #-13]
 c0083fc:	e55b100e 	ldrb	r1, [fp, #-14]
 c008400:	e55b200f 	ldrb	r2, [fp, #-15]
 c008404:	e55b3010 	ldrb	r3, [fp, #-16]
 c008408:	e5dbc004 	ldrb	ip, [fp, #4]
 c00840c:	e58dc000 	str	ip, [sp]
 c008410:	e59fc010 	ldr	ip, [pc, #16]	; c008428 <sudoku_dibujar_numero_celda+0x50>
 c008414:	e58dc004 	str	ip, [sp, #4]
 c008418:	ebfffec2 	bl	c007f28 <sudoku_dibujar_celda_completa>
}
 c00841c:	e24bd00c 	sub	sp, fp, #12
 c008420:	e89d6800 	ldm	sp, {fp, sp, lr}
 c008424:	e12fff1e 	bx	lr
 c008428:	000001ff 	.word	0x000001ff

0c00842c <sudoku_resaltar_celda>:
 * @param fila: fila del tablero (0-8)
 * @param columna: columna del tablero (0-8)
 * @param resaltar: 1 para resaltar, 0 para quitar resaltado
 */
void sudoku_resaltar_celda(uint8_t fila, uint8_t columna, uint8_t resaltar)
{
 c00842c:	e1a0c00d 	mov	ip, sp
 c008430:	e92dd800 	push	{fp, ip, lr, pc}
 c008434:	e24cb004 	sub	fp, ip, #4
 c008438:	e24dd020 	sub	sp, sp, #32
 c00843c:	e1a03002 	mov	r3, r2
 c008440:	e1a02000 	mov	r2, r0
 c008444:	e54b201d 	strb	r2, [fp, #-29]	; 0xffffffe3
 c008448:	e1a02001 	mov	r2, r1
 c00844c:	e54b201e 	strb	r2, [fp, #-30]	; 0xffffffe2
 c008450:	e54b301f 	strb	r3, [fp, #-31]	; 0xffffffe1
    INT16U x0 = TABLERO_X0 + columna * CELDA_SIZE + 1;
 c008454:	e55b301e 	ldrb	r3, [fp, #-30]	; 0xffffffe2
 c008458:	e1a03803 	lsl	r3, r3, #16
 c00845c:	e1a03823 	lsr	r3, r3, #16
 c008460:	e1a02003 	mov	r2, r3
 c008464:	e1a02082 	lsl	r2, r2, #1
 c008468:	e0823003 	add	r3, r2, r3
 c00846c:	e1a03183 	lsl	r3, r3, #3
 c008470:	e1a03803 	lsl	r3, r3, #16
 c008474:	e1a03823 	lsr	r3, r3, #16
 c008478:	e2833035 	add	r3, r3, #53	; 0x35
 c00847c:	e14b30be 	strh	r3, [fp, #-14]
    INT16U y0 = TABLERO_Y0 + fila * CELDA_SIZE + 1;
 c008480:	e55b301d 	ldrb	r3, [fp, #-29]	; 0xffffffe3
 c008484:	e1a03803 	lsl	r3, r3, #16
 c008488:	e1a03823 	lsr	r3, r3, #16
 c00848c:	e1a02003 	mov	r2, r3
 c008490:	e1a02082 	lsl	r2, r2, #1
 c008494:	e0823003 	add	r3, r2, r3
 c008498:	e1a03183 	lsl	r3, r3, #3
 c00849c:	e1a03803 	lsl	r3, r3, #16
 c0084a0:	e1a03823 	lsr	r3, r3, #16
 c0084a4:	e283300d 	add	r3, r3, #13
 c0084a8:	e14b31b0 	strh	r3, [fp, #-16]
    INT16U x1 = x0 + CELDA_SIZE - 2;
 c0084ac:	e15b30be 	ldrh	r3, [fp, #-14]
 c0084b0:	e2833016 	add	r3, r3, #22
 c0084b4:	e14b31b2 	strh	r3, [fp, #-18]	; 0xffffffee
    INT16U y1 = y0 + CELDA_SIZE - 2;
 c0084b8:	e15b31b0 	ldrh	r3, [fp, #-16]
 c0084bc:	e2833016 	add	r3, r3, #22
 c0084c0:	e14b31b4 	strh	r3, [fp, #-20]	; 0xffffffec
    INT8U color = resaltar ? COLOR_SELECCION : COLOR_FONDO;
 c0084c4:	e55b301f 	ldrb	r3, [fp, #-31]	; 0xffffffe1
 c0084c8:	e3530000 	cmp	r3, #0
 c0084cc:	0a000001 	beq	c0084d8 <sudoku_resaltar_celda+0xac>
 c0084d0:	e3a03006 	mov	r3, #6
 c0084d4:	ea000000 	b	c0084dc <sudoku_resaltar_celda+0xb0>
 c0084d8:	e3a03000 	mov	r3, #0
 c0084dc:	e54b3015 	strb	r3, [fp, #-21]	; 0xffffffeb

    /* Dibujar un borde interno en la celda */
    Lcd_Draw_HLine(x0, x1, y0, color, 1);
 c0084e0:	e15b10be 	ldrh	r1, [fp, #-14]
 c0084e4:	e15b21b2 	ldrh	r2, [fp, #-18]	; 0xffffffee
 c0084e8:	e15b31b0 	ldrh	r3, [fp, #-16]
 c0084ec:	e1a01801 	lsl	r1, r1, #16
 c0084f0:	e1a00841 	asr	r0, r1, #16
 c0084f4:	e1a02802 	lsl	r2, r2, #16
 c0084f8:	e1a01842 	asr	r1, r2, #16
 c0084fc:	e1a03803 	lsl	r3, r3, #16
 c008500:	e1a02843 	asr	r2, r3, #16
 c008504:	e55b3015 	ldrb	r3, [fp, #-21]	; 0xffffffeb
 c008508:	e3a0c001 	mov	ip, #1
 c00850c:	e58dc000 	str	ip, [sp]
 c008510:	ebfff7ab 	bl	c0063c4 <Lcd_Draw_HLine>
    Lcd_Draw_HLine(x0, x1, y1, color, 1);
 c008514:	e15b10be 	ldrh	r1, [fp, #-14]
 c008518:	e15b21b2 	ldrh	r2, [fp, #-18]	; 0xffffffee
 c00851c:	e15b31b4 	ldrh	r3, [fp, #-20]	; 0xffffffec
 c008520:	e1a01801 	lsl	r1, r1, #16
 c008524:	e1a00841 	asr	r0, r1, #16
 c008528:	e1a02802 	lsl	r2, r2, #16
 c00852c:	e1a01842 	asr	r1, r2, #16
 c008530:	e1a03803 	lsl	r3, r3, #16
 c008534:	e1a02843 	asr	r2, r3, #16
 c008538:	e55b3015 	ldrb	r3, [fp, #-21]	; 0xffffffeb
 c00853c:	e3a0c001 	mov	ip, #1
 c008540:	e58dc000 	str	ip, [sp]
 c008544:	ebfff79e 	bl	c0063c4 <Lcd_Draw_HLine>
    Lcd_Draw_VLine(y0, y1, x0, color, 1);
 c008548:	e15b11b0 	ldrh	r1, [fp, #-16]
 c00854c:	e15b21b4 	ldrh	r2, [fp, #-20]	; 0xffffffec
 c008550:	e15b30be 	ldrh	r3, [fp, #-14]
 c008554:	e1a01801 	lsl	r1, r1, #16
 c008558:	e1a00841 	asr	r0, r1, #16
 c00855c:	e1a02802 	lsl	r2, r2, #16
 c008560:	e1a01842 	asr	r1, r2, #16
 c008564:	e1a03803 	lsl	r3, r3, #16
 c008568:	e1a02843 	asr	r2, r3, #16
 c00856c:	e55b3015 	ldrb	r3, [fp, #-21]	; 0xffffffeb
 c008570:	e3a0c001 	mov	ip, #1
 c008574:	e58dc000 	str	ip, [sp]
 c008578:	ebfff813 	bl	c0065cc <Lcd_Draw_VLine>
    Lcd_Draw_VLine(y0, y1, x1, color, 1);
 c00857c:	e15b11b0 	ldrh	r1, [fp, #-16]
 c008580:	e15b21b4 	ldrh	r2, [fp, #-20]	; 0xffffffec
 c008584:	e15b31b2 	ldrh	r3, [fp, #-18]	; 0xffffffee
 c008588:	e1a01801 	lsl	r1, r1, #16
 c00858c:	e1a00841 	asr	r0, r1, #16
 c008590:	e1a02802 	lsl	r2, r2, #16
 c008594:	e1a01842 	asr	r1, r2, #16
 c008598:	e1a03803 	lsl	r3, r3, #16
 c00859c:	e1a02843 	asr	r2, r3, #16
 c0085a0:	e55b3015 	ldrb	r3, [fp, #-21]	; 0xffffffeb
 c0085a4:	e3a0c001 	mov	ip, #1
 c0085a8:	e58dc000 	str	ip, [sp]
 c0085ac:	ebfff806 	bl	c0065cc <Lcd_Draw_VLine>
}
 c0085b0:	e24bd00c 	sub	sp, fp, #12
 c0085b4:	e89d6800 	ldm	sp, {fp, sp, lr}
 c0085b8:	e12fff1e 	bx	lr

0c0085bc <sudoku_dibujar_tablero_completo>:
/**
 * Dibuja todo el tablero con sus valores actuales
 * @param cuadricula: matriz del sudoku
 */
void sudoku_dibujar_tablero_completo(CELDA cuadricula[NUM_FILAS][NUM_COLUMNAS])
{
 c0085bc:	e1a0c00d 	mov	ip, sp
 c0085c0:	e92dd800 	push	{fp, ip, lr, pc}
 c0085c4:	e24cb004 	sub	fp, ip, #4
 c0085c8:	e24dd018 	sub	sp, sp, #24
 c0085cc:	e50b0018 	str	r0, [fp, #-24]	; 0xffffffe8
    uint8_t es_pista;
    uint8_t es_error;
    uint16_t candidatos;

    /* Limpiar pantalla */
    Lcd_Clr();
 c0085d0:	ebfff34f 	bl	c005314 <Lcd_Clr>

    /* Dibujar marco con lneas y nmeros */
    sudoku_dibujar_marco_tablero();
 c0085d4:	ebfffd0f 	bl	c007a18 <sudoku_dibujar_marco_tablero>

    /* Dibujar todos los valores */
    for (fila = 0; fila < 9; fila++)
 c0085d8:	e3a03000 	mov	r3, #0
 c0085dc:	e54b300d 	strb	r3, [fp, #-13]
 c0085e0:	ea000044 	b	c0086f8 <sudoku_dibujar_tablero_completo+0x13c>
    {
        for (columna = 0; columna < 9; columna++)
 c0085e4:	e3a03000 	mov	r3, #0
 c0085e8:	e54b300e 	strb	r3, [fp, #-14]
 c0085ec:	ea00003b 	b	c0086e0 <sudoku_dibujar_tablero_completo+0x124>
        {
            valor = celda_leer_valor(cuadricula[fila][columna]);
 c0085f0:	e55b300d 	ldrb	r3, [fp, #-13]
 c0085f4:	e1a03283 	lsl	r3, r3, #5
 c0085f8:	e51b2018 	ldr	r2, [fp, #-24]	; 0xffffffe8
 c0085fc:	e0822003 	add	r2, r2, r3
 c008600:	e55b300e 	ldrb	r3, [fp, #-14]
 c008604:	e1a03083 	lsl	r3, r3, #1
 c008608:	e0823003 	add	r3, r2, r3
 c00860c:	e1d330b0 	ldrh	r3, [r3]
 c008610:	e1a00003 	mov	r0, r3
 c008614:	ebfff0fa 	bl	c004a04 <celda_leer_valor>
 c008618:	e1a03000 	mov	r3, r0
 c00861c:	e54b300f 	strb	r3, [fp, #-15]
            es_pista = (cuadricula[fila][columna] & (1 << 4)) ? 1 : 0; // bit 4
 c008620:	e55b300d 	ldrb	r3, [fp, #-13]
 c008624:	e1a03283 	lsl	r3, r3, #5
 c008628:	e51b2018 	ldr	r2, [fp, #-24]	; 0xffffffe8
 c00862c:	e0822003 	add	r2, r2, r3
 c008630:	e55b300e 	ldrb	r3, [fp, #-14]
 c008634:	e1a03083 	lsl	r3, r3, #1
 c008638:	e0823003 	add	r3, r2, r3
 c00863c:	e1d330b0 	ldrh	r3, [r3]
 c008640:	e2033010 	and	r3, r3, #16
 c008644:	e3530000 	cmp	r3, #0
 c008648:	03a03000 	moveq	r3, #0
 c00864c:	13a03001 	movne	r3, #1
 c008650:	e54b3010 	strb	r3, [fp, #-16]
            es_error = (cuadricula[fila][columna] & (1 << 5)) ? 1 : 0; // bit 5
 c008654:	e55b300d 	ldrb	r3, [fp, #-13]
 c008658:	e1a03283 	lsl	r3, r3, #5
 c00865c:	e51b2018 	ldr	r2, [fp, #-24]	; 0xffffffe8
 c008660:	e0822003 	add	r2, r2, r3
 c008664:	e55b300e 	ldrb	r3, [fp, #-14]
 c008668:	e1a03083 	lsl	r3, r3, #1
 c00866c:	e0823003 	add	r3, r2, r3
 c008670:	e1d330b0 	ldrh	r3, [r3]
 c008674:	e2033020 	and	r3, r3, #32
 c008678:	e3530000 	cmp	r3, #0
 c00867c:	03a03000 	moveq	r3, #0
 c008680:	13a03001 	movne	r3, #1
 c008684:	e54b3011 	strb	r3, [fp, #-17]	; 0xffffffef
            candidatos = (cuadricula[fila][columna] >> 7) & 0x1FF;     // bits [15:7]
 c008688:	e55b300d 	ldrb	r3, [fp, #-13]
 c00868c:	e1a03283 	lsl	r3, r3, #5
 c008690:	e51b2018 	ldr	r2, [fp, #-24]	; 0xffffffe8
 c008694:	e0822003 	add	r2, r2, r3
 c008698:	e55b300e 	ldrb	r3, [fp, #-14]
 c00869c:	e1a03083 	lsl	r3, r3, #1
 c0086a0:	e0823003 	add	r3, r2, r3
 c0086a4:	e1d330b0 	ldrh	r3, [r3]
 c0086a8:	e1a033a3 	lsr	r3, r3, #7
 c0086ac:	e14b31b4 	strh	r3, [fp, #-20]	; 0xffffffec

            sudoku_dibujar_celda_completa(fila, columna, valor, es_pista, es_error, candidatos);
 c0086b0:	e55b000d 	ldrb	r0, [fp, #-13]
 c0086b4:	e55b100e 	ldrb	r1, [fp, #-14]
 c0086b8:	e55b200f 	ldrb	r2, [fp, #-15]
 c0086bc:	e55b3010 	ldrb	r3, [fp, #-16]
 c0086c0:	e55bc011 	ldrb	ip, [fp, #-17]	; 0xffffffef
 c0086c4:	e58dc000 	str	ip, [sp]
 c0086c8:	e15bc1b4 	ldrh	ip, [fp, #-20]	; 0xffffffec
 c0086cc:	e58dc004 	str	ip, [sp, #4]
 c0086d0:	ebfffe14 	bl	c007f28 <sudoku_dibujar_celda_completa>
    sudoku_dibujar_marco_tablero();

    /* Dibujar todos los valores */
    for (fila = 0; fila < 9; fila++)
    {
        for (columna = 0; columna < 9; columna++)
 c0086d4:	e55b300e 	ldrb	r3, [fp, #-14]
 c0086d8:	e2833001 	add	r3, r3, #1
 c0086dc:	e54b300e 	strb	r3, [fp, #-14]
 c0086e0:	e55b300e 	ldrb	r3, [fp, #-14]
 c0086e4:	e3530008 	cmp	r3, #8
 c0086e8:	9affffc0 	bls	c0085f0 <sudoku_dibujar_tablero_completo+0x34>

    /* Dibujar marco con lneas y nmeros */
    sudoku_dibujar_marco_tablero();

    /* Dibujar todos los valores */
    for (fila = 0; fila < 9; fila++)
 c0086ec:	e55b300d 	ldrb	r3, [fp, #-13]
 c0086f0:	e2833001 	add	r3, r3, #1
 c0086f4:	e54b300d 	strb	r3, [fp, #-13]
 c0086f8:	e55b300d 	ldrb	r3, [fp, #-13]
 c0086fc:	e3530008 	cmp	r3, #8
 c008700:	9affffb7 	bls	c0085e4 <sudoku_dibujar_tablero_completo+0x28>
            sudoku_dibujar_celda_completa(fila, columna, valor, es_pista, es_error, candidatos);
        }
    }

    /* Transferir buffer virtual a pantalla */
    Lcd_Dma_Trans();
 c008704:	ebfff9cc 	bl	c006e3c <Lcd_Dma_Trans>
}
 c008708:	e24bd00c 	sub	sp, fp, #12
 c00870c:	e89d6800 	ldm	sp, {fp, sp, lr}
 c008710:	e12fff1e 	bx	lr

0c008714 <sudoku_actualizar_celda>:
 * @param fila: fila a actualizar (0-8)
 * @param columna: columna a actualizar (0-8)
 */
void sudoku_actualizar_celda(CELDA cuadricula[NUM_FILAS][NUM_COLUMNAS],
                             uint8_t fila, uint8_t columna)
{
 c008714:	e1a0c00d 	mov	ip, sp
 c008718:	e92dd800 	push	{fp, ip, lr, pc}
 c00871c:	e24cb004 	sub	fp, ip, #4
 c008720:	e24dd018 	sub	sp, sp, #24
 c008724:	e50b0018 	str	r0, [fp, #-24]	; 0xffffffe8
 c008728:	e1a03002 	mov	r3, r2
 c00872c:	e1a02001 	mov	r2, r1
 c008730:	e54b2019 	strb	r2, [fp, #-25]	; 0xffffffe7
 c008734:	e54b301a 	strb	r3, [fp, #-26]	; 0xffffffe6
    uint8_t valor;
    uint8_t es_pista;
    uint8_t es_error;
    uint16_t candidatos;

    valor = celda_leer_valor(cuadricula[fila][columna]);
 c008738:	e55b3019 	ldrb	r3, [fp, #-25]	; 0xffffffe7
 c00873c:	e1a03283 	lsl	r3, r3, #5
 c008740:	e51b2018 	ldr	r2, [fp, #-24]	; 0xffffffe8
 c008744:	e0822003 	add	r2, r2, r3
 c008748:	e55b301a 	ldrb	r3, [fp, #-26]	; 0xffffffe6
 c00874c:	e1a03083 	lsl	r3, r3, #1
 c008750:	e0823003 	add	r3, r2, r3
 c008754:	e1d330b0 	ldrh	r3, [r3]
 c008758:	e1a00003 	mov	r0, r3
 c00875c:	ebfff0a8 	bl	c004a04 <celda_leer_valor>
 c008760:	e1a03000 	mov	r3, r0
 c008764:	e54b300d 	strb	r3, [fp, #-13]
    es_pista = (cuadricula[fila][columna] & (1 << 4)) ? 1 : 0; // bit 4
 c008768:	e55b3019 	ldrb	r3, [fp, #-25]	; 0xffffffe7
 c00876c:	e1a03283 	lsl	r3, r3, #5
 c008770:	e51b2018 	ldr	r2, [fp, #-24]	; 0xffffffe8
 c008774:	e0822003 	add	r2, r2, r3
 c008778:	e55b301a 	ldrb	r3, [fp, #-26]	; 0xffffffe6
 c00877c:	e1a03083 	lsl	r3, r3, #1
 c008780:	e0823003 	add	r3, r2, r3
 c008784:	e1d330b0 	ldrh	r3, [r3]
 c008788:	e2033010 	and	r3, r3, #16
 c00878c:	e3530000 	cmp	r3, #0
 c008790:	03a03000 	moveq	r3, #0
 c008794:	13a03001 	movne	r3, #1
 c008798:	e54b300e 	strb	r3, [fp, #-14]
    es_error = (cuadricula[fila][columna] & (1 << 5)) ? 1 : 0; // bit 5
 c00879c:	e55b3019 	ldrb	r3, [fp, #-25]	; 0xffffffe7
 c0087a0:	e1a03283 	lsl	r3, r3, #5
 c0087a4:	e51b2018 	ldr	r2, [fp, #-24]	; 0xffffffe8
 c0087a8:	e0822003 	add	r2, r2, r3
 c0087ac:	e55b301a 	ldrb	r3, [fp, #-26]	; 0xffffffe6
 c0087b0:	e1a03083 	lsl	r3, r3, #1
 c0087b4:	e0823003 	add	r3, r2, r3
 c0087b8:	e1d330b0 	ldrh	r3, [r3]
 c0087bc:	e2033020 	and	r3, r3, #32
 c0087c0:	e3530000 	cmp	r3, #0
 c0087c4:	03a03000 	moveq	r3, #0
 c0087c8:	13a03001 	movne	r3, #1
 c0087cc:	e54b300f 	strb	r3, [fp, #-15]
    candidatos = (cuadricula[fila][columna] >> 7) & 0x1FF;     // bits [15:7]
 c0087d0:	e55b3019 	ldrb	r3, [fp, #-25]	; 0xffffffe7
 c0087d4:	e1a03283 	lsl	r3, r3, #5
 c0087d8:	e51b2018 	ldr	r2, [fp, #-24]	; 0xffffffe8
 c0087dc:	e0822003 	add	r2, r2, r3
 c0087e0:	e55b301a 	ldrb	r3, [fp, #-26]	; 0xffffffe6
 c0087e4:	e1a03083 	lsl	r3, r3, #1
 c0087e8:	e0823003 	add	r3, r2, r3
 c0087ec:	e1d330b0 	ldrh	r3, [r3]
 c0087f0:	e1a033a3 	lsr	r3, r3, #7
 c0087f4:	e14b31b2 	strh	r3, [fp, #-18]	; 0xffffffee

    sudoku_dibujar_celda_completa(fila, columna, valor, es_pista, es_error, candidatos);
 c0087f8:	e55b0019 	ldrb	r0, [fp, #-25]	; 0xffffffe7
 c0087fc:	e55b101a 	ldrb	r1, [fp, #-26]	; 0xffffffe6
 c008800:	e55b200d 	ldrb	r2, [fp, #-13]
 c008804:	e55b300e 	ldrb	r3, [fp, #-14]
 c008808:	e55bc00f 	ldrb	ip, [fp, #-15]
 c00880c:	e58dc000 	str	ip, [sp]
 c008810:	e15bc1b2 	ldrh	ip, [fp, #-18]	; 0xffffffee
 c008814:	e58dc004 	str	ip, [sp, #4]
 c008818:	ebfffdc2 	bl	c007f28 <sudoku_dibujar_celda_completa>
    Lcd_Dma_Trans();
 c00881c:	ebfff986 	bl	c006e3c <Lcd_Dma_Trans>
}
 c008820:	e24bd00c 	sub	sp, fp, #12
 c008824:	e89d6800 	ldm	sp, {fp, sp, lr}
 c008828:	e12fff1e 	bx	lr

0c00882c <sudoku_mostrar_victoria>:

/**
 * Muestra un mensaje de victoria
 */
void sudoku_mostrar_victoria(void)
{
 c00882c:	e1a0c00d 	mov	ip, sp
 c008830:	e92dd800 	push	{fp, ip, lr, pc}
 c008834:	e24cb004 	sub	fp, ip, #4
 c008838:	e24dd008 	sub	sp, sp, #8
    /* Mensaje de victoria en la parte inferior de la pantalla */
    LcdClrRect(0, 220, 319, 239, COLOR_SELECCION);
 c00883c:	e3a03006 	mov	r3, #6
 c008840:	e58d3000 	str	r3, [sp]
 c008844:	e3a00000 	mov	r0, #0
 c008848:	e3a010dc 	mov	r1, #220	; 0xdc
 c00884c:	e59f2028 	ldr	r2, [pc, #40]	; c00887c <sudoku_mostrar_victoria+0x50>
 c008850:	e3a030ef 	mov	r3, #239	; 0xef
 c008854:	ebfff2c9 	bl	c005380 <LcdClrRect>
    Lcd_DspAscII8x16(80, 224, BLACK, (INT8U *)"FELICIDADES!");
 c008858:	e3a00050 	mov	r0, #80	; 0x50
 c00885c:	e3a010e0 	mov	r1, #224	; 0xe0
 c008860:	e3a0200f 	mov	r2, #15
 c008864:	e59f3014 	ldr	r3, [pc, #20]	; c008880 <sudoku_mostrar_victoria+0x54>
 c008868:	ebfff7f0 	bl	c006830 <Lcd_DspAscII8x16>
    Lcd_Dma_Trans();
 c00886c:	ebfff972 	bl	c006e3c <Lcd_Dma_Trans>
}
 c008870:	e24bd00c 	sub	sp, fp, #12
 c008874:	e89d6800 	ldm	sp, {fp, sp, lr}
 c008878:	e12fff1e 	bx	lr
 c00887c:	0000013f 	.word	0x0000013f
 c008880:	0c00ccc8 	.word	0x0c00ccc8

0c008884 <sudoku_iniciar_juego>:
/**
 * Inicializa el tablero para jugar
 * @param cuadricula: matriz del sudoku a utilizar
 */
void sudoku_iniciar_juego(CELDA cuadricula[NUM_FILAS][NUM_COLUMNAS])
{
 c008884:	e1a0c00d 	mov	ip, sp
 c008888:	e92dd800 	push	{fp, ip, lr, pc}
 c00888c:	e24cb004 	sub	fp, ip, #4
 c008890:	e24dd008 	sub	sp, sp, #8
 c008894:	e50b0010 	str	r0, [fp, #-16]
    /* Mostrar pantalla inicial */
    sudoku_mostrar_pantalla_inicial();
 c008898:	ebfffc1a 	bl	c007908 <sudoku_mostrar_pantalla_inicial>
    /* Aqu esperaramos a que el usuario pulse un botn */
    /* Esa lgica estar en button.c */

    /* Despus se dibujar el tablero completo */
    /* sudoku_dibujar_tablero_completo(cuadricula); */
 c00889c:	e24bd00c 	sub	sp, fp, #12
 c0088a0:	e89d6800 	ldm	sp, {fp, sp, lr}
 c0088a4:	e12fff1e 	bx	lr

0c0088a8 <timer_ISR>:
volatile int switch_leds = 0;

void timer_ISR(void) __attribute__((interrupt("IRQ")));

void timer_ISR(void)
{
 c0088a8:	e52dc004 	push	{ip}		; (str ip, [sp, #-4]!)
 c0088ac:	e1a0c00d 	mov	ip, sp
 c0088b0:	e92dd80c 	push	{r2, r3, fp, ip, lr, pc}
 c0088b4:	e24cb004 	sub	fp, ip, #4
	switch_leds = 1;
 c0088b8:	e59f3028 	ldr	r3, [pc, #40]	; c0088e8 <timer_ISR+0x40>
 c0088bc:	e3a02001 	mov	r2, #1
 c0088c0:	e5832000 	str	r2, [r3]

	/* borrar bit en I_ISPC para desactivar la solicitud de interrupcin*/
	rI_ISPC |= BIT_TIMER0; // BIT_TIMER0 est definido en 44b.h y pone un uno en el bit 13 que corresponde al Timer0
 c0088c4:	e59f3020 	ldr	r3, [pc, #32]	; c0088ec <timer_ISR+0x44>
 c0088c8:	e59f201c 	ldr	r2, [pc, #28]	; c0088ec <timer_ISR+0x44>
 c0088cc:	e5922000 	ldr	r2, [r2]
 c0088d0:	e3822a02 	orr	r2, r2, #8192	; 0x2000
 c0088d4:	e5832000 	str	r2, [r3]
}
 c0088d8:	e24bd014 	sub	sp, fp, #20
 c0088dc:	e89d680c 	ldm	sp, {r2, r3, fp, sp, lr}
 c0088e0:	e49dc004 	pop	{ip}		; (ldr ip, [sp], #4)
 c0088e4:	e25ef004 	subs	pc, lr, #4
 c0088e8:	0c00cd64 	.word	0x0c00cd64
 c0088ec:	01e00024 	.word	0x01e00024

0c0088f0 <timer_init>:

void timer_init(void)
{
 c0088f0:	e1a0c00d 	mov	ip, sp
 c0088f4:	e92dd800 	push	{fp, ip, lr, pc}
 c0088f8:	e24cb004 	sub	fp, ip, #4
	/* Configuracion controlador de interrupciones */
	rINTMOD = 0x0;			  // Configura las lineas como de tipo IRQ
 c0088fc:	e59f3084 	ldr	r3, [pc, #132]	; c008988 <timer_init+0x98>
 c008900:	e3a02000 	mov	r2, #0
 c008904:	e5832000 	str	r2, [r3]
	rINTCON = 0x1;			  // Habilita int. vectorizadas y la linea IRQ (FIQ no)
 c008908:	e3a0361e 	mov	r3, #31457280	; 0x1e00000
 c00890c:	e3a02001 	mov	r2, #1
 c008910:	e5832000 	str	r2, [r3]
	rINTMSK &= ~(BIT_TIMER0); // habilitamos en vector de mascaras de interrupcion el Timer0 (bits 26 y 13, BIT_GLOBAL y BIT_TIMER0 estn definidos en 44b.h)
 c008914:	e59f3070 	ldr	r3, [pc, #112]	; c00898c <timer_init+0x9c>
 c008918:	e59f206c 	ldr	r2, [pc, #108]	; c00898c <timer_init+0x9c>
 c00891c:	e5922000 	ldr	r2, [r2]
 c008920:	e3c22a02 	bic	r2, r2, #8192	; 0x2000
 c008924:	e5832000 	str	r2, [r3]

	/* Establece la rutina de servicio para TIMER0 */
	pISR_TIMER0 = (unsigned)timer_ISR;
 c008928:	e59f3060 	ldr	r3, [pc, #96]	; c008990 <timer_init+0xa0>
 c00892c:	e59f2060 	ldr	r2, [pc, #96]	; c008994 <timer_init+0xa4>
 c008930:	e5832000 	str	r2, [r3]

	/* Configura el Timer0 */
	rTCFG0 = 255;	 // ajusta el preescalado
 c008934:	e59f305c 	ldr	r3, [pc, #92]	; c008998 <timer_init+0xa8>
 c008938:	e3a020ff 	mov	r2, #255	; 0xff
 c00893c:	e5832000 	str	r2, [r3]
	rTCFG1 = 0x0;	 // selecciona la entrada del mux que proporciona el reloj. La 00 corresponde a un divisor de 1/2.
 c008940:	e59f3054 	ldr	r3, [pc, #84]	; c00899c <timer_init+0xac>
 c008944:	e3a02000 	mov	r2, #0
 c008948:	e5832000 	str	r2, [r3]
	rTCNTB0 = 65535; // valor inicial de cuenta (la cuenta es descendente)
 c00894c:	e59f304c 	ldr	r3, [pc, #76]	; c0089a0 <timer_init+0xb0>
 c008950:	e59f204c 	ldr	r2, [pc, #76]	; c0089a4 <timer_init+0xb4>
 c008954:	e5832000 	str	r2, [r3]
	rTCMPB0 = 12800; // valor de comparacin
 c008958:	e59f3048 	ldr	r3, [pc, #72]	; c0089a8 <timer_init+0xb8>
 c00895c:	e3a02c32 	mov	r2, #12800	; 0x3200
 c008960:	e5832000 	str	r2, [r3]
	/* establecer update=manual (bit 1) + inverter=on (? ser inverter off un cero en el bit 2 pone el inverter en off)*/
	rTCON = 0x2;
 c008964:	e59f3040 	ldr	r3, [pc, #64]	; c0089ac <timer_init+0xbc>
 c008968:	e3a02002 	mov	r2, #2
 c00896c:	e5832000 	str	r2, [r3]
	/* iniciar timer (bit 0) con auto-reload (bit 3)*/
	rTCON = 0x09;
 c008970:	e59f3034 	ldr	r3, [pc, #52]	; c0089ac <timer_init+0xbc>
 c008974:	e3a02009 	mov	r2, #9
 c008978:	e5832000 	str	r2, [r3]
}
 c00897c:	e24bd00c 	sub	sp, fp, #12
 c008980:	e89d6800 	ldm	sp, {fp, sp, lr}
 c008984:	e12fff1e 	bx	lr
 c008988:	01e00008 	.word	0x01e00008
 c00898c:	01e0000c 	.word	0x01e0000c
 c008990:	0c7fff54 	.word	0x0c7fff54
 c008994:	0c0088a8 	.word	0x0c0088a8
 c008998:	01d50000 	.word	0x01d50000
 c00899c:	01d50004 	.word	0x01d50004
 c0089a0:	01d5000c 	.word	0x01d5000c
 c0089a4:	0000ffff 	.word	0x0000ffff
 c0089a8:	01d50010 	.word	0x01d50010
 c0089ac:	01d50008 	.word	0x01d50008

0c0089b0 <timer1_ISR>:
 * alterna el estado del LED.
 */
void timer1_ISR(void) __attribute__((interrupt("IRQ")));

void timer1_ISR(void)
{
 c0089b0:	e52dc004 	push	{ip}		; (str ip, [sp, #-4]!)
 c0089b4:	e1a0c00d 	mov	ip, sp
 c0089b8:	e92dd80f 	push	{r0, r1, r2, r3, fp, ip, lr, pc}
 c0089bc:	e24cb004 	sub	fp, ip, #4
   contador_eventos++;
 c0089c0:	e59f3050 	ldr	r3, [pc, #80]	; c008a18 <timer1_ISR+0x68>
 c0089c4:	e5933000 	ldr	r3, [r3]
 c0089c8:	e2832001 	add	r2, r3, #1
 c0089cc:	e59f3044 	ldr	r3, [pc, #68]	; c008a18 <timer1_ISR+0x68>
 c0089d0:	e5832000 	str	r2, [r3]

   /*Queremos que genere 60 eventos por segundo, LED parpadea a 6 Hz
   (3 veces/segundo on/off) 60/6 = 10  */
   if (contador_eventos >= 10)
 c0089d4:	e59f303c 	ldr	r3, [pc, #60]	; c008a18 <timer1_ISR+0x68>
 c0089d8:	e5933000 	ldr	r3, [r3]
 c0089dc:	e3530009 	cmp	r3, #9
 c0089e0:	9a000003 	bls	c0089f4 <timer1_ISR+0x44>
   {
      led2_switch();
 c0089e4:	ebfffa15 	bl	c007240 <led2_switch>
      contador_eventos = 0;
 c0089e8:	e59f3028 	ldr	r3, [pc, #40]	; c008a18 <timer1_ISR+0x68>
 c0089ec:	e3a02000 	mov	r2, #0
 c0089f0:	e5832000 	str	r2, [r3]
   }

   rI_ISPC |= BIT_TIMER1;
 c0089f4:	e59f3020 	ldr	r3, [pc, #32]	; c008a1c <timer1_ISR+0x6c>
 c0089f8:	e59f201c 	ldr	r2, [pc, #28]	; c008a1c <timer1_ISR+0x6c>
 c0089fc:	e5922000 	ldr	r2, [r2]
 c008a00:	e3822a01 	orr	r2, r2, #4096	; 0x1000
 c008a04:	e5832000 	str	r2, [r3]
}
 c008a08:	e24bd01c 	sub	sp, fp, #28
 c008a0c:	e89d680f 	ldm	sp, {r0, r1, r2, r3, fp, sp, lr}
 c008a10:	e49dc004 	pop	{ip}		; (ldr ip, [sp], #4)
 c008a14:	e25ef004 	subs	pc, lr, #4
 c008a18:	0c00cd68 	.word	0x0c00cd68
 c008a1c:	01e00024 	.word	0x01e00024

0c008a20 <timer1_init>:
 *  - Divisin adicional por 4 mediante rTCFG1 para obtener ~64.45 kHz
 *  - rTCNTB1 se carga con 1074 para producir ~60 interrupciones por segundo
 *  - Se habilitan auto-reload y arranque del timer
 */
void timer1_init(void)
{
 c008a20:	e1a0c00d 	mov	ip, sp
 c008a24:	e92dd800 	push	{fp, ip, lr, pc}
 c008a28:	e24cb004 	sub	fp, ip, #4
   rINTMSK &= ~(BIT_TIMER1);
 c008a2c:	e59f3090 	ldr	r3, [pc, #144]	; c008ac4 <timer1_init+0xa4>
 c008a30:	e59f208c 	ldr	r2, [pc, #140]	; c008ac4 <timer1_init+0xa4>
 c008a34:	e5922000 	ldr	r2, [r2]
 c008a38:	e3c22a01 	bic	r2, r2, #4096	; 0x1000
 c008a3c:	e5832000 	str	r2, [r3]
   pISR_TIMER1 = (unsigned)timer1_ISR;
 c008a40:	e59f3080 	ldr	r3, [pc, #128]	; c008ac8 <timer1_init+0xa8>
 c008a44:	e59f2080 	ldr	r2, [pc, #128]	; c008acc <timer1_init+0xac>
 c008a48:	e5832000 	str	r2, [r3]

   rTCFG0 = 255;
 c008a4c:	e59f307c 	ldr	r3, [pc, #124]	; c008ad0 <timer1_init+0xb0>
 c008a50:	e3a020ff 	mov	r2, #255	; 0xff
 c008a54:	e5832000 	str	r2, [r3]
   
   rTCFG1 = 0x10;
 c008a58:	e59f3074 	ldr	r3, [pc, #116]	; c008ad4 <timer1_init+0xb4>
 c008a5c:	e3a02010 	mov	r2, #16
 c008a60:	e5832000 	str	r2, [r3]

   rTCNTB1 = 1074;
 c008a64:	e59f306c 	ldr	r3, [pc, #108]	; c008ad8 <timer1_init+0xb8>
 c008a68:	e59f206c 	ldr	r2, [pc, #108]	; c008adc <timer1_init+0xbc>
 c008a6c:	e5832000 	str	r2, [r3]
   rTCMPB1 = 0;
 c008a70:	e59f3068 	ldr	r3, [pc, #104]	; c008ae0 <timer1_init+0xc0>
 c008a74:	e3a02000 	mov	r2, #0
 c008a78:	e5832000 	str	r2, [r3]

   rTCON |= (1 << 9);
 c008a7c:	e59f3060 	ldr	r3, [pc, #96]	; c008ae4 <timer1_init+0xc4>
 c008a80:	e59f205c 	ldr	r2, [pc, #92]	; c008ae4 <timer1_init+0xc4>
 c008a84:	e5922000 	ldr	r2, [r2]
 c008a88:	e3822c02 	orr	r2, r2, #512	; 0x200
 c008a8c:	e5832000 	str	r2, [r3]
   rTCON &= ~(1 << 9);
 c008a90:	e59f304c 	ldr	r3, [pc, #76]	; c008ae4 <timer1_init+0xc4>
 c008a94:	e59f2048 	ldr	r2, [pc, #72]	; c008ae4 <timer1_init+0xc4>
 c008a98:	e5922000 	ldr	r2, [r2]
 c008a9c:	e3c22c02 	bic	r2, r2, #512	; 0x200
 c008aa0:	e5832000 	str	r2, [r3]

   rTCON |= (0x9 << 8);
 c008aa4:	e59f3038 	ldr	r3, [pc, #56]	; c008ae4 <timer1_init+0xc4>
 c008aa8:	e59f2034 	ldr	r2, [pc, #52]	; c008ae4 <timer1_init+0xc4>
 c008aac:	e5922000 	ldr	r2, [r2]
 c008ab0:	e3822c09 	orr	r2, r2, #2304	; 0x900
 c008ab4:	e5832000 	str	r2, [r3]
}
 c008ab8:	e24bd00c 	sub	sp, fp, #12
 c008abc:	e89d6800 	ldm	sp, {fp, sp, lr}
 c008ac0:	e12fff1e 	bx	lr
 c008ac4:	01e0000c 	.word	0x01e0000c
 c008ac8:	0c7fff50 	.word	0x0c7fff50
 c008acc:	0c0089b0 	.word	0x0c0089b0
 c008ad0:	01d50000 	.word	0x01d50000
 c008ad4:	01d50004 	.word	0x01d50004
 c008ad8:	01d50018 	.word	0x01d50018
 c008adc:	00000432 	.word	0x00000432
 c008ae0:	01d5001c 	.word	0x01d5001c
 c008ae4:	01d50008 	.word	0x01d50008

0c008ae8 <timer2_ISR>:
 *  - Incrementa el contador interno de interrupciones y llama a las
 *    rutinas que procesan el antirrebote de botones y el teclado.
 */
void timer2_ISR(void) __attribute__((interrupt("IRQ")));
void timer2_ISR(void)
{
 c008ae8:	e52dc004 	push	{ip}		; (str ip, [sp, #-4]!)
 c008aec:	e1a0c00d 	mov	ip, sp
 c008af0:	e92dd80f 	push	{r0, r1, r2, r3, fp, ip, lr, pc}
 c008af4:	e24cb004 	sub	fp, ip, #4
    timer2_numero_int++;
 c008af8:	e59f3038 	ldr	r3, [pc, #56]	; c008b38 <timer2_ISR+0x50>
 c008afc:	e5933000 	ldr	r3, [r3]
 c008b00:	e2832001 	add	r2, r3, #1
 c008b04:	e59f302c 	ldr	r3, [pc, #44]	; c008b38 <timer2_ISR+0x50>
 c008b08:	e5832000 	str	r2, [r3]

    procesar_antirebote_botones();
 c008b0c:	ebffe5ba 	bl	c0021fc <procesar_antirebote_botones>
    procesar_teclado();
 c008b10:	ebffe54a 	bl	c002040 <procesar_teclado>

    rI_ISPC |= BIT_TIMER2;
 c008b14:	e59f3020 	ldr	r3, [pc, #32]	; c008b3c <timer2_ISR+0x54>
 c008b18:	e59f201c 	ldr	r2, [pc, #28]	; c008b3c <timer2_ISR+0x54>
 c008b1c:	e5922000 	ldr	r2, [r2]
 c008b20:	e3822b02 	orr	r2, r2, #2048	; 0x800
 c008b24:	e5832000 	str	r2, [r3]
}
 c008b28:	e24bd01c 	sub	sp, fp, #28
 c008b2c:	e89d680f 	ldm	sp, {r0, r1, r2, r3, fp, sp, lr}
 c008b30:	e49dc004 	pop	{ip}		; (ldr ip, [sp], #4)
 c008b34:	e25ef004 	subs	pc, lr, #4
 c008b38:	0c00cd6c 	.word	0x0c00cd6c
 c008b3c:	01e00024 	.word	0x01e00024

0c008b40 <timer2_init>:
 *  - modo de interrupcin vectorizada (IRQ),
 *  - prescaler/MUX para el timer2,
 *  - carga de registros TCNTB2/TCMPB2 y manual update.
 */
void timer2_init(void)
{
 c008b40:	e1a0c00d 	mov	ip, sp
 c008b44:	e92dd800 	push	{fp, ip, lr, pc}
 c008b48:	e24cb004 	sub	fp, ip, #4
    rINTMOD = 0x0; /* IRQ vect. */
 c008b4c:	e59f30a4 	ldr	r3, [pc, #164]	; c008bf8 <timer2_init+0xb8>
 c008b50:	e3a02000 	mov	r2, #0
 c008b54:	e5832000 	str	r2, [r3]
    rINTCON = 0x1; /* enable vectored IRQs */
 c008b58:	e3a0361e 	mov	r3, #31457280	; 0x1e00000
 c008b5c:	e3a02001 	mov	r2, #1
 c008b60:	e5832000 	str	r2, [r3]
    rINTMSK &= ~(BIT_TIMER2);
 c008b64:	e59f3090 	ldr	r3, [pc, #144]	; c008bfc <timer2_init+0xbc>
 c008b68:	e59f208c 	ldr	r2, [pc, #140]	; c008bfc <timer2_init+0xbc>
 c008b6c:	e5922000 	ldr	r2, [r2]
 c008b70:	e3c22b02 	bic	r2, r2, #2048	; 0x800
 c008b74:	e5832000 	str	r2, [r3]

    pISR_TIMER2 = (unsigned)timer2_ISR;
 c008b78:	e59f3080 	ldr	r3, [pc, #128]	; c008c00 <timer2_init+0xc0>
 c008b7c:	e59f2080 	ldr	r2, [pc, #128]	; c008c04 <timer2_init+0xc4>
 c008b80:	e5832000 	str	r2, [r3]

    rTCFG0 = (rTCFG0 & ~(0xF << 8)) | (0x0 << 8);
 c008b84:	e59f307c 	ldr	r3, [pc, #124]	; c008c08 <timer2_init+0xc8>
 c008b88:	e59f2078 	ldr	r2, [pc, #120]	; c008c08 <timer2_init+0xc8>
 c008b8c:	e5922000 	ldr	r2, [r2]
 c008b90:	e3c22c0f 	bic	r2, r2, #3840	; 0xf00
 c008b94:	e5832000 	str	r2, [r3]
    rTCFG1 = (rTCFG1 & ~(0xF << 8)) | (0x0 << 8);
 c008b98:	e59f306c 	ldr	r3, [pc, #108]	; c008c0c <timer2_init+0xcc>
 c008b9c:	e59f2068 	ldr	r2, [pc, #104]	; c008c0c <timer2_init+0xcc>
 c008ba0:	e5922000 	ldr	r2, [r2]
 c008ba4:	e3c22c0f 	bic	r2, r2, #3840	; 0xf00
 c008ba8:	e5832000 	str	r2, [r3]

    rTCNTB2 = 0xFFFF;
 c008bac:	e59f305c 	ldr	r3, [pc, #92]	; c008c10 <timer2_init+0xd0>
 c008bb0:	e59f205c 	ldr	r2, [pc, #92]	; c008c14 <timer2_init+0xd4>
 c008bb4:	e5832000 	str	r2, [r3]
    rTCMPB2 = 0;
 c008bb8:	e59f3058 	ldr	r3, [pc, #88]	; c008c18 <timer2_init+0xd8>
 c008bbc:	e3a02000 	mov	r2, #0
 c008bc0:	e5832000 	str	r2, [r3]

    rTCON |= (1 << 13);
 c008bc4:	e59f3050 	ldr	r3, [pc, #80]	; c008c1c <timer2_init+0xdc>
 c008bc8:	e59f204c 	ldr	r2, [pc, #76]	; c008c1c <timer2_init+0xdc>
 c008bcc:	e5922000 	ldr	r2, [r2]
 c008bd0:	e3822a02 	orr	r2, r2, #8192	; 0x2000
 c008bd4:	e5832000 	str	r2, [r3]
    rTCON &= ~(1 << 13);
 c008bd8:	e59f303c 	ldr	r3, [pc, #60]	; c008c1c <timer2_init+0xdc>
 c008bdc:	e59f2038 	ldr	r2, [pc, #56]	; c008c1c <timer2_init+0xdc>
 c008be0:	e5922000 	ldr	r2, [r2]
 c008be4:	e3c22a02 	bic	r2, r2, #8192	; 0x2000
 c008be8:	e5832000 	str	r2, [r3]
}
 c008bec:	e24bd00c 	sub	sp, fp, #12
 c008bf0:	e89d6800 	ldm	sp, {fp, sp, lr}
 c008bf4:	e12fff1e 	bx	lr
 c008bf8:	01e00008 	.word	0x01e00008
 c008bfc:	01e0000c 	.word	0x01e0000c
 c008c00:	0c7fff4c 	.word	0x0c7fff4c
 c008c04:	0c008ae8 	.word	0x0c008ae8
 c008c08:	01d50000 	.word	0x01d50000
 c008c0c:	01d50004 	.word	0x01d50004
 c008c10:	01d50024 	.word	0x01d50024
 c008c14:	0000ffff 	.word	0x0000ffff
 c008c18:	01d50028 	.word	0x01d50028
 c008c1c:	01d50008 	.word	0x01d50008

0c008c20 <timer2_start>:
 *  - (Re)inicializa contador interno,
 *  - recarga TCNTB2 y realiza manual update,
 *  - pone el timer en modo start con auto-reload.
 */
void timer2_start(void)
{
 c008c20:	e1a0c00d 	mov	ip, sp
 c008c24:	e92dd800 	push	{fp, ip, lr, pc}
 c008c28:	e24cb004 	sub	fp, ip, #4
    timer2_numero_int = 0;
 c008c2c:	e59f3080 	ldr	r3, [pc, #128]	; c008cb4 <timer2_start+0x94>
 c008c30:	e3a02000 	mov	r2, #0
 c008c34:	e5832000 	str	r2, [r3]

    rTCNTB2 = 0xFFFF;
 c008c38:	e59f3078 	ldr	r3, [pc, #120]	; c008cb8 <timer2_start+0x98>
 c008c3c:	e59f2078 	ldr	r2, [pc, #120]	; c008cbc <timer2_start+0x9c>
 c008c40:	e5832000 	str	r2, [r3]
    rTCON |= (1 << 13);
 c008c44:	e59f3074 	ldr	r3, [pc, #116]	; c008cc0 <timer2_start+0xa0>
 c008c48:	e59f2070 	ldr	r2, [pc, #112]	; c008cc0 <timer2_start+0xa0>
 c008c4c:	e5922000 	ldr	r2, [r2]
 c008c50:	e3822a02 	orr	r2, r2, #8192	; 0x2000
 c008c54:	e5832000 	str	r2, [r3]
    rTCON &= ~(1 << 13);
 c008c58:	e59f3060 	ldr	r3, [pc, #96]	; c008cc0 <timer2_start+0xa0>
 c008c5c:	e59f205c 	ldr	r2, [pc, #92]	; c008cc0 <timer2_start+0xa0>
 c008c60:	e5922000 	ldr	r2, [r2]
 c008c64:	e3c22a02 	bic	r2, r2, #8192	; 0x2000
 c008c68:	e5832000 	str	r2, [r3]

    rTCON &= ~(1 << 12);
 c008c6c:	e59f304c 	ldr	r3, [pc, #76]	; c008cc0 <timer2_start+0xa0>
 c008c70:	e59f2048 	ldr	r2, [pc, #72]	; c008cc0 <timer2_start+0xa0>
 c008c74:	e5922000 	ldr	r2, [r2]
 c008c78:	e3c22a01 	bic	r2, r2, #4096	; 0x1000
 c008c7c:	e5832000 	str	r2, [r3]
    rTCON |= (1 << 12);
 c008c80:	e59f3038 	ldr	r3, [pc, #56]	; c008cc0 <timer2_start+0xa0>
 c008c84:	e59f2034 	ldr	r2, [pc, #52]	; c008cc0 <timer2_start+0xa0>
 c008c88:	e5922000 	ldr	r2, [r2]
 c008c8c:	e3822a01 	orr	r2, r2, #4096	; 0x1000
 c008c90:	e5832000 	str	r2, [r3]

    rTCON |= (1 << 15);
 c008c94:	e59f3024 	ldr	r3, [pc, #36]	; c008cc0 <timer2_start+0xa0>
 c008c98:	e59f2020 	ldr	r2, [pc, #32]	; c008cc0 <timer2_start+0xa0>
 c008c9c:	e5922000 	ldr	r2, [r2]
 c008ca0:	e3822902 	orr	r2, r2, #32768	; 0x8000
 c008ca4:	e5832000 	str	r2, [r3]
}
 c008ca8:	e24bd00c 	sub	sp, fp, #12
 c008cac:	e89d6800 	ldm	sp, {fp, sp, lr}
 c008cb0:	e12fff1e 	bx	lr
 c008cb4:	0c00cd6c 	.word	0x0c00cd6c
 c008cb8:	01d50024 	.word	0x01d50024
 c008cbc:	0000ffff 	.word	0x0000ffff
 c008cc0:	01d50008 	.word	0x01d50008

0c008cc4 <timer2_count>:
 * Retorno:
 *  - tiempo en microsegundos (aproximado). Ajustar divisor si la
 *    relacin ticks/s difiere en tu plataforma.
 */
unsigned int timer2_count(void)
{
 c008cc4:	e1a0c00d 	mov	ip, sp
 c008cc8:	e92dd800 	push	{fp, ip, lr, pc}
 c008ccc:	e24cb004 	sub	fp, ip, #4
 c008cd0:	e24dd010 	sub	sp, sp, #16
    unsigned int val;
    unsigned int entero;
    unsigned long ticks;
    val = rTCNTO2;
 c008cd4:	e59f3040 	ldr	r3, [pc, #64]	; c008d1c <timer2_count+0x58>
 c008cd8:	e5933000 	ldr	r3, [r3]
 c008cdc:	e50b3010 	str	r3, [fp, #-16]
    entero = timer2_numero_int;
 c008ce0:	e59f3038 	ldr	r3, [pc, #56]	; c008d20 <timer2_count+0x5c>
 c008ce4:	e5933000 	ldr	r3, [r3]
 c008ce8:	e50b3014 	str	r3, [fp, #-20]	; 0xffffffec
    ticks = (unsigned long)entero * 65536 + (unsigned long)(65535 - val + 1);
 c008cec:	e51b3014 	ldr	r3, [fp, #-20]	; 0xffffffec
 c008cf0:	e1a02803 	lsl	r2, r3, #16
 c008cf4:	e51b3010 	ldr	r3, [fp, #-16]
 c008cf8:	e0633002 	rsb	r3, r3, r2
 c008cfc:	e2833801 	add	r3, r3, #65536	; 0x10000
 c008d00:	e50b3018 	str	r3, [fp, #-24]	; 0xffffffe8

    return (unsigned int)(ticks / 32);
 c008d04:	e51b3018 	ldr	r3, [fp, #-24]	; 0xffffffe8
 c008d08:	e1a032a3 	lsr	r3, r3, #5
}
 c008d0c:	e1a00003 	mov	r0, r3
 c008d10:	e24bd00c 	sub	sp, fp, #12
 c008d14:	e89d6800 	ldm	sp, {fp, sp, lr}
 c008d18:	e12fff1e 	bx	lr
 c008d1c:	01d5002c 	.word	0x01d5002c
 c008d20:	0c00cd6c 	.word	0x0c00cd6c

0c008d24 <calibrar_timer2>:
/**
 * calibrar_timer2
 * Rutina de ayuda para medir/calibrar el temporizador usando Delay().
 */
void calibrar_timer2(void)
{
 c008d24:	e1a0c00d 	mov	ip, sp
 c008d28:	e92dd800 	push	{fp, ip, lr, pc}
 c008d2c:	e24cb004 	sub	fp, ip, #4
 c008d30:	e24dd008 	sub	sp, sp, #8
    unsigned int tiempo_medido;
    Delay(10000);
 c008d34:	e59f0014 	ldr	r0, [pc, #20]	; c008d50 <calibrar_timer2+0x2c>
 c008d38:	ebffde73 	bl	c00070c <Delay>
    tiempo_medido = timer2_count();
 c008d3c:	ebffffe0 	bl	c008cc4 <timer2_count>
 c008d40:	e50b0010 	str	r0, [fp, #-16]
}
 c008d44:	e24bd00c 	sub	sp, fp, #12
 c008d48:	e89d6800 	ldm	sp, {fp, sp, lr}
 c008d4c:	e12fff1e 	bx	lr
 c008d50:	00002710 	.word	0x00002710

0c008d54 <TS_Test>:
#include "lcd.h"

void TSInt(void) __attribute__((interrupt("IRQ")));

void TS_Test(void)
{
 c008d54:	e1a0c00d 	mov	ip, sp
 c008d58:	e92dd800 	push	{fp, ip, lr, pc}
 c008d5c:	e24cb004 	sub	fp, ip, #4
		Lcd_TC();
 c008d60:	eb000132 	bl	c009230 <Lcd_TC>
		TS_init();
 c008d64:	eb0000e6 	bl	c009104 <TS_init>
		Check_Sel();
 c008d68:	eb00025b 	bl	c0096dc <Check_Sel>
			
//		Uart_Printf("\n Pixel: 320 X 240. Coordinate Rang in: (0,0) - (320,240)\n");
//		Uart_Printf("\nLCD TouchScreen Test Example(please touch LCD screen)\n");
}
 c008d6c:	e24bd00c 	sub	sp, fp, #12
 c008d70:	e89d6800 	ldm	sp, {fp, sp, lr}
 c008d74:	e12fff1e 	bx	lr

0c008d78 <TSInt>:
* ret:		none
* modify:
* comment:		
********************************************************************************************/
void TSInt(void)
{
 c008d78:	e52dc004 	push	{ip}		; (str ip, [sp, #-4]!)
 c008d7c:	e1a0c00d 	mov	ip, sp
 c008d80:	e92dd80f 	push	{r0, r1, r2, r3, fp, ip, lr, pc}
 c008d84:	e24cb004 	sub	fp, ip, #4
 c008d88:	e24dd028 	sub	sp, sp, #40	; 0x28
    int   i;
    char fail = 0;
 c008d8c:	e3a03000 	mov	r3, #0
 c008d90:	e54b3025 	strb	r3, [fp, #-37]	; 0xffffffdb
    ULONG Pt[6];

	// <X-Position Read>
	// TSPX(GPE4_Q4(+)) TSPY(GPE5_Q3(-)) TSMY(GPE6_Q2(+)) TSMX(GPE7_Q1(-))
    //       0               1                 1                0
	rPDATE=0x68;
 c008d94:	e59f3340 	ldr	r3, [pc, #832]	; c0090dc <TSInt+0x364>
 c008d98:	e3a02068 	mov	r2, #104	; 0x68
 c008d9c:	e5832000 	str	r2, [r3]
	rADCCON=0x1<<2;			// AIN1
 c008da0:	e3a03775 	mov	r3, #30670848	; 0x1d40000
 c008da4:	e3a02004 	mov	r2, #4
 c008da8:	e5832000 	str	r2, [r3]
	
	DelayTime(1000);                // delay to set up the next channel
 c008dac:	e3a00ffa 	mov	r0, #1000	; 0x3e8
 c008db0:	ebffdebc 	bl	c0008a8 <DelayTime>
	for( i=0; i<5; i++ )
 c008db4:	e3a03000 	mov	r3, #0
 c008db8:	e50b3020 	str	r3, [fp, #-32]	; 0xffffffe0
 c008dbc:	ea00001f 	b	c008e40 <TSInt+0xc8>
	{
		rADCCON |= 0x1;				// Start X-position A/D conversion
 c008dc0:	e3a03775 	mov	r3, #30670848	; 0x1d40000
 c008dc4:	e3a02775 	mov	r2, #30670848	; 0x1d40000
 c008dc8:	e5922000 	ldr	r2, [r2]
 c008dcc:	e3822001 	orr	r2, r2, #1
 c008dd0:	e5832000 	str	r2, [r3]
	    while( rADCCON & 0x1 );		// Check if Enable_start is low
 c008dd4:	e1a00000 	nop			; (mov r0, r0)
 c008dd8:	e3a03775 	mov	r3, #30670848	; 0x1d40000
 c008ddc:	e5933000 	ldr	r3, [r3]
 c008de0:	e2033001 	and	r3, r3, #1
 c008de4:	e20330ff 	and	r3, r3, #255	; 0xff
 c008de8:	e3530000 	cmp	r3, #0
 c008dec:	1afffff9 	bne	c008dd8 <TSInt+0x60>
    	while( !(rADCCON & 0x40) );	// Check ECFLG
 c008df0:	e1a00000 	nop			; (mov r0, r0)
 c008df4:	e3a03775 	mov	r3, #30670848	; 0x1d40000
 c008df8:	e5933000 	ldr	r3, [r3]
 c008dfc:	e2033040 	and	r3, r3, #64	; 0x40
 c008e00:	e3530000 	cmp	r3, #0
 c008e04:	0afffffa 	beq	c008df4 <TSInt+0x7c>
	    Pt[i] = (0x3ff&rADCDAT);
 c008e08:	e59f32d0 	ldr	r3, [pc, #720]	; c0090e0 <TSInt+0x368>
 c008e0c:	e5933000 	ldr	r3, [r3]
 c008e10:	e1a03b03 	lsl	r3, r3, #22
 c008e14:	e1a03b23 	lsr	r3, r3, #22
 c008e18:	e51b1020 	ldr	r1, [fp, #-32]	; 0xffffffe0
 c008e1c:	e3e02023 	mvn	r2, #35	; 0x23
 c008e20:	e1a01101 	lsl	r1, r1, #2
 c008e24:	e24b001c 	sub	r0, fp, #28
 c008e28:	e0801001 	add	r1, r0, r1
 c008e2c:	e0812002 	add	r2, r1, r2
 c008e30:	e5823000 	str	r3, [r2]
    //       0               1                 1                0
	rPDATE=0x68;
	rADCCON=0x1<<2;			// AIN1
	
	DelayTime(1000);                // delay to set up the next channel
	for( i=0; i<5; i++ )
 c008e34:	e51b3020 	ldr	r3, [fp, #-32]	; 0xffffffe0
 c008e38:	e2833001 	add	r3, r3, #1
 c008e3c:	e50b3020 	str	r3, [fp, #-32]	; 0xffffffe0
 c008e40:	e51b3020 	ldr	r3, [fp, #-32]	; 0xffffffe0
 c008e44:	e3530004 	cmp	r3, #4
 c008e48:	daffffdc 	ble	c008dc0 <TSInt+0x48>
	    while( rADCCON & 0x1 );		// Check if Enable_start is low
    	while( !(rADCCON & 0x40) );	// Check ECFLG
	    Pt[i] = (0x3ff&rADCDAT);
	}
	// read X-position average value
	Pt[5] = (Pt[0]+Pt[1]+Pt[2]+Pt[3]+Pt[4])/5;
 c008e4c:	e51b2040 	ldr	r2, [fp, #-64]	; 0xffffffc0
 c008e50:	e51b303c 	ldr	r3, [fp, #-60]	; 0xffffffc4
 c008e54:	e0822003 	add	r2, r2, r3
 c008e58:	e51b3038 	ldr	r3, [fp, #-56]	; 0xffffffc8
 c008e5c:	e0822003 	add	r2, r2, r3
 c008e60:	e51b3034 	ldr	r3, [fp, #-52]	; 0xffffffcc
 c008e64:	e0822003 	add	r2, r2, r3
 c008e68:	e51b3030 	ldr	r3, [fp, #-48]	; 0xffffffd0
 c008e6c:	e0822003 	add	r2, r2, r3
 c008e70:	e59f326c 	ldr	r3, [pc, #620]	; c0090e4 <TSInt+0x36c>
 c008e74:	e0831392 	umull	r1, r3, r2, r3
 c008e78:	e1a03123 	lsr	r3, r3, #2
 c008e7c:	e50b302c 	str	r3, [fp, #-44]	; 0xffffffd4
	
	tmp = Pt[5];	
 c008e80:	e51b302c 	ldr	r3, [fp, #-44]	; 0xffffffd4
 c008e84:	e50b3024 	str	r3, [fp, #-36]	; 0xffffffdc
	
    // <Y-Position Read>
	// TSPX(GPE4_Q4(-)) TSPY(GPE5_Q3(+)) TSMY(GPE6_Q2(-)) TSMX(GPE7_Q1(+))
    //       1               0                 0                1
	rPDATE=0x98;
 c008e88:	e59f324c 	ldr	r3, [pc, #588]	; c0090dc <TSInt+0x364>
 c008e8c:	e3a02098 	mov	r2, #152	; 0x98
 c008e90:	e5832000 	str	r2, [r3]
	rADCCON=0x0<<2;		        	// AIN0
 c008e94:	e3a03775 	mov	r3, #30670848	; 0x1d40000
 c008e98:	e3a02000 	mov	r2, #0
 c008e9c:	e5832000 	str	r2, [r3]
	
	DelayTime(1000);                // delay to set up the next channel
 c008ea0:	e3a00ffa 	mov	r0, #1000	; 0x3e8
 c008ea4:	ebffde7f 	bl	c0008a8 <DelayTime>
	for( i=0; i<5; i++ )
 c008ea8:	e3a03000 	mov	r3, #0
 c008eac:	e50b3020 	str	r3, [fp, #-32]	; 0xffffffe0
 c008eb0:	ea00001f 	b	c008f34 <TSInt+0x1bc>
	{
    	rADCCON |= 0x1;             // Start Y-position conversion
 c008eb4:	e3a03775 	mov	r3, #30670848	; 0x1d40000
 c008eb8:	e3a02775 	mov	r2, #30670848	; 0x1d40000
 c008ebc:	e5922000 	ldr	r2, [r2]
 c008ec0:	e3822001 	orr	r2, r2, #1
 c008ec4:	e5832000 	str	r2, [r3]
	    while( rADCCON & 0x1 );     // Check if Enable_start is low
 c008ec8:	e1a00000 	nop			; (mov r0, r0)
 c008ecc:	e3a03775 	mov	r3, #30670848	; 0x1d40000
 c008ed0:	e5933000 	ldr	r3, [r3]
 c008ed4:	e2033001 	and	r3, r3, #1
 c008ed8:	e20330ff 	and	r3, r3, #255	; 0xff
 c008edc:	e3530000 	cmp	r3, #0
 c008ee0:	1afffff9 	bne	c008ecc <TSInt+0x154>
    	while( !(rADCCON & 0x40) ); // Check ECFLG
 c008ee4:	e1a00000 	nop			; (mov r0, r0)
 c008ee8:	e3a03775 	mov	r3, #30670848	; 0x1d40000
 c008eec:	e5933000 	ldr	r3, [r3]
 c008ef0:	e2033040 	and	r3, r3, #64	; 0x40
 c008ef4:	e3530000 	cmp	r3, #0
 c008ef8:	0afffffa 	beq	c008ee8 <TSInt+0x170>
	    Pt[i] = (0x3ff&rADCDAT);
 c008efc:	e59f31dc 	ldr	r3, [pc, #476]	; c0090e0 <TSInt+0x368>
 c008f00:	e5933000 	ldr	r3, [r3]
 c008f04:	e1a03b03 	lsl	r3, r3, #22
 c008f08:	e1a03b23 	lsr	r3, r3, #22
 c008f0c:	e51b1020 	ldr	r1, [fp, #-32]	; 0xffffffe0
 c008f10:	e3e02023 	mvn	r2, #35	; 0x23
 c008f14:	e1a01101 	lsl	r1, r1, #2
 c008f18:	e24b001c 	sub	r0, fp, #28
 c008f1c:	e0801001 	add	r1, r0, r1
 c008f20:	e0812002 	add	r2, r1, r2
 c008f24:	e5823000 	str	r3, [r2]
    //       1               0                 0                1
	rPDATE=0x98;
	rADCCON=0x0<<2;		        	// AIN0
	
	DelayTime(1000);                // delay to set up the next channel
	for( i=0; i<5; i++ )
 c008f28:	e51b3020 	ldr	r3, [fp, #-32]	; 0xffffffe0
 c008f2c:	e2833001 	add	r3, r3, #1
 c008f30:	e50b3020 	str	r3, [fp, #-32]	; 0xffffffe0
 c008f34:	e51b3020 	ldr	r3, [fp, #-32]	; 0xffffffe0
 c008f38:	e3530004 	cmp	r3, #4
 c008f3c:	daffffdc 	ble	c008eb4 <TSInt+0x13c>
	    while( rADCCON & 0x1 );     // Check if Enable_start is low
    	while( !(rADCCON & 0x40) ); // Check ECFLG
	    Pt[i] = (0x3ff&rADCDAT);
	}
	// read Y-position average value
	Pt[5] = (Pt[0]+Pt[1]+Pt[2]+Pt[3]+Pt[4])/5;
 c008f40:	e51b2040 	ldr	r2, [fp, #-64]	; 0xffffffc0
 c008f44:	e51b303c 	ldr	r3, [fp, #-60]	; 0xffffffc4
 c008f48:	e0822003 	add	r2, r2, r3
 c008f4c:	e51b3038 	ldr	r3, [fp, #-56]	; 0xffffffc8
 c008f50:	e0822003 	add	r2, r2, r3
 c008f54:	e51b3034 	ldr	r3, [fp, #-52]	; 0xffffffcc
 c008f58:	e0822003 	add	r2, r2, r3
 c008f5c:	e51b3030 	ldr	r3, [fp, #-48]	; 0xffffffd0
 c008f60:	e0822003 	add	r2, r2, r3
 c008f64:	e59f3178 	ldr	r3, [pc, #376]	; c0090e4 <TSInt+0x36c>
 c008f68:	e0831392 	umull	r1, r3, r2, r3
 c008f6c:	e1a03123 	lsr	r3, r3, #2
 c008f70:	e50b302c 	str	r3, [fp, #-44]	; 0xffffffd4
     
	if(!(CheckTSP|(tmp < Xmin)|(tmp > Xmax)|(Pt[5] < Ymin)|(Pt[5] > Ymax)))   // Is valid value?
 c008f74:	e59f316c 	ldr	r3, [pc, #364]	; c0090e8 <TSInt+0x370>
 c008f78:	e5933000 	ldr	r3, [r3]
 c008f7c:	e51b2024 	ldr	r2, [fp, #-36]	; 0xffffffdc
 c008f80:	e1520003 	cmp	r2, r3
 c008f84:	23a02000 	movcs	r2, #0
 c008f88:	33a02001 	movcc	r2, #1
 c008f8c:	e59f3158 	ldr	r3, [pc, #344]	; c0090ec <TSInt+0x374>
 c008f90:	e5933000 	ldr	r3, [r3]
 c008f94:	e1822003 	orr	r2, r2, r3
 c008f98:	e59f3150 	ldr	r3, [pc, #336]	; c0090f0 <TSInt+0x378>
 c008f9c:	e5933000 	ldr	r3, [r3]
 c008fa0:	e51b1024 	ldr	r1, [fp, #-36]	; 0xffffffdc
 c008fa4:	e1510003 	cmp	r1, r3
 c008fa8:	93a03000 	movls	r3, #0
 c008fac:	83a03001 	movhi	r3, #1
 c008fb0:	e1822003 	orr	r2, r2, r3
 c008fb4:	e51b102c 	ldr	r1, [fp, #-44]	; 0xffffffd4
 c008fb8:	e59f3134 	ldr	r3, [pc, #308]	; c0090f4 <TSInt+0x37c>
 c008fbc:	e5933000 	ldr	r3, [r3]
 c008fc0:	e1510003 	cmp	r1, r3
 c008fc4:	23a03000 	movcs	r3, #0
 c008fc8:	33a03001 	movcc	r3, #1
 c008fcc:	e1822003 	orr	r2, r2, r3
 c008fd0:	e51b102c 	ldr	r1, [fp, #-44]	; 0xffffffd4
 c008fd4:	e59f311c 	ldr	r3, [pc, #284]	; c0090f8 <TSInt+0x380>
 c008fd8:	e5933000 	ldr	r3, [r3]
 c008fdc:	e1510003 	cmp	r1, r3
 c008fe0:	93a03000 	movls	r3, #0
 c008fe4:	83a03001 	movhi	r3, #1
 c008fe8:	e1823003 	orr	r3, r2, r3
 c008fec:	e3530000 	cmp	r3, #0
 c008ff0:	1a000025 	bne	c00908c <TSInt+0x314>
	  {
		tmp = 320*(tmp - Xmin)/(Xmax - Xmin);   // X - position
 c008ff4:	e59f30ec 	ldr	r3, [pc, #236]	; c0090e8 <TSInt+0x370>
 c008ff8:	e5933000 	ldr	r3, [r3]
 c008ffc:	e51b2024 	ldr	r2, [fp, #-36]	; 0xffffffdc
 c009000:	e0632002 	rsb	r2, r3, r2
 c009004:	e1a03002 	mov	r3, r2
 c009008:	e1a03103 	lsl	r3, r3, #2
 c00900c:	e0833002 	add	r3, r3, r2
 c009010:	e1a03303 	lsl	r3, r3, #6
 c009014:	e1a02003 	mov	r2, r3
 c009018:	e59f30d0 	ldr	r3, [pc, #208]	; c0090f0 <TSInt+0x378>
 c00901c:	e5931000 	ldr	r1, [r3]
 c009020:	e59f30c0 	ldr	r3, [pc, #192]	; c0090e8 <TSInt+0x370>
 c009024:	e5933000 	ldr	r3, [r3]
 c009028:	e0633001 	rsb	r3, r3, r1
 c00902c:	e1a00002 	mov	r0, r2
 c009030:	e1a01003 	mov	r1, r3
 c009034:	eb0001ea 	bl	c0097e4 <__aeabi_uidiv>
 c009038:	e1a03000 	mov	r3, r0
 c00903c:	e50b3024 	str	r3, [fp, #-36]	; 0xffffffdc
//		Uart_Printf("X-Posion[AIN1] is %04d   ", tmp);
			
		Pt[5] = 240*(Pt[5] - Xmin)/(Ymax - Ymin);
 c009040:	e51b202c 	ldr	r2, [fp, #-44]	; 0xffffffd4
 c009044:	e59f309c 	ldr	r3, [pc, #156]	; c0090e8 <TSInt+0x370>
 c009048:	e5933000 	ldr	r3, [r3]
 c00904c:	e0632002 	rsb	r2, r3, r2
 c009050:	e1a03002 	mov	r3, r2
 c009054:	e1a03203 	lsl	r3, r3, #4
 c009058:	e0623003 	rsb	r3, r2, r3
 c00905c:	e1a03203 	lsl	r3, r3, #4
 c009060:	e1a02003 	mov	r2, r3
 c009064:	e59f308c 	ldr	r3, [pc, #140]	; c0090f8 <TSInt+0x380>
 c009068:	e5931000 	ldr	r1, [r3]
 c00906c:	e59f3080 	ldr	r3, [pc, #128]	; c0090f4 <TSInt+0x37c>
 c009070:	e5933000 	ldr	r3, [r3]
 c009074:	e0633001 	rsb	r3, r3, r1
 c009078:	e1a00002 	mov	r0, r2
 c00907c:	e1a01003 	mov	r1, r3
 c009080:	eb0001d7 	bl	c0097e4 <__aeabi_uidiv>
 c009084:	e1a03000 	mov	r3, r0
 c009088:	e50b302c 	str	r3, [fp, #-44]	; 0xffffffd4
//		Uart_Printf("  Y-Posion[AIN0] is %04d\n", Pt[5]);
      }

    if(CheckTSP)
 c00908c:	e59f3058 	ldr	r3, [pc, #88]	; c0090ec <TSInt+0x374>
 c009090:	e5933000 	ldr	r3, [r3]
 c009094:	e3530000 	cmp	r3, #0
 c009098:	0a000003 	beq	c0090ac <TSInt+0x334>
 	/*----------- check to ensure Xmax Ymax Xmin Ymin ------------*/
 	    DesignREC(tmp,Pt[5]);
 c00909c:	e51b302c 	ldr	r3, [fp, #-44]	; 0xffffffd4
 c0090a0:	e51b0024 	ldr	r0, [fp, #-36]	; 0xffffffdc
 c0090a4:	e1a01003 	mov	r1, r3
 c0090a8:	eb00013e 	bl	c0095a8 <DesignREC>

	rPDATE = 0xb8;                  // should be enabled	
 c0090ac:	e59f3028 	ldr	r3, [pc, #40]	; c0090dc <TSInt+0x364>
 c0090b0:	e3a020b8 	mov	r2, #184	; 0xb8
 c0090b4:	e5832000 	str	r2, [r3]
	DelayTime(3000);                // delay to set up the next channel	
 c0090b8:	e59f003c 	ldr	r0, [pc, #60]	; c0090fc <TSInt+0x384>
 c0090bc:	ebffddf9 	bl	c0008a8 <DelayTime>

    rI_ISPC = BIT_EINT2;            // clear pending_bit
 c0090c0:	e59f3038 	ldr	r3, [pc, #56]	; c009100 <TSInt+0x388>
 c0090c4:	e3a02502 	mov	r2, #8388608	; 0x800000
 c0090c8:	e5832000 	str	r2, [r3]
}
 c0090cc:	e24bd01c 	sub	sp, fp, #28
 c0090d0:	e89d680f 	ldm	sp, {r0, r1, r2, r3, fp, sp, lr}
 c0090d4:	e49dc004 	pop	{ip}		; (ldr ip, [sp], #4)
 c0090d8:	e25ef004 	subs	pc, lr, #4
 c0090dc:	01d2002c 	.word	0x01d2002c
 c0090e0:	01d40008 	.word	0x01d40008
 c0090e4:	cccccccd 	.word	0xcccccccd
 c0090e8:	0c00ce0c 	.word	0x0c00ce0c
 c0090ec:	0c00ce10 	.word	0x0c00ce10
 c0090f0:	0c00cdf8 	.word	0x0c00cdf8
 c0090f4:	0c00cdf4 	.word	0x0c00cdf4
 c0090f8:	0c00ce00 	.word	0x0c00ce00
 c0090fc:	00000bb8 	.word	0x00000bb8
 c009100:	01e00024 	.word	0x01e00024

0c009104 <TS_init>:
* ret:		none
* modify:
* comment:		
*********************************************************************************************/
void TS_init(void)
{
 c009104:	e1a0c00d 	mov	ip, sp
 c009108:	e92dd800 	push	{fp, ip, lr, pc}
 c00910c:	e24cb004 	sub	fp, ip, #4
    /* enable interrupt */
	rINTMOD=0x0;
 c009110:	e59f30a8 	ldr	r3, [pc, #168]	; c0091c0 <TS_init+0xbc>
 c009114:	e3a02000 	mov	r2, #0
 c009118:	e5832000 	str	r2, [r3]
	rINTCON=0x1;
 c00911c:	e3a0361e 	mov	r3, #31457280	; 0x1e00000
 c009120:	e3a02001 	mov	r2, #1
 c009124:	e5832000 	str	r2, [r3]
    rI_ISPC |= BIT_EINT2;            // clear pending_bit
 c009128:	e59f3094 	ldr	r3, [pc, #148]	; c0091c4 <TS_init+0xc0>
 c00912c:	e59f2090 	ldr	r2, [pc, #144]	; c0091c4 <TS_init+0xc0>
 c009130:	e5922000 	ldr	r2, [r2]
 c009134:	e3822502 	orr	r2, r2, #8388608	; 0x800000
 c009138:	e5832000 	str	r2, [r3]
	
	// TSPX(GPE4_Q4(-)) TSPY(GPE5_Q3(-)) TSMY(GPE6_Q2(-)) TSMX(GPE7_Q1(+)) 
	//          1               1                0                 1
    rPUPE  = 0x0;	                 // Pull up
 c00913c:	e59f3084 	ldr	r3, [pc, #132]	; c0091c8 <TS_init+0xc4>
 c009140:	e3a02000 	mov	r2, #0
 c009144:	e5832000 	str	r2, [r3]
    rPDATE = 0xb8;                   // should be enabled	
 c009148:	e59f307c 	ldr	r3, [pc, #124]	; c0091cc <TS_init+0xc8>
 c00914c:	e3a020b8 	mov	r2, #184	; 0xb8
 c009150:	e5832000 	str	r2, [r3]
    DelayTime(100); 
 c009154:	e3a00064 	mov	r0, #100	; 0x64
 c009158:	ebffddd2 	bl	c0008a8 <DelayTime>
    
    rEXTINT |= 0x200;                // falling edge trigger
 c00915c:	e59f306c 	ldr	r3, [pc, #108]	; c0091d0 <TS_init+0xcc>
 c009160:	e59f2068 	ldr	r2, [pc, #104]	; c0091d0 <TS_init+0xcc>
 c009164:	e5922000 	ldr	r2, [r2]
 c009168:	e3822c02 	orr	r2, r2, #512	; 0x200
 c00916c:	e5832000 	str	r2, [r3]
    pISR_EINT2=(unsigned *)TSInt;       // set interrupt handler
 c009170:	e59f305c 	ldr	r3, [pc, #92]	; c0091d4 <TS_init+0xd0>
 c009174:	e59f205c 	ldr	r2, [pc, #92]	; c0091d8 <TS_init+0xd4>
 c009178:	e5832000 	str	r2, [r3]
    
    rCLKCON = 0x7ff8;                // enable clock
 c00917c:	e59f3058 	ldr	r3, [pc, #88]	; c0091dc <TS_init+0xd8>
 c009180:	e59f2058 	ldr	r2, [pc, #88]	; c0091e0 <TS_init+0xdc>
 c009184:	e5832000 	str	r2, [r3]
    rADCPSR = 0x1;//0x4;             // A/D prescaler
 c009188:	e59f3054 	ldr	r3, [pc, #84]	; c0091e4 <TS_init+0xe0>
 c00918c:	e3a02001 	mov	r2, #1
 c009190:	e5832000 	str	r2, [r3]
    rINTMSK &= ~(BIT_EINT2);
 c009194:	e59f304c 	ldr	r3, [pc, #76]	; c0091e8 <TS_init+0xe4>
 c009198:	e59f2048 	ldr	r2, [pc, #72]	; c0091e8 <TS_init+0xe4>
 c00919c:	e5922000 	ldr	r2, [r2]
 c0091a0:	e3c22502 	bic	r2, r2, #8388608	; 0x800000
 c0091a4:	e5832000 	str	r2, [r3]

    oneTouch = 0;
 c0091a8:	e59f303c 	ldr	r3, [pc, #60]	; c0091ec <TS_init+0xe8>
 c0091ac:	e3a02000 	mov	r2, #0
 c0091b0:	e5832000 	str	r2, [r3]
}
 c0091b4:	e24bd00c 	sub	sp, fp, #12
 c0091b8:	e89d6800 	ldm	sp, {fp, sp, lr}
 c0091bc:	e12fff1e 	bx	lr
 c0091c0:	01e00008 	.word	0x01e00008
 c0091c4:	01e00024 	.word	0x01e00024
 c0091c8:	01d20030 	.word	0x01d20030
 c0091cc:	01d2002c 	.word	0x01d2002c
 c0091d0:	01d20050 	.word	0x01d20050
 c0091d4:	0c7fff7c 	.word	0x0c7fff7c
 c0091d8:	0c008d78 	.word	0x0c008d78
 c0091dc:	01d80004 	.word	0x01d80004
 c0091e0:	00007ff8 	.word	0x00007ff8
 c0091e4:	01d40004 	.word	0x01d40004
 c0091e8:	01e0000c 	.word	0x01e0000c
 c0091ec:	0c00ce04 	.word	0x0c00ce04

0c0091f0 <TS_close>:
* ret:		none
* modify:
* comment:		
*********************************************************************************************/
void TS_close(void)
{
 c0091f0:	e1a0c00d 	mov	ip, sp
 c0091f4:	e92dd800 	push	{fp, ip, lr, pc}
 c0091f8:	e24cb004 	sub	fp, ip, #4
	/* Mask interrupt */
	rINTMSK |=BIT_GLOBAL|BIT_EINT2;
 c0091fc:	e59f3024 	ldr	r3, [pc, #36]	; c009228 <TS_close+0x38>
 c009200:	e59f2020 	ldr	r2, [pc, #32]	; c009228 <TS_close+0x38>
 c009204:	e5922000 	ldr	r2, [r2]
 c009208:	e3822512 	orr	r2, r2, #75497472	; 0x4800000
 c00920c:	e5832000 	str	r2, [r3]
	pISR_EINT2 = (int)NULL;
 c009210:	e59f3014 	ldr	r3, [pc, #20]	; c00922c <TS_close+0x3c>
 c009214:	e3a02000 	mov	r2, #0
 c009218:	e5832000 	str	r2, [r3]
}
 c00921c:	e24bd00c 	sub	sp, fp, #12
 c009220:	e89d6800 	ldm	sp, {fp, sp, lr}
 c009224:	e12fff1e 	bx	lr
 c009228:	01e0000c 	.word	0x01e0000c
 c00922c:	0c7fff7c 	.word	0x0c7fff7c

0c009230 <Lcd_TC>:

void Lcd_TC(void)
{
 c009230:	e1a0c00d 	mov	ip, sp
 c009234:	e92dd800 	push	{fp, ip, lr, pc}
 c009238:	e24cb004 	sub	fp, ip, #4
 c00923c:	e24dd008 	sub	sp, sp, #8
	/* initial LCD controller */
	Lcd_Init();
 c009240:	ebffef80 	bl	c005048 <Lcd_Init>
	/* clear screen */
	Lcd_Clr();
 c009244:	ebfff032 	bl	c005314 <Lcd_Clr>
	Lcd_Active_Clr();
 c009248:	ebffefe3 	bl	c0051dc <Lcd_Active_Clr>
	/* draw rectangle pattern */ 
	Lcd_Draw_Box(0,0,80,60,15);
 c00924c:	e3a0300f 	mov	r3, #15
 c009250:	e58d3000 	str	r3, [sp]
 c009254:	e3a00000 	mov	r0, #0
 c009258:	e3a01000 	mov	r1, #0
 c00925c:	e3a02050 	mov	r2, #80	; 0x50
 c009260:	e3a0303c 	mov	r3, #60	; 0x3c
 c009264:	ebfff1d9 	bl	c0059d0 <Lcd_Draw_Box>
	Lcd_Draw_Box(80,0,160,60,15);
 c009268:	e3a0300f 	mov	r3, #15
 c00926c:	e58d3000 	str	r3, [sp]
 c009270:	e3a00050 	mov	r0, #80	; 0x50
 c009274:	e3a01000 	mov	r1, #0
 c009278:	e3a020a0 	mov	r2, #160	; 0xa0
 c00927c:	e3a0303c 	mov	r3, #60	; 0x3c
 c009280:	ebfff1d2 	bl	c0059d0 <Lcd_Draw_Box>
	Lcd_Draw_Box(160,0,240,60,15);
 c009284:	e3a0300f 	mov	r3, #15
 c009288:	e58d3000 	str	r3, [sp]
 c00928c:	e3a000a0 	mov	r0, #160	; 0xa0
 c009290:	e3a01000 	mov	r1, #0
 c009294:	e3a020f0 	mov	r2, #240	; 0xf0
 c009298:	e3a0303c 	mov	r3, #60	; 0x3c
 c00929c:	ebfff1cb 	bl	c0059d0 <Lcd_Draw_Box>
	Lcd_Draw_Box(240,0,320,60,15);
 c0092a0:	e3a0300f 	mov	r3, #15
 c0092a4:	e58d3000 	str	r3, [sp]
 c0092a8:	e3a000f0 	mov	r0, #240	; 0xf0
 c0092ac:	e3a01000 	mov	r1, #0
 c0092b0:	e3a02d05 	mov	r2, #320	; 0x140
 c0092b4:	e3a0303c 	mov	r3, #60	; 0x3c
 c0092b8:	ebfff1c4 	bl	c0059d0 <Lcd_Draw_Box>
	Lcd_Draw_Box(0,60,80,120,15);
 c0092bc:	e3a0300f 	mov	r3, #15
 c0092c0:	e58d3000 	str	r3, [sp]
 c0092c4:	e3a00000 	mov	r0, #0
 c0092c8:	e3a0103c 	mov	r1, #60	; 0x3c
 c0092cc:	e3a02050 	mov	r2, #80	; 0x50
 c0092d0:	e3a03078 	mov	r3, #120	; 0x78
 c0092d4:	ebfff1bd 	bl	c0059d0 <Lcd_Draw_Box>
	Lcd_Draw_Box(80,60,160,120,15);
 c0092d8:	e3a0300f 	mov	r3, #15
 c0092dc:	e58d3000 	str	r3, [sp]
 c0092e0:	e3a00050 	mov	r0, #80	; 0x50
 c0092e4:	e3a0103c 	mov	r1, #60	; 0x3c
 c0092e8:	e3a020a0 	mov	r2, #160	; 0xa0
 c0092ec:	e3a03078 	mov	r3, #120	; 0x78
 c0092f0:	ebfff1b6 	bl	c0059d0 <Lcd_Draw_Box>
	Lcd_Draw_Box(160,60,240,120,15);
 c0092f4:	e3a0300f 	mov	r3, #15
 c0092f8:	e58d3000 	str	r3, [sp]
 c0092fc:	e3a000a0 	mov	r0, #160	; 0xa0
 c009300:	e3a0103c 	mov	r1, #60	; 0x3c
 c009304:	e3a020f0 	mov	r2, #240	; 0xf0
 c009308:	e3a03078 	mov	r3, #120	; 0x78
 c00930c:	ebfff1af 	bl	c0059d0 <Lcd_Draw_Box>
	Lcd_Draw_Box(240,60,320,120,15);
 c009310:	e3a0300f 	mov	r3, #15
 c009314:	e58d3000 	str	r3, [sp]
 c009318:	e3a000f0 	mov	r0, #240	; 0xf0
 c00931c:	e3a0103c 	mov	r1, #60	; 0x3c
 c009320:	e3a02d05 	mov	r2, #320	; 0x140
 c009324:	e3a03078 	mov	r3, #120	; 0x78
 c009328:	ebfff1a8 	bl	c0059d0 <Lcd_Draw_Box>
	Lcd_Draw_Box(0,120,80,180,15);
 c00932c:	e3a0300f 	mov	r3, #15
 c009330:	e58d3000 	str	r3, [sp]
 c009334:	e3a00000 	mov	r0, #0
 c009338:	e3a01078 	mov	r1, #120	; 0x78
 c00933c:	e3a02050 	mov	r2, #80	; 0x50
 c009340:	e3a030b4 	mov	r3, #180	; 0xb4
 c009344:	ebfff1a1 	bl	c0059d0 <Lcd_Draw_Box>
	Lcd_Draw_Box(80,120,160,180,15);
 c009348:	e3a0300f 	mov	r3, #15
 c00934c:	e58d3000 	str	r3, [sp]
 c009350:	e3a00050 	mov	r0, #80	; 0x50
 c009354:	e3a01078 	mov	r1, #120	; 0x78
 c009358:	e3a020a0 	mov	r2, #160	; 0xa0
 c00935c:	e3a030b4 	mov	r3, #180	; 0xb4
 c009360:	ebfff19a 	bl	c0059d0 <Lcd_Draw_Box>
	Lcd_Draw_Box(160,120,240,180,15);
 c009364:	e3a0300f 	mov	r3, #15
 c009368:	e58d3000 	str	r3, [sp]
 c00936c:	e3a000a0 	mov	r0, #160	; 0xa0
 c009370:	e3a01078 	mov	r1, #120	; 0x78
 c009374:	e3a020f0 	mov	r2, #240	; 0xf0
 c009378:	e3a030b4 	mov	r3, #180	; 0xb4
 c00937c:	ebfff193 	bl	c0059d0 <Lcd_Draw_Box>
	Lcd_Draw_Box(240,120,320,180,15);
 c009380:	e3a0300f 	mov	r3, #15
 c009384:	e58d3000 	str	r3, [sp]
 c009388:	e3a000f0 	mov	r0, #240	; 0xf0
 c00938c:	e3a01078 	mov	r1, #120	; 0x78
 c009390:	e3a02d05 	mov	r2, #320	; 0x140
 c009394:	e3a030b4 	mov	r3, #180	; 0xb4
 c009398:	ebfff18c 	bl	c0059d0 <Lcd_Draw_Box>
	Lcd_Draw_Box(0,180,80,240,15);
 c00939c:	e3a0300f 	mov	r3, #15
 c0093a0:	e58d3000 	str	r3, [sp]
 c0093a4:	e3a00000 	mov	r0, #0
 c0093a8:	e3a010b4 	mov	r1, #180	; 0xb4
 c0093ac:	e3a02050 	mov	r2, #80	; 0x50
 c0093b0:	e3a030f0 	mov	r3, #240	; 0xf0
 c0093b4:	ebfff185 	bl	c0059d0 <Lcd_Draw_Box>
	Lcd_Draw_Box(80,180,160,240,15);
 c0093b8:	e3a0300f 	mov	r3, #15
 c0093bc:	e58d3000 	str	r3, [sp]
 c0093c0:	e3a00050 	mov	r0, #80	; 0x50
 c0093c4:	e3a010b4 	mov	r1, #180	; 0xb4
 c0093c8:	e3a020a0 	mov	r2, #160	; 0xa0
 c0093cc:	e3a030f0 	mov	r3, #240	; 0xf0
 c0093d0:	ebfff17e 	bl	c0059d0 <Lcd_Draw_Box>
	Lcd_Draw_Box(160,180,240,240,15);
 c0093d4:	e3a0300f 	mov	r3, #15
 c0093d8:	e58d3000 	str	r3, [sp]
 c0093dc:	e3a000a0 	mov	r0, #160	; 0xa0
 c0093e0:	e3a010b4 	mov	r1, #180	; 0xb4
 c0093e4:	e3a020f0 	mov	r2, #240	; 0xf0
 c0093e8:	e3a030f0 	mov	r3, #240	; 0xf0
 c0093ec:	ebfff177 	bl	c0059d0 <Lcd_Draw_Box>
	Lcd_Draw_Box(240,180,320,240,15);
 c0093f0:	e3a0300f 	mov	r3, #15
 c0093f4:	e58d3000 	str	r3, [sp]
 c0093f8:	e3a000f0 	mov	r0, #240	; 0xf0
 c0093fc:	e3a010b4 	mov	r1, #180	; 0xb4
 c009400:	e3a02d05 	mov	r2, #320	; 0x140
 c009404:	e3a030f0 	mov	r3, #240	; 0xf0
 c009408:	ebfff170 	bl	c0059d0 <Lcd_Draw_Box>
	/* output ASCII symbol */
	Lcd_DspAscII6x8(37,26,BLACK,"0");
 c00940c:	e3a00025 	mov	r0, #37	; 0x25
 c009410:	e3a0101a 	mov	r1, #26
 c009414:	e3a0200f 	mov	r2, #15
 c009418:	e59f3144 	ldr	r3, [pc, #324]	; c009564 <Lcd_TC+0x334>
 c00941c:	ebfff5c8 	bl	c006b44 <Lcd_DspAscII6x8>
	Lcd_DspAscII6x8(117,26,BLACK,"1");
 c009420:	e3a00075 	mov	r0, #117	; 0x75
 c009424:	e3a0101a 	mov	r1, #26
 c009428:	e3a0200f 	mov	r2, #15
 c00942c:	e59f3134 	ldr	r3, [pc, #308]	; c009568 <Lcd_TC+0x338>
 c009430:	ebfff5c3 	bl	c006b44 <Lcd_DspAscII6x8>
	Lcd_DspAscII6x8(197,26,BLACK,"2");
 c009434:	e3a000c5 	mov	r0, #197	; 0xc5
 c009438:	e3a0101a 	mov	r1, #26
 c00943c:	e3a0200f 	mov	r2, #15
 c009440:	e59f3124 	ldr	r3, [pc, #292]	; c00956c <Lcd_TC+0x33c>
 c009444:	ebfff5be 	bl	c006b44 <Lcd_DspAscII6x8>
	Lcd_DspAscII6x8(277,26,BLACK,"3");
 c009448:	e59f0120 	ldr	r0, [pc, #288]	; c009570 <Lcd_TC+0x340>
 c00944c:	e3a0101a 	mov	r1, #26
 c009450:	e3a0200f 	mov	r2, #15
 c009454:	e59f3118 	ldr	r3, [pc, #280]	; c009574 <Lcd_TC+0x344>
 c009458:	ebfff5b9 	bl	c006b44 <Lcd_DspAscII6x8>
	Lcd_DspAscII6x8(37,86,BLACK,"4");
 c00945c:	e3a00025 	mov	r0, #37	; 0x25
 c009460:	e3a01056 	mov	r1, #86	; 0x56
 c009464:	e3a0200f 	mov	r2, #15
 c009468:	e59f3108 	ldr	r3, [pc, #264]	; c009578 <Lcd_TC+0x348>
 c00946c:	ebfff5b4 	bl	c006b44 <Lcd_DspAscII6x8>
	Lcd_DspAscII6x8(117,86,BLACK,"5");
 c009470:	e3a00075 	mov	r0, #117	; 0x75
 c009474:	e3a01056 	mov	r1, #86	; 0x56
 c009478:	e3a0200f 	mov	r2, #15
 c00947c:	e59f30f8 	ldr	r3, [pc, #248]	; c00957c <Lcd_TC+0x34c>
 c009480:	ebfff5af 	bl	c006b44 <Lcd_DspAscII6x8>
	Lcd_DspAscII6x8(197,86,BLACK,"6");
 c009484:	e3a000c5 	mov	r0, #197	; 0xc5
 c009488:	e3a01056 	mov	r1, #86	; 0x56
 c00948c:	e3a0200f 	mov	r2, #15
 c009490:	e59f30e8 	ldr	r3, [pc, #232]	; c009580 <Lcd_TC+0x350>
 c009494:	ebfff5aa 	bl	c006b44 <Lcd_DspAscII6x8>
	Lcd_DspAscII6x8(277,86,BLACK,"7");
 c009498:	e59f00d0 	ldr	r0, [pc, #208]	; c009570 <Lcd_TC+0x340>
 c00949c:	e3a01056 	mov	r1, #86	; 0x56
 c0094a0:	e3a0200f 	mov	r2, #15
 c0094a4:	e59f30d8 	ldr	r3, [pc, #216]	; c009584 <Lcd_TC+0x354>
 c0094a8:	ebfff5a5 	bl	c006b44 <Lcd_DspAscII6x8>
	Lcd_DspAscII6x8(37,146,BLACK,"8");
 c0094ac:	e3a00025 	mov	r0, #37	; 0x25
 c0094b0:	e3a01092 	mov	r1, #146	; 0x92
 c0094b4:	e3a0200f 	mov	r2, #15
 c0094b8:	e59f30c8 	ldr	r3, [pc, #200]	; c009588 <Lcd_TC+0x358>
 c0094bc:	ebfff5a0 	bl	c006b44 <Lcd_DspAscII6x8>
	Lcd_DspAscII6x8(117,146,BLACK,"9");
 c0094c0:	e3a00075 	mov	r0, #117	; 0x75
 c0094c4:	e3a01092 	mov	r1, #146	; 0x92
 c0094c8:	e3a0200f 	mov	r2, #15
 c0094cc:	e59f30b8 	ldr	r3, [pc, #184]	; c00958c <Lcd_TC+0x35c>
 c0094d0:	ebfff59b 	bl	c006b44 <Lcd_DspAscII6x8>
	Lcd_DspAscII6x8(197,146,BLACK,"A");
 c0094d4:	e3a000c5 	mov	r0, #197	; 0xc5
 c0094d8:	e3a01092 	mov	r1, #146	; 0x92
 c0094dc:	e3a0200f 	mov	r2, #15
 c0094e0:	e59f30a8 	ldr	r3, [pc, #168]	; c009590 <Lcd_TC+0x360>
 c0094e4:	ebfff596 	bl	c006b44 <Lcd_DspAscII6x8>
	Lcd_DspAscII6x8(277,146,BLACK,"B");
 c0094e8:	e59f0080 	ldr	r0, [pc, #128]	; c009570 <Lcd_TC+0x340>
 c0094ec:	e3a01092 	mov	r1, #146	; 0x92
 c0094f0:	e3a0200f 	mov	r2, #15
 c0094f4:	e59f3098 	ldr	r3, [pc, #152]	; c009594 <Lcd_TC+0x364>
 c0094f8:	ebfff591 	bl	c006b44 <Lcd_DspAscII6x8>
	Lcd_DspAscII6x8(37,206,BLACK,"C");
 c0094fc:	e3a00025 	mov	r0, #37	; 0x25
 c009500:	e3a010ce 	mov	r1, #206	; 0xce
 c009504:	e3a0200f 	mov	r2, #15
 c009508:	e59f3088 	ldr	r3, [pc, #136]	; c009598 <Lcd_TC+0x368>
 c00950c:	ebfff58c 	bl	c006b44 <Lcd_DspAscII6x8>
	Lcd_DspAscII6x8(117,206,BLACK,"D");
 c009510:	e3a00075 	mov	r0, #117	; 0x75
 c009514:	e3a010ce 	mov	r1, #206	; 0xce
 c009518:	e3a0200f 	mov	r2, #15
 c00951c:	e59f3078 	ldr	r3, [pc, #120]	; c00959c <Lcd_TC+0x36c>
 c009520:	ebfff587 	bl	c006b44 <Lcd_DspAscII6x8>
	Lcd_DspAscII6x8(197,206,BLACK,"E");
 c009524:	e3a000c5 	mov	r0, #197	; 0xc5
 c009528:	e3a010ce 	mov	r1, #206	; 0xce
 c00952c:	e3a0200f 	mov	r2, #15
 c009530:	e59f3068 	ldr	r3, [pc, #104]	; c0095a0 <Lcd_TC+0x370>
 c009534:	ebfff582 	bl	c006b44 <Lcd_DspAscII6x8>
	Lcd_DspAscII6x8(277,206,BLACK,"F");
 c009538:	e59f0030 	ldr	r0, [pc, #48]	; c009570 <Lcd_TC+0x340>
 c00953c:	e3a010ce 	mov	r1, #206	; 0xce
 c009540:	e3a0200f 	mov	r2, #15
 c009544:	e59f3058 	ldr	r3, [pc, #88]	; c0095a4 <Lcd_TC+0x374>
 c009548:	ebfff57d 	bl	c006b44 <Lcd_DspAscII6x8>
	Lcd_Dma_Trans();
 c00954c:	ebfff63a 	bl	c006e3c <Lcd_Dma_Trans>
	Delay(100);
 c009550:	e3a00064 	mov	r0, #100	; 0x64
 c009554:	ebffdc6c 	bl	c00070c <Delay>
}
 c009558:	e24bd00c 	sub	sp, fp, #12
 c00955c:	e89d6800 	ldm	sp, {fp, sp, lr}
 c009560:	e12fff1e 	bx	lr
 c009564:	0c00ccd8 	.word	0x0c00ccd8
 c009568:	0c00ccdc 	.word	0x0c00ccdc
 c00956c:	0c00cce0 	.word	0x0c00cce0
 c009570:	00000115 	.word	0x00000115
 c009574:	0c00cce4 	.word	0x0c00cce4
 c009578:	0c00cce8 	.word	0x0c00cce8
 c00957c:	0c00ccec 	.word	0x0c00ccec
 c009580:	0c00ccf0 	.word	0x0c00ccf0
 c009584:	0c00ccf4 	.word	0x0c00ccf4
 c009588:	0c00ccf8 	.word	0x0c00ccf8
 c00958c:	0c00ccfc 	.word	0x0c00ccfc
 c009590:	0c00cd00 	.word	0x0c00cd00
 c009594:	0c00cd04 	.word	0x0c00cd04
 c009598:	0c00cd08 	.word	0x0c00cd08
 c00959c:	0c00cd0c 	.word	0x0c00cd0c
 c0095a0:	0c00cd10 	.word	0x0c00cd10
 c0095a4:	0c00cd14 	.word	0x0c00cd14

0c0095a8 <DesignREC>:
* ret:		none
* modify:
* comment:		
*********************************************************************************************/
void DesignREC(ULONG tx, ULONG ty)
{
 c0095a8:	e1a0c00d 	mov	ip, sp
 c0095ac:	e92dd800 	push	{fp, ip, lr, pc}
 c0095b0:	e24cb004 	sub	fp, ip, #4
 c0095b4:	e24dd010 	sub	sp, sp, #16
 c0095b8:	e50b0018 	str	r0, [fp, #-24]	; 0xffffffe8
 c0095bc:	e50b101c 	str	r1, [fp, #-28]	; 0xffffffe4
    int tm;
    
//  Uart_Printf("\n\r User touch coordinate(X,Y) is :");
//	Uart_Printf("(%04d",tx);	
//	Uart_Printf(",%04d)\n",ty);    
    if(oneTouch == 0)
 c0095c0:	e59f30f4 	ldr	r3, [pc, #244]	; c0096bc <DesignREC+0x114>
 c0095c4:	e5933000 	ldr	r3, [r3]
 c0095c8:	e3530000 	cmp	r3, #0
 c0095cc:	1a000009 	bne	c0095f8 <DesignREC+0x50>
     {
       Vx = tx;                   // Vx as Xmax
 c0095d0:	e59f30e8 	ldr	r3, [pc, #232]	; c0096c0 <DesignREC+0x118>
 c0095d4:	e51b2018 	ldr	r2, [fp, #-24]	; 0xffffffe8
 c0095d8:	e5832000 	str	r2, [r3]
       Vy = ty;                   // Vy as Ymax
 c0095dc:	e59f30e0 	ldr	r3, [pc, #224]	; c0096c4 <DesignREC+0x11c>
 c0095e0:	e51b201c 	ldr	r2, [fp, #-28]	; 0xffffffe4
 c0095e4:	e5832000 	str	r2, [r3]
       oneTouch = 1;       		           
 c0095e8:	e59f30cc 	ldr	r3, [pc, #204]	; c0096bc <DesignREC+0x114>
 c0095ec:	e3a02001 	mov	r2, #1
 c0095f0:	e5832000 	str	r2, [r3]
 c0095f4:	ea00002d 	b	c0096b0 <DesignREC+0x108>
    }else{
    
    if(Vx < tx )
 c0095f8:	e59f30c0 	ldr	r3, [pc, #192]	; c0096c0 <DesignREC+0x118>
 c0095fc:	e5932000 	ldr	r2, [r3]
 c009600:	e51b3018 	ldr	r3, [fp, #-24]	; 0xffffffe8
 c009604:	e1520003 	cmp	r2, r3
 c009608:	2a000007 	bcs	c00962c <DesignREC+0x84>
     {
       tm = tx; tx = Vx; Vx = tm; // tx as Xmin
 c00960c:	e51b3018 	ldr	r3, [fp, #-24]	; 0xffffffe8
 c009610:	e50b3010 	str	r3, [fp, #-16]
 c009614:	e59f30a4 	ldr	r3, [pc, #164]	; c0096c0 <DesignREC+0x118>
 c009618:	e5933000 	ldr	r3, [r3]
 c00961c:	e50b3018 	str	r3, [fp, #-24]	; 0xffffffe8
 c009620:	e51b2010 	ldr	r2, [fp, #-16]
 c009624:	e59f3094 	ldr	r3, [pc, #148]	; c0096c0 <DesignREC+0x118>
 c009628:	e5832000 	str	r2, [r3]
     }
    if(Vy < ty )
 c00962c:	e59f3090 	ldr	r3, [pc, #144]	; c0096c4 <DesignREC+0x11c>
 c009630:	e5932000 	ldr	r2, [r3]
 c009634:	e51b301c 	ldr	r3, [fp, #-28]	; 0xffffffe4
 c009638:	e1520003 	cmp	r2, r3
 c00963c:	2a000007 	bcs	c009660 <DesignREC+0xb8>
     { 
       tm = ty; ty = Vy; Vy = tm; // ty as Ymin
 c009640:	e51b301c 	ldr	r3, [fp, #-28]	; 0xffffffe4
 c009644:	e50b3010 	str	r3, [fp, #-16]
 c009648:	e59f3074 	ldr	r3, [pc, #116]	; c0096c4 <DesignREC+0x11c>
 c00964c:	e5933000 	ldr	r3, [r3]
 c009650:	e50b301c 	str	r3, [fp, #-28]	; 0xffffffe4
 c009654:	e51b2010 	ldr	r2, [fp, #-16]
 c009658:	e59f3064 	ldr	r3, [pc, #100]	; c0096c4 <DesignREC+0x11c>
 c00965c:	e5832000 	str	r2, [r3]
     }
     
    Xmax = Vx;    Xmin = tx;
 c009660:	e59f3058 	ldr	r3, [pc, #88]	; c0096c0 <DesignREC+0x118>
 c009664:	e5932000 	ldr	r2, [r3]
 c009668:	e59f3058 	ldr	r3, [pc, #88]	; c0096c8 <DesignREC+0x120>
 c00966c:	e5832000 	str	r2, [r3]
 c009670:	e59f3054 	ldr	r3, [pc, #84]	; c0096cc <DesignREC+0x124>
 c009674:	e51b2018 	ldr	r2, [fp, #-24]	; 0xffffffe8
 c009678:	e5832000 	str	r2, [r3]
    Ymax = Vy;    Ymin = ty;
 c00967c:	e59f3040 	ldr	r3, [pc, #64]	; c0096c4 <DesignREC+0x11c>
 c009680:	e5932000 	ldr	r2, [r3]
 c009684:	e59f3044 	ldr	r3, [pc, #68]	; c0096d0 <DesignREC+0x128>
 c009688:	e5832000 	str	r2, [r3]
 c00968c:	e59f3040 	ldr	r3, [pc, #64]	; c0096d4 <DesignREC+0x12c>
 c009690:	e51b201c 	ldr	r2, [fp, #-28]	; 0xffffffe4
 c009694:	e5832000 	str	r2, [r3]
    
    oneTouch = 0;
 c009698:	e59f301c 	ldr	r3, [pc, #28]	; c0096bc <DesignREC+0x114>
 c00969c:	e3a02000 	mov	r2, #0
 c0096a0:	e5832000 	str	r2, [r3]
	CheckTSP = 0;// has checked
 c0096a4:	e59f302c 	ldr	r3, [pc, #44]	; c0096d8 <DesignREC+0x130>
 c0096a8:	e3a02000 	mov	r2, #0
 c0096ac:	e5832000 	str	r2, [r3]
	
	}// end if(oneTouch == 0)

}
 c0096b0:	e24bd00c 	sub	sp, fp, #12
 c0096b4:	e89d6800 	ldm	sp, {fp, sp, lr}
 c0096b8:	e12fff1e 	bx	lr
 c0096bc:	0c00ce04 	.word	0x0c00ce04
 c0096c0:	0c00cdfc 	.word	0x0c00cdfc
 c0096c4:	0c00ce08 	.word	0x0c00ce08
 c0096c8:	0c00cdf8 	.word	0x0c00cdf8
 c0096cc:	0c00ce0c 	.word	0x0c00ce0c
 c0096d0:	0c00ce00 	.word	0x0c00ce00
 c0096d4:	0c00cdf4 	.word	0x0c00cdf4
 c0096d8:	0c00ce10 	.word	0x0c00ce10

0c0096dc <Check_Sel>:

void Check_Sel(void)
{
 c0096dc:	e1a0c00d 	mov	ip, sp
 c0096e0:	e92dd800 	push	{fp, ip, lr, pc}
 c0096e4:	e24cb004 	sub	fp, ip, #4
 c0096e8:	e24dd008 	sub	sp, sp, #8
	char yn;
    
	do{
	  
	  rINTMSK |=BIT_GLOBAL|BIT_EINT2;
 c0096ec:	e59f30cc 	ldr	r3, [pc, #204]	; c0097c0 <Check_Sel+0xe4>
 c0096f0:	e59f20c8 	ldr	r2, [pc, #200]	; c0097c0 <Check_Sel+0xe4>
 c0096f4:	e5922000 	ldr	r2, [r2]
 c0096f8:	e3822512 	orr	r2, r2, #75497472	; 0x4800000
 c0096fc:	e5832000 	str	r2, [r3]
//    Uart_Printf("   (Xmin,Ymin) is :(%04d,%04d)\n",Xmin,Ymin);	
//	  Uart_Printf("   (Xmax,Ymax) is :(%04d,%04d)\n",Xmax,Ymax);	
//	  Uart_Printf("\n  To use current settings. Press N/n key. ");
//	  Uart_Printf("\n\n\r  Want to Set Again(Y/N)? ");	        	      
//	  yn = Uart_Getch();
      rI_ISPC = BIT_EINT2;              // clear pending_bit
 c009700:	e59f30bc 	ldr	r3, [pc, #188]	; c0097c4 <Check_Sel+0xe8>
 c009704:	e3a02502 	mov	r2, #8388608	; 0x800000
 c009708:	e5832000 	str	r2, [r3]
      rINTMSK =~(BIT_GLOBAL|BIT_EINT2);
 c00970c:	e59f30ac 	ldr	r3, [pc, #172]	; c0097c0 <Check_Sel+0xe4>
 c009710:	e3e02512 	mvn	r2, #75497472	; 0x4800000
 c009714:	e5832000 	str	r2, [r3]
//	  if((yn == 0x59)|(yn == 0x79)|(yn == 0x4E)|(yn == 0x6E)) Uart_SendByte(yn);	  
	  if((yn == 0x59)|(yn == 0x79))
 c009718:	e55b300d 	ldrb	r3, [fp, #-13]
 c00971c:	e3530059 	cmp	r3, #89	; 0x59
 c009720:	13a03000 	movne	r3, #0
 c009724:	03a03001 	moveq	r3, #1
 c009728:	e20320ff 	and	r2, r3, #255	; 0xff
 c00972c:	e55b300d 	ldrb	r3, [fp, #-13]
 c009730:	e3530079 	cmp	r3, #121	; 0x79
 c009734:	13a03000 	movne	r3, #0
 c009738:	03a03001 	moveq	r3, #1
 c00973c:	e20330ff 	and	r3, r3, #255	; 0xff
 c009740:	e1823003 	orr	r3, r2, r3
 c009744:	e20330ff 	and	r3, r3, #255	; 0xff
 c009748:	e3530000 	cmp	r3, #0
 c00974c:	0a000017 	beq	c0097b0 <Check_Sel+0xd4>
	    {
//	      Uart_Printf("\n\n Touch TSP's Cornor to ensure Xmax,Ymax,Xmax,Xmin");	      

         //Init X Y rectangle
          Xmax = 750;    Xmin = 200;
 c009750:	e59f3070 	ldr	r3, [pc, #112]	; c0097c8 <Check_Sel+0xec>
 c009754:	e59f2070 	ldr	r2, [pc, #112]	; c0097cc <Check_Sel+0xf0>
 c009758:	e5832000 	str	r2, [r3]
 c00975c:	e59f306c 	ldr	r3, [pc, #108]	; c0097d0 <Check_Sel+0xf4>
 c009760:	e3a020c8 	mov	r2, #200	; 0xc8
 c009764:	e5832000 	str	r2, [r3]
          Ymax = 620;    Ymin = 120;
 c009768:	e59f3064 	ldr	r3, [pc, #100]	; c0097d4 <Check_Sel+0xf8>
 c00976c:	e3a02f9b 	mov	r2, #620	; 0x26c
 c009770:	e5832000 	str	r2, [r3]
 c009774:	e59f305c 	ldr	r3, [pc, #92]	; c0097d8 <Check_Sel+0xfc>
 c009778:	e3a02078 	mov	r2, #120	; 0x78
 c00977c:	e5832000 	str	r2, [r3]

	      oneTouch = 0;
 c009780:	e59f3054 	ldr	r3, [pc, #84]	; c0097dc <Check_Sel+0x100>
 c009784:	e3a02000 	mov	r2, #0
 c009788:	e5832000 	str	r2, [r3]
	      CheckTSP = 1; // mask to check
 c00978c:	e59f304c 	ldr	r3, [pc, #76]	; c0097e0 <Check_Sel+0x104>
 c009790:	e3a02001 	mov	r2, #1
 c009794:	e5832000 	str	r2, [r3]
	      while(CheckTSP);
 c009798:	e1a00000 	nop			; (mov r0, r0)
 c00979c:	e59f303c 	ldr	r3, [pc, #60]	; c0097e0 <Check_Sel+0x104>
 c0097a0:	e5933000 	ldr	r3, [r3]
 c0097a4:	e3530000 	cmp	r3, #0
 c0097a8:	1afffffb 	bne	c00979c <Check_Sel+0xc0>
	      
	    }else break;	    
	  
	}while(1);
 c0097ac:	eaffffce 	b	c0096ec <Check_Sel+0x10>
	
 c0097b0:	e1a00000 	nop			; (mov r0, r0)
 c0097b4:	e24bd00c 	sub	sp, fp, #12
 c0097b8:	e89d6800 	ldm	sp, {fp, sp, lr}
 c0097bc:	e12fff1e 	bx	lr
 c0097c0:	01e0000c 	.word	0x01e0000c
 c0097c4:	01e00024 	.word	0x01e00024
 c0097c8:	0c00cdf8 	.word	0x0c00cdf8
 c0097cc:	000002ee 	.word	0x000002ee
 c0097d0:	0c00ce0c 	.word	0x0c00ce0c
 c0097d4:	0c00ce00 	.word	0x0c00ce00
 c0097d8:	0c00cdf4 	.word	0x0c00cdf4
 c0097dc:	0c00ce04 	.word	0x0c00ce04
 c0097e0:	0c00ce10 	.word	0x0c00ce10

0c0097e4 <__aeabi_uidiv>:
 c0097e4:	e2512001 	subs	r2, r1, #1
 c0097e8:	012fff1e 	bxeq	lr
 c0097ec:	3a000036 	bcc	c0098cc <__aeabi_uidiv+0xe8>
 c0097f0:	e1500001 	cmp	r0, r1
 c0097f4:	9a000022 	bls	c009884 <__aeabi_uidiv+0xa0>
 c0097f8:	e1110002 	tst	r1, r2
 c0097fc:	0a000023 	beq	c009890 <__aeabi_uidiv+0xac>
 c009800:	e311020e 	tst	r1, #-536870912	; 0xe0000000
 c009804:	01a01181 	lsleq	r1, r1, #3
 c009808:	03a03008 	moveq	r3, #8
 c00980c:	13a03001 	movne	r3, #1
 c009810:	e3510201 	cmp	r1, #268435456	; 0x10000000
 c009814:	31510000 	cmpcc	r1, r0
 c009818:	31a01201 	lslcc	r1, r1, #4
 c00981c:	31a03203 	lslcc	r3, r3, #4
 c009820:	3afffffa 	bcc	c009810 <__aeabi_uidiv+0x2c>
 c009824:	e3510102 	cmp	r1, #-2147483648	; 0x80000000
 c009828:	31510000 	cmpcc	r1, r0
 c00982c:	31a01081 	lslcc	r1, r1, #1
 c009830:	31a03083 	lslcc	r3, r3, #1
 c009834:	3afffffa 	bcc	c009824 <__aeabi_uidiv+0x40>
 c009838:	e3a02000 	mov	r2, #0
 c00983c:	e1500001 	cmp	r0, r1
 c009840:	20400001 	subcs	r0, r0, r1
 c009844:	21822003 	orrcs	r2, r2, r3
 c009848:	e15000a1 	cmp	r0, r1, lsr #1
 c00984c:	204000a1 	subcs	r0, r0, r1, lsr #1
 c009850:	218220a3 	orrcs	r2, r2, r3, lsr #1
 c009854:	e1500121 	cmp	r0, r1, lsr #2
 c009858:	20400121 	subcs	r0, r0, r1, lsr #2
 c00985c:	21822123 	orrcs	r2, r2, r3, lsr #2
 c009860:	e15001a1 	cmp	r0, r1, lsr #3
 c009864:	204001a1 	subcs	r0, r0, r1, lsr #3
 c009868:	218221a3 	orrcs	r2, r2, r3, lsr #3
 c00986c:	e3500000 	cmp	r0, #0
 c009870:	11b03223 	lsrsne	r3, r3, #4
 c009874:	11a01221 	lsrne	r1, r1, #4
 c009878:	1affffef 	bne	c00983c <__aeabi_uidiv+0x58>
 c00987c:	e1a00002 	mov	r0, r2
 c009880:	e12fff1e 	bx	lr
 c009884:	03a00001 	moveq	r0, #1
 c009888:	13a00000 	movne	r0, #0
 c00988c:	e12fff1e 	bx	lr
 c009890:	e3510801 	cmp	r1, #65536	; 0x10000
 c009894:	21a01821 	lsrcs	r1, r1, #16
 c009898:	23a02010 	movcs	r2, #16
 c00989c:	33a02000 	movcc	r2, #0
 c0098a0:	e3510c01 	cmp	r1, #256	; 0x100
 c0098a4:	21a01421 	lsrcs	r1, r1, #8
 c0098a8:	22822008 	addcs	r2, r2, #8
 c0098ac:	e3510010 	cmp	r1, #16
 c0098b0:	21a01221 	lsrcs	r1, r1, #4
 c0098b4:	22822004 	addcs	r2, r2, #4
 c0098b8:	e3510004 	cmp	r1, #4
 c0098bc:	82822003 	addhi	r2, r2, #3
 c0098c0:	908220a1 	addls	r2, r2, r1, lsr #1
 c0098c4:	e1a00230 	lsr	r0, r0, r2
 c0098c8:	e12fff1e 	bx	lr
 c0098cc:	e3500000 	cmp	r0, #0
 c0098d0:	13e00000 	mvnne	r0, #0
 c0098d4:	ea000059 	b	c009a40 <__aeabi_idiv0>

0c0098d8 <__aeabi_uidivmod>:
 c0098d8:	e3510000 	cmp	r1, #0
 c0098dc:	0afffffa 	beq	c0098cc <__aeabi_uidiv+0xe8>
 c0098e0:	e92d4003 	push	{r0, r1, lr}
 c0098e4:	ebffffbe 	bl	c0097e4 <__aeabi_uidiv>
 c0098e8:	e8bd4006 	pop	{r1, r2, lr}
 c0098ec:	e0030092 	mul	r3, r2, r0
 c0098f0:	e0411003 	sub	r1, r1, r3
 c0098f4:	e12fff1e 	bx	lr

0c0098f8 <__aeabi_idiv>:
 c0098f8:	e3510000 	cmp	r1, #0
 c0098fc:	0a000043 	beq	c009a10 <.divsi3_skip_div0_test+0x110>

0c009900 <.divsi3_skip_div0_test>:
 c009900:	e020c001 	eor	ip, r0, r1
 c009904:	42611000 	rsbmi	r1, r1, #0
 c009908:	e2512001 	subs	r2, r1, #1
 c00990c:	0a000027 	beq	c0099b0 <.divsi3_skip_div0_test+0xb0>
 c009910:	e1b03000 	movs	r3, r0
 c009914:	42603000 	rsbmi	r3, r0, #0
 c009918:	e1530001 	cmp	r3, r1
 c00991c:	9a000026 	bls	c0099bc <.divsi3_skip_div0_test+0xbc>
 c009920:	e1110002 	tst	r1, r2
 c009924:	0a000028 	beq	c0099cc <.divsi3_skip_div0_test+0xcc>
 c009928:	e311020e 	tst	r1, #-536870912	; 0xe0000000
 c00992c:	01a01181 	lsleq	r1, r1, #3
 c009930:	03a02008 	moveq	r2, #8
 c009934:	13a02001 	movne	r2, #1
 c009938:	e3510201 	cmp	r1, #268435456	; 0x10000000
 c00993c:	31510003 	cmpcc	r1, r3
 c009940:	31a01201 	lslcc	r1, r1, #4
 c009944:	31a02202 	lslcc	r2, r2, #4
 c009948:	3afffffa 	bcc	c009938 <.divsi3_skip_div0_test+0x38>
 c00994c:	e3510102 	cmp	r1, #-2147483648	; 0x80000000
 c009950:	31510003 	cmpcc	r1, r3
 c009954:	31a01081 	lslcc	r1, r1, #1
 c009958:	31a02082 	lslcc	r2, r2, #1
 c00995c:	3afffffa 	bcc	c00994c <.divsi3_skip_div0_test+0x4c>
 c009960:	e3a00000 	mov	r0, #0
 c009964:	e1530001 	cmp	r3, r1
 c009968:	20433001 	subcs	r3, r3, r1
 c00996c:	21800002 	orrcs	r0, r0, r2
 c009970:	e15300a1 	cmp	r3, r1, lsr #1
 c009974:	204330a1 	subcs	r3, r3, r1, lsr #1
 c009978:	218000a2 	orrcs	r0, r0, r2, lsr #1
 c00997c:	e1530121 	cmp	r3, r1, lsr #2
 c009980:	20433121 	subcs	r3, r3, r1, lsr #2
 c009984:	21800122 	orrcs	r0, r0, r2, lsr #2
 c009988:	e15301a1 	cmp	r3, r1, lsr #3
 c00998c:	204331a1 	subcs	r3, r3, r1, lsr #3
 c009990:	218001a2 	orrcs	r0, r0, r2, lsr #3
 c009994:	e3530000 	cmp	r3, #0
 c009998:	11b02222 	lsrsne	r2, r2, #4
 c00999c:	11a01221 	lsrne	r1, r1, #4
 c0099a0:	1affffef 	bne	c009964 <.divsi3_skip_div0_test+0x64>
 c0099a4:	e35c0000 	cmp	ip, #0
 c0099a8:	42600000 	rsbmi	r0, r0, #0
 c0099ac:	e12fff1e 	bx	lr
 c0099b0:	e13c0000 	teq	ip, r0
 c0099b4:	42600000 	rsbmi	r0, r0, #0
 c0099b8:	e12fff1e 	bx	lr
 c0099bc:	33a00000 	movcc	r0, #0
 c0099c0:	01a00fcc 	asreq	r0, ip, #31
 c0099c4:	03800001 	orreq	r0, r0, #1
 c0099c8:	e12fff1e 	bx	lr
 c0099cc:	e3510801 	cmp	r1, #65536	; 0x10000
 c0099d0:	21a01821 	lsrcs	r1, r1, #16
 c0099d4:	23a02010 	movcs	r2, #16
 c0099d8:	33a02000 	movcc	r2, #0
 c0099dc:	e3510c01 	cmp	r1, #256	; 0x100
 c0099e0:	21a01421 	lsrcs	r1, r1, #8
 c0099e4:	22822008 	addcs	r2, r2, #8
 c0099e8:	e3510010 	cmp	r1, #16
 c0099ec:	21a01221 	lsrcs	r1, r1, #4
 c0099f0:	22822004 	addcs	r2, r2, #4
 c0099f4:	e3510004 	cmp	r1, #4
 c0099f8:	82822003 	addhi	r2, r2, #3
 c0099fc:	908220a1 	addls	r2, r2, r1, lsr #1
 c009a00:	e35c0000 	cmp	ip, #0
 c009a04:	e1a00233 	lsr	r0, r3, r2
 c009a08:	42600000 	rsbmi	r0, r0, #0
 c009a0c:	e12fff1e 	bx	lr
 c009a10:	e3500000 	cmp	r0, #0
 c009a14:	c3e00102 	mvngt	r0, #-2147483648	; 0x80000000
 c009a18:	b3a00102 	movlt	r0, #-2147483648	; 0x80000000
 c009a1c:	ea000007 	b	c009a40 <__aeabi_idiv0>

0c009a20 <__aeabi_idivmod>:
 c009a20:	e3510000 	cmp	r1, #0
 c009a24:	0afffff9 	beq	c009a10 <.divsi3_skip_div0_test+0x110>
 c009a28:	e92d4003 	push	{r0, r1, lr}
 c009a2c:	ebffffb3 	bl	c009900 <.divsi3_skip_div0_test>
 c009a30:	e8bd4006 	pop	{r1, r2, lr}
 c009a34:	e0030092 	mul	r3, r2, r0
 c009a38:	e0411003 	sub	r1, r1, r3
 c009a3c:	e12fff1e 	bx	lr

0c009a40 <__aeabi_idiv0>:
 c009a40:	e12fff1e 	bx	lr

0c009a44 <__aeabi_drsub>:
 c009a44:	e2211102 	eor	r1, r1, #-2147483648	; 0x80000000
 c009a48:	ea000000 	b	c009a50 <__adddf3>

0c009a4c <__aeabi_dsub>:
 c009a4c:	e2233102 	eor	r3, r3, #-2147483648	; 0x80000000

0c009a50 <__adddf3>:
 c009a50:	e92d4030 	push	{r4, r5, lr}
 c009a54:	e1a04081 	lsl	r4, r1, #1
 c009a58:	e1a05083 	lsl	r5, r3, #1
 c009a5c:	e1340005 	teq	r4, r5
 c009a60:	01300002 	teqeq	r0, r2
 c009a64:	1194c000 	orrsne	ip, r4, r0
 c009a68:	1195c002 	orrsne	ip, r5, r2
 c009a6c:	11f0cac4 	mvnsne	ip, r4, asr #21
 c009a70:	11f0cac5 	mvnsne	ip, r5, asr #21
 c009a74:	0a00008c 	beq	c009cac <__adddf3+0x25c>
 c009a78:	e1a04aa4 	lsr	r4, r4, #21
 c009a7c:	e0745aa5 	rsbs	r5, r4, r5, lsr #21
 c009a80:	b2655000 	rsblt	r5, r5, #0
 c009a84:	da000006 	ble	c009aa4 <__adddf3+0x54>
 c009a88:	e0844005 	add	r4, r4, r5
 c009a8c:	e0202002 	eor	r2, r0, r2
 c009a90:	e0213003 	eor	r3, r1, r3
 c009a94:	e0220000 	eor	r0, r2, r0
 c009a98:	e0231001 	eor	r1, r3, r1
 c009a9c:	e0202002 	eor	r2, r0, r2
 c009aa0:	e0213003 	eor	r3, r1, r3
 c009aa4:	e3550036 	cmp	r5, #54	; 0x36
 c009aa8:	88bd4030 	pophi	{r4, r5, lr}
 c009aac:	812fff1e 	bxhi	lr
 c009ab0:	e3110102 	tst	r1, #-2147483648	; 0x80000000
 c009ab4:	e1a01601 	lsl	r1, r1, #12
 c009ab8:	e3a0c601 	mov	ip, #1048576	; 0x100000
 c009abc:	e18c1621 	orr	r1, ip, r1, lsr #12
 c009ac0:	0a000001 	beq	c009acc <__adddf3+0x7c>
 c009ac4:	e2700000 	rsbs	r0, r0, #0
 c009ac8:	e2e11000 	rsc	r1, r1, #0
 c009acc:	e3130102 	tst	r3, #-2147483648	; 0x80000000
 c009ad0:	e1a03603 	lsl	r3, r3, #12
 c009ad4:	e18c3623 	orr	r3, ip, r3, lsr #12
 c009ad8:	0a000001 	beq	c009ae4 <__adddf3+0x94>
 c009adc:	e2722000 	rsbs	r2, r2, #0
 c009ae0:	e2e33000 	rsc	r3, r3, #0
 c009ae4:	e1340005 	teq	r4, r5
 c009ae8:	0a000069 	beq	c009c94 <__adddf3+0x244>
 c009aec:	e2444001 	sub	r4, r4, #1
 c009af0:	e275e020 	rsbs	lr, r5, #32
 c009af4:	ba000005 	blt	c009b10 <__adddf3+0xc0>
 c009af8:	e1a0ce12 	lsl	ip, r2, lr
 c009afc:	e0900532 	adds	r0, r0, r2, lsr r5
 c009b00:	e2a11000 	adc	r1, r1, #0
 c009b04:	e0900e13 	adds	r0, r0, r3, lsl lr
 c009b08:	e0b11553 	adcs	r1, r1, r3, asr r5
 c009b0c:	ea000006 	b	c009b2c <__adddf3+0xdc>
 c009b10:	e2455020 	sub	r5, r5, #32
 c009b14:	e28ee020 	add	lr, lr, #32
 c009b18:	e3520001 	cmp	r2, #1
 c009b1c:	e1a0ce13 	lsl	ip, r3, lr
 c009b20:	238cc002 	orrcs	ip, ip, #2
 c009b24:	e0900553 	adds	r0, r0, r3, asr r5
 c009b28:	e0b11fc3 	adcs	r1, r1, r3, asr #31
 c009b2c:	e2015102 	and	r5, r1, #-2147483648	; 0x80000000
 c009b30:	5a000002 	bpl	c009b40 <__adddf3+0xf0>
 c009b34:	e27cc000 	rsbs	ip, ip, #0
 c009b38:	e2f00000 	rscs	r0, r0, #0
 c009b3c:	e2e11000 	rsc	r1, r1, #0
 c009b40:	e3510601 	cmp	r1, #1048576	; 0x100000
 c009b44:	3a00000f 	bcc	c009b88 <__adddf3+0x138>
 c009b48:	e3510602 	cmp	r1, #2097152	; 0x200000
 c009b4c:	3a000006 	bcc	c009b6c <__adddf3+0x11c>
 c009b50:	e1b010a1 	lsrs	r1, r1, #1
 c009b54:	e1b00060 	rrxs	r0, r0
 c009b58:	e1a0c06c 	rrx	ip, ip
 c009b5c:	e2844001 	add	r4, r4, #1
 c009b60:	e1a02a84 	lsl	r2, r4, #21
 c009b64:	e3720501 	cmn	r2, #4194304	; 0x400000
 c009b68:	2a00006b 	bcs	c009d1c <__adddf3+0x2cc>
 c009b6c:	e35c0102 	cmp	ip, #-2147483648	; 0x80000000
 c009b70:	01b0c0a0 	lsrseq	ip, r0, #1
 c009b74:	e2b00000 	adcs	r0, r0, #0
 c009b78:	e0a11a04 	adc	r1, r1, r4, lsl #20
 c009b7c:	e1811005 	orr	r1, r1, r5
 c009b80:	e8bd4030 	pop	{r4, r5, lr}
 c009b84:	e12fff1e 	bx	lr
 c009b88:	e1b0c08c 	lsls	ip, ip, #1
 c009b8c:	e0b00000 	adcs	r0, r0, r0
 c009b90:	e0a11001 	adc	r1, r1, r1
 c009b94:	e3110601 	tst	r1, #1048576	; 0x100000
 c009b98:	e2444001 	sub	r4, r4, #1
 c009b9c:	1afffff2 	bne	c009b6c <__adddf3+0x11c>
 c009ba0:	e3310000 	teq	r1, #0
 c009ba4:	13a03014 	movne	r3, #20
 c009ba8:	03a03034 	moveq	r3, #52	; 0x34
 c009bac:	01a01000 	moveq	r1, r0
 c009bb0:	03a00000 	moveq	r0, #0
 c009bb4:	e1a02001 	mov	r2, r1
 c009bb8:	e3520801 	cmp	r2, #65536	; 0x10000
 c009bbc:	21a02822 	lsrcs	r2, r2, #16
 c009bc0:	22433010 	subcs	r3, r3, #16
 c009bc4:	e3520c01 	cmp	r2, #256	; 0x100
 c009bc8:	21a02422 	lsrcs	r2, r2, #8
 c009bcc:	22433008 	subcs	r3, r3, #8
 c009bd0:	e3520010 	cmp	r2, #16
 c009bd4:	21a02222 	lsrcs	r2, r2, #4
 c009bd8:	22433004 	subcs	r3, r3, #4
 c009bdc:	e3520004 	cmp	r2, #4
 c009be0:	22433002 	subcs	r3, r3, #2
 c009be4:	304330a2 	subcc	r3, r3, r2, lsr #1
 c009be8:	e04331a2 	sub	r3, r3, r2, lsr #3
 c009bec:	e2532020 	subs	r2, r3, #32
 c009bf0:	aa000007 	bge	c009c14 <__adddf3+0x1c4>
 c009bf4:	e292200c 	adds	r2, r2, #12
 c009bf8:	da000004 	ble	c009c10 <__adddf3+0x1c0>
 c009bfc:	e282c014 	add	ip, r2, #20
 c009c00:	e262200c 	rsb	r2, r2, #12
 c009c04:	e1a00c11 	lsl	r0, r1, ip
 c009c08:	e1a01231 	lsr	r1, r1, r2
 c009c0c:	ea000004 	b	c009c24 <__adddf3+0x1d4>
 c009c10:	e2822014 	add	r2, r2, #20
 c009c14:	d262c020 	rsble	ip, r2, #32
 c009c18:	e1a01211 	lsl	r1, r1, r2
 c009c1c:	d1811c30 	orrle	r1, r1, r0, lsr ip
 c009c20:	d1a00210 	lslle	r0, r0, r2
 c009c24:	e0544003 	subs	r4, r4, r3
 c009c28:	a0811a04 	addge	r1, r1, r4, lsl #20
 c009c2c:	a1811005 	orrge	r1, r1, r5
 c009c30:	a8bd4030 	popge	{r4, r5, lr}
 c009c34:	a12fff1e 	bxge	lr
 c009c38:	e1e04004 	mvn	r4, r4
 c009c3c:	e254401f 	subs	r4, r4, #31
 c009c40:	aa00000f 	bge	c009c84 <__adddf3+0x234>
 c009c44:	e294400c 	adds	r4, r4, #12
 c009c48:	ca000006 	bgt	c009c68 <__adddf3+0x218>
 c009c4c:	e2844014 	add	r4, r4, #20
 c009c50:	e2642020 	rsb	r2, r4, #32
 c009c54:	e1a00430 	lsr	r0, r0, r4
 c009c58:	e1800211 	orr	r0, r0, r1, lsl r2
 c009c5c:	e1851431 	orr	r1, r5, r1, lsr r4
 c009c60:	e8bd4030 	pop	{r4, r5, lr}
 c009c64:	e12fff1e 	bx	lr
 c009c68:	e264400c 	rsb	r4, r4, #12
 c009c6c:	e2642020 	rsb	r2, r4, #32
 c009c70:	e1a00230 	lsr	r0, r0, r2
 c009c74:	e1800411 	orr	r0, r0, r1, lsl r4
 c009c78:	e1a01005 	mov	r1, r5
 c009c7c:	e8bd4030 	pop	{r4, r5, lr}
 c009c80:	e12fff1e 	bx	lr
 c009c84:	e1a00431 	lsr	r0, r1, r4
 c009c88:	e1a01005 	mov	r1, r5
 c009c8c:	e8bd4030 	pop	{r4, r5, lr}
 c009c90:	e12fff1e 	bx	lr
 c009c94:	e3340000 	teq	r4, #0
 c009c98:	e2233601 	eor	r3, r3, #1048576	; 0x100000
 c009c9c:	02211601 	eoreq	r1, r1, #1048576	; 0x100000
 c009ca0:	02844001 	addeq	r4, r4, #1
 c009ca4:	12455001 	subne	r5, r5, #1
 c009ca8:	eaffff8f 	b	c009aec <__adddf3+0x9c>
 c009cac:	e1f0cac4 	mvns	ip, r4, asr #21
 c009cb0:	11f0cac5 	mvnsne	ip, r5, asr #21
 c009cb4:	0a00001d 	beq	c009d30 <__adddf3+0x2e0>
 c009cb8:	e1340005 	teq	r4, r5
 c009cbc:	01300002 	teqeq	r0, r2
 c009cc0:	0a000004 	beq	c009cd8 <__adddf3+0x288>
 c009cc4:	e194c000 	orrs	ip, r4, r0
 c009cc8:	01a01003 	moveq	r1, r3
 c009ccc:	01a00002 	moveq	r0, r2
 c009cd0:	e8bd4030 	pop	{r4, r5, lr}
 c009cd4:	e12fff1e 	bx	lr
 c009cd8:	e1310003 	teq	r1, r3
 c009cdc:	13a01000 	movne	r1, #0
 c009ce0:	13a00000 	movne	r0, #0
 c009ce4:	18bd4030 	popne	{r4, r5, lr}
 c009ce8:	112fff1e 	bxne	lr
 c009cec:	e1b0caa4 	lsrs	ip, r4, #21
 c009cf0:	1a000004 	bne	c009d08 <__adddf3+0x2b8>
 c009cf4:	e1b00080 	lsls	r0, r0, #1
 c009cf8:	e0b11001 	adcs	r1, r1, r1
 c009cfc:	23811102 	orrcs	r1, r1, #-2147483648	; 0x80000000
 c009d00:	e8bd4030 	pop	{r4, r5, lr}
 c009d04:	e12fff1e 	bx	lr
 c009d08:	e2944501 	adds	r4, r4, #4194304	; 0x400000
 c009d0c:	32811601 	addcc	r1, r1, #1048576	; 0x100000
 c009d10:	38bd4030 	popcc	{r4, r5, lr}
 c009d14:	312fff1e 	bxcc	lr
 c009d18:	e2015102 	and	r5, r1, #-2147483648	; 0x80000000
 c009d1c:	e385147f 	orr	r1, r5, #2130706432	; 0x7f000000
 c009d20:	e381160f 	orr	r1, r1, #15728640	; 0xf00000
 c009d24:	e3a00000 	mov	r0, #0
 c009d28:	e8bd4030 	pop	{r4, r5, lr}
 c009d2c:	e12fff1e 	bx	lr
 c009d30:	e1f0cac4 	mvns	ip, r4, asr #21
 c009d34:	11a01003 	movne	r1, r3
 c009d38:	11a00002 	movne	r0, r2
 c009d3c:	01f0cac5 	mvnseq	ip, r5, asr #21
 c009d40:	11a03001 	movne	r3, r1
 c009d44:	11a02000 	movne	r2, r0
 c009d48:	e1904601 	orrs	r4, r0, r1, lsl #12
 c009d4c:	01925603 	orrseq	r5, r2, r3, lsl #12
 c009d50:	01310003 	teqeq	r1, r3
 c009d54:	13811702 	orrne	r1, r1, #524288	; 0x80000
 c009d58:	e8bd4030 	pop	{r4, r5, lr}
 c009d5c:	e12fff1e 	bx	lr

0c009d60 <__aeabi_ui2d>:
 c009d60:	e3300000 	teq	r0, #0
 c009d64:	03a01000 	moveq	r1, #0
 c009d68:	012fff1e 	bxeq	lr
 c009d6c:	e92d4030 	push	{r4, r5, lr}
 c009d70:	e3a04b01 	mov	r4, #1024	; 0x400
 c009d74:	e2844032 	add	r4, r4, #50	; 0x32
 c009d78:	e3a05000 	mov	r5, #0
 c009d7c:	e3a01000 	mov	r1, #0
 c009d80:	eaffff86 	b	c009ba0 <__adddf3+0x150>

0c009d84 <__aeabi_i2d>:
 c009d84:	e3300000 	teq	r0, #0
 c009d88:	03a01000 	moveq	r1, #0
 c009d8c:	012fff1e 	bxeq	lr
 c009d90:	e92d4030 	push	{r4, r5, lr}
 c009d94:	e3a04b01 	mov	r4, #1024	; 0x400
 c009d98:	e2844032 	add	r4, r4, #50	; 0x32
 c009d9c:	e2105102 	ands	r5, r0, #-2147483648	; 0x80000000
 c009da0:	42600000 	rsbmi	r0, r0, #0
 c009da4:	e3a01000 	mov	r1, #0
 c009da8:	eaffff7c 	b	c009ba0 <__adddf3+0x150>

0c009dac <__aeabi_f2d>:
 c009dac:	e1b02080 	lsls	r2, r0, #1
 c009db0:	e1a011c2 	asr	r1, r2, #3
 c009db4:	e1a01061 	rrx	r1, r1
 c009db8:	e1a00e02 	lsl	r0, r2, #28
 c009dbc:	121234ff 	andsne	r3, r2, #-16777216	; 0xff000000
 c009dc0:	133304ff 	teqne	r3, #-16777216	; 0xff000000
 c009dc4:	1221130e 	eorne	r1, r1, #939524096	; 0x38000000
 c009dc8:	112fff1e 	bxne	lr
 c009dcc:	e3320000 	teq	r2, #0
 c009dd0:	133304ff 	teqne	r3, #-16777216	; 0xff000000
 c009dd4:	012fff1e 	bxeq	lr
 c009dd8:	e92d4030 	push	{r4, r5, lr}
 c009ddc:	e3a04d0e 	mov	r4, #896	; 0x380
 c009de0:	e2015102 	and	r5, r1, #-2147483648	; 0x80000000
 c009de4:	e3c11102 	bic	r1, r1, #-2147483648	; 0x80000000
 c009de8:	eaffff6c 	b	c009ba0 <__adddf3+0x150>

0c009dec <__aeabi_ul2d>:
 c009dec:	e1902001 	orrs	r2, r0, r1
 c009df0:	012fff1e 	bxeq	lr
 c009df4:	e92d4030 	push	{r4, r5, lr}
 c009df8:	e3a05000 	mov	r5, #0
 c009dfc:	ea000006 	b	c009e1c <__aeabi_l2d+0x1c>

0c009e00 <__aeabi_l2d>:
 c009e00:	e1902001 	orrs	r2, r0, r1
 c009e04:	012fff1e 	bxeq	lr
 c009e08:	e92d4030 	push	{r4, r5, lr}
 c009e0c:	e2115102 	ands	r5, r1, #-2147483648	; 0x80000000
 c009e10:	5a000001 	bpl	c009e1c <__aeabi_l2d+0x1c>
 c009e14:	e2700000 	rsbs	r0, r0, #0
 c009e18:	e2e11000 	rsc	r1, r1, #0
 c009e1c:	e3a04b01 	mov	r4, #1024	; 0x400
 c009e20:	e2844032 	add	r4, r4, #50	; 0x32
 c009e24:	e1b0cb21 	lsrs	ip, r1, #22
 c009e28:	0affff44 	beq	c009b40 <__adddf3+0xf0>
 c009e2c:	e3a02003 	mov	r2, #3
 c009e30:	e1b0c1ac 	lsrs	ip, ip, #3
 c009e34:	12822003 	addne	r2, r2, #3
 c009e38:	e1b0c1ac 	lsrs	ip, ip, #3
 c009e3c:	12822003 	addne	r2, r2, #3
 c009e40:	e08221ac 	add	r2, r2, ip, lsr #3
 c009e44:	e2623020 	rsb	r3, r2, #32
 c009e48:	e1a0c310 	lsl	ip, r0, r3
 c009e4c:	e1a00230 	lsr	r0, r0, r2
 c009e50:	e1800311 	orr	r0, r0, r1, lsl r3
 c009e54:	e1a01231 	lsr	r1, r1, r2
 c009e58:	e0844002 	add	r4, r4, r2
 c009e5c:	eaffff37 	b	c009b40 <__adddf3+0xf0>

0c009e60 <__aeabi_dmul>:
 c009e60:	e92d4070 	push	{r4, r5, r6, lr}
 c009e64:	e3a0c0ff 	mov	ip, #255	; 0xff
 c009e68:	e38ccc07 	orr	ip, ip, #1792	; 0x700
 c009e6c:	e01c4a21 	ands	r4, ip, r1, lsr #20
 c009e70:	101c5a23 	andsne	r5, ip, r3, lsr #20
 c009e74:	1134000c 	teqne	r4, ip
 c009e78:	1135000c 	teqne	r5, ip
 c009e7c:	0b000075 	bleq	c00a058 <__aeabi_dmul+0x1f8>
 c009e80:	e0844005 	add	r4, r4, r5
 c009e84:	e0216003 	eor	r6, r1, r3
 c009e88:	e1c11a8c 	bic	r1, r1, ip, lsl #21
 c009e8c:	e1c33a8c 	bic	r3, r3, ip, lsl #21
 c009e90:	e1905601 	orrs	r5, r0, r1, lsl #12
 c009e94:	11925603 	orrsne	r5, r2, r3, lsl #12
 c009e98:	e3811601 	orr	r1, r1, #1048576	; 0x100000
 c009e9c:	e3833601 	orr	r3, r3, #1048576	; 0x100000
 c009ea0:	0a00001d 	beq	c009f1c <__aeabi_dmul+0xbc>
 c009ea4:	e08ec290 	umull	ip, lr, r0, r2
 c009ea8:	e3a05000 	mov	r5, #0
 c009eac:	e0a5e291 	umlal	lr, r5, r1, r2
 c009eb0:	e2062102 	and	r2, r6, #-2147483648	; 0x80000000
 c009eb4:	e0a5e390 	umlal	lr, r5, r0, r3
 c009eb8:	e3a06000 	mov	r6, #0
 c009ebc:	e0a65391 	umlal	r5, r6, r1, r3
 c009ec0:	e33c0000 	teq	ip, #0
 c009ec4:	138ee001 	orrne	lr, lr, #1
 c009ec8:	e24440ff 	sub	r4, r4, #255	; 0xff
 c009ecc:	e3560c02 	cmp	r6, #512	; 0x200
 c009ed0:	e2c44c03 	sbc	r4, r4, #768	; 0x300
 c009ed4:	2a000002 	bcs	c009ee4 <__aeabi_dmul+0x84>
 c009ed8:	e1b0e08e 	lsls	lr, lr, #1
 c009edc:	e0b55005 	adcs	r5, r5, r5
 c009ee0:	e0a66006 	adc	r6, r6, r6
 c009ee4:	e1821586 	orr	r1, r2, r6, lsl #11
 c009ee8:	e1811aa5 	orr	r1, r1, r5, lsr #21
 c009eec:	e1a00585 	lsl	r0, r5, #11
 c009ef0:	e1800aae 	orr	r0, r0, lr, lsr #21
 c009ef4:	e1a0e58e 	lsl	lr, lr, #11
 c009ef8:	e254c0fd 	subs	ip, r4, #253	; 0xfd
 c009efc:	835c0c07 	cmphi	ip, #1792	; 0x700
 c009f00:	8a000011 	bhi	c009f4c <__aeabi_dmul+0xec>
 c009f04:	e35e0102 	cmp	lr, #-2147483648	; 0x80000000
 c009f08:	01b0e0a0 	lsrseq	lr, r0, #1
 c009f0c:	e2b00000 	adcs	r0, r0, #0
 c009f10:	e0a11a04 	adc	r1, r1, r4, lsl #20
 c009f14:	e8bd4070 	pop	{r4, r5, r6, lr}
 c009f18:	e12fff1e 	bx	lr
 c009f1c:	e2066102 	and	r6, r6, #-2147483648	; 0x80000000
 c009f20:	e1861001 	orr	r1, r6, r1
 c009f24:	e1800002 	orr	r0, r0, r2
 c009f28:	e0211003 	eor	r1, r1, r3
 c009f2c:	e05440ac 	subs	r4, r4, ip, lsr #1
 c009f30:	c074500c 	rsbsgt	r5, r4, ip
 c009f34:	c1811a04 	orrgt	r1, r1, r4, lsl #20
 c009f38:	c8bd4070 	popgt	{r4, r5, r6, lr}
 c009f3c:	c12fff1e 	bxgt	lr
 c009f40:	e3811601 	orr	r1, r1, #1048576	; 0x100000
 c009f44:	e3a0e000 	mov	lr, #0
 c009f48:	e2544001 	subs	r4, r4, #1
 c009f4c:	ca00005d 	bgt	c00a0c8 <__aeabi_dmul+0x268>
 c009f50:	e3740036 	cmn	r4, #54	; 0x36
 c009f54:	d3a00000 	movle	r0, #0
 c009f58:	d2011102 	andle	r1, r1, #-2147483648	; 0x80000000
 c009f5c:	d8bd4070 	pople	{r4, r5, r6, lr}
 c009f60:	d12fff1e 	bxle	lr
 c009f64:	e2644000 	rsb	r4, r4, #0
 c009f68:	e2544020 	subs	r4, r4, #32
 c009f6c:	aa00001a 	bge	c009fdc <__aeabi_dmul+0x17c>
 c009f70:	e294400c 	adds	r4, r4, #12
 c009f74:	ca00000c 	bgt	c009fac <__aeabi_dmul+0x14c>
 c009f78:	e2844014 	add	r4, r4, #20
 c009f7c:	e2645020 	rsb	r5, r4, #32
 c009f80:	e1a03510 	lsl	r3, r0, r5
 c009f84:	e1a00430 	lsr	r0, r0, r4
 c009f88:	e1800511 	orr	r0, r0, r1, lsl r5
 c009f8c:	e2012102 	and	r2, r1, #-2147483648	; 0x80000000
 c009f90:	e3c11102 	bic	r1, r1, #-2147483648	; 0x80000000
 c009f94:	e0900fa3 	adds	r0, r0, r3, lsr #31
 c009f98:	e0a21431 	adc	r1, r2, r1, lsr r4
 c009f9c:	e19ee083 	orrs	lr, lr, r3, lsl #1
 c009fa0:	01c00fa3 	biceq	r0, r0, r3, lsr #31
 c009fa4:	e8bd4070 	pop	{r4, r5, r6, lr}
 c009fa8:	e12fff1e 	bx	lr
 c009fac:	e264400c 	rsb	r4, r4, #12
 c009fb0:	e2645020 	rsb	r5, r4, #32
 c009fb4:	e1a03410 	lsl	r3, r0, r4
 c009fb8:	e1a00530 	lsr	r0, r0, r5
 c009fbc:	e1800411 	orr	r0, r0, r1, lsl r4
 c009fc0:	e2011102 	and	r1, r1, #-2147483648	; 0x80000000
 c009fc4:	e0900fa3 	adds	r0, r0, r3, lsr #31
 c009fc8:	e2a11000 	adc	r1, r1, #0
 c009fcc:	e19ee083 	orrs	lr, lr, r3, lsl #1
 c009fd0:	01c00fa3 	biceq	r0, r0, r3, lsr #31
 c009fd4:	e8bd4070 	pop	{r4, r5, r6, lr}
 c009fd8:	e12fff1e 	bx	lr
 c009fdc:	e2645020 	rsb	r5, r4, #32
 c009fe0:	e18ee510 	orr	lr, lr, r0, lsl r5
 c009fe4:	e1a03430 	lsr	r3, r0, r4
 c009fe8:	e1833511 	orr	r3, r3, r1, lsl r5
 c009fec:	e1a00431 	lsr	r0, r1, r4
 c009ff0:	e2011102 	and	r1, r1, #-2147483648	; 0x80000000
 c009ff4:	e1c00431 	bic	r0, r0, r1, lsr r4
 c009ff8:	e0800fa3 	add	r0, r0, r3, lsr #31
 c009ffc:	e19ee083 	orrs	lr, lr, r3, lsl #1
 c00a000:	01c00fa3 	biceq	r0, r0, r3, lsr #31
 c00a004:	e8bd4070 	pop	{r4, r5, r6, lr}
 c00a008:	e12fff1e 	bx	lr
 c00a00c:	e3340000 	teq	r4, #0
 c00a010:	1a000008 	bne	c00a038 <__aeabi_dmul+0x1d8>
 c00a014:	e2016102 	and	r6, r1, #-2147483648	; 0x80000000
 c00a018:	e1b00080 	lsls	r0, r0, #1
 c00a01c:	e0a11001 	adc	r1, r1, r1
 c00a020:	e3110601 	tst	r1, #1048576	; 0x100000
 c00a024:	02444001 	subeq	r4, r4, #1
 c00a028:	0afffffa 	beq	c00a018 <__aeabi_dmul+0x1b8>
 c00a02c:	e1811006 	orr	r1, r1, r6
 c00a030:	e3350000 	teq	r5, #0
 c00a034:	112fff1e 	bxne	lr
 c00a038:	e2036102 	and	r6, r3, #-2147483648	; 0x80000000
 c00a03c:	e1b02082 	lsls	r2, r2, #1
 c00a040:	e0a33003 	adc	r3, r3, r3
 c00a044:	e3130601 	tst	r3, #1048576	; 0x100000
 c00a048:	02455001 	subeq	r5, r5, #1
 c00a04c:	0afffffa 	beq	c00a03c <__aeabi_dmul+0x1dc>
 c00a050:	e1833006 	orr	r3, r3, r6
 c00a054:	e12fff1e 	bx	lr
 c00a058:	e134000c 	teq	r4, ip
 c00a05c:	e00c5a23 	and	r5, ip, r3, lsr #20
 c00a060:	1135000c 	teqne	r5, ip
 c00a064:	0a000007 	beq	c00a088 <__aeabi_dmul+0x228>
 c00a068:	e1906081 	orrs	r6, r0, r1, lsl #1
 c00a06c:	11926083 	orrsne	r6, r2, r3, lsl #1
 c00a070:	1affffe5 	bne	c00a00c <__aeabi_dmul+0x1ac>
 c00a074:	e0211003 	eor	r1, r1, r3
 c00a078:	e2011102 	and	r1, r1, #-2147483648	; 0x80000000
 c00a07c:	e3a00000 	mov	r0, #0
 c00a080:	e8bd4070 	pop	{r4, r5, r6, lr}
 c00a084:	e12fff1e 	bx	lr
 c00a088:	e1906081 	orrs	r6, r0, r1, lsl #1
 c00a08c:	01a00002 	moveq	r0, r2
 c00a090:	01a01003 	moveq	r1, r3
 c00a094:	11926083 	orrsne	r6, r2, r3, lsl #1
 c00a098:	0a000010 	beq	c00a0e0 <__aeabi_dmul+0x280>
 c00a09c:	e134000c 	teq	r4, ip
 c00a0a0:	1a000001 	bne	c00a0ac <__aeabi_dmul+0x24c>
 c00a0a4:	e1906601 	orrs	r6, r0, r1, lsl #12
 c00a0a8:	1a00000c 	bne	c00a0e0 <__aeabi_dmul+0x280>
 c00a0ac:	e135000c 	teq	r5, ip
 c00a0b0:	1a000003 	bne	c00a0c4 <__aeabi_dmul+0x264>
 c00a0b4:	e1926603 	orrs	r6, r2, r3, lsl #12
 c00a0b8:	11a00002 	movne	r0, r2
 c00a0bc:	11a01003 	movne	r1, r3
 c00a0c0:	1a000006 	bne	c00a0e0 <__aeabi_dmul+0x280>
 c00a0c4:	e0211003 	eor	r1, r1, r3
 c00a0c8:	e2011102 	and	r1, r1, #-2147483648	; 0x80000000
 c00a0cc:	e381147f 	orr	r1, r1, #2130706432	; 0x7f000000
 c00a0d0:	e381160f 	orr	r1, r1, #15728640	; 0xf00000
 c00a0d4:	e3a00000 	mov	r0, #0
 c00a0d8:	e8bd4070 	pop	{r4, r5, r6, lr}
 c00a0dc:	e12fff1e 	bx	lr
 c00a0e0:	e381147f 	orr	r1, r1, #2130706432	; 0x7f000000
 c00a0e4:	e381173e 	orr	r1, r1, #16252928	; 0xf80000
 c00a0e8:	e8bd4070 	pop	{r4, r5, r6, lr}
 c00a0ec:	e12fff1e 	bx	lr

0c00a0f0 <__aeabi_ddiv>:
 c00a0f0:	e92d4070 	push	{r4, r5, r6, lr}
 c00a0f4:	e3a0c0ff 	mov	ip, #255	; 0xff
 c00a0f8:	e38ccc07 	orr	ip, ip, #1792	; 0x700
 c00a0fc:	e01c4a21 	ands	r4, ip, r1, lsr #20
 c00a100:	101c5a23 	andsne	r5, ip, r3, lsr #20
 c00a104:	1134000c 	teqne	r4, ip
 c00a108:	1135000c 	teqne	r5, ip
 c00a10c:	0b00005e 	bleq	c00a28c <__aeabi_ddiv+0x19c>
 c00a110:	e0444005 	sub	r4, r4, r5
 c00a114:	e021e003 	eor	lr, r1, r3
 c00a118:	e1925603 	orrs	r5, r2, r3, lsl #12
 c00a11c:	e1a01601 	lsl	r1, r1, #12
 c00a120:	0a00004c 	beq	c00a258 <__aeabi_ddiv+0x168>
 c00a124:	e1a03603 	lsl	r3, r3, #12
 c00a128:	e3a05201 	mov	r5, #268435456	; 0x10000000
 c00a12c:	e1853223 	orr	r3, r5, r3, lsr #4
 c00a130:	e1833c22 	orr	r3, r3, r2, lsr #24
 c00a134:	e1a02402 	lsl	r2, r2, #8
 c00a138:	e1855221 	orr	r5, r5, r1, lsr #4
 c00a13c:	e1855c20 	orr	r5, r5, r0, lsr #24
 c00a140:	e1a06400 	lsl	r6, r0, #8
 c00a144:	e20e1102 	and	r1, lr, #-2147483648	; 0x80000000
 c00a148:	e1550003 	cmp	r5, r3
 c00a14c:	01560002 	cmpeq	r6, r2
 c00a150:	e2a440fd 	adc	r4, r4, #253	; 0xfd
 c00a154:	e2844c03 	add	r4, r4, #768	; 0x300
 c00a158:	2a000001 	bcs	c00a164 <__aeabi_ddiv+0x74>
 c00a15c:	e1b030a3 	lsrs	r3, r3, #1
 c00a160:	e1a02062 	rrx	r2, r2
 c00a164:	e0566002 	subs	r6, r6, r2
 c00a168:	e0c55003 	sbc	r5, r5, r3
 c00a16c:	e1b030a3 	lsrs	r3, r3, #1
 c00a170:	e1a02062 	rrx	r2, r2
 c00a174:	e3a00601 	mov	r0, #1048576	; 0x100000
 c00a178:	e3a0c702 	mov	ip, #524288	; 0x80000
 c00a17c:	e056e002 	subs	lr, r6, r2
 c00a180:	e0d5e003 	sbcs	lr, r5, r3
 c00a184:	20466002 	subcs	r6, r6, r2
 c00a188:	21a0500e 	movcs	r5, lr
 c00a18c:	2180000c 	orrcs	r0, r0, ip
 c00a190:	e1b030a3 	lsrs	r3, r3, #1
 c00a194:	e1a02062 	rrx	r2, r2
 c00a198:	e056e002 	subs	lr, r6, r2
 c00a19c:	e0d5e003 	sbcs	lr, r5, r3
 c00a1a0:	20466002 	subcs	r6, r6, r2
 c00a1a4:	21a0500e 	movcs	r5, lr
 c00a1a8:	218000ac 	orrcs	r0, r0, ip, lsr #1
 c00a1ac:	e1b030a3 	lsrs	r3, r3, #1
 c00a1b0:	e1a02062 	rrx	r2, r2
 c00a1b4:	e056e002 	subs	lr, r6, r2
 c00a1b8:	e0d5e003 	sbcs	lr, r5, r3
 c00a1bc:	20466002 	subcs	r6, r6, r2
 c00a1c0:	21a0500e 	movcs	r5, lr
 c00a1c4:	2180012c 	orrcs	r0, r0, ip, lsr #2
 c00a1c8:	e1b030a3 	lsrs	r3, r3, #1
 c00a1cc:	e1a02062 	rrx	r2, r2
 c00a1d0:	e056e002 	subs	lr, r6, r2
 c00a1d4:	e0d5e003 	sbcs	lr, r5, r3
 c00a1d8:	20466002 	subcs	r6, r6, r2
 c00a1dc:	21a0500e 	movcs	r5, lr
 c00a1e0:	218001ac 	orrcs	r0, r0, ip, lsr #3
 c00a1e4:	e195e006 	orrs	lr, r5, r6
 c00a1e8:	0a00000d 	beq	c00a224 <__aeabi_ddiv+0x134>
 c00a1ec:	e1a05205 	lsl	r5, r5, #4
 c00a1f0:	e1855e26 	orr	r5, r5, r6, lsr #28
 c00a1f4:	e1a06206 	lsl	r6, r6, #4
 c00a1f8:	e1a03183 	lsl	r3, r3, #3
 c00a1fc:	e1833ea2 	orr	r3, r3, r2, lsr #29
 c00a200:	e1a02182 	lsl	r2, r2, #3
 c00a204:	e1b0c22c 	lsrs	ip, ip, #4
 c00a208:	1affffdb 	bne	c00a17c <__aeabi_ddiv+0x8c>
 c00a20c:	e3110601 	tst	r1, #1048576	; 0x100000
 c00a210:	1a000006 	bne	c00a230 <__aeabi_ddiv+0x140>
 c00a214:	e1811000 	orr	r1, r1, r0
 c00a218:	e3a00000 	mov	r0, #0
 c00a21c:	e3a0c102 	mov	ip, #-2147483648	; 0x80000000
 c00a220:	eaffffd5 	b	c00a17c <__aeabi_ddiv+0x8c>
 c00a224:	e3110601 	tst	r1, #1048576	; 0x100000
 c00a228:	01811000 	orreq	r1, r1, r0
 c00a22c:	03a00000 	moveq	r0, #0
 c00a230:	e254c0fd 	subs	ip, r4, #253	; 0xfd
 c00a234:	835c0c07 	cmphi	ip, #1792	; 0x700
 c00a238:	8affff43 	bhi	c009f4c <__aeabi_dmul+0xec>
 c00a23c:	e055c003 	subs	ip, r5, r3
 c00a240:	0056c002 	subseq	ip, r6, r2
 c00a244:	01b0c0a0 	lsrseq	ip, r0, #1
 c00a248:	e2b00000 	adcs	r0, r0, #0
 c00a24c:	e0a11a04 	adc	r1, r1, r4, lsl #20
 c00a250:	e8bd4070 	pop	{r4, r5, r6, lr}
 c00a254:	e12fff1e 	bx	lr
 c00a258:	e20ee102 	and	lr, lr, #-2147483648	; 0x80000000
 c00a25c:	e18e1621 	orr	r1, lr, r1, lsr #12
 c00a260:	e09440ac 	adds	r4, r4, ip, lsr #1
 c00a264:	c074500c 	rsbsgt	r5, r4, ip
 c00a268:	c1811a04 	orrgt	r1, r1, r4, lsl #20
 c00a26c:	c8bd4070 	popgt	{r4, r5, r6, lr}
 c00a270:	c12fff1e 	bxgt	lr
 c00a274:	e3811601 	orr	r1, r1, #1048576	; 0x100000
 c00a278:	e3a0e000 	mov	lr, #0
 c00a27c:	e2544001 	subs	r4, r4, #1
 c00a280:	eaffff31 	b	c009f4c <__aeabi_dmul+0xec>
 c00a284:	e185e006 	orr	lr, r5, r6
 c00a288:	eaffff2f 	b	c009f4c <__aeabi_dmul+0xec>
 c00a28c:	e00c5a23 	and	r5, ip, r3, lsr #20
 c00a290:	e134000c 	teq	r4, ip
 c00a294:	0135000c 	teqeq	r5, ip
 c00a298:	0affff90 	beq	c00a0e0 <__aeabi_dmul+0x280>
 c00a29c:	e134000c 	teq	r4, ip
 c00a2a0:	1a000006 	bne	c00a2c0 <__aeabi_ddiv+0x1d0>
 c00a2a4:	e1904601 	orrs	r4, r0, r1, lsl #12
 c00a2a8:	1affff8c 	bne	c00a0e0 <__aeabi_dmul+0x280>
 c00a2ac:	e135000c 	teq	r5, ip
 c00a2b0:	1affff83 	bne	c00a0c4 <__aeabi_dmul+0x264>
 c00a2b4:	e1a00002 	mov	r0, r2
 c00a2b8:	e1a01003 	mov	r1, r3
 c00a2bc:	eaffff87 	b	c00a0e0 <__aeabi_dmul+0x280>
 c00a2c0:	e135000c 	teq	r5, ip
 c00a2c4:	1a000004 	bne	c00a2dc <__aeabi_ddiv+0x1ec>
 c00a2c8:	e1925603 	orrs	r5, r2, r3, lsl #12
 c00a2cc:	0affff68 	beq	c00a074 <__aeabi_dmul+0x214>
 c00a2d0:	e1a00002 	mov	r0, r2
 c00a2d4:	e1a01003 	mov	r1, r3
 c00a2d8:	eaffff80 	b	c00a0e0 <__aeabi_dmul+0x280>
 c00a2dc:	e1906081 	orrs	r6, r0, r1, lsl #1
 c00a2e0:	11926083 	orrsne	r6, r2, r3, lsl #1
 c00a2e4:	1affff48 	bne	c00a00c <__aeabi_dmul+0x1ac>
 c00a2e8:	e1904081 	orrs	r4, r0, r1, lsl #1
 c00a2ec:	1affff74 	bne	c00a0c4 <__aeabi_dmul+0x264>
 c00a2f0:	e1925083 	orrs	r5, r2, r3, lsl #1
 c00a2f4:	1affff5e 	bne	c00a074 <__aeabi_dmul+0x214>
 c00a2f8:	eaffff78 	b	c00a0e0 <__aeabi_dmul+0x280>

0c00a2fc <__aeabi_d2iz>:
 c00a2fc:	e1a02081 	lsl	r2, r1, #1
 c00a300:	e2922602 	adds	r2, r2, #2097152	; 0x200000
 c00a304:	2a00000c 	bcs	c00a33c <__aeabi_d2iz+0x40>
 c00a308:	5a000009 	bpl	c00a334 <__aeabi_d2iz+0x38>
 c00a30c:	e3e03e3e 	mvn	r3, #992	; 0x3e0
 c00a310:	e0532ac2 	subs	r2, r3, r2, asr #21
 c00a314:	9a00000a 	bls	c00a344 <__aeabi_d2iz+0x48>
 c00a318:	e1a03581 	lsl	r3, r1, #11
 c00a31c:	e3833102 	orr	r3, r3, #-2147483648	; 0x80000000
 c00a320:	e1833aa0 	orr	r3, r3, r0, lsr #21
 c00a324:	e3110102 	tst	r1, #-2147483648	; 0x80000000
 c00a328:	e1a00233 	lsr	r0, r3, r2
 c00a32c:	12600000 	rsbne	r0, r0, #0
 c00a330:	e12fff1e 	bx	lr
 c00a334:	e3a00000 	mov	r0, #0
 c00a338:	e12fff1e 	bx	lr
 c00a33c:	e1900601 	orrs	r0, r0, r1, lsl #12
 c00a340:	1a000002 	bne	c00a350 <__aeabi_d2iz+0x54>
 c00a344:	e2110102 	ands	r0, r1, #-2147483648	; 0x80000000
 c00a348:	03e00102 	mvneq	r0, #-2147483648	; 0x80000000
 c00a34c:	e12fff1e 	bx	lr
 c00a350:	e3a00000 	mov	r0, #0
 c00a354:	e12fff1e 	bx	lr

0c00a358 <strlen>:
 c00a358:	e3c01003 	bic	r1, r0, #3
 c00a35c:	e2100003 	ands	r0, r0, #3
 c00a360:	e2600000 	rsb	r0, r0, #0
 c00a364:	e4913004 	ldr	r3, [r1], #4
 c00a368:	e280c004 	add	ip, r0, #4
 c00a36c:	e1a0c18c 	lsl	ip, ip, #3
 c00a370:	e3e02000 	mvn	r2, #0
 c00a374:	11833c32 	orrne	r3, r3, r2, lsr ip
 c00a378:	e3a0c001 	mov	ip, #1
 c00a37c:	e18cc40c 	orr	ip, ip, ip, lsl #8
 c00a380:	e18cc80c 	orr	ip, ip, ip, lsl #16
 c00a384:	e043200c 	sub	r2, r3, ip
 c00a388:	e1c22003 	bic	r2, r2, r3
 c00a38c:	e012238c 	ands	r2, r2, ip, lsl #7
 c00a390:	04913004 	ldreq	r3, [r1], #4
 c00a394:	02800004 	addeq	r0, r0, #4
 c00a398:	0afffff9 	beq	c00a384 <strlen+0x2c>
 c00a39c:	e31300ff 	tst	r3, #255	; 0xff
 c00a3a0:	12800001 	addne	r0, r0, #1
 c00a3a4:	13130cff 	tstne	r3, #65280	; 0xff00
 c00a3a8:	12800001 	addne	r0, r0, #1
 c00a3ac:	131308ff 	tstne	r3, #16711680	; 0xff0000
 c00a3b0:	12800001 	addne	r0, r0, #1
 c00a3b4:	e12fff1e 	bx	lr
